EXPORTS
??0?$QVector@VQPoint@@@@QEAA@AEBV0@@Z
??0?$QVector@VQPoint@@@@QEAA@H@Z
??0?$QVector@VQPoint@@@@QEAA@HAEBVQPoint@@@Z
??0?$QVector@VQPoint@@@@QEAA@XZ
??0?$QVector@VQPointF@@@@QEAA@AEBV0@@Z
??0?$QVector@VQPointF@@@@QEAA@H@Z
??0?$QVector@VQPointF@@@@QEAA@HAEBVQPointF@@@Z
??0?$QVector@VQPointF@@@@QEAA@XZ
??0?$QVector@VQXmlStreamAttribute@@@@QEAA@AEBV0@@Z
??0?$QVector@VQXmlStreamAttribute@@@@QEAA@H@Z
??0?$QVector@VQXmlStreamAttribute@@@@QEAA@HAEBVQXmlStreamAttribute@@@Z
??0?$QVector@VQXmlStreamAttribute@@@@QEAA@XZ
??0BlockSizeManager@QtConcurrent@@QEAA@AEBV01@@Z
??0BlockSizeManager@QtConcurrent@@QEAA@H@Z
??0ConverterState@QTextCodec@@QEAA@V?$QFlags@W4ConversionFlag@QTextCodec@@@@@Z
??0Exception@QtConcurrent@@QEAA@AEBV01@@Z
??0Exception@QtConcurrent@@QEAA@XZ
??0ExceptionStore@internal@QtConcurrent@@QEAA@AEBV012@@Z
??0ExceptionStore@internal@QtConcurrent@@QEAA@XZ
??0QAbstractAnimation@@IEAA@AEAVQAbstractAnimationPrivate@@PEAVQObject@@@Z
??0QAbstractAnimation@@QEAA@PEAVQObject@@@Z
??0QAbstractDynamicMetaObject@@QEAA@AEBU0@@Z
??0QAbstractDynamicMetaObject@@QEAA@XZ
??0QAbstractEventDispatcher@@IEAA@AEAVQAbstractEventDispatcherPrivate@@PEAVQObject@@@Z
??0QAbstractEventDispatcher@@QEAA@PEAVQObject@@@Z
??0QAbstractEventDispatcherPrivate@@QEAA@AEBV0@@Z
??0QAbstractEventDispatcherPrivate@@QEAA@XZ
??0QAbstractFileEngine@@IEAA@AEAVQAbstractFileEnginePrivate@@@Z
??0QAbstractFileEngine@@IEAA@XZ
??0QAbstractFileEngineHandler@@QEAA@AEBV0@@Z
??0QAbstractFileEngineHandler@@QEAA@XZ
??0QAbstractFileEngineIterator@@QEAA@V?$QFlags@W4Filter@QDir@@@@AEBVQStringList@@@Z
??0QAbstractItemModel@@IEAA@AEAVQAbstractItemModelPrivate@@PEAVQObject@@@Z
??0QAbstractItemModel@@QEAA@PEAVQObject@@@Z
??0QAbstractItemModelPrivate@@QEAA@AEBV0@@Z
??0QAbstractItemModelPrivate@@QEAA@XZ
??0QAbstractListModel@@IEAA@AEAVQAbstractItemModelPrivate@@PEAVQObject@@@Z
??0QAbstractListModel@@QEAA@PEAVQObject@@@Z
??0QAbstractState@@IEAA@AEAVQAbstractStatePrivate@@PEAVQState@@@Z
??0QAbstractState@@IEAA@PEAVQState@@@Z
??0QAbstractTableModel@@IEAA@AEAVQAbstractItemModelPrivate@@PEAVQObject@@@Z
??0QAbstractTableModel@@QEAA@PEAVQObject@@@Z
??0QAbstractTransition@@IEAA@AEAVQAbstractTransitionPrivate@@PEAVQState@@@Z
??0QAbstractTransition@@QEAA@PEAVQState@@@Z
??0QAbstractTransitionPrivate@@QEAA@AEBV0@@Z
??0QAbstractTransitionPrivate@@QEAA@XZ
??0QAnimationDriver@@IEAA@AEAVQAnimationDriverPrivate@@PEAVQObject@@@Z
??0QAnimationDriver@@QEAA@PEAVQObject@@@Z
??0QAnimationDriverPrivate@@QEAA@AEBV0@@Z
??0QAnimationDriverPrivate@@QEAA@XZ
??0QAnimationGroup@@IEAA@AEAVQAnimationGroupPrivate@@PEAVQObject@@@Z
??0QAnimationGroup@@QEAA@PEAVQObject@@@Z
??0QAtomicInt@@QEAA@AEBV0@@Z
??0QAtomicInt@@QEAA@H@Z
??0QBasicTimer@@QEAA@XZ
??0QBitArray@@QEAA@AEBV0@@Z
??0QBitArray@@QEAA@H_N@Z
??0QBitArray@@QEAA@XZ
??0QBitRef@@AEAA@AEAVQBitArray@@H@Z
??0QBuffer@@QEAA@PEAVQByteArray@@PEAVQObject@@@Z
??0QBuffer@@QEAA@PEAVQObject@@@Z
??0QByteArray@@AEAA@PEAUData@0@HH@Z
??0QByteArray@@QEAA@AEBV0@@Z
??0QByteArray@@QEAA@HD@Z
??0QByteArray@@QEAA@HW4Initialization@Qt@@@Z
??0QByteArray@@QEAA@PEBD@Z
??0QByteArray@@QEAA@PEBDH@Z
??0QByteArray@@QEAA@XZ
??0QByteArrayMatcher@@QEAA@AEBV0@@Z
??0QByteArrayMatcher@@QEAA@AEBVQByteArray@@@Z
??0QByteArrayMatcher@@QEAA@PEBDH@Z
??0QByteArrayMatcher@@QEAA@XZ
??0QByteRef@@AEAA@AEAVQByteArray@@H@Z
??0QChar@@QEAA@D@Z
??0QChar@@QEAA@E@Z
??0QChar@@QEAA@EE@Z
??0QChar@@QEAA@F@Z
??0QChar@@QEAA@G@Z
??0QChar@@QEAA@H@Z
??0QChar@@QEAA@I@Z
??0QChar@@QEAA@UQLatin1Char@@@Z
??0QChar@@QEAA@W4SpecialCharacter@0@@Z
??0QChar@@QEAA@XZ
??0QCharRef@@AEAA@AEAVQString@@H@Z
??0QChildEvent@@QEAA@AEBV0@@Z
??0QChildEvent@@QEAA@W4Type@QEvent@@PEAVQObject@@@Z
??0QConfFile@@AEAA@AEBVQString@@_N@Z
??0QCoreApplication@@IEAA@AEAVQCoreApplicationPrivate@@@Z
??0QCoreApplication@@QEAA@AEAHPEAPEAD@Z
??0QCoreApplication@@QEAA@AEAHPEAPEADH@Z
??0QCoreApplicationPrivate@@QEAA@AEAHPEAPEADI@Z
??0QCoreApplicationPrivate@@QEAA@AEBV0@@Z
??0QCryptographicHash@@QEAA@W4Algorithm@0@@Z
??0QDataStream@@QEAA@AEBVQByteArray@@@Z
??0QDataStream@@QEAA@PEAVQByteArray@@V?$QFlags@W4OpenModeFlag@QIODevice@@@@@Z
??0QDataStream@@QEAA@PEAVQIODevice@@@Z
??0QDataStream@@QEAA@XZ
??0QDate@@QEAA@HHH@Z
??0QDate@@QEAA@XZ
??0QDateTime@@QEAA@AEBV0@@Z
??0QDateTime@@QEAA@AEBVQDate@@@Z
??0QDateTime@@QEAA@AEBVQDate@@AEBVQTime@@W4TimeSpec@Qt@@@Z
??0QDateTime@@QEAA@XZ
??0QDateTimeParser@@QEAA@AEBV0@@Z
??0QDateTimeParser@@QEAA@W4Type@QVariant@@W4Context@0@@Z
??0QDebug@@QEAA@AEBV0@@Z
??0QDebug@@QEAA@PEAVQIODevice@@@Z
??0QDebug@@QEAA@PEAVQString@@@Z
??0QDebug@@QEAA@W4QtMsgType@@@Z
??0QDir@@QEAA@AEBV0@@Z
??0QDir@@QEAA@AEBVQString@@0V?$QFlags@W4SortFlag@QDir@@@@V?$QFlags@W4Filter@QDir@@@@@Z
??0QDir@@QEAA@AEBVQString@@@Z
??0QDirIterator@@QEAA@AEBVQDir@@V?$QFlags@W4IteratorFlag@QDirIterator@@@@@Z
??0QDirIterator@@QEAA@AEBVQString@@AEBVQStringList@@V?$QFlags@W4Filter@QDir@@@@V?$QFlags@W4IteratorFlag@QDirIterator@@@@@Z
??0QDirIterator@@QEAA@AEBVQString@@V?$QFlags@W4Filter@QDir@@@@V?$QFlags@W4IteratorFlag@QDirIterator@@@@@Z
??0QDirIterator@@QEAA@AEBVQString@@V?$QFlags@W4IteratorFlag@QDirIterator@@@@@Z
??0QDynamicPropertyChangeEvent@@QEAA@AEBV0@@Z
??0QDynamicPropertyChangeEvent@@QEAA@AEBVQByteArray@@@Z
??0QEasingCurve@@QEAA@AEBV0@@Z
??0QEasingCurve@@QEAA@W4Type@0@@Z
??0QEvent@@QEAA@AEBV0@@Z
??0QEvent@@QEAA@W4Type@0@@Z
??0QEventDispatcherWin32@@QEAA@PEAVQObject@@@Z
??0QEventLoop@@QEAA@PEAVQObject@@@Z
??0QEventTransition@@IEAA@AEAVQEventTransitionPrivate@@PEAVQObject@@W4Type@QEvent@@PEAVQState@@@Z
??0QEventTransition@@IEAA@AEAVQEventTransitionPrivate@@PEAVQState@@@Z
??0QEventTransition@@QEAA@PEAVQObject@@W4Type@QEvent@@PEAVQState@@@Z
??0QEventTransition@@QEAA@PEAVQState@@@Z
??0QEventTransitionPrivate@@QEAA@AEBV0@@Z
??0QEventTransitionPrivate@@QEAA@XZ
??0QFSFileEngine@@IEAA@AEAVQFSFileEnginePrivate@@@Z
??0QFSFileEngine@@QEAA@AEBVQString@@@Z
??0QFSFileEngine@@QEAA@XZ
??0QFSFileEnginePrivate@@IEAA@XZ
??0QFSFileEnginePrivate@@QEAA@AEBV0@@Z
??0QFactoryInterface@@QEAA@AEBU0@@Z
??0QFactoryInterface@@QEAA@XZ
??0QFactoryLoader@@QEAA@PEBDAEBVQString@@W4CaseSensitivity@Qt@@@Z
??0QFile@@IEAA@AEAVQFilePrivate@@PEAVQObject@@@Z
??0QFile@@QEAA@AEBVQString@@@Z
??0QFile@@QEAA@AEBVQString@@PEAVQObject@@@Z
??0QFile@@QEAA@PEAVQObject@@@Z
??0QFile@@QEAA@XZ
??0QFileInfo@@QEAA@AEBV0@@Z
??0QFileInfo@@QEAA@AEBVQDir@@AEBVQString@@@Z
??0QFileInfo@@QEAA@AEBVQFile@@@Z
??0QFileInfo@@QEAA@AEBVQString@@@Z
??0QFileInfo@@QEAA@PEAVQFileInfoPrivate@@@Z
??0QFileInfo@@QEAA@XZ
??0QFileSystemEntry@@QEAA@AEBV0@@Z
??0QFileSystemEntry@@QEAA@AEBVQString@@0@Z
??0QFileSystemEntry@@QEAA@AEBVQString@@@Z
??0QFileSystemEntry@@QEAA@AEBVQString@@UFromInternalPath@0@@Z
??0QFileSystemEntry@@QEAA@AEBVQString@@UFromNativePath@0@@Z
??0QFileSystemEntry@@QEAA@XZ
??0QFileSystemWatcher@@QEAA@AEBVQStringList@@PEAVQObject@@@Z
??0QFileSystemWatcher@@QEAA@PEAVQObject@@@Z
??0QFinalState@@QEAA@PEAVQState@@@Z
??0QFlag@@QEAA@H@Z
??0QFutureInterfaceBase@@QEAA@AEBV0@@Z
??0QFutureInterfaceBase@@QEAA@W4State@0@@Z
??0QFutureWatcherBase@@QEAA@PEAVQObject@@@Z
??0QGenericArgument@@QEAA@PEBDPEBX@Z
??0QGenericReturnArgument@@QEAA@PEBDPEAX@Z
??0QHistoryState@@QEAA@PEAVQState@@@Z
??0QHistoryState@@QEAA@W4HistoryType@0@PEAVQState@@@Z
??0QIODevice@@IEAA@AEAVQIODevicePrivate@@PEAVQObject@@@Z
??0QIODevice@@QEAA@PEAVQObject@@@Z
??0QIODevice@@QEAA@XZ
??0QIODevicePrivate@@QEAA@AEBV0@@Z
??0QIODevicePrivate@@QEAA@XZ
??0QIncompatibleFlag@@QEAA@H@Z
??0QLatin1String@@QEAA@PEBD@Z
??0QLibrary@@QEAA@AEBVQString@@0PEAVQObject@@@Z
??0QLibrary@@QEAA@AEBVQString@@HPEAVQObject@@@Z
??0QLibrary@@QEAA@AEBVQString@@PEAVQObject@@@Z
??0QLibrary@@QEAA@PEAVQObject@@@Z
??0QLibraryInfo@@AEAA@XZ
??0QLine@@QEAA@AEBVQPoint@@0@Z
??0QLine@@QEAA@HHHH@Z
??0QLine@@QEAA@XZ
??0QLineF@@QEAA@AEBVQLine@@@Z
??0QLineF@@QEAA@AEBVQPointF@@0@Z
??0QLineF@@QEAA@NNNN@Z
??0QLineF@@QEAA@XZ
??0QLocale@@QEAA@AEBV0@@Z
??0QLocale@@QEAA@AEBVQString@@@Z
??0QLocale@@QEAA@W4Language@0@W4Country@0@@Z
??0QLocale@@QEAA@W4Language@0@W4Script@0@W4Country@0@@Z
??0QLocale@@QEAA@XZ
??0QMetaCallEvent@@QEAA@AEBV0@@Z
??0QMetaCallEvent@@QEAA@GGP6AXPEAVQObject@@W4Call@QMetaObject@@HPEAPEAX@ZPEBV1@HHPEAH2PEAVQSemaphore@@@Z
??0QMetaClassInfo@@QEAA@XZ
??0QMetaEnum@@QEAA@XZ
??0QMetaMethod@@QEAA@XZ
??0QMetaProperty@@QEAA@XZ
??0QMimeData@@QEAA@XZ
??0QModelIndex@@AEAA@HHPEAXPEBVQAbstractItemModel@@@Z
??0QModelIndex@@QEAA@AEBV0@@Z
??0QModelIndex@@QEAA@XZ
??0QMutex@@QEAA@W4RecursionMode@0@@Z
??0QMutexLocker@@QEAA@PEAVQMutex@@@Z
??0QMutexPool@@QEAA@AEBV0@@Z
??0QMutexPool@@QEAA@W4RecursionMode@QMutex@@H@Z
??0QNonContiguousByteDevice@@IEAA@XZ
??0QObject@@IEAA@AEAVQObjectPrivate@@PEAV0@@Z
??0QObject@@QEAA@PEAV0@@Z
??0QObjectCleanupHandler@@QEAA@XZ
??0QObjectPrivate@@QEAA@AEBV0@@Z
??0QObjectPrivate@@QEAA@H@Z
??0QObjectUserData@@QEAA@AEBV0@@Z
??0QObjectUserData@@QEAA@XZ
??0QParallelAnimationGroup@@IEAA@AEAVQParallelAnimationGroupPrivate@@PEAVQObject@@@Z
??0QParallelAnimationGroup@@QEAA@PEAVQObject@@@Z
??0QPauseAnimation@@QEAA@HPEAVQObject@@@Z
??0QPauseAnimation@@QEAA@PEAVQObject@@@Z
??0QPersistentModelIndex@@QEAA@AEBV0@@Z
??0QPersistentModelIndex@@QEAA@AEBVQModelIndex@@@Z
??0QPersistentModelIndex@@QEAA@XZ
??0QPluginLoader@@QEAA@AEBVQString@@PEAVQObject@@@Z
??0QPluginLoader@@QEAA@PEAVQObject@@@Z
??0QPoint@@QEAA@HH@Z
??0QPoint@@QEAA@XZ
??0QPointF@@QEAA@AEBVQPoint@@@Z
??0QPointF@@QEAA@NN@Z
??0QPointF@@QEAA@XZ
??0QProcess@@QEAA@PEAVQObject@@@Z
??0QProcessEnvironment@@QEAA@AEBV0@@Z
??0QProcessEnvironment@@QEAA@XZ
??0QPropertyAnimation@@QEAA@PEAVQObject@@@Z
??0QPropertyAnimation@@QEAA@PEAVQObject@@AEBVQByteArray@@0@Z
??0QReadLocker@@QEAA@PEAVQReadWriteLock@@@Z
??0QReadWriteLock@@QEAA@W4RecursionMode@0@@Z
??0QReadWriteLock@@QEAA@XZ
??0QRect@@QEAA@AEBVQPoint@@0@Z
??0QRect@@QEAA@AEBVQPoint@@AEBVQSize@@@Z
??0QRect@@QEAA@HHHH@Z
??0QRect@@QEAA@XZ
??0QRectF@@QEAA@AEBVQPointF@@0@Z
??0QRectF@@QEAA@AEBVQPointF@@AEBVQSizeF@@@Z
??0QRectF@@QEAA@AEBVQRect@@@Z
??0QRectF@@QEAA@NNNN@Z
??0QRectF@@QEAA@XZ
??0QRegExp@@QEAA@AEBV0@@Z
??0QRegExp@@QEAA@AEBVQString@@W4CaseSensitivity@Qt@@W4PatternSyntax@0@@Z
??0QRegExp@@QEAA@XZ
??0QResource@@QEAA@AEBVQString@@AEBVQLocale@@@Z
??0QSemaphore@@QEAA@H@Z
??0QSequentialAnimationGroup@@IEAA@AEAVQSequentialAnimationGroupPrivate@@PEAVQObject@@@Z
??0QSequentialAnimationGroup@@QEAA@PEAVQObject@@@Z
??0QSettings@@QEAA@AEBVQString@@0PEAVQObject@@@Z
??0QSettings@@QEAA@AEBVQString@@W4Format@0@PEAVQObject@@@Z
??0QSettings@@QEAA@PEAVQObject@@@Z
??0QSettings@@QEAA@W4Format@0@W4Scope@0@AEBVQString@@2PEAVQObject@@@Z
??0QSettings@@QEAA@W4Scope@0@AEBVQString@@1PEAVQObject@@@Z
??0QSettingsPrivate@@QEAA@AEBV0@@Z
??0QSettingsPrivate@@QEAA@W4Format@QSettings@@@Z
??0QSettingsPrivate@@QEAA@W4Format@QSettings@@W4Scope@2@AEBVQString@@2@Z
??0QSharedData@@QEAA@AEBV0@@Z
??0QSharedData@@QEAA@XZ
??0QSharedMemory@@QEAA@AEBVQString@@PEAVQObject@@@Z
??0QSharedMemory@@QEAA@PEAVQObject@@@Z
??0QSharedMemoryPrivate@@QEAA@XZ
??0QSignalMapper@@QEAA@PEAVQObject@@@Z
??0QSignalTransition@@QEAA@PEAVQObject@@PEBDPEAVQState@@@Z
??0QSignalTransition@@QEAA@PEAVQState@@@Z
??0QSize@@QEAA@HH@Z
??0QSize@@QEAA@XZ
??0QSizeF@@QEAA@AEBVQSize@@@Z
??0QSizeF@@QEAA@NN@Z
??0QSizeF@@QEAA@XZ
??0QSocketNotifier@@QEAA@HW4Type@0@PEAVQObject@@@Z
??0QState@@IEAA@AEAVQStatePrivate@@PEAV0@@Z
??0QState@@QEAA@PEAV0@@Z
??0QState@@QEAA@W4ChildMode@0@PEAV0@@Z
??0QStateMachine@@IEAA@AEAVQStateMachinePrivate@@PEAVQObject@@@Z
??0QStateMachine@@QEAA@PEAVQObject@@@Z
??0QStateMachinePrivate@@QEAA@XZ
??0QStatePrivate@@QEAA@AEBV0@@Z
??0QStatePrivate@@QEAA@XZ
??0QString@@AEAA@PEAUData@0@H@Z
??0QString@@QEAA@AEBUNull@0@@Z
??0QString@@QEAA@AEBV0@@Z
??0QString@@QEAA@AEBVQByteArray@@@Z
??0QString@@QEAA@AEBVQLatin1String@@@Z
??0QString@@QEAA@HVQChar@@@Z
??0QString@@QEAA@HW4Initialization@Qt@@@Z
??0QString@@QEAA@PEBD@Z
??0QString@@QEAA@PEBVQChar@@@Z
??0QString@@QEAA@PEBVQChar@@H@Z
??0QString@@QEAA@VQChar@@@Z
??0QString@@QEAA@XZ
??0QStringMatcher@@QEAA@AEBV0@@Z
??0QStringMatcher@@QEAA@AEBVQString@@W4CaseSensitivity@Qt@@@Z
??0QStringMatcher@@QEAA@PEBVQChar@@HW4CaseSensitivity@Qt@@@Z
??0QStringMatcher@@QEAA@XZ
??0QStringRef@@QEAA@AEBV0@@Z
??0QStringRef@@QEAA@PEBVQString@@@Z
??0QStringRef@@QEAA@PEBVQString@@HH@Z
??0QStringRef@@QEAA@XZ
??0QSystemError@@QEAA@HW4ErrorScope@0@@Z
??0QSystemError@@QEAA@XZ
??0QSystemLocale@@AEAA@_N@Z
??0QSystemLocale@@QEAA@AEBV0@@Z
??0QSystemLocale@@QEAA@XZ
??0QSystemSemaphore@@QEAA@AEBVQString@@HW4AccessMode@0@@Z
??0QTemporaryFile@@QEAA@AEBVQString@@@Z
??0QTemporaryFile@@QEAA@AEBVQString@@PEAVQObject@@@Z
??0QTemporaryFile@@QEAA@PEAVQObject@@@Z
??0QTemporaryFile@@QEAA@XZ
??0QTextBoundaryFinder@@QEAA@AEBV0@@Z
??0QTextBoundaryFinder@@QEAA@W4BoundaryType@0@AEBVQString@@@Z
??0QTextBoundaryFinder@@QEAA@W4BoundaryType@0@PEBVQChar@@HPEAEH@Z
??0QTextBoundaryFinder@@QEAA@XZ
??0QTextCodec@@IEAA@XZ
??0QTextCodecFactoryInterface@@QEAA@AEBU0@@Z
??0QTextCodecFactoryInterface@@QEAA@XZ
??0QTextCodecPlugin@@QEAA@PEAVQObject@@@Z
??0QTextDecoder@@QEAA@PEBVQTextCodec@@@Z
??0QTextDecoder@@QEAA@PEBVQTextCodec@@V?$QFlags@W4ConversionFlag@QTextCodec@@@@@Z
??0QTextEncoder@@QEAA@PEBVQTextCodec@@@Z
??0QTextEncoder@@QEAA@PEBVQTextCodec@@V?$QFlags@W4ConversionFlag@QTextCodec@@@@@Z
??0QTextStream@@QEAA@AEBVQByteArray@@V?$QFlags@W4OpenModeFlag@QIODevice@@@@@Z
??0QTextStream@@QEAA@PEAU_iobuf@@V?$QFlags@W4OpenModeFlag@QIODevice@@@@@Z
??0QTextStream@@QEAA@PEAVQByteArray@@V?$QFlags@W4OpenModeFlag@QIODevice@@@@@Z
??0QTextStream@@QEAA@PEAVQIODevice@@@Z
??0QTextStream@@QEAA@PEAVQString@@V?$QFlags@W4OpenModeFlag@QIODevice@@@@@Z
??0QTextStream@@QEAA@XZ
??0QTextStreamManipulator@@QEAA@P8QTextStream@@EAAXH@ZH@Z
??0QTextStreamManipulator@@QEAA@P8QTextStream@@EAAXVQChar@@@Z0@Z
??0QThread@@IEAA@AEAVQThreadPrivate@@PEAVQObject@@@Z
??0QThread@@QEAA@PEAVQObject@@@Z
??0QThreadPool@@QEAA@PEAVQObject@@@Z
??0QThreadStorageData@@QEAA@P6AXPEAX@Z@Z
??0QTime@@QEAA@HHHH@Z
??0QTime@@QEAA@XZ
??0QTimeLine@@QEAA@HPEAVQObject@@@Z
??0QTimer@@QEAA@PEAVQObject@@@Z
??0QTimerEvent@@QEAA@AEBV0@@Z
??0QTimerEvent@@QEAA@H@Z
??0QTranslator@@QEAA@PEAVQObject@@@Z
??0QUnifiedTimer@@AEAA@XZ
??0QUrl@@QEAA@AEBV0@@Z
??0QUrl@@QEAA@AEBVQString@@@Z
??0QUrl@@QEAA@AEBVQString@@W4ParsingMode@0@@Z
??0QUrl@@QEAA@XZ
??0QUuid@@QEAA@AEBU_GUID@@@Z
??0QUuid@@QEAA@AEBVQByteArray@@@Z
??0QUuid@@QEAA@AEBVQString@@@Z
??0QUuid@@QEAA@IGGEEEEEEEE@Z
??0QUuid@@QEAA@PEBD@Z
??0QUuid@@QEAA@XZ
??0QVariant@@AEAA@PEAX@Z
??0QVariant@@AEAA@_NH@Z
??0QVariant@@QEAA@AEAVQDataStream@@@Z
??0QVariant@@QEAA@AEBV0@@Z
??0QVariant@@QEAA@AEBV?$QHash@VQString@@VQVariant@@@@@Z
??0QVariant@@QEAA@AEBV?$QList@VQVariant@@@@@Z
??0QVariant@@QEAA@AEBV?$QMap@VQString@@VQVariant@@@@@Z
??0QVariant@@QEAA@AEBVQBitArray@@@Z
??0QVariant@@QEAA@AEBVQByteArray@@@Z
??0QVariant@@QEAA@AEBVQChar@@@Z
??0QVariant@@QEAA@AEBVQDate@@@Z
??0QVariant@@QEAA@AEBVQDateTime@@@Z
??0QVariant@@QEAA@AEBVQEasingCurve@@@Z
??0QVariant@@QEAA@AEBVQLatin1String@@@Z
??0QVariant@@QEAA@AEBVQLine@@@Z
??0QVariant@@QEAA@AEBVQLineF@@@Z
??0QVariant@@QEAA@AEBVQLocale@@@Z
??0QVariant@@QEAA@AEBVQPoint@@@Z
??0QVariant@@QEAA@AEBVQPointF@@@Z
??0QVariant@@QEAA@AEBVQRect@@@Z
??0QVariant@@QEAA@AEBVQRectF@@@Z
??0QVariant@@QEAA@AEBVQRegExp@@@Z
??0QVariant@@QEAA@AEBVQSize@@@Z
??0QVariant@@QEAA@AEBVQSizeF@@@Z
??0QVariant@@QEAA@AEBVQString@@@Z
??0QVariant@@QEAA@AEBVQStringList@@@Z
??0QVariant@@QEAA@AEBVQTime@@@Z
??0QVariant@@QEAA@AEBVQUrl@@@Z
??0QVariant@@QEAA@H@Z
??0QVariant@@QEAA@HPEBX@Z
??0QVariant@@QEAA@HPEBXI@Z
??0QVariant@@QEAA@I@Z
??0QVariant@@QEAA@M@Z
??0QVariant@@QEAA@N@Z
??0QVariant@@QEAA@PEBD@Z
??0QVariant@@QEAA@W4GlobalColor@Qt@@@Z
??0QVariant@@QEAA@W4Type@0@@Z
??0QVariant@@QEAA@XZ
??0QVariant@@QEAA@_J@Z
??0QVariant@@QEAA@_K@Z
??0QVariant@@QEAA@_N@Z
??0QVariantAnimation@@IEAA@AEAVQVariantAnimationPrivate@@PEAVQObject@@@Z
??0QVariantAnimation@@QEAA@PEAVQObject@@@Z
??0QWaitCondition@@QEAA@XZ
??0QWinEventNotifier@@QEAA@PEAVQObject@@@Z
??0QWinEventNotifier@@QEAA@PEAXPEAVQObject@@@Z
??0QWindowsPipeWriter@@QEAA@PEAXPEAVQObject@@@Z
??0QWriteLocker@@QEAA@PEAVQReadWriteLock@@@Z
??0QXmlStreamAttribute@@QEAA@AEBV0@@Z
??0QXmlStreamAttribute@@QEAA@AEBVQString@@00@Z
??0QXmlStreamAttribute@@QEAA@AEBVQString@@0@Z
??0QXmlStreamAttribute@@QEAA@XZ
??0QXmlStreamAttributes@@QEAA@AEBV0@@Z
??0QXmlStreamAttributes@@QEAA@XZ
??0QXmlStreamEntityDeclaration@@QEAA@AEBV0@@Z
??0QXmlStreamEntityDeclaration@@QEAA@XZ
??0QXmlStreamEntityResolver@@QEAA@AEBV0@@Z
??0QXmlStreamEntityResolver@@QEAA@XZ
??0QXmlStreamNamespaceDeclaration@@QEAA@AEBV0@@Z
??0QXmlStreamNamespaceDeclaration@@QEAA@AEBVQString@@0@Z
??0QXmlStreamNamespaceDeclaration@@QEAA@XZ
??0QXmlStreamNotationDeclaration@@QEAA@AEBV0@@Z
??0QXmlStreamNotationDeclaration@@QEAA@XZ
??0QXmlStreamReader@@QEAA@AEBVQByteArray@@@Z
??0QXmlStreamReader@@QEAA@AEBVQString@@@Z
??0QXmlStreamReader@@QEAA@PEAVQIODevice@@@Z
??0QXmlStreamReader@@QEAA@PEBD@Z
??0QXmlStreamReader@@QEAA@XZ
??0QXmlStreamStringRef@@QEAA@AEBV0@@Z
??0QXmlStreamStringRef@@QEAA@AEBVQString@@@Z
??0QXmlStreamStringRef@@QEAA@AEBVQStringRef@@@Z
??0QXmlStreamStringRef@@QEAA@XZ
??0QXmlStreamWriter@@QEAA@PEAVQByteArray@@@Z
??0QXmlStreamWriter@@QEAA@PEAVQIODevice@@@Z
??0QXmlStreamWriter@@QEAA@PEAVQString@@@Z
??0QXmlStreamWriter@@QEAA@XZ
??0ResultIteratorBase@QtConcurrent@@QEAA@Vconst_iterator@?$QMap@HVResultItem@QtConcurrent@@@@H@Z
??0ResultIteratorBase@QtConcurrent@@QEAA@XZ
??0ResultStoreBase@QtConcurrent@@QEAA@AEBV01@@Z
??0ResultStoreBase@QtConcurrent@@QEAA@XZ
??0SignalEvent@QStateMachine@@QEAA@AEBV01@@Z
??0SignalEvent@QStateMachine@@QEAA@PEAVQObject@@HAEBV?$QList@VQVariant@@@@@Z
??0ThreadEngineBase@QtConcurrent@@QEAA@XZ
??0UnhandledException@QtConcurrent@@QEAA@AEBV01@@Z
??0UnhandledException@QtConcurrent@@QEAA@XZ
??0WrappedEvent@QStateMachine@@QEAA@AEBV01@@Z
??0WrappedEvent@QStateMachine@@QEAA@PEAVQObject@@PEAVQEvent@@@Z
??1?$QVector@VQPoint@@@@QEAA@XZ
??1?$QVector@VQPointF@@@@QEAA@XZ
??1?$QVector@VQXmlStreamAttribute@@@@QEAA@XZ
??1BlockSizeManager@QtConcurrent@@QEAA@XZ
??1ConverterState@QTextCodec@@QEAA@XZ
??1Exception@QtConcurrent@@UEAA@XZ
??1ExceptionStore@internal@QtConcurrent@@QEAA@XZ
??1QAbstractAnimation@@UEAA@XZ
??1QAbstractDynamicMetaObject@@UEAA@XZ
??1QAbstractEventDispatcher@@UEAA@XZ
??1QAbstractEventDispatcherPrivate@@UEAA@XZ
??1QAbstractFileEngine@@UEAA@XZ
??1QAbstractFileEngineHandler@@UEAA@XZ
??1QAbstractFileEngineIterator@@UEAA@XZ
??1QAbstractItemModel@@UEAA@XZ
??1QAbstractItemModelPrivate@@UEAA@XZ
??1QAbstractListModel@@UEAA@XZ
??1QAbstractState@@UEAA@XZ
??1QAbstractTableModel@@UEAA@XZ
??1QAbstractTransition@@UEAA@XZ
??1QAbstractTransitionPrivate@@UEAA@XZ
??1QAnimationDriver@@UEAA@XZ
??1QAnimationDriverPrivate@@UEAA@XZ
??1QAnimationGroup@@UEAA@XZ
??1QBasicTimer@@QEAA@XZ
??1QBitArray@@QEAA@XZ
??1QBuffer@@UEAA@XZ
??1QByteArray@@QEAA@XZ
??1QByteArrayMatcher@@QEAA@XZ
??1QChildEvent@@UEAA@XZ
??1QConfFile@@QEAA@XZ
??1QCoreApplication@@UEAA@XZ
??1QCoreApplicationPrivate@@UEAA@XZ
??1QCryptographicHash@@QEAA@XZ
??1QDataStream@@UEAA@XZ
??1QDateTime@@QEAA@XZ
??1QDateTimeParser@@UEAA@XZ
??1QDebug@@QEAA@XZ
??1QDir@@QEAA@XZ
??1QDirIterator@@UEAA@XZ
??1QDynamicPropertyChangeEvent@@UEAA@XZ
??1QEasingCurve@@QEAA@XZ
??1QEvent@@UEAA@XZ
??1QEventDispatcherWin32@@UEAA@XZ
??1QEventLoop@@UEAA@XZ
??1QEventTransition@@UEAA@XZ
??1QEventTransitionPrivate@@UEAA@XZ
??1QFSFileEngine@@UEAA@XZ
??1QFSFileEnginePrivate@@UEAA@XZ
??1QFactoryInterface@@UEAA@XZ
??1QFactoryLoader@@UEAA@XZ
??1QFile@@UEAA@XZ
??1QFileInfo@@QEAA@XZ
??1QFileSystemEntry@@QEAA@XZ
??1QFileSystemWatcher@@UEAA@XZ
??1QFinalState@@UEAA@XZ
??1QFutureInterfaceBase@@UEAA@XZ
??1QFutureWatcherBase@@UEAA@XZ
??1QHistoryState@@UEAA@XZ
??1QIODevice@@UEAA@XZ
??1QIODevicePrivate@@UEAA@XZ
??1QLibrary@@UEAA@XZ
??1QMetaCallEvent@@UEAA@XZ
??1QMimeData@@UEAA@XZ
??1QModelIndex@@QEAA@XZ
??1QMutex@@QEAA@XZ
??1QMutexLocker@@QEAA@XZ
??1QMutexPool@@QEAA@XZ
??1QNonContiguousByteDevice@@UEAA@XZ
??1QObject@@UEAA@XZ
??1QObjectCleanupHandler@@UEAA@XZ
??1QObjectPrivate@@UEAA@XZ
??1QObjectUserData@@UEAA@XZ
??1QParallelAnimationGroup@@UEAA@XZ
??1QPauseAnimation@@UEAA@XZ
??1QPersistentModelIndex@@QEAA@XZ
??1QPluginLoader@@UEAA@XZ
??1QProcess@@UEAA@XZ
??1QProcessEnvironment@@QEAA@XZ
??1QPropertyAnimation@@UEAA@XZ
??1QReadLocker@@QEAA@XZ
??1QReadWriteLock@@QEAA@XZ
??1QRegExp@@QEAA@XZ
??1QResource@@QEAA@XZ
??1QSemaphore@@QEAA@XZ
??1QSequentialAnimationGroup@@UEAA@XZ
??1QSettings@@UEAA@XZ
??1QSettingsPrivate@@UEAA@XZ
??1QSharedMemory@@UEAA@XZ
??1QSharedMemoryPrivate@@UEAA@XZ
??1QSignalMapper@@UEAA@XZ
??1QSignalTransition@@UEAA@XZ
??1QSocketNotifier@@UEAA@XZ
??1QState@@UEAA@XZ
??1QStateMachine@@UEAA@XZ
??1QStateMachinePrivate@@UEAA@XZ
??1QStatePrivate@@UEAA@XZ
??1QString@@QEAA@XZ
??1QStringMatcher@@QEAA@XZ
??1QStringRef@@QEAA@XZ
??1QSystemLocale@@UEAA@XZ
??1QSystemSemaphore@@QEAA@XZ
??1QTemporaryFile@@UEAA@XZ
??1QTextBoundaryFinder@@QEAA@XZ
??1QTextCodec@@MEAA@XZ
??1QTextCodecFactoryInterface@@UEAA@XZ
??1QTextCodecPlugin@@UEAA@XZ
??1QTextDecoder@@QEAA@XZ
??1QTextEncoder@@QEAA@XZ
??1QTextStream@@UEAA@XZ
??1QThread@@UEAA@XZ
??1QThreadPool@@UEAA@XZ
??1QThreadStorageData@@QEAA@XZ
??1QTimeLine@@UEAA@XZ
??1QTimer@@UEAA@XZ
??1QTimerEvent@@UEAA@XZ
??1QTranslator@@UEAA@XZ
??1QUnifiedTimer@@UEAA@XZ
??1QUrl@@QEAA@XZ
??1QVariant@@QEAA@XZ
??1QVariantAnimation@@UEAA@XZ
??1QWaitCondition@@QEAA@XZ
??1QWinEventNotifier@@UEAA@XZ
??1QWindowsPipeWriter@@UEAA@XZ
??1QWriteLocker@@QEAA@XZ
??1QXmlStreamAttribute@@QEAA@XZ
??1QXmlStreamAttributes@@QEAA@XZ
??1QXmlStreamEntityDeclaration@@QEAA@XZ
??1QXmlStreamEntityResolver@@UEAA@XZ
??1QXmlStreamNamespaceDeclaration@@QEAA@XZ
??1QXmlStreamNotationDeclaration@@QEAA@XZ
??1QXmlStreamReader@@QEAA@XZ
??1QXmlStreamStringRef@@QEAA@XZ
??1QXmlStreamWriter@@QEAA@XZ
??1ResultStoreBase@QtConcurrent@@UEAA@XZ
??1SignalEvent@QStateMachine@@UEAA@XZ
??1ThreadEngineBase@QtConcurrent@@UEAA@XZ
??1UnhandledException@QtConcurrent@@UEAA@XZ
??1WrappedEvent@QStateMachine@@UEAA@XZ
??4?$QVector@VQPoint@@@@QEAA?AV0@$$QEAV0@@Z
??4?$QVector@VQPoint@@@@QEAAAEAV0@AEBV0@@Z
??4?$QVector@VQPointF@@@@QEAA?AV0@$$QEAV0@@Z
??4?$QVector@VQPointF@@@@QEAAAEAV0@AEBV0@@Z
??4?$QVector@VQXmlStreamAttribute@@@@QEAA?AV0@$$QEAV0@@Z
??4?$QVector@VQXmlStreamAttribute@@@@QEAAAEAV0@AEBV0@@Z
??4Exception@QtConcurrent@@QEAAAEAV01@AEBV01@@Z
??4ExceptionStore@internal@QtConcurrent@@QEAAAEAV012@AEBV012@@Z
??4QAbstractConcatenable@@QEAAAEAU0@AEBU0@@Z
??4QAbstractDeclarativeData@@QEAAAEAV0@AEBV0@@Z
??4QAbstractDynamicMetaObject@@QEAAAEAU0@AEBU0@@Z
??4QAbstractEventDispatcherPrivate@@QEAAAEAV0@AEBV0@@Z
??4QAbstractFileEngineHandler@@QEAAAEAV0@AEBV0@@Z
??4QAbstractItemModelPrivate@@QEAAAEAV0@AEBV0@@Z
??4QAbstractTransitionPrivate@@QEAAAEAV0@AEBV0@@Z
??4QAnimationDriverPrivate@@QEAAAEAV0@AEBV0@@Z
??4QAtomicInt@@QEAAAEAV0@AEBV0@@Z
??4QAtomicInt@@QEAAAEAV0@H@Z
??4QBasicAtomicInt@@QEAAAEAV0@AEBV0@@Z
??4QBasicAtomicInt@@QEAAAEAV0@H@Z
??4QBasicTimer@@QEAAAEAV0@AEBV0@@Z
??4QBitArray@@QEAAAEAV0@$$QEAV0@@Z
??4QBitArray@@QEAAAEAV0@AEBV0@@Z
??4QBitRef@@QEAAAEAV0@AEBV0@@Z
??4QBitRef@@QEAAAEAV0@_N@Z
??4QByteArray@@QEAAAEAV0@$$QEAV0@@Z
??4QByteArray@@QEAAAEAV0@AEBV0@@Z
??4QByteArray@@QEAAAEAV0@PEBD@Z
??4QByteArrayMatcher@@QEAAAEAV0@AEBV0@@Z
??4QByteRef@@QEAAAEAV0@AEBV0@@Z
??4QByteRef@@QEAAAEAV0@D@Z
??4QChar@@QEAAAEAV0@AEBV0@@Z
??4QCharRef@@QEAAAEAV0@AEBV0@@Z
??4QCharRef@@QEAAAEAV0@AEBVQChar@@@Z
??4QCharRef@@QEAAAEAV0@D@Z
??4QCharRef@@QEAAAEAV0@E@Z
??4QCharRef@@QEAAAEAV0@F@Z
??4QCharRef@@QEAAAEAV0@G@Z
??4QCharRef@@QEAAAEAV0@H@Z
??4QCharRef@@QEAAAEAV0@I@Z
??4QChildEvent@@QEAAAEAV0@AEBV0@@Z
??4QContiguousCacheData@@QEAAAEAU0@AEBU0@@Z
??4QDate@@QEAAAEAV0@AEBV0@@Z
??4QDateTime@@QEAAAEAV0@AEBV0@@Z
??4QDateTimeParser@@QEAAAEAV0@AEBV0@@Z
??4QDebug@@QEAAAEAV0@AEBV0@@Z
??4QDir@@QEAAAEAV0@$$QEAV0@@Z
??4QDir@@QEAAAEAV0@AEBV0@@Z
??4QDir@@QEAAAEAV0@AEBVQString@@@Z
??4QDynamicPropertyChangeEvent@@QEAAAEAV0@AEBV0@@Z
??4QEasingCurve@@QEAAAEAV0@AEBV0@@Z
??4QElapsedTimer@@QEAAAEAV0@AEBV0@@Z
??4QEvent@@QEAAAEAV0@AEBV0@@Z
??4QEventTransitionPrivate@@QEAAAEAV0@AEBV0@@Z
??4QFSFileEnginePrivate@@QEAAAEAV0@AEBV0@@Z
??4QFactoryInterface@@QEAAAEAU0@AEBU0@@Z
??4QFileInfo@@QEAAAEAV0@$$QEAV0@@Z
??4QFileInfo@@QEAAAEAV0@AEBV0@@Z
??4QFileSystemEntry@@QEAAAEAV0@AEBV0@@Z
??4QFlag@@QEAAAEAV0@AEBV0@@Z
??4QFutureInterfaceBase@@QEAAAEAV0@AEBV0@@Z
??4QGenericArgument@@QEAAAEAV0@AEBV0@@Z
??4QGenericReturnArgument@@QEAAAEAV0@AEBV0@@Z
??4QHashData@@QEAAAEAU0@AEBU0@@Z
??4QIODevicePrivate@@QEAAAEAV0@AEBV0@@Z
??4QIncompatibleFlag@@QEAAAEAV0@AEBV0@@Z
??4QInternal@@QEAAAEAV0@AEBV0@@Z
??4QLatin1String@@QEAAAEAV0@AEBV0@@Z
??4QLibraryInfo@@QEAAAEAV0@AEBV0@@Z
??4QLine@@QEAAAEAV0@AEBV0@@Z
??4QLineF@@QEAAAEAV0@AEBV0@@Z
??4QLinkedListData@@QEAAAEAU0@AEBU0@@Z
??4QListData@@QEAAAEAU0@AEBU0@@Z
??4QLocale@@QEAAAEAV0@AEBV0@@Z
??4QLocalePrivate@@QEAAAEAU0@AEBU0@@Z
??4QMapData@@QEAAAEAU0@AEBU0@@Z
??4QMetaCallEvent@@QEAAAEAV0@AEBV0@@Z
??4QMetaClassInfo@@QEAAAEAV0@AEBV0@@Z
??4QMetaEnum@@QEAAAEAV0@AEBV0@@Z
??4QMetaMethod@@QEAAAEAV0@AEBV0@@Z
??4QMetaObject@@QEAAAEAU0@AEBU0@@Z
??4QMetaProperty@@QEAAAEAV0@AEBV0@@Z
??4QMetaType@@QEAAAEAV0@AEBV0@@Z
??4QModelIndex@@QEAAAEAV0@AEBV0@@Z
??4QMutexPool@@QEAAAEAV0@AEBV0@@Z
??4QNonContiguousByteDeviceFactory@@QEAAAEAV0@AEBV0@@Z
??4QObjectPrivate@@QEAAAEAV0@AEBV0@@Z
??4QObjectUserData@@QEAAAEAV0@AEBV0@@Z
??4QPersistentModelIndex@@QEAAAEAV0@AEBV0@@Z
??4QPersistentModelIndex@@QEAAAEAV0@AEBVQModelIndex@@@Z
??4QPoint@@QEAAAEAV0@AEBV0@@Z
??4QPointF@@QEAAAEAV0@AEBV0@@Z
??4QProcessEnvironment@@QEAAAEAV0@AEBV0@@Z
??4QRect@@QEAAAEAV0@AEBV0@@Z
??4QRectF@@QEAAAEAV0@AEBV0@@Z
??4QRegExp@@QEAAAEAV0@$$QEAV0@@Z
??4QRegExp@@QEAAAEAV0@AEBV0@@Z
??4QSettingsPrivate@@QEAAAEAV0@AEBV0@@Z
??4QSize@@QEAAAEAV0@AEBV0@@Z
??4QSizeF@@QEAAAEAV0@AEBV0@@Z
??4QStatePrivate@@QEAAAEAV0@AEBV0@@Z
??4QString@@QEAAAEAV0@$$QEAV0@@Z
??4QString@@QEAAAEAV0@AEBUNull@0@@Z
??4QString@@QEAAAEAV0@AEBV0@@Z
??4QString@@QEAAAEAV0@AEBVQByteArray@@@Z
??4QString@@QEAAAEAV0@AEBVQLatin1String@@@Z
??4QString@@QEAAAEAV0@D@Z
??4QString@@QEAAAEAV0@PEBD@Z
??4QString@@QEAAAEAV0@VQChar@@@Z
??4QStringMatcher@@QEAAAEAV0@AEBV0@@Z
??4QStringRef@@QEAAAEAV0@AEBV0@@Z
??4QStringRef@@QEAAAEAV0@PEBVQString@@@Z
??4QSysInfo@@QEAAAEAV0@AEBV0@@Z
??4QSystemError@@QEAAAEAV0@AEBV0@@Z
??4QSystemLocale@@QEAAAEAV0@AEBV0@@Z
??4QTextBoundaryFinder@@QEAAAEAV0@AEBV0@@Z
??4QTextCodecFactoryInterface@@QEAAAEAU0@AEBU0@@Z
??4QTextStreamManipulator@@QEAAAEAV0@AEBV0@@Z
??4QThreadStorageData@@QEAAAEAV0@AEBV0@@Z
??4QTime@@QEAAAEAV0@AEBV0@@Z
??4QTimerEvent@@QEAAAEAV0@AEBV0@@Z
??4QUrl@@QEAAAEAV0@$$QEAV0@@Z
??4QUrl@@QEAAAEAV0@AEBV0@@Z
??4QUrl@@QEAAAEAV0@AEBVQString@@@Z
??4QUuid@@QEAAAEAU0@AEBU0@@Z
??4QUuid@@QEAAAEAU0@AEBU_GUID@@@Z
??4QVariant@@QEAAAEAV0@$$QEAV0@@Z
??4QVariant@@QEAAAEAV0@AEBV0@@Z
??4QVectorData@@QEAAAEAU0@AEBU0@@Z
??4QXmlStreamAttribute@@QEAAAEAV0@AEBV0@@Z
??4QXmlStreamAttributes@@QEAAAEAV0@AEBV0@@Z
??4QXmlStreamEntityDeclaration@@QEAAAEAV0@AEBV0@@Z
??4QXmlStreamEntityResolver@@QEAAAEAV0@AEBV0@@Z
??4QXmlStreamNamespaceDeclaration@@QEAAAEAV0@AEBV0@@Z
??4QXmlStreamNotationDeclaration@@QEAAAEAV0@AEBV0@@Z
??4QXmlStreamStringRef@@QEAAAEAV0@AEBV0@@Z
??4QXmlUtils@@QEAAAEAV0@AEBV0@@Z
??4ResultIteratorBase@QtConcurrent@@QEAAAEAV01@AEBV01@@Z
??4ResultStoreBase@QtConcurrent@@QEAAAEAV01@AEBV01@@Z
??4SignalEvent@QStateMachine@@QEAAAEAV01@AEBV01@@Z
??4UnhandledException@QtConcurrent@@QEAAAEAV01@AEBV01@@Z
??4WrappedEvent@QStateMachine@@QEAAAEAV01@AEBV01@@Z
??5@YAAEAVQDataStream@@AEAV0@AEAUQUuid@@@Z
??5@YAAEAVQDataStream@@AEAV0@AEAVQBitArray@@@Z
??5@YAAEAVQDataStream@@AEAV0@AEAVQByteArray@@@Z
??5@YAAEAVQDataStream@@AEAV0@AEAVQChar@@@Z
??5@YAAEAVQDataStream@@AEAV0@AEAVQDate@@@Z
??5@YAAEAVQDataStream@@AEAV0@AEAVQDateTime@@@Z
??5@YAAEAVQDataStream@@AEAV0@AEAVQEasingCurve@@@Z
??5@YAAEAVQDataStream@@AEAV0@AEAVQLine@@@Z
??5@YAAEAVQDataStream@@AEAV0@AEAVQLineF@@@Z
??5@YAAEAVQDataStream@@AEAV0@AEAVQLocale@@@Z
??5@YAAEAVQDataStream@@AEAV0@AEAVQPoint@@@Z
??5@YAAEAVQDataStream@@AEAV0@AEAVQPointF@@@Z
??5@YAAEAVQDataStream@@AEAV0@AEAVQRect@@@Z
??5@YAAEAVQDataStream@@AEAV0@AEAVQRectF@@@Z
??5@YAAEAVQDataStream@@AEAV0@AEAVQRegExp@@@Z
??5@YAAEAVQDataStream@@AEAV0@AEAVQSize@@@Z
??5@YAAEAVQDataStream@@AEAV0@AEAVQSizeF@@@Z
??5@YAAEAVQDataStream@@AEAV0@AEAVQString@@@Z
??5@YAAEAVQDataStream@@AEAV0@AEAVQTime@@@Z
??5@YAAEAVQDataStream@@AEAV0@AEAVQUrl@@@Z
??5@YAAEAVQDataStream@@AEAV0@AEAVQVariant@@@Z
??5@YAAEAVQDataStream@@AEAV0@AEAW4Type@QVariant@@@Z
??5QDataStream@@QEAAAEAV0@AEAC@Z
??5QDataStream@@QEAAAEAV0@AEAE@Z
??5QDataStream@@QEAAAEAV0@AEAF@Z
??5QDataStream@@QEAAAEAV0@AEAG@Z
??5QDataStream@@QEAAAEAV0@AEAH@Z
??5QDataStream@@QEAAAEAV0@AEAI@Z
??5QDataStream@@QEAAAEAV0@AEAM@Z
??5QDataStream@@QEAAAEAV0@AEAN@Z
??5QDataStream@@QEAAAEAV0@AEAPEAD@Z
??5QDataStream@@QEAAAEAV0@AEA_J@Z
??5QDataStream@@QEAAAEAV0@AEA_K@Z
??5QDataStream@@QEAAAEAV0@AEA_N@Z
??5QTextStream@@QEAAAEAV0@AEAD@Z
??5QTextStream@@QEAAAEAV0@AEAF@Z
??5QTextStream@@QEAAAEAV0@AEAG@Z
??5QTextStream@@QEAAAEAV0@AEAH@Z
??5QTextStream@@QEAAAEAV0@AEAI@Z
??5QTextStream@@QEAAAEAV0@AEAJ@Z
??5QTextStream@@QEAAAEAV0@AEAK@Z
??5QTextStream@@QEAAAEAV0@AEAM@Z
??5QTextStream@@QEAAAEAV0@AEAN@Z
??5QTextStream@@QEAAAEAV0@AEAVQByteArray@@@Z
??5QTextStream@@QEAAAEAV0@AEAVQChar@@@Z
??5QTextStream@@QEAAAEAV0@AEAVQString@@@Z
??5QTextStream@@QEAAAEAV0@AEA_J@Z
??5QTextStream@@QEAAAEAV0@AEA_K@Z
??5QTextStream@@QEAAAEAV0@PEAD@Z
??6?$QVector@VQPoint@@@@QEAAAEAV0@AEBV0@@Z
??6?$QVector@VQPoint@@@@QEAAAEAV0@AEBVQPoint@@@Z
??6?$QVector@VQPointF@@@@QEAAAEAV0@AEBV0@@Z
??6?$QVector@VQPointF@@@@QEAAAEAV0@AEBVQPointF@@@Z
??6?$QVector@VQXmlStreamAttribute@@@@QEAAAEAV0@AEBV0@@Z
??6?$QVector@VQXmlStreamAttribute@@@@QEAAAEAV0@AEBVQXmlStreamAttribute@@@Z
??6@YA?AVQDebug@@V0@AEBUtagMSG@@@Z
??6@YA?AVQDebug@@V0@AEBVQDate@@@Z
??6@YA?AVQDebug@@V0@AEBVQDateTime@@@Z
??6@YA?AVQDebug@@V0@AEBVQDir@@@Z
??6@YA?AVQDebug@@V0@AEBVQEasingCurve@@@Z
??6@YA?AVQDebug@@V0@AEBVQLine@@@Z
??6@YA?AVQDebug@@V0@AEBVQLineF@@@Z
??6@YA?AVQDebug@@V0@AEBVQMargins@@@Z
??6@YA?AVQDebug@@V0@AEBVQModelIndex@@@Z
??6@YA?AVQDebug@@V0@AEBVQPersistentModelIndex@@@Z
??6@YA?AVQDebug@@V0@AEBVQPoint@@@Z
??6@YA?AVQDebug@@V0@AEBVQPointF@@@Z
??6@YA?AVQDebug@@V0@AEBVQRect@@@Z
??6@YA?AVQDebug@@V0@AEBVQRectF@@@Z
??6@YA?AVQDebug@@V0@AEBVQSize@@@Z
??6@YA?AVQDebug@@V0@AEBVQSizeF@@@Z
??6@YA?AVQDebug@@V0@AEBVQTime@@@Z
??6@YA?AVQDebug@@V0@AEBVQUrl@@@Z
??6@YA?AVQDebug@@V0@AEBVQVariant@@@Z
??6@YA?AVQDebug@@V0@PEBVQObject@@@Z
??6@YA?AVQDebug@@V0@V?$QFlags@W4Filter@QDir@@@@@Z
??6@YA?AVQDebug@@V0@V?$QFlags@W4OpenModeFlag@QIODevice@@@@@Z
??6@YA?AVQDebug@@V0@W4Type@QVariant@@@Z
??6@YAAEAVQDataStream@@AEAV0@AEBUQUuid@@@Z
??6@YAAEAVQDataStream@@AEAV0@AEBVQBitArray@@@Z
??6@YAAEAVQDataStream@@AEAV0@AEBVQByteArray@@@Z
??6@YAAEAVQDataStream@@AEAV0@AEBVQChar@@@Z
??6@YAAEAVQDataStream@@AEAV0@AEBVQDate@@@Z
??6@YAAEAVQDataStream@@AEAV0@AEBVQDateTime@@@Z
??6@YAAEAVQDataStream@@AEAV0@AEBVQEasingCurve@@@Z
??6@YAAEAVQDataStream@@AEAV0@AEBVQLine@@@Z
??6@YAAEAVQDataStream@@AEAV0@AEBVQLineF@@@Z
??6@YAAEAVQDataStream@@AEAV0@AEBVQLocale@@@Z
??6@YAAEAVQDataStream@@AEAV0@AEBVQPoint@@@Z
??6@YAAEAVQDataStream@@AEAV0@AEBVQPointF@@@Z
??6@YAAEAVQDataStream@@AEAV0@AEBVQRect@@@Z
??6@YAAEAVQDataStream@@AEAV0@AEBVQRectF@@@Z
??6@YAAEAVQDataStream@@AEAV0@AEBVQRegExp@@@Z
??6@YAAEAVQDataStream@@AEAV0@AEBVQSize@@@Z
??6@YAAEAVQDataStream@@AEAV0@AEBVQSizeF@@@Z
??6@YAAEAVQDataStream@@AEAV0@AEBVQString@@@Z
??6@YAAEAVQDataStream@@AEAV0@AEBVQTime@@@Z
??6@YAAEAVQDataStream@@AEAV0@AEBVQUrl@@@Z
??6@YAAEAVQDataStream@@AEAV0@AEBVQVariant@@@Z
??6@YAAEAVQDataStream@@AEAV0@W4Type@QVariant@@@Z
??6QDataStream@@QEAAAEAV0@C@Z
??6QDataStream@@QEAAAEAV0@E@Z
??6QDataStream@@QEAAAEAV0@F@Z
??6QDataStream@@QEAAAEAV0@G@Z
??6QDataStream@@QEAAAEAV0@H@Z
??6QDataStream@@QEAAAEAV0@I@Z
??6QDataStream@@QEAAAEAV0@M@Z
??6QDataStream@@QEAAAEAV0@N@Z
??6QDataStream@@QEAAAEAV0@PEBD@Z
??6QDataStream@@QEAAAEAV0@_J@Z
??6QDataStream@@QEAAAEAV0@_K@Z
??6QDataStream@@QEAAAEAV0@_N@Z
??6QDebug@@QEAAAEAV0@AEBVQByteArray@@@Z
??6QDebug@@QEAAAEAV0@AEBVQLatin1String@@@Z
??6QDebug@@QEAAAEAV0@AEBVQString@@@Z
??6QDebug@@QEAAAEAV0@AEBVQStringRef@@@Z
??6QDebug@@QEAAAEAV0@D@Z
??6QDebug@@QEAAAEAV0@F@Z
??6QDebug@@QEAAAEAV0@G@Z
??6QDebug@@QEAAAEAV0@H@Z
??6QDebug@@QEAAAEAV0@I@Z
??6QDebug@@QEAAAEAV0@J@Z
??6QDebug@@QEAAAEAV0@K@Z
??6QDebug@@QEAAAEAV0@M@Z
??6QDebug@@QEAAAEAV0@N@Z
??6QDebug@@QEAAAEAV0@P6AAEAVQTextStream@@AEAV1@@Z@Z
??6QDebug@@QEAAAEAV0@PEBD@Z
??6QDebug@@QEAAAEAV0@PEBX@Z
??6QDebug@@QEAAAEAV0@VQBool@@@Z
??6QDebug@@QEAAAEAV0@VQChar@@@Z
??6QDebug@@QEAAAEAV0@VQTextStreamManipulator@@@Z
??6QDebug@@QEAAAEAV0@_J@Z
??6QDebug@@QEAAAEAV0@_K@Z
??6QDebug@@QEAAAEAV0@_N@Z
??6QTextStream@@QEAAAEAV0@AEBVQByteArray@@@Z
??6QTextStream@@QEAAAEAV0@AEBVQString@@@Z
??6QTextStream@@QEAAAEAV0@D@Z
??6QTextStream@@QEAAAEAV0@F@Z
??6QTextStream@@QEAAAEAV0@G@Z
??6QTextStream@@QEAAAEAV0@H@Z
??6QTextStream@@QEAAAEAV0@I@Z
??6QTextStream@@QEAAAEAV0@J@Z
??6QTextStream@@QEAAAEAV0@K@Z
??6QTextStream@@QEAAAEAV0@M@Z
??6QTextStream@@QEAAAEAV0@N@Z
??6QTextStream@@QEAAAEAV0@PEBD@Z
??6QTextStream@@QEAAAEAV0@PEBX@Z
??6QTextStream@@QEAAAEAV0@VQBool@@@Z
??6QTextStream@@QEAAAEAV0@VQChar@@@Z
??6QTextStream@@QEAAAEAV0@_J@Z
??6QTextStream@@QEAAAEAV0@_K@Z
??7QBasicAtomicInt@@QEBA_NXZ
??7QBitRef@@QEBA_NXZ
??8?$QVector@VQPoint@@@@QEBA_NAEBV0@@Z
??8?$QVector@VQPointF@@@@QEBA_NAEBV0@@Z
??8?$QVector@VQXmlStreamAttribute@@@@QEBA_NAEBV0@@Z
??8@YA_NAEBUSectionNode@QDateTimeParser@@0@Z
??8@YA_NAEBVQLatin1String@@AEBVQStringRef@@@Z
??8@YA_NAEBVQRect@@0@Z
??8@YA_NAEBVQRectF@@0@Z
??8@YA_NAEBVQString@@AEBVQStringRef@@@Z
??8@YA_NAEBVQStringRef@@0@Z
??8QBasicAtomicInt@@QEBA_NH@Z
??8QBitArray@@QEBA_NAEBV0@@Z
??8QByteArray@@QEBA_NAEBVQString@@@Z
??8QByteRef@@QEBA_ND@Z
??8QDate@@QEBA_NAEBV0@@Z
??8QDateTime@@QEBA_NAEBV0@@Z
??8QDir@@QEBA_NAEBV0@@Z
??8QEasingCurve@@QEBA_NAEBV0@@Z
??8QElapsedTimer@@QEBA_NAEBV0@@Z
??8QFileInfo@@QEAA_NAEBV0@@Z
??8QFileInfo@@QEBA_NAEBV0@@Z
??8QFutureInterfaceBase@@QEBA_NAEBV0@@Z
??8QLatin1String@@QEBA_NAEBVQString@@@Z
??8QLatin1String@@QEBA_NPEBD@Z
??8QLine@@QEBA_NAEBV0@@Z
??8QLineF@@QEBA_NAEBV0@@Z
??8QLocale@@QEBA_NAEBV0@@Z
??8QModelIndex@@QEBA_NAEBV0@@Z
??8QPersistentModelIndex@@QEBA_NAEBV0@@Z
??8QPersistentModelIndex@@QEBA_NAEBVQModelIndex@@@Z
??8QProcessEnvironment@@QEBA_NAEBV0@@Z
??8QRegExp@@QEBA_NAEBV0@@Z
??8QString@@QEBA_NAEBV0@@Z
??8QString@@QEBA_NAEBVQByteArray@@@Z
??8QString@@QEBA_NAEBVQLatin1String@@@Z
??8QString@@QEBA_NPEBD@Z
??8QTime@@QEBA_NAEBV0@@Z
??8QUrl@@QEBA_NAEBV0@@Z
??8QUuid@@QEBA_NAEBU0@@Z
??8QUuid@@QEBA_NAEBU_GUID@@@Z
??8QVariant@@QEBA_NAEBV0@@Z
??8QXmlStreamAttribute@@QEBA_NAEBV0@@Z
??8QXmlStreamEntityDeclaration@@QEBA_NAEBV0@@Z
??8QXmlStreamNamespaceDeclaration@@QEBA_NAEBV0@@Z
??8QXmlStreamNotationDeclaration@@QEBA_NAEBV0@@Z
??8ResultIteratorBase@QtConcurrent@@QEBA_NAEBV01@@Z
??9?$QVector@VQPoint@@@@QEBA_NAEBV0@@Z
??9?$QVector@VQPointF@@@@QEBA_NAEBV0@@Z
??9?$QVector@VQXmlStreamAttribute@@@@QEBA_NAEBV0@@Z
??9@YA_NAEBVQRect@@0@Z
??9@YA_NAEBVQRectF@@0@Z
??9QBasicAtomicInt@@QEBA_NH@Z
??9QBitArray@@QEBA_NAEBV0@@Z
??9QByteArray@@QEBA_NAEBVQString@@@Z
??9QByteRef@@QEBA_ND@Z
??9QDate@@QEBA_NAEBV0@@Z
??9QDateTime@@QEBA_NAEBV0@@Z
??9QDir@@QEBA_NAEBV0@@Z
??9QEasingCurve@@QEBA_NAEBV0@@Z
??9QElapsedTimer@@QEBA_NAEBV0@@Z
??9QFileInfo@@QEAA_NAEBV0@@Z
??9QFileInfo@@QEBA_NAEBV0@@Z
??9QFutureInterfaceBase@@QEBA_NAEBV0@@Z
??9QLatin1String@@QEBA_NAEBVQString@@@Z
??9QLatin1String@@QEBA_NPEBD@Z
??9QLine@@QEBA_NAEBV0@@Z
??9QLineF@@QEBA_NAEBV0@@Z
??9QLocale@@QEBA_NAEBV0@@Z
??9QModelIndex@@QEBA_NAEBV0@@Z
??9QPersistentModelIndex@@QEBA_NAEBV0@@Z
??9QPersistentModelIndex@@QEBA_NAEBVQModelIndex@@@Z
??9QProcessEnvironment@@QEBA_NAEBV0@@Z
??9QRegExp@@QEBA_NAEBV0@@Z
??9QString@@QEBA_NAEBV0@@Z
??9QString@@QEBA_NAEBVQByteArray@@@Z
??9QString@@QEBA_NAEBVQLatin1String@@@Z
??9QString@@QEBA_NPEBD@Z
??9QTime@@QEBA_NAEBV0@@Z
??9QUrl@@QEBA_NAEBV0@@Z
??9QUuid@@QEBA_NAEBU0@@Z
??9QUuid@@QEBA_NAEBU_GUID@@@Z
??9QVariant@@QEBA_NAEBV0@@Z
??9QXmlStreamAttribute@@QEBA_NAEBV0@@Z
??9QXmlStreamEntityDeclaration@@QEBA_NAEBV0@@Z
??9QXmlStreamNamespaceDeclaration@@QEBA_NAEBV0@@Z
??9QXmlStreamNotationDeclaration@@QEBA_NAEBV0@@Z
??9ResultIteratorBase@QtConcurrent@@QEBA_NAEBV01@@Z
??A?$QVector@VQPoint@@@@QEAAAEAVQPoint@@H@Z
??A?$QVector@VQPoint@@@@QEBAAEBVQPoint@@H@Z
??A?$QVector@VQPointF@@@@QEAAAEAVQPointF@@H@Z
??A?$QVector@VQPointF@@@@QEBAAEBVQPointF@@H@Z
??A?$QVector@VQXmlStreamAttribute@@@@QEAAAEAVQXmlStreamAttribute@@H@Z
??A?$QVector@VQXmlStreamAttribute@@@@QEBAAEBVQXmlStreamAttribute@@H@Z
??AQBitArray@@QEAA?AVQBitRef@@H@Z
??AQBitArray@@QEAA?AVQBitRef@@I@Z
??AQBitArray@@QEBA_NH@Z
??AQBitArray@@QEBA_NI@Z
??AQByteArray@@QEAA?AVQByteRef@@H@Z
??AQByteArray@@QEAA?AVQByteRef@@I@Z
??AQByteArray@@QEBA?BDH@Z
??AQByteArray@@QEBA?BDI@Z
??AQDir@@QEBA?AVQString@@H@Z
??AQString@@QEAA?AVQCharRef@@H@Z
??AQString@@QEAA?AVQCharRef@@I@Z
??AQString@@QEBA?BVQChar@@H@Z
??AQString@@QEBA?BVQChar@@I@Z
??BQBasicAtomicInt@@QEBAHXZ
??BQBitRef@@QEBA_NXZ
??BQByteArray@@QEBAPEBDXZ
??BQByteArray@@QEBAPEBXXZ
??BQByteRef@@QEBA?BDXZ
??BQCharRef@@QEBA?AVQChar@@XZ
??BQFlag@@QEBAHXZ
??BQIncompatibleFlag@@QEBAHXZ
??BQPersistentModelIndex@@QEBAAEBVQModelIndex@@XZ
??BQUuid@@QEBA?AU_GUID@@XZ
??BQUuid@@QEBA?AVQString@@XZ
??BQXmlStreamStringRef@@QEBA?AVQStringRef@@XZ
??EResultIteratorBase@QtConcurrent@@QEAA?AV01@XZ
??H?$QVector@VQPoint@@@@QEBA?AV0@AEBV0@@Z
??H?$QVector@VQPointF@@@@QEBA?AV0@AEBV0@@Z
??H?$QVector@VQXmlStreamAttribute@@@@QEBA?AV0@AEBV0@@Z
??I@YA?AVQBitArray@@AEBV0@0@Z
??IQRect@@QEBA?AV0@AEBV0@@Z
??IQRectF@@QEBA?AV0@AEBV0@@Z
??M@YA_NAEBVQElapsedTimer@@0@Z
??M@YA_NAEBVQStringRef@@0@Z
??MQByteArray@@QEBA_NAEBVQString@@@Z
??MQByteRef@@QEBA_ND@Z
??MQDate@@QEBA_NAEBV0@@Z
??MQDateTime@@QEBA_NAEBV0@@Z
??MQLatin1String@@QEBA_NAEBVQString@@@Z
??MQLatin1String@@QEBA_NPEBD@Z
??MQModelIndex@@QEBA_NAEBV0@@Z
??MQPersistentModelIndex@@QEBA_NAEBV0@@Z
??MQString@@QEBA_NAEBV0@@Z
??MQString@@QEBA_NAEBVQByteArray@@@Z
??MQString@@QEBA_NAEBVQLatin1String@@@Z
??MQString@@QEBA_NPEBD@Z
??MQTime@@QEBA_NAEBV0@@Z
??MQUrl@@QEBA_NAEBV0@@Z
??MQUuid@@QEBA_NAEBU0@@Z
??NQByteArray@@QEBA_NAEBVQString@@@Z
??NQByteRef@@QEBA_ND@Z
??NQDate@@QEBA_NAEBV0@@Z
??NQDateTime@@QEBA_NAEBV0@@Z
??NQLatin1String@@QEBA_NAEBVQString@@@Z
??NQLatin1String@@QEBA_NPEBD@Z
??NQString@@QEBA_NAEBV0@@Z
??NQString@@QEBA_NAEBVQByteArray@@@Z
??NQString@@QEBA_NAEBVQLatin1String@@@Z
??NQString@@QEBA_NPEBD@Z
??NQTime@@QEBA_NAEBV0@@Z
??OQByteArray@@QEBA_NAEBVQString@@@Z
??OQByteRef@@QEBA_ND@Z
??OQDate@@QEBA_NAEBV0@@Z
??OQDateTime@@QEBA_NAEBV0@@Z
??OQLatin1String@@QEBA_NAEBVQString@@@Z
??OQLatin1String@@QEBA_NPEBD@Z
??OQString@@QEBA_NAEBV0@@Z
??OQString@@QEBA_NAEBVQByteArray@@@Z
??OQString@@QEBA_NAEBVQLatin1String@@@Z
??OQString@@QEBA_NPEBD@Z
??OQTime@@QEBA_NAEBV0@@Z
??OQUuid@@QEBA_NAEBU0@@Z
??PQByteArray@@QEBA_NAEBVQString@@@Z
??PQByteRef@@QEBA_ND@Z
??PQDate@@QEBA_NAEBV0@@Z
??PQDateTime@@QEBA_NAEBV0@@Z
??PQLatin1String@@QEBA_NAEBVQString@@@Z
??PQLatin1String@@QEBA_NPEBD@Z
??PQString@@QEBA_NAEBV0@@Z
??PQString@@QEBA_NAEBVQByteArray@@@Z
??PQString@@QEBA_NAEBVQLatin1String@@@Z
??PQString@@QEBA_NPEBD@Z
??PQTime@@QEBA_NAEBV0@@Z
??SQBitArray@@QEBA?AV0@XZ
??T@YA?AVQBitArray@@AEBV0@0@Z
??U@YA?AVQBitArray@@AEBV0@0@Z
??UQRect@@QEBA?AV0@AEBV0@@Z
??UQRectF@@QEBA?AV0@AEBV0@@Z
??XQPoint@@QEAAAEAV0@H@Z
??XQPoint@@QEAAAEAV0@M@Z
??XQPoint@@QEAAAEAV0@N@Z
??XQPointF@@QEAAAEAV0@N@Z
??XQSize@@QEAAAEAV0@N@Z
??XQSizeF@@QEAAAEAV0@N@Z
??Y?$QVector@VQPoint@@@@QEAAAEAV0@AEBV0@@Z
??Y?$QVector@VQPoint@@@@QEAAAEAV0@AEBVQPoint@@@Z
??Y?$QVector@VQPointF@@@@QEAAAEAV0@AEBV0@@Z
??Y?$QVector@VQPointF@@@@QEAAAEAV0@AEBVQPointF@@@Z
??Y?$QVector@VQXmlStreamAttribute@@@@QEAAAEAV0@AEBV0@@Z
??Y?$QVector@VQXmlStreamAttribute@@@@QEAAAEAV0@AEBVQXmlStreamAttribute@@@Z
??YQByteArray@@QEAAAEAV0@AEBV0@@Z
??YQByteArray@@QEAAAEAV0@AEBVQString@@@Z
??YQByteArray@@QEAAAEAV0@D@Z
??YQByteArray@@QEAAAEAV0@PEBD@Z
??YQPoint@@QEAAAEAV0@AEBV0@@Z
??YQPointF@@QEAAAEAV0@AEBV0@@Z
??YQSize@@QEAAAEAV0@AEBV0@@Z
??YQSizeF@@QEAAAEAV0@AEBV0@@Z
??YQString@@QEAAAEAV0@AEBV0@@Z
??YQString@@QEAAAEAV0@AEBVQByteArray@@@Z
??YQString@@QEAAAEAV0@AEBVQLatin1String@@@Z
??YQString@@QEAAAEAV0@AEBVQStringRef@@@Z
??YQString@@QEAAAEAV0@D@Z
??YQString@@QEAAAEAV0@PEBD@Z
??YQString@@QEAAAEAV0@VQChar@@@Z
??YQString@@QEAAAEAV0@W4SpecialCharacter@QChar@@@Z
??ZQPoint@@QEAAAEAV0@AEBV0@@Z
??ZQPointF@@QEAAAEAV0@AEBV0@@Z
??ZQSize@@QEAAAEAV0@AEBV0@@Z
??ZQSizeF@@QEAAAEAV0@AEBV0@@Z
??_0QPoint@@QEAAAEAV0@N@Z
??_0QPointF@@QEAAAEAV0@N@Z
??_0QSize@@QEAAAEAV0@N@Z
??_0QSizeF@@QEAAAEAV0@N@Z
??_4QBitArray@@QEAAAEAV0@AEBV0@@Z
??_4QRect@@QEAAAEAV0@AEBV0@@Z
??_4QRectF@@QEAAAEAV0@AEBV0@@Z
??_5QBitArray@@QEAAAEAV0@AEBV0@@Z
??_5QRect@@QEAAAEAV0@AEBV0@@Z
??_5QRectF@@QEAAAEAV0@AEBV0@@Z
??_6QBitArray@@QEAAAEAV0@AEBV0@@Z
??_7Exception@QtConcurrent@@6B@
??_7QAbstractAnimation@@6B@
??_7QAbstractDynamicMetaObject@@6B@
??_7QAbstractEventDispatcher@@6B@
??_7QAbstractEventDispatcherPrivate@@6B@
??_7QAbstractFileEngine@@6B@
??_7QAbstractFileEngineHandler@@6B@
??_7QAbstractFileEngineIterator@@6B@
??_7QAbstractItemModel@@6B@
??_7QAbstractItemModelPrivate@@6B@
??_7QAbstractListModel@@6B@
??_7QAbstractState@@6B@
??_7QAbstractTableModel@@6B@
??_7QAbstractTransition@@6B@
??_7QAbstractTransitionPrivate@@6B@
??_7QAnimationDriver@@6B@
??_7QAnimationDriverPrivate@@6B@
??_7QAnimationGroup@@6B@
??_7QBuffer@@6B@
??_7QChildEvent@@6B@
??_7QCoreApplication@@6B@
??_7QCoreApplicationPrivate@@6B@
??_7QDataStream@@6B@
??_7QDateTimeParser@@6B@
??_7QDirIterator@@6B@
??_7QDynamicPropertyChangeEvent@@6B@
??_7QEvent@@6B@
??_7QEventDispatcherWin32@@6B@
??_7QEventLoop@@6B@
??_7QEventTransition@@6B@
??_7QEventTransitionPrivate@@6B@
??_7QFSFileEngine@@6B@
??_7QFSFileEnginePrivate@@6B@
??_7QFactoryInterface@@6B@
??_7QFactoryLoader@@6B@
??_7QFile@@6B@
??_7QFileSystemWatcher@@6B@
??_7QFinalState@@6B@
??_7QFutureInterfaceBase@@6B@
??_7QFutureWatcherBase@@6B@
??_7QHistoryState@@6B@
??_7QIODevice@@6B@
??_7QIODevicePrivate@@6B@
??_7QLibrary@@6B@
??_7QMetaCallEvent@@6B@
??_7QMimeData@@6B@
??_7QNonContiguousByteDevice@@6B@
??_7QObject@@6B@
??_7QObjectCleanupHandler@@6B@
??_7QObjectPrivate@@6B@
??_7QObjectUserData@@6B@
??_7QParallelAnimationGroup@@6B@
??_7QPauseAnimation@@6B@
??_7QPluginLoader@@6B@
??_7QProcess@@6B@
??_7QPropertyAnimation@@6B@
??_7QSequentialAnimationGroup@@6B@
??_7QSettings@@6B@
??_7QSettingsPrivate@@6B@
??_7QSharedMemory@@6B@
??_7QSharedMemoryPrivate@@6B@
??_7QSignalMapper@@6B@
??_7QSignalTransition@@6B@
??_7QSocketNotifier@@6B@
??_7QState@@6B@
??_7QStateMachine@@6B@
??_7QStateMachinePrivate@@6B@
??_7QStatePrivate@@6B@
??_7QSystemLocale@@6B@
??_7QTemporaryFile@@6B@
??_7QTextCodec@@6B@
??_7QTextCodecFactoryInterface@@6B@
??_7QTextCodecPlugin@@6BQObject@@@
??_7QTextCodecPlugin@@6BQTextCodecFactoryInterface@@@
??_7QTextStream@@6B@
??_7QThread@@6B@
??_7QThreadPool@@6B@
??_7QTimeLine@@6B@
??_7QTimer@@6B@
??_7QTimerEvent@@6B@
??_7QTranslator@@6B@
??_7QUnifiedTimer@@6B@
??_7QVariantAnimation@@6B@
??_7QWinEventNotifier@@6B@
??_7QWindowsPipeWriter@@6B@
??_7QXmlStreamEntityResolver@@6B@
??_7ResultStoreBase@QtConcurrent@@6B@
??_7SignalEvent@QStateMachine@@6B@
??_7ThreadEngineBase@QtConcurrent@@6B@
??_7UnhandledException@QtConcurrent@@6B@
??_7WrappedEvent@QStateMachine@@6B@
??_FConverterState@QTextCodec@@QEAAXXZ
??_FQAbstractAnimation@@QEAAXXZ
??_FQAbstractEventDispatcher@@QEAAXXZ
??_FQAbstractItemModel@@QEAAXXZ
??_FQAbstractListModel@@QEAAXXZ
??_FQAbstractState@@QEAAXXZ
??_FQAbstractTableModel@@QEAAXXZ
??_FQAbstractTransition@@QEAAXXZ
??_FQAnimationDriver@@QEAAXXZ
??_FQAnimationGroup@@QEAAXXZ
??_FQAtomicInt@@QEAAXXZ
??_FQBuffer@@QEAAXXZ
??_FQDir@@QEAAXXZ
??_FQEasingCurve@@QEAAXXZ
??_FQEventDispatcherWin32@@QEAAXXZ
??_FQEventLoop@@QEAAXXZ
??_FQEventTransition@@QEAAXXZ
??_FQFileSystemWatcher@@QEAAXXZ
??_FQFinalState@@QEAAXXZ
??_FQFutureInterfaceBase@@QEAAXXZ
??_FQFutureWatcherBase@@QEAAXXZ
??_FQGenericArgument@@QEAAXXZ
??_FQGenericReturnArgument@@QEAAXXZ
??_FQHistoryState@@QEAAXXZ
??_FQLibrary@@QEAAXXZ
??_FQMutex@@QEAAXXZ
??_FQMutexPool@@QEAAXXZ
??_FQObject@@QEAAXXZ
??_FQObjectPrivate@@QEAAXXZ
??_FQParallelAnimationGroup@@QEAAXXZ
??_FQPauseAnimation@@QEAAXXZ
??_FQPluginLoader@@QEAAXXZ
??_FQProcess@@QEAAXXZ
??_FQPropertyAnimation@@QEAAXXZ
??_FQResource@@QEAAXXZ
??_FQSemaphore@@QEAAXXZ
??_FQSequentialAnimationGroup@@QEAAXXZ
??_FQSettings@@QEAAXXZ
??_FQSharedMemory@@QEAAXXZ
??_FQSignalMapper@@QEAAXXZ
??_FQSignalTransition@@QEAAXXZ
??_FQState@@QEAAXXZ
??_FQStateMachine@@QEAAXXZ
??_FQTextCodecPlugin@@QEAAXXZ
??_FQThread@@QEAAXXZ
??_FQThreadPool@@QEAAXXZ
??_FQTimeLine@@QEAAXXZ
??_FQTimer@@QEAAXXZ
??_FQTranslator@@QEAAXXZ
??_FQVariantAnimation@@QEAAXXZ
??_FQWinEventNotifier@@QEAAXXZ
?QStringList_contains@QtPrivate@@YA?AVQBool@@PEBVQStringList@@AEBVQString@@W4CaseSensitivity@Qt@@@Z
?QStringList_filter@QtPrivate@@YA?AVQStringList@@PEBV2@AEBVQRegExp@@@Z
?QStringList_filter@QtPrivate@@YA?AVQStringList@@PEBV2@AEBVQString@@W4CaseSensitivity@Qt@@@Z
?QStringList_indexOf@QtPrivate@@YAHPEBVQStringList@@AEAVQRegExp@@H@Z
?QStringList_indexOf@QtPrivate@@YAHPEBVQStringList@@AEBVQRegExp@@H@Z
?QStringList_join@QtPrivate@@YA?AVQString@@PEBVQStringList@@AEBV2@@Z
?QStringList_lastIndexOf@QtPrivate@@YAHPEBVQStringList@@AEAVQRegExp@@H@Z
?QStringList_lastIndexOf@QtPrivate@@YAHPEBVQStringList@@AEBVQRegExp@@H@Z
?QStringList_removeDuplicates@QtPrivate@@YAHPEAVQStringList@@@Z
?QStringList_replaceInStrings@QtPrivate@@YAXPEAVQStringList@@AEBVQRegExp@@AEBVQString@@@Z
?QStringList_replaceInStrings@QtPrivate@@YAXPEAVQStringList@@AEBVQString@@1W4CaseSensitivity@Qt@@@Z
?QStringList_sort@QtPrivate@@YAXPEAVQStringList@@@Z
?WindowsVersion@QSysInfo@@2W4WinVersion@1@B
?_q_animationFinished@QStateMachinePrivate@@QEAAXXZ
?_q_process@QStateMachinePrivate@@QEAAXXZ
?_q_reregisterTimers@QObjectPrivate@@QEAAXPEAX@Z
?_q_start@QStateMachinePrivate@@QEAAXXZ
?aboutToBlock@QAbstractEventDispatcher@@IEAAXXZ
?aboutToClose@QIODevice@@IEAAXXZ
?aboutToQuit@QCoreApplication@@IEAAXXZ
?absoluteDir@QFileInfo@@QEBA?AVQDir@@XZ
?absoluteFilePath@QDir@@QEBA?AVQString@@AEBV2@@Z
?absoluteFilePath@QFileInfo@@QEBA?AVQString@@XZ
?absoluteFilePath@QResource@@QEBA?AVQString@@XZ
?absoluteMax@QDateTimeParser@@QEBAHHAEBVQDateTime@@@Z
?absoluteMin@QDateTimeParser@@QEBAHH@Z
?absolutePath@QDir@@QEBA?AVQString@@XZ
?absolutePath@QFileInfo@@QEBA?AVQString@@XZ
?accept@QEvent@@QEAAXXZ
?access@QMetaMethod@@QEBA?AW4Access@1@XZ
?acquire@QSemaphore@@QEAAXH@Z
?acquire@QSystemSemaphore@@QEAA_NXZ
?acquireBarrierSemaphore@ThreadEngineBase@QtConcurrent@@QEAAXXZ
?activate@QMetaObject@@SAXPEAVQObject@@HHPEAPEAX@Z
?activate@QMetaObject@@SAXPEAVQObject@@HPEAPEAX@Z
?activate@QMetaObject@@SAXPEAVQObject@@PEBU1@HHPEAPEAX@Z
?activate@QMetaObject@@SAXPEAVQObject@@PEBU1@HPEAPEAX@Z
?activateCallbacks@QInternal@@SA_NW4Callback@1@PEAPEAX@Z
?activateEventNotifiers@QEventDispatcherWin32@@QEAAXXZ
?activated@QSocketNotifier@@IEAAXH@Z
?activated@QWinEventNotifier@@IEAAXPEAX@Z
?activeThreadCount@QThreadPool@@QEBAHXZ
?actualKey@QSettingsPrivate@@QEBA?AVQString@@AEBV2@@Z
?add@QObjectCleanupHandler@@QEAAPEAVQObject@@PEAV2@@Z
?addAnimation@QAbstractTransition@@QEAAXPEAVQAbstractAnimation@@@Z
?addAnimation@QAnimationGroup@@QEAAXPEAVQAbstractAnimation@@@Z
?addConnection@QObjectPrivate@@QEAAXHPEAUConnection@1@@Z
?addData@QCryptographicHash@@QEAAXAEBVQByteArray@@@Z
?addData@QCryptographicHash@@QEAAXPEBDH@Z
?addData@QXmlStreamReader@@QEAAXAEBVQByteArray@@@Z
?addData@QXmlStreamReader@@QEAAXAEBVQString@@@Z
?addData@QXmlStreamReader@@QEAAXPEBD@Z
?addDays@QDate@@QEBA?AV1@H@Z
?addDays@QDateTime@@QEBA?AV1@H@Z
?addDefaultAnimation@QStateMachine@@QEAAXPEAVQAbstractAnimation@@@Z
?addEncodedQueryItem@QUrl@@QEAAXAEBVQByteArray@@0@Z
?addExtraNamespaceDeclaration@QXmlStreamReader@@QEAAXAEBVQXmlStreamNamespaceDeclaration@@@Z
?addExtraNamespaceDeclarations@QXmlStreamReader@@QEAAXAEBV?$QVector@VQXmlStreamNamespaceDeclaration@@@@@Z
?addGuard@QMetaObject@@SAXPEAPEAVQObject@@@Z
?addLibraryPath@QCoreApplication@@SAXAEBVQString@@@Z
?addMSecs@QDateTime@@QEBA?AV1@_J@Z
?addMSecs@QTime@@QEBA?AV1@H@Z
?addMonths@QDate@@QEBA?AV1@H@Z
?addMonths@QDateTime@@QEBA?AV1@H@Z
?addPath@QFileSystemWatcher@@QEAAXAEBVQString@@@Z
?addPaths@QFileSystemWatcher@@QEAAXAEBVQStringList@@@Z
?addPause@QSequentialAnimationGroup@@QEAAPEAVQPauseAnimation@@H@Z
?addQueryItem@QUrl@@QEAAXAEBVQString@@0@Z
?addResourceSearchPath@QDir@@SAXAEBVQString@@@Z
?addResult@ResultStoreBase@QtConcurrent@@QEAAHHPEBX@Z
?addResults@ResultStoreBase@QtConcurrent@@QEAAHHPEBXHH@Z
?addSearchPath@QDir@@SAXAEBVQString@@0@Z
?addSearchPath@QResource@@SAXAEBVQString@@@Z
?addSecs@QDateTime@@QEBA?AV1@H@Z
?addSecs@QTime@@QEBA?AV1@H@Z
?addState@QStateMachine@@QEAAXPEAVQAbstractState@@@Z
?addStatesToEnter@QStateMachinePrivate@@QEAAXPEAVQAbstractState@@PEAVQState@@AEAV?$QSet@PEAVQAbstractState@@@@2@Z
?addTransition@QState@@QEAAPEAVQAbstractTransition@@PEAVQAbstractState@@@Z
?addTransition@QState@@QEAAPEAVQSignalTransition@@PEAVQObject@@PEBDPEAVQAbstractState@@@Z
?addTransition@QState@@QEAAXPEAVQAbstractTransition@@@Z
?addYears@QDate@@QEBA?AV1@H@Z
?addYears@QDateTime@@QEBA?AV1@H@Z
?added@QChildEvent@@QEBA_NXZ
?adjust@QRect@@QEAAXHHHH@Z
?adjust@QRectF@@QEAAXNNNN@Z
?adjusted@QRect@@QEBA?AV1@HHHH@Z
?adjusted@QRectF@@QEBA?AV1@NNNN@Z
?advance@QAnimationDriver@@QEAAXXZ
?aliases@QTextCodec@@UEBA?AV?$QList@VQByteArray@@@@XZ
?alignOfTypedData@?$QVector@VQPoint@@@@AEBAHXZ
?alignOfTypedData@?$QVector@VQPointF@@@@AEBAHXZ
?alignOfTypedData@?$QVector@VQXmlStreamAttribute@@@@AEBAHXZ
?allEncodedQueryItemValues@QUrl@@QEBA?AV?$QList@VQByteArray@@@@AEBVQByteArray@@@Z
?allKeys@QSettings@@QEBA?AVQStringList@@XZ
?allQueryItemValues@QUrl@@QEBA?AVQStringList@@AEBVQString@@@Z
?allocate@QContiguousCacheData@@SAPEAU1@HH@Z
?allocate@QVectorData@@SAPEAU1@HH@Z
?allocateNode@QHashData@@QEAAPEAXH@Z
?allocateNode@QHashData@@QEAAPEAXXZ
?allocateTimerId@QAbstractEventDispatcherPrivate@@SAHXZ
?allowMove@QAbstractItemModelPrivate@@QEAA_NAEBVQModelIndex@@HH0HW4Orientation@Qt@@@Z
?amText@QLocale@@QEBA?AVQString@@XZ
?amplitude@QEasingCurve@@QEBANXZ
?angle@QLineF@@QEBANAEBV1@@Z
?angle@QLineF@@QEBANXZ
?angleTo@QLineF@@QEBANAEBV1@@Z
?animationAt@QAnimationGroup@@QEBAPEAVQAbstractAnimation@@H@Z
?animationCount@QAnimationGroup@@QEBAHXZ
?animations@QAbstractTransition@@QEBA?AV?$QList@PEAVQAbstractAnimation@@@@XZ
?appName@QCoreApplicationPrivate@@UEBA?AVQString@@XZ
?app_compile_version@QCoreApplicationPrivate@@2HA
?append2@QListData@@QEAAPEAPEAXAEBU1@@Z
?append@?$QVector@VQPoint@@@@QEAAXAEBVQPoint@@@Z
?append@?$QVector@VQPointF@@@@QEAAXAEBVQPointF@@@Z
?append@?$QVector@VQXmlStreamAttribute@@@@QEAAXAEBVQXmlStreamAttribute@@@Z
?append@QByteArray@@QEAAAEAV1@AEBV1@@Z
?append@QByteArray@@QEAAAEAV1@AEBVQString@@@Z
?append@QByteArray@@QEAAAEAV1@D@Z
?append@QByteArray@@QEAAAEAV1@PEBD@Z
?append@QByteArray@@QEAAAEAV1@PEBDH@Z
?append@QListData@@QEAAPEAPEAXAEBU1@@Z
?append@QListData@@QEAAPEAPEAXH@Z
?append@QListData@@QEAAPEAPEAXXZ
?append@QString@@QEAAAEAV1@AEBV1@@Z
?append@QString@@QEAAAEAV1@AEBVQByteArray@@@Z
?append@QString@@QEAAAEAV1@AEBVQLatin1String@@@Z
?append@QString@@QEAAAEAV1@AEBVQStringRef@@@Z
?append@QString@@QEAAAEAV1@PEBD@Z
?append@QString@@QEAAAEAV1@VQChar@@@Z
?append@QXmlStreamAttributes@@QEAAXAEBVQString@@00@Z
?append@QXmlStreamAttributes@@QEAAXAEBVQString@@0@Z
?appendApplicationPathToLibraryPaths@QCoreApplicationPrivate@@QEAAXXZ
?appendTo@QStringRef@@QEBA?AV1@PEAVQString@@@Z
?applicationDirPath@QCoreApplication@@SA?AVQString@@XZ
?applicationFilePath@QCoreApplication@@SA?AVQString@@XZ
?applicationName@QCoreApplication@@SA?AVQString@@XZ
?applicationName@QSettings@@QEBA?AVQString@@XZ
?applicationPid@QCoreApplication@@SA_JXZ
?applicationVersion@QCoreApplication@@SA?AVQString@@XZ
?applyProperties@QStateMachinePrivate@@QEAAXAEBV?$QList@PEAVQAbstractTransition@@@@AEBV?$QList@PEAVQAbstractState@@@@1@Z
?arg@QString@@QEBA?AV1@AEBV1@00000000@Z
?arg@QString@@QEBA?AV1@AEBV1@0000000@Z
?arg@QString@@QEBA?AV1@AEBV1@000000@Z
?arg@QString@@QEBA?AV1@AEBV1@00000@Z
?arg@QString@@QEBA?AV1@AEBV1@0000@Z
?arg@QString@@QEBA?AV1@AEBV1@000@Z
?arg@QString@@QEBA?AV1@AEBV1@00@Z
?arg@QString@@QEBA?AV1@AEBV1@0@Z
?arg@QString@@QEBA?AV1@AEBV1@HAEBVQChar@@@Z
?arg@QString@@QEBA?AV1@DHAEBVQChar@@@Z
?arg@QString@@QEBA?AV1@FHHAEBVQChar@@@Z
?arg@QString@@QEBA?AV1@GHHAEBVQChar@@@Z
?arg@QString@@QEBA?AV1@HHHAEBVQChar@@@Z
?arg@QString@@QEBA?AV1@IHHAEBVQChar@@@Z
?arg@QString@@QEBA?AV1@JHHAEBVQChar@@@Z
?arg@QString@@QEBA?AV1@KHHAEBVQChar@@@Z
?arg@QString@@QEBA?AV1@NHDHAEBVQChar@@@Z
?arg@QString@@QEBA?AV1@VQChar@@HAEBV2@@Z
?arg@QString@@QEBA?AV1@_JHHAEBVQChar@@@Z
?arg@QString@@QEBA?AV1@_KHHAEBVQChar@@@Z
?argc@QCoreApplication@@SAHXZ
?args@QMetaCallEvent@@QEBAPEAPEAXXZ
?arguments@QCoreApplication@@SA?AVQStringList@@XZ
?arguments@SignalEvent@QStateMachine@@QEBA?AV?$QList@VQVariant@@@@XZ
?argv@QCoreApplication@@SAPEAPEADXZ
?assignProperty@QState@@QEAAXPEAVQObject@@PEBDAEBVQVariant@@@Z
?at@?$QVector@VQPoint@@@@QEBAAEBVQPoint@@H@Z
?at@?$QVector@VQPointF@@@@QEBAAEBVQPointF@@H@Z
?at@?$QVector@VQXmlStreamAttribute@@@@QEBAAEBVQXmlStreamAttribute@@H@Z
?at@QBitArray@@QEBA_NH@Z
?at@QByteArray@@QEBA?BDH@Z
?at@QListData@@QEBAPEAPEAXH@Z
?at@QString@@QEBA?BVQChar@@H@Z
?at@QStringRef@@QEBA?BVQChar@@H@Z
?atEnd@QAbstractFileEngine@@QEBA_NXZ
?atEnd@QBuffer@@UEBA_NXZ
?atEnd@QDataStream@@QEBA_NXZ
?atEnd@QFile@@UEBA_NXZ
?atEnd@QIODevice@@UEBA_NXZ
?atEnd@QProcess@@UEBA_NXZ
?atEnd@QTextStream@@QEBA_NXZ
?atEnd@QXmlStreamReader@@QEBA_NXZ
?attach@QSharedMemory@@QEAA_NW4AccessMode@1@@Z
?attach@QSharedMemoryPrivate@@QEAA_NW4AccessMode@QSharedMemory@@@Z
?attribs@QCoreApplicationPrivate@@2IA
?attributes@QMetaMethod@@QEBAHXZ
?attributes@QXmlStreamReader@@QEBA?AVQXmlStreamAttributes@@XZ
?authority@QUrl@@QEBA?AVQString@@XZ
?autoDetectUnicode@QTextStream@@QEBA_NXZ
?autoFormatting@QXmlStreamWriter@@QEBA_NXZ
?autoFormattingIndent@QXmlStreamWriter@@QEBAHXZ
?autoRemove@QTemporaryFile@@QEBA_NXZ
?available@QSemaphore@@QEBAHXZ
?availableCodecs@QTextCodec@@SA?AV?$QList@VQByteArray@@@@XZ
?availableMibs@QTextCodec@@SA?AV?$QList@H@@XZ
?awake@QAbstractEventDispatcher@@IEAAXXZ
?back@?$QVector@VQPoint@@@@QEAAAEAVQPoint@@XZ
?back@?$QVector@VQPoint@@@@QEBAAEBVQPoint@@XZ
?back@?$QVector@VQPointF@@@@QEAAAEAVQPointF@@XZ
?back@?$QVector@VQPointF@@@@QEBAAEBVQPointF@@XZ
?back@?$QVector@VQXmlStreamAttribute@@@@QEAAAEAVQXmlStreamAttribute@@XZ
?back@?$QVector@VQXmlStreamAttribute@@@@QEBAAEBVQXmlStreamAttribute@@XZ
?baseName@QFileInfo@@QEBA?AVQString@@XZ
?baseName@QFileSystemEntry@@QEBA?AVQString@@XZ
?batchSize@ResultIteratorBase@QtConcurrent@@QEBAHXZ
?batchedAdvance@ResultIteratorBase@QtConcurrent@@QEAAXXZ
?bcp47Name@QLocale@@QEBA?AVQString@@XZ
?bcp47Name@QLocalePrivate@@QEBA?AVQString@@XZ
?begin@?$QVector@VQPoint@@@@QEAAPEAVQPoint@@XZ
?begin@?$QVector@VQPoint@@@@QEBAPEBVQPoint@@XZ
?begin@?$QVector@VQPointF@@@@QEAAPEAVQPointF@@XZ
?begin@?$QVector@VQPointF@@@@QEBAPEBVQPointF@@XZ
?begin@?$QVector@VQXmlStreamAttribute@@@@QEAAPEAVQXmlStreamAttribute@@XZ
?begin@?$QVector@VQXmlStreamAttribute@@@@QEBAPEBVQXmlStreamAttribute@@XZ
?begin@QByteArray@@QEAAPEADXZ
?begin@QByteArray@@QEBAPEBDXZ
?begin@QListData@@QEBAPEAPEAXXZ
?begin@QString@@QEAAPEAVQChar@@XZ
?begin@QString@@QEBAPEBVQChar@@XZ
?begin@ResultStoreBase@QtConcurrent@@QEBA?AVResultIteratorBase@2@XZ
?beginEntryList@QAbstractFileEngine@@UEAAPEAVQAbstractFileEngineIterator@@V?$QFlags@W4Filter@QDir@@@@AEBVQStringList@@@Z
?beginEntryList@QFSFileEngine@@UEAAPEAVQAbstractFileEngineIterator@@V?$QFlags@W4Filter@QDir@@@@AEBVQStringList@@@Z
?beginGroup@QSettings@@QEAAXAEBVQString@@@Z
?beginGroupOrArray@QSettingsPrivate@@QEAAXAEBVQSettingsGroup@@@Z
?beginInsertColumns@QAbstractItemModel@@IEAAXAEBVQModelIndex@@HH@Z
?beginInsertRows@QAbstractItemModel@@IEAAXAEBVQModelIndex@@HH@Z
?beginMicrostep@QStateMachine@@MEAAXPEAVQEvent@@@Z
?beginMoveColumns@QAbstractItemModel@@IEAA_NAEBVQModelIndex@@HH0H@Z
?beginMoveRows@QAbstractItemModel@@IEAA_NAEBVQModelIndex@@HH0H@Z
?beginReadArray@QSettings@@QEAAHAEBVQString@@@Z
?beginRemoveColumns@QAbstractItemModel@@IEAAXAEBVQModelIndex@@HH@Z
?beginRemoveRows@QAbstractItemModel@@IEAAXAEBVQModelIndex@@HH@Z
?beginResetModel@QAbstractItemModel@@IEAAXXZ
?beginSelectTransitions@QStateMachine@@MEAAXPEAVQEvent@@@Z
?beginWriteArray@QSettings@@QEAAXAEBVQString@@H@Z
?bin@@YAAEAVQTextStream@@AEAV1@@Z
?blockSignals@QObject@@QEAA_N_N@Z
?blockSize@BlockSizeManager@QtConcurrent@@QEAAHXZ
?blockSizeMaxed@BlockSizeManager@QtConcurrent@@AEAA_NXZ
?bom@@YAAEAVQTextStream@@AEAV1@@Z
?bottom@QRect@@QEBAHXZ
?bottom@QRectF@@QEBANXZ
?bottomLeft@QRect@@QEBA?AVQPoint@@XZ
?bottomLeft@QRectF@@QEBA?AVQPointF@@XZ
?bottomRight@QRect@@QEBA?AVQPoint@@XZ
?bottomRight@QRectF@@QEBA?AVQPointF@@XZ
?boundaryReasons@QTextBoundaryFinder@@QEBA?AV?$QFlags@W4BoundaryReason@QTextBoundaryFinder@@@@XZ
?boundedTo@QSize@@QEBA?AV1@AEBV1@@Z
?boundedTo@QSizeF@@QEBA?AV1@AEBV1@@Z
?buddy@QAbstractItemModel@@UEBA?AVQModelIndex@@AEBV2@@Z
?buffer@QBuffer@@QEAAAEAVQByteArray@@XZ
?buffer@QBuffer@@QEBAAEBVQByteArray@@XZ
?buildDate@QLibraryInfo@@SA?AVQDate@@XZ
?buildKey@QLibraryInfo@@SA?AVQString@@XZ
?bundleName@QFileInfo@@QEBA?AVQString@@XZ
?byteOrder@QDataStream@@QEBA?AW4ByteOrder@1@XZ
?bytearrayToDouble@QLocalePrivate@@SANPEBDPEA_N1@Z
?bytearrayToLongLong@QLocalePrivate@@SA_JPEBDHPEA_N1@Z
?bytearrayToUnsLongLong@QLocalePrivate@@SA_KPEBDHPEA_N@Z
?bytesAvailable@QIODevice@@UEBA_JXZ
?bytesAvailable@QProcess@@UEBA_JXZ
?bytesToWrite@QIODevice@@UEBA_JXZ
?bytesToWrite@QProcess@@UEBA_JXZ
?bytesToWrite@QWindowsPipeWriter@@QEBA_JXZ
?bytesWritten@QIODevice@@IEAAX_J@Z
?bytesWritten@QWindowsPipeWriter@@IEAAX_J@Z
?c@QLocale@@SA?AV1@XZ
?caching@QFileInfo@@QEBA_NXZ
?callEventTest@QAbstractTransitionPrivate@@QEAA_NPEAVQEvent@@@Z
?callFunction@QInternal@@SA_NW4InternalFunction@1@PEAPEAX@Z
?callOnTransition@QAbstractTransitionPrivate@@UEAAXPEAVQEvent@@@Z
?canConvert@QVariant@@QEBA_NW4Type@1@@Z
?canEncode@QTextCodec@@QEBA_NAEBVQString@@@Z
?canEncode@QTextCodec@@QEBA_NVQChar@@@Z
?canFetchMore@QAbstractItemModel@@UEBA_NAEBVQModelIndex@@@Z
?canIncrementVectorIndex@ResultIteratorBase@QtConcurrent@@QEBA_NXZ
?canReadLine@QBuffer@@UEBA_NXZ
?canReadLine@QIODevice@@UEBA_NXZ
?canReadLine@QProcess@@UEBA_NXZ
?canWrite@QWindowsPipeWriter@@IEAAXXZ
?cancel@QFutureInterfaceBase@@QEAAXXZ
?cancel@QFutureWatcherBase@@QEAAXXZ
?cancelAllDelayedEvents@QStateMachinePrivate@@QEAAXXZ
?cancelDelayedEvent@QStateMachine@@QEAA_NH@Z
?canceled@QFutureWatcherBase@@IEAAXXZ
?canonicalFilePath@QFileInfo@@QEBA?AVQString@@XZ
?canonicalPath@QDir@@QEBA?AVQString@@XZ
?canonicalPath@QFileInfo@@QEBA?AVQString@@XZ
?cap@QRegExp@@QEAA?AVQString@@H@Z
?cap@QRegExp@@QEBA?AVQString@@H@Z
?capacity@?$QVector@VQPoint@@@@QEBAHXZ
?capacity@?$QVector@VQPointF@@@@QEBAHXZ
?capacity@?$QVector@VQXmlStreamAttribute@@@@QEBAHXZ
?capacity@QByteArray@@QEBAHXZ
?capacity@QString@@QEBAHXZ
?captureCount@QRegExp@@QEBAHXZ
?capturedTexts@QRegExp@@QEAA?AVQStringList@@XZ
?capturedTexts@QRegExp@@QEBA?AVQStringList@@XZ
?caseSensitive@QAbstractFileEngine@@UEBA_NXZ
?caseSensitive@QFSFileEngine@@UEBA_NXZ
?caseSensitivity@QRegExp@@QEBA?AW4CaseSensitivity@Qt@@XZ
?caseSensitivity@QStringMatcher@@QEBA?AW4CaseSensitivity@Qt@@XZ
?cast@QMetaObject@@QEBAPEAVQObject@@PEAV2@@Z
?cast@QMetaObject@@QEBAPEBVQObject@@PEBV2@@Z
?category@QChar@@QEBA?AW4Category@1@XZ
?category@QChar@@SA?AW4Category@1@G@Z
?category@QChar@@SA?AW4Category@1@I@Z
?category@QCharRef@@QEBA?AW4Category@QChar@@XZ
?cd@QDir@@QEAA_NAEBVQString@@@Z
?cdUp@QDir@@QEAA_NXZ
?cell@QChar@@QEBAEXZ
?cell@QCharRef@@QEBAEXZ
?center@@YAAEAVQTextStream@@AEAV1@@Z
?center@QRect@@QEBA?AVQPoint@@XZ
?center@QRectF@@QEBA?AVQPointF@@XZ
?cftr@QTextCodec@@0PEAV1@EA
?changeGuard@QMetaObject@@SAXPEAPEAVQObject@@PEAV2@@Z
?changePersistentIndex@QAbstractItemModel@@IEAAXAEBVQModelIndex@@0@Z
?changePersistentIndexList@QAbstractItemModel@@IEAAXAEBV?$QList@VQModelIndex@@@@0@Z
?characterOffset@QXmlStreamReader@@QEBA_JXZ
?checkConnectArgs@QMetaObject@@SA_NPEBD0@Z
?checkInstance@QCoreApplicationPrivate@@SA_NPEBD@Z
?child@QChildEvent@@QEBAPEAVQObject@@XZ
?child@QModelIndex@@QEBA?AV1@HH@Z
?child@QPersistentModelIndex@@QEBA?AVQModelIndex@@HH@Z
?childEvent@QObject@@MEAAXPEAVQChildEvent@@@Z
?childGroups@QSettings@@QEBA?AVQStringList@@XZ
?childKeys@QSettings@@QEBA?AVQStringList@@XZ
?childMode@QState@@QEBA?AW4ChildMode@1@XZ
?childStates@QStatePrivate@@QEBA?AV?$QList@PEAVQAbstractState@@@@XZ
?children@QObject@@QEBAAEBV?$QList@PEAVQObject@@@@XZ
?children@QResource@@IEBA?AVQStringList@@XZ
?chop@QByteArray@@QEAAXH@Z
?chop@QString@@QEAAXH@Z
?classInfo@QMetaObject@@QEBA?AVQMetaClassInfo@@H@Z
?classInfoCount@QMetaObject@@QEBAHXZ
?classInfoOffset@QMetaObject@@QEBAHXZ
?className@QMetaObject@@QEBAPEBDXZ
?cleanConnectionLists@QObjectPrivate@@QEAAXXZ
?cleanHandle@QSharedMemoryPrivate@@QEAAXXZ
?cleanPath@QDir@@SA?AVQString@@AEBV2@@Z
?cleanup@QThread@@CAXXZ
?clear@?$QVector@VQPoint@@@@QEAAXXZ
?clear@?$QVector@VQPointF@@@@QEAAXXZ
?clear@?$QVector@VQXmlStreamAttribute@@@@QEAAXXZ
?clear@QAnimationGroup@@QEAAXXZ
?clear@QBitArray@@QEAAXXZ
?clear@QByteArray@@QEAAXXZ
?clear@QFileSystemEntry@@QEAAXXZ
?clear@QMimeData@@QEAAXXZ
?clear@QObjectCleanupHandler@@QEAAXXZ
?clear@QProcessEnvironment@@QEAAXXZ
?clear@QSettings@@QEAAXXZ
?clear@QString@@QEAAXXZ
?clear@QStringRef@@QEAAXXZ
?clear@QUrl@@QEAAXXZ
?clear@QVariant@@QEAAXXZ
?clear@QXmlStreamReader@@QEAAXXZ
?clear@QXmlStreamStringRef@@QEAAXXZ
?clearBit@QBitArray@@QEAAXH@Z
?clearCache@QConfFile@@SAXXZ
?clearError@QStateMachine@@QEAAXXZ
?clearGuards@QObjectPrivate@@SAXPEAVQObject@@@Z
?clearHistory@QStateMachinePrivate@@QEAAXXZ
?clockType@QElapsedTimer@@SA?AW4ClockType@1@XZ
?clone@Exception@QtConcurrent@@UEBAPEAV12@XZ
?clone@UnhandledException@QtConcurrent@@UEBAPEAVException@2@XZ
?close@QAbstractFileEngine@@UEAA_NXZ
?close@QBuffer@@UEAAXXZ
?close@QFSFileEngine@@UEAA_NXZ
?close@QFile@@UEAAXXZ
?close@QIODevice@@UEAAXXZ
?close@QProcess@@UEAAXXZ
?closeFdFh@QFSFileEnginePrivate@@QEAA_NXZ
?closeReadChannel@QProcess@@QEAAXW4ProcessChannel@1@@Z
?closeWriteChannel@QProcess@@QEAAXXZ
?closestPauseAnimationTimeToFinish@QUnifiedTimer@@AEAAHXZ
?closingDown@QAbstractEventDispatcher@@UEAAXXZ
?closingDown@QCoreApplication@@SA_NXZ
?closingDown@QEventDispatcherWin32@@UEAAXXZ
?cmp@QVariant@@IEBA_NAEBV1@@Z
?codeToCountry@QLocalePrivate@@SA?AW4Country@QLocale@@AEBVQString@@@Z
?codeToLanguage@QLocalePrivate@@SA?AW4Language@QLocale@@AEBVQString@@@Z
?codeToScript@QLocalePrivate@@SA?AW4Script@QLocale@@AEBVQString@@@Z
?codec@QTextStream@@QEBAPEAVQTextCodec@@XZ
?codec@QXmlStreamWriter@@QEBAPEAVQTextCodec@@XZ
?codecForCStrings@QString@@0PEAVQTextCodec@@EA
?codecForCStrings@QTextCodec@@SAPEAV1@XZ
?codecForHtml@QTextCodec@@SAPEAV1@AEBVQByteArray@@@Z
?codecForHtml@QTextCodec@@SAPEAV1@AEBVQByteArray@@PEAV1@@Z
?codecForLocale@QTextCodec@@SAPEAV1@XZ
?codecForMib@QTextCodec@@SAPEAV1@H@Z
?codecForName@QTextCodec@@SAPEAV1@AEBVQByteArray@@@Z
?codecForName@QTextCodec@@SAPEAV1@PEBD@Z
?codecForTr@QTextCodec@@SAPEAV1@XZ
?codecForUtfText@QTextCodec@@SAPEAV1@AEBVQByteArray@@@Z
?codecForUtfText@QTextCodec@@SAPEAV1@AEBVQByteArray@@PEAV1@@Z
?colorData@QMimeData@@QEBA?AVQVariant@@XZ
?column@QModelIndex@@QEBAHXZ
?column@QPersistentModelIndex@@QEBAHXZ
?columnCount@QAbstractListModel@@EEBAHAEBVQModelIndex@@@Z
?columnNumber@QXmlStreamReader@@QEBA_JXZ
?columnsAboutToBeInserted@QAbstractItemModel@@AEAAXAEBVQModelIndex@@HH@Z
?columnsAboutToBeInserted@QAbstractItemModelPrivate@@QEAAXAEBVQModelIndex@@HH@Z
?columnsAboutToBeMoved@QAbstractItemModel@@AEAAXAEBVQModelIndex@@HH0H@Z
?columnsAboutToBeRemoved@QAbstractItemModel@@AEAAXAEBVQModelIndex@@HH@Z
?columnsAboutToBeRemoved@QAbstractItemModelPrivate@@QEAAXAEBVQModelIndex@@HH@Z
?columnsInserted@QAbstractItemModel@@AEAAXAEBVQModelIndex@@HH@Z
?columnsInserted@QAbstractItemModelPrivate@@QEAAXAEBVQModelIndex@@HH@Z
?columnsMoved@QAbstractItemModel@@AEAAXAEBVQModelIndex@@HH0H@Z
?columnsRemoved@QAbstractItemModel@@AEAAXAEBVQModelIndex@@HH@Z
?columnsRemoved@QAbstractItemModelPrivate@@QEAAXAEBVQModelIndex@@HH@Z
?combiningClass@QChar@@QEBAEXZ
?combiningClass@QChar@@SAEG@Z
?combiningClass@QChar@@SAEI@Z
?combiningClass@QCharRef@@QEBAEXZ
?compare@QString@@QEBAHAEBV1@@Z
?compare@QString@@QEBAHAEBV1@W4CaseSensitivity@Qt@@@Z
?compare@QString@@QEBAHAEBVQLatin1String@@W4CaseSensitivity@Qt@@@Z
?compare@QString@@QEBAHAEBVQStringRef@@W4CaseSensitivity@Qt@@@Z
?compare@QString@@SAHAEBV1@0@Z
?compare@QString@@SAHAEBV1@0W4CaseSensitivity@Qt@@@Z
?compare@QString@@SAHAEBV1@AEBVQLatin1String@@W4CaseSensitivity@Qt@@@Z
?compare@QString@@SAHAEBV1@AEBVQStringRef@@W4CaseSensitivity@Qt@@@Z
?compare@QString@@SAHAEBVQLatin1String@@AEBV1@W4CaseSensitivity@Qt@@@Z
?compare@QStringRef@@QEBAHAEBV1@W4CaseSensitivity@Qt@@@Z
?compare@QStringRef@@QEBAHAEBVQString@@W4CaseSensitivity@Qt@@@Z
?compare@QStringRef@@QEBAHVQLatin1String@@W4CaseSensitivity@Qt@@@Z
?compare@QStringRef@@SAHAEBV1@0W4CaseSensitivity@Qt@@@Z
?compare@QStringRef@@SAHAEBV1@AEBVQString@@W4CaseSensitivity@Qt@@@Z
?compare@QStringRef@@SAHAEBV1@VQLatin1String@@W4CaseSensitivity@Qt@@@Z
?compare_helper@QString@@CAHPEBVQChar@@H0HW4CaseSensitivity@Qt@@@Z
?compare_helper@QString@@CAHPEBVQChar@@HVQLatin1String@@W4CaseSensitivity@Qt@@@Z
?completeBaseName@QFileInfo@@QEBA?AVQString@@XZ
?completeBaseName@QFileSystemEntry@@QEBA?AVQString@@XZ
?completeSuffix@QFileInfo@@QEBA?AVQString@@XZ
?completeSuffix@QFileSystemEntry@@QEBA?AVQString@@XZ
?compressEvent@QCoreApplication@@MEAA_NPEAVQEvent@@PEAVQObject@@PEAVQPostEventList@@@Z
?configuration@QStateMachine@@QEBA?AV?$QSet@PEAVQAbstractState@@@@XZ
?connect@QMetaObject@@SA_NPEBVQObject@@H0HHPEAH@Z
?connect@QObject@@QEBA_NPEBV1@PEBD1W4ConnectionType@Qt@@@Z
?connect@QObject@@SA_NPEBV1@AEBVQMetaMethod@@01W4ConnectionType@Qt@@@Z
?connect@QObject@@SA_NPEBV1@PEBD01W4ConnectionType@Qt@@@Z
?connectNotify@QBuffer@@MEAAXPEBD@Z
?connectNotify@QFutureWatcherBase@@MEAAXPEBD@Z
?connectNotify@QObject@@MEAAXPEBD@Z
?connectNotify@QObjectPrivate@@QEAAXPEBD@Z
?connectOutputInterface@QFutureWatcherBase@@IEAAXXZ
?connectSlotsByName@QMetaObject@@SAXPEAVQObject@@@Z
?constBegin@?$QVector@VQPoint@@@@QEBAPEBVQPoint@@XZ
?constBegin@?$QVector@VQPointF@@@@QEBAPEBVQPointF@@XZ
?constBegin@?$QVector@VQXmlStreamAttribute@@@@QEBAPEBVQXmlStreamAttribute@@XZ
?constBegin@QByteArray@@QEBAPEBDXZ
?constBegin@QString@@QEBAPEBVQChar@@XZ
?constData@?$QVector@VQPoint@@@@QEBAPEBVQPoint@@XZ
?constData@?$QVector@VQPointF@@@@QEBAPEBVQPointF@@XZ
?constData@?$QVector@VQXmlStreamAttribute@@@@QEBAPEBVQXmlStreamAttribute@@XZ
?constData@QByteArray@@QEBAPEBDXZ
?constData@QSharedMemory@@QEBAPEBXXZ
?constData@QString@@QEBAPEBVQChar@@XZ
?constData@QStringRef@@QEBAPEBVQChar@@XZ
?constData@QVariant@@QEBAPEBXXZ
?constEnd@?$QVector@VQPoint@@@@QEBAPEBVQPoint@@XZ
?constEnd@?$QVector@VQPointF@@@@QEBAPEBVQPointF@@XZ
?constEnd@?$QVector@VQXmlStreamAttribute@@@@QEBAPEBVQXmlStreamAttribute@@XZ
?constEnd@QByteArray@@QEBAPEBDXZ
?constEnd@QString@@QEBAPEBVQChar@@XZ
?construct@QMetaType@@SAPEAXHPEBX@Z
?constructor@QMetaObject@@QEBA?AVQMetaMethod@@H@Z
?constructorCount@QMetaObject@@QEBAHXZ
?contains@?$QVector@VQPoint@@@@QEBA_NAEBVQPoint@@@Z
?contains@?$QVector@VQPointF@@@@QEBA_NAEBVQPointF@@@Z
?contains@?$QVector@VQXmlStreamAttribute@@@@QEBA_NAEBVQXmlStreamAttribute@@@Z
?contains@QByteArray@@QEBA?AVQBool@@AEBV1@@Z
?contains@QByteArray@@QEBA?AVQBool@@D@Z
?contains@QByteArray@@QEBA?AVQBool@@PEBD@Z
?contains@QProcessEnvironment@@QEBA_NAEBVQString@@@Z
?contains@QRect@@QEBA_NAEBV1@_N@Z
?contains@QRect@@QEBA_NAEBVQPoint@@_N@Z
?contains@QRect@@QEBA_NHH@Z
?contains@QRect@@QEBA_NHH_N@Z
?contains@QRectF@@QEBA_NAEBV1@@Z
?contains@QRectF@@QEBA_NAEBVQPointF@@@Z
?contains@QRectF@@QEBA_NNN@Z
?contains@QSettings@@QEBA_NAEBVQString@@@Z
?contains@QString@@QEBA?AVQBool@@AEAVQRegExp@@@Z
?contains@QString@@QEBA?AVQBool@@AEBV1@W4CaseSensitivity@Qt@@@Z
?contains@QString@@QEBA?AVQBool@@AEBVQRegExp@@@Z
?contains@QString@@QEBA?AVQBool@@AEBVQStringRef@@W4CaseSensitivity@Qt@@@Z
?contains@QString@@QEBA?AVQBool@@VQChar@@W4CaseSensitivity@Qt@@@Z
?contains@QStringRef@@QEBA?AVQBool@@AEBV1@W4CaseSensitivity@Qt@@@Z
?contains@QStringRef@@QEBA?AVQBool@@AEBVQString@@W4CaseSensitivity@Qt@@@Z
?contains@QStringRef@@QEBA?AVQBool@@VQChar@@W4CaseSensitivity@Qt@@@Z
?contains@QStringRef@@QEBA?AVQBool@@VQLatin1String@@W4CaseSensitivity@Qt@@@Z
?contains@ResultStoreBase@QtConcurrent@@QEBA_NH@Z
?continueFreeData@QMapData@@QEAAXH@Z
?convert@QVariant@@QEAA_NW4Type@1@@Z
?convertFromAscii@QAbstractConcatenable@@KAXDAEAPEAVQChar@@@Z
?convertFromAscii@QAbstractConcatenable@@KAXPEBDHAEAPEAVQChar@@@Z
?convertSeparators@QDir@@SA?AVQString@@AEBV2@@Z
?convertToAscii@QAbstractConcatenable@@KAXPEBVQChar@@HAEAPEAD@Z
?convertToAscii@QAbstractConcatenable@@KAXVQChar@@AEAPEAD@Z
?convertToLatin1@QAbstractConcatenable@@KAXVQChar@@AEAPEAD@Z
?copy@QAbstractFileEngine@@UEAA_NAEBVQString@@@Z
?copy@QFSFileEngine@@UEAA_NAEBVQString@@@Z
?copy@QFile@@QEAA_NAEBVQString@@@Z
?copy@QFile@@SA_NAEBVQString@@0@Z
?count@?$QVector@VQPoint@@@@QEBAHAEBVQPoint@@@Z
?count@?$QVector@VQPoint@@@@QEBAHXZ
?count@?$QVector@VQPointF@@@@QEBAHAEBVQPointF@@@Z
?count@?$QVector@VQPointF@@@@QEBAHXZ
?count@?$QVector@VQXmlStreamAttribute@@@@QEBAHAEBVQXmlStreamAttribute@@@Z
?count@?$QVector@VQXmlStreamAttribute@@@@QEBAHXZ
?count@QBitArray@@QEBAHXZ
?count@QBitArray@@QEBAH_N@Z
?count@QByteArray@@QEBAHAEBV1@@Z
?count@QByteArray@@QEBAHD@Z
?count@QByteArray@@QEBAHPEBD@Z
?count@QByteArray@@QEBAHXZ
?count@QDir@@QEBAIXZ
?count@QString@@QEBAHAEBV1@W4CaseSensitivity@Qt@@@Z
?count@QString@@QEBAHAEBVQRegExp@@@Z
?count@QString@@QEBAHAEBVQStringRef@@W4CaseSensitivity@Qt@@@Z
?count@QString@@QEBAHVQChar@@W4CaseSensitivity@Qt@@@Z
?count@QString@@QEBAHXZ
?count@QStringRef@@QEBAHAEBV1@W4CaseSensitivity@Qt@@@Z
?count@QStringRef@@QEBAHAEBVQString@@W4CaseSensitivity@Qt@@@Z
?count@QStringRef@@QEBAHVQChar@@W4CaseSensitivity@Qt@@@Z
?count@QStringRef@@QEBAHXZ
?count@ResultStoreBase@QtConcurrent@@QEBAHXZ
?countriesForLanguage@QLocale@@SA?AV?$QList@W4Country@QLocale@@@@W4Language@1@@Z
?country@QLocale@@QEBA?AW4Country@1@XZ
?countryCode@QLocalePrivate@@QEBA?AVQString@@XZ
?countryId@QLocalePrivate@@QEBAGXZ
?countryToString@QLocale@@SA?AVQString@@W4Country@1@@Z
?create@QAbstractFileEngine@@SAPEAV1@AEBVQString@@@Z
?create@QNonContiguousByteDeviceFactory@@SAPEAVQNonContiguousByteDevice@@PEAVQByteArray@@@Z
?create@QNonContiguousByteDeviceFactory@@SAPEAVQNonContiguousByteDevice@@PEAVQIODevice@@@Z
?create@QNonContiguousByteDeviceFactory@@SAPEAVQNonContiguousByteDevice@@V?$QSharedPointer@VQRingBuffer@@@@@Z
?create@QSettingsPrivate@@SAPEAV1@AEBVQString@@W4Format@QSettings@@@Z
?create@QSettingsPrivate@@SAPEAV1@W4Format@QSettings@@W4Scope@3@AEBVQString@@2@Z
?create@QSharedMemory@@QEAA_NHW4AccessMode@1@@Z
?create@QSharedMemoryPrivate@@QEAA_NH@Z
?create@QTextCodecPlugin@@EEAAPEAVQTextCodec@@AEBVQString@@@Z
?create@QVariant@@IEAAXHPEBX@Z
?createData@QMapData@@SAPEAU1@H@Z
?createData@QMapData@@SAPEAU1@XZ
?createEventDispatcher@QCoreApplicationPrivate@@UEAAXXZ
?createIndex@QAbstractItemModel@@IEBA?AVQModelIndex@@HHH@Z
?createIndex@QAbstractItemModel@@IEBA?AVQModelIndex@@HHI@Z
?createIndex@QAbstractItemModel@@IEBA?AVQModelIndex@@HHPEAX@Z
?createIndex@QAbstractItemModelPrivate@@QEBA?AVQModelIndex@@HHH@Z
?createIndex@QAbstractItemModelPrivate@@QEBA?AVQModelIndex@@HHPEAX@Z
?createInternalHwnd@QEventDispatcherWin32@@AEAAXXZ
?createLocalFile@QTemporaryFile@@SAPEAV1@AEAVQFile@@@Z
?createLocalFile@QTemporaryFile@@SAPEAV1@AEBVQString@@@Z
?createMutex@QMutexPool@@AEAAPEAVQMutex@@H@Z
?createProperty@QAbstractDynamicMetaObject@@UEAAHPEBD0@Z
?createSeparatedList@QLocale@@QEBA?AVQString@@AEBVQStringList@@@Z
?createUuid@QUuid@@SA?AU1@XZ
?created@QFileInfo@@QEBA?AVQDateTime@@XZ
?currencySymbol@QLocale@@QEBA?AVQString@@W4CurrencySymbolFormat@1@@Z
?current@QDir@@SA?AV1@XZ
?currentAnimation@QSequentialAnimationGroup@@QEBAPEAVQAbstractAnimation@@XZ
?currentAnimationChanged@QSequentialAnimationGroup@@IEAAXPEAVQAbstractAnimation@@@Z
?currentDate@QDate@@SA?AV1@XZ
?currentDateTime@QDateTime@@SA?AV1@XZ
?currentDateTimeUtc@QDateTime@@SA?AV1@XZ
?currentFileInfo@QAbstractFileEngineIterator@@UEBA?AVQFileInfo@@XZ
?currentFilePath@QAbstractFileEngineIterator@@QEBA?AVQString@@XZ
?currentFrame@QTimeLine@@QEBAHXZ
?currentLoop@QAbstractAnimation@@QEBAHXZ
?currentLoopChanged@QAbstractAnimation@@IEAAXH@Z
?currentLoopTime@QAbstractAnimation@@QEBAHXZ
?currentMSecsSinceEpoch@QDateTime@@SA_JXZ
?currentPath@QDir@@SA?AVQString@@XZ
?currentPath@QFSFileEngine@@SA?AVQString@@AEBV2@@Z
?currentThread@QThread@@SAPEAV1@XZ
?currentThreadId@QThread@@SAPEAXXZ
?currentTime@QAbstractAnimation@@QEBAHXZ
?currentTime@QTime@@SA?AV1@XZ
?currentTime@QTimeLine@@QEBAHXZ
?currentUnicodeVersion@QChar@@SA?AW4UnicodeVersion@1@XZ
?currentValue@QTimeLine@@QEBANXZ
?currentValue@QVariantAnimation@@QEBA?AVQVariant@@XZ
?cursorPosition@QDateTimeParser@@UEBAHXZ
?curveShape@QTimeLine@@QEBA?AW4CurveShape@1@XZ
?customEvent@QObject@@MEAAXPEAVQEvent@@@Z
?customType@QEasingCurve@@QEBAP6ANN@ZXZ
?d@QLocale@@AEBAPEBUQLocalePrivate@@XZ
?d_func@QAbstractAnimation@@AEAAPEAVQAbstractAnimationPrivate@@XZ
?d_func@QAbstractAnimation@@AEBAPEBVQAbstractAnimationPrivate@@XZ
?d_func@QAbstractEventDispatcher@@AEAAPEAVQAbstractEventDispatcherPrivate@@XZ
?d_func@QAbstractEventDispatcher@@AEBAPEBVQAbstractEventDispatcherPrivate@@XZ
?d_func@QAbstractFileEngine@@AEAAPEAVQAbstractFileEnginePrivate@@XZ
?d_func@QAbstractFileEngine@@AEBAPEBVQAbstractFileEnginePrivate@@XZ
?d_func@QAbstractItemModel@@AEAAPEAVQAbstractItemModelPrivate@@XZ
?d_func@QAbstractItemModel@@AEBAPEBVQAbstractItemModelPrivate@@XZ
?d_func@QAbstractState@@AEAAPEAVQAbstractStatePrivate@@XZ
?d_func@QAbstractState@@AEBAPEBVQAbstractStatePrivate@@XZ
?d_func@QAbstractTransition@@AEAAPEAVQAbstractTransitionPrivate@@XZ
?d_func@QAbstractTransition@@AEBAPEBVQAbstractTransitionPrivate@@XZ
?d_func@QAnimationDriver@@AEAAPEAVQAnimationDriverPrivate@@XZ
?d_func@QAnimationDriver@@AEBAPEBVQAnimationDriverPrivate@@XZ
?d_func@QAnimationGroup@@AEAAPEAVQAnimationGroupPrivate@@XZ
?d_func@QAnimationGroup@@AEBAPEBVQAnimationGroupPrivate@@XZ
?d_func@QBuffer@@AEAAPEAVQBufferPrivate@@XZ
?d_func@QBuffer@@AEBAPEBVQBufferPrivate@@XZ
?d_func@QCoreApplication@@AEAAPEAVQCoreApplicationPrivate@@XZ
?d_func@QCoreApplication@@AEBAPEBVQCoreApplicationPrivate@@XZ
?d_func@QEventDispatcherWin32@@AEAAPEAVQEventDispatcherWin32Private@@XZ
?d_func@QEventDispatcherWin32@@AEBAPEBVQEventDispatcherWin32Private@@XZ
?d_func@QEventLoop@@AEAAPEAVQEventLoopPrivate@@XZ
?d_func@QEventLoop@@AEBAPEBVQEventLoopPrivate@@XZ
?d_func@QEventTransition@@AEAAPEAVQEventTransitionPrivate@@XZ
?d_func@QEventTransition@@AEBAPEBVQEventTransitionPrivate@@XZ
?d_func@QFSFileEngine@@AEAAPEAVQFSFileEnginePrivate@@XZ
?d_func@QFSFileEngine@@AEBAPEBVQFSFileEnginePrivate@@XZ
?d_func@QFactoryLoader@@AEAAPEAVQFactoryLoaderPrivate@@XZ
?d_func@QFactoryLoader@@AEBAPEBVQFactoryLoaderPrivate@@XZ
?d_func@QFile@@AEAAPEAVQFilePrivate@@XZ
?d_func@QFile@@AEBAPEBVQFilePrivate@@XZ
?d_func@QFileInfo@@AEAAPEAVQFileInfoPrivate@@XZ
?d_func@QFileInfo@@AEBAPEBVQFileInfoPrivate@@XZ
?d_func@QFileSystemWatcher@@AEAAPEAVQFileSystemWatcherPrivate@@XZ
?d_func@QFileSystemWatcher@@AEBAPEBVQFileSystemWatcherPrivate@@XZ
?d_func@QFinalState@@AEAAPEAVQFinalStatePrivate@@XZ
?d_func@QFinalState@@AEBAPEBVQFinalStatePrivate@@XZ
?d_func@QFutureWatcherBase@@AEAAPEAVQFutureWatcherBasePrivate@@XZ
?d_func@QFutureWatcherBase@@AEBAPEBVQFutureWatcherBasePrivate@@XZ
?d_func@QHistoryState@@AEAAPEAVQHistoryStatePrivate@@XZ
?d_func@QHistoryState@@AEBAPEBVQHistoryStatePrivate@@XZ
?d_func@QIODevice@@AEAAPEAVQIODevicePrivate@@XZ
?d_func@QIODevice@@AEBAPEBVQIODevicePrivate@@XZ
?d_func@QMimeData@@AEAAPEAVQMimeDataPrivate@@XZ
?d_func@QMimeData@@AEBAPEBVQMimeDataPrivate@@XZ
?d_func@QObject@@AEAAPEAVQObjectPrivate@@XZ
?d_func@QObject@@AEBAPEBVQObjectPrivate@@XZ
?d_func@QParallelAnimationGroup@@AEAAPEAVQParallelAnimationGroupPrivate@@XZ
?d_func@QParallelAnimationGroup@@AEBAPEBVQParallelAnimationGroupPrivate@@XZ
?d_func@QPauseAnimation@@AEAAPEAVQPauseAnimationPrivate@@XZ
?d_func@QPauseAnimation@@AEBAPEBVQPauseAnimationPrivate@@XZ
?d_func@QProcess@@AEAAPEAVQProcessPrivate@@XZ
?d_func@QProcess@@AEBAPEBVQProcessPrivate@@XZ
?d_func@QPropertyAnimation@@AEAAPEAVQPropertyAnimationPrivate@@XZ
?d_func@QPropertyAnimation@@AEBAPEBVQPropertyAnimationPrivate@@XZ
?d_func@QResource@@AEAAPEAVQResourcePrivate@@XZ
?d_func@QResource@@AEBAPEBVQResourcePrivate@@XZ
?d_func@QSequentialAnimationGroup@@AEAAPEAVQSequentialAnimationGroupPrivate@@XZ
?d_func@QSequentialAnimationGroup@@AEBAPEBVQSequentialAnimationGroupPrivate@@XZ
?d_func@QSettings@@AEAAPEAVQSettingsPrivate@@XZ
?d_func@QSettings@@AEBAPEBVQSettingsPrivate@@XZ
?d_func@QSharedMemory@@AEAAPEAVQSharedMemoryPrivate@@XZ
?d_func@QSharedMemory@@AEBAPEBVQSharedMemoryPrivate@@XZ
?d_func@QSignalMapper@@AEAAPEAVQSignalMapperPrivate@@XZ
?d_func@QSignalMapper@@AEBAPEBVQSignalMapperPrivate@@XZ
?d_func@QSignalTransition@@AEAAPEAVQSignalTransitionPrivate@@XZ
?d_func@QSignalTransition@@AEBAPEBVQSignalTransitionPrivate@@XZ
?d_func@QSocketNotifier@@AEAAPEAVQObjectPrivate@@XZ
?d_func@QSocketNotifier@@AEBAPEBVQObjectPrivate@@XZ
?d_func@QState@@AEAAPEAVQStatePrivate@@XZ
?d_func@QState@@AEBAPEBVQStatePrivate@@XZ
?d_func@QStateMachine@@AEAAPEAVQStateMachinePrivate@@XZ
?d_func@QStateMachine@@AEBAPEBVQStateMachinePrivate@@XZ
?d_func@QTemporaryFile@@AEAAPEAVQTemporaryFilePrivate@@XZ
?d_func@QTemporaryFile@@AEBAPEBVQTemporaryFilePrivate@@XZ
?d_func@QTextStream@@AEAAPEAVQTextStreamPrivate@@XZ
?d_func@QTextStream@@AEBAPEBVQTextStreamPrivate@@XZ
?d_func@QThread@@AEAAPEAVQThreadPrivate@@XZ
?d_func@QThread@@AEBAPEBVQThreadPrivate@@XZ
?d_func@QThreadPool@@AEAAPEAVQThreadPoolPrivate@@XZ
?d_func@QThreadPool@@AEBAPEBVQThreadPoolPrivate@@XZ
?d_func@QTimeLine@@AEAAPEAVQTimeLinePrivate@@XZ
?d_func@QTimeLine@@AEBAPEBVQTimeLinePrivate@@XZ
?d_func@QTranslator@@AEAAPEAVQTranslatorPrivate@@XZ
?d_func@QTranslator@@AEBAPEBVQTranslatorPrivate@@XZ
?d_func@QVariantAnimation@@AEAAPEAVQVariantAnimationPrivate@@XZ
?d_func@QVariantAnimation@@AEBAPEBVQVariantAnimationPrivate@@XZ
?d_func@QWinEventNotifier@@AEAAPEAVQObjectPrivate@@XZ
?d_func@QWinEventNotifier@@AEBAPEBVQObjectPrivate@@XZ
?d_func@QXmlStreamReader@@AEAAPEAVQXmlStreamReaderPrivate@@XZ
?d_func@QXmlStreamReader@@AEBAPEBVQXmlStreamReaderPrivate@@XZ
?d_func@QXmlStreamWriter@@AEAAPEAVQXmlStreamWriterPrivate@@XZ
?d_func@QXmlStreamWriter@@AEBAPEBVQXmlStreamWriterPrivate@@XZ
?data@?$QVector@VQPoint@@@@QEAAPEAVQPoint@@XZ
?data@?$QVector@VQPoint@@@@QEBAPEBVQPoint@@XZ
?data@?$QVector@VQPointF@@@@QEAAPEAVQPointF@@XZ
?data@?$QVector@VQPointF@@@@QEBAPEBVQPointF@@XZ
?data@?$QVector@VQXmlStreamAttribute@@@@QEAAPEAVQXmlStreamAttribute@@XZ
?data@?$QVector@VQXmlStreamAttribute@@@@QEBAPEBVQXmlStreamAttribute@@XZ
?data@QBuffer@@QEBAAEBVQByteArray@@XZ
?data@QByteArray@@QEAAPEADXZ
?data@QByteArray@@QEBAPEBDXZ
?data@QGenericArgument@@QEBAPEAXXZ
?data@QMimeData@@QEBA?AVQByteArray@@AEBVQString@@@Z
?data@QModelIndex@@QEBA?AVQVariant@@H@Z
?data@QPersistentModelIndex@@QEBA?AVQVariant@@H@Z
?data@QResource@@QEBAPEBEXZ
?data@QSharedMemory@@QEAAPEAXXZ
?data@QSharedMemory@@QEBAPEBXXZ
?data@QString@@QEAAPEAVQChar@@XZ
?data@QString@@QEBAPEBVQChar@@XZ
?data@QStringRef@@QEBAPEBVQChar@@XZ
?data@QVariant@@QEAAPEAXXZ
?data@QVariant@@QEBAPEBXXZ
?dataChanged@QAbstractItemModel@@IEAAXAEBVQModelIndex@@0@Z
?data_ptr@QBitArray@@QEAAAEAPEAUData@QByteArray@@XZ
?data_ptr@QByteArray@@QEAAAEAPEAUData@1@XZ
?data_ptr@QString@@QEAAAEAPEAUData@1@XZ
?data_ptr@QUrl@@QEAAAEAPEAVQUrlPrivate@@XZ
?data_ptr@QVariant@@QEAAAEAUPrivate@1@XZ
?date@QDateTime@@QEBA?AVQDate@@XZ
?dateFormat@QLocale@@QEBA?AVQString@@W4FormatType@1@@Z
?dateTimeFormat@QLocale@@QEBA?AVQString@@W4FormatType@1@@Z
?dateTimeToString@QLocalePrivate@@QEBA?AVQString@@AEBV2@PEBVQDate@@PEBVQTime@@PEBVQLocale@@@Z
?day@QDate@@QEBAHXZ
?dayName@QLocale@@QEBA?AVQString@@HW4FormatType@1@@Z
?dayOfWeek@QDate@@QEBAHXZ
?dayOfYear@QDate@@QEBAHXZ
?daysInMonth@QDate@@QEBAHXZ
?daysInYear@QDate@@QEBAHXZ
?daysTo@QDate@@QEBAHAEBV1@@Z
?daysTo@QDateTime@@QEBAHAEBV1@@Z
?dec@@YAAEAVQTextStream@@AEAV1@@Z
?decimal@QLocalePrivate@@QEBA?AVQChar@@XZ
?decimalPoint@QLocale@@QEBA?AVQChar@@XZ
?decodeData@QAbstractItemModel@@IEAA_NHHAEBVQModelIndex@@AEAVQDataStream@@@Z
?decodeMSG@@YA?AVQString@@AEBUtagMSG@@@Z
?decodeName@QFile@@SA?AVQString@@AEBVQByteArray@@@Z
?decodeName@QFile@@SA?AVQString@@PEBD@Z
?decomposition@QChar@@QEBA?AVQString@@XZ
?decomposition@QChar@@SA?AVQString@@I@Z
?decomposition@QCharRef@@QEBA?AVQString@@XZ
?decompositionTag@QChar@@QEBA?AW4Decomposition@1@XZ
?decompositionTag@QChar@@SA?AW4Decomposition@1@I@Z
?decompositionTag@QCharRef@@QEBA?AW4Decomposition@QChar@@XZ
?defaultAnimations@QStateMachine@@QEBA?AV?$QList@PEAVQAbstractAnimation@@@@XZ
?defaultFormat@QSettings@@SA?AW4Format@1@XZ
?defaultRoleNames@QAbstractItemModelPrivate@@SAAEBV?$QHash@HVQByteArray@@@@XZ
?defaultState@QHistoryState@@QEBAPEAVQAbstractState@@XZ
?deleteChildren@QObjectPrivate@@QEAAXXZ
?deleteLater@QObject@@QEAAXXZ
?dequeueExternalEvent@QStateMachinePrivate@@QEAAPEAVQEvent@@XZ
?dequeueInternalEvent@QStateMachinePrivate@@QEAAPEAVQEvent@@XZ
?deref@QBasicAtomicInt@@QEAA_NXZ
?destroy@QMetaType@@SAXHPEAX@Z
?destroyAndFree@QHashData@@QEAAXXZ
?destroyed@QAbstractDeclarativeData@@2P6AXPEAV1@PEAVQObject@@@ZEA
?destroyed@QObject@@IEAAXPEAV1@@Z
?detach2@QListData@@QEAAPEAUData@1@XZ
?detach3@QListData@@QEAAPEAUData@1@XZ
?detach@?$QVector@VQPoint@@@@QEAAXXZ
?detach@?$QVector@VQPointF@@@@QEAAXXZ
?detach@?$QVector@VQXmlStreamAttribute@@@@QEAAXXZ
?detach@QBitArray@@QEAAXXZ
?detach@QByteArray@@QEAAXXZ
?detach@QDateTime@@AEAAXXZ
?detach@QFileInfo@@QEAAXXZ
?detach@QListData@@QEAAPEAUData@1@H@Z
?detach@QListData@@QEAAPEAUData@1@XZ
?detach@QSharedMemory@@QEAA_NXZ
?detach@QSharedMemoryPrivate@@QEAA_NXZ
?detach@QString@@QEAAXXZ
?detach@QUrl@@AEAAXAEAVQMutexLocker@@@Z
?detach@QUrl@@QEAAXXZ
?detach@QVariant@@QEAAXXZ
?detach_grow@QListData@@QEAAPEAUData@1@PEAHH@Z
?detach_helper2@QHashData@@QEAAPEAU1@P6AXPEAUNode@1@PEAX@ZP6AX0@ZHH@Z
?detach_helper@?$QVector@VQPoint@@@@AEAAXXZ
?detach_helper@?$QVector@VQPointF@@@@AEAAXXZ
?detach_helper@?$QVector@VQXmlStreamAttribute@@@@AEAAXXZ
?detach_helper@QHashData@@QEAAPEAU1@P6AXPEAUNode@1@PEAX@ZH@Z
?device@QDataStream@@QEBAPEAVQIODevice@@XZ
?device@QTextStream@@QEBAPEAVQIODevice@@XZ
?device@QXmlStreamReader@@QEBAPEAVQIODevice@@XZ
?device@QXmlStreamWriter@@QEBAPEAVQIODevice@@XZ
?digitToCLocale@QLocalePrivate@@QEBADAEBVQChar@@@Z
?digitValue@QChar@@QEBAHXZ
?digitValue@QChar@@SAHG@Z
?digitValue@QChar@@SAHI@Z
?digitValue@QCharRef@@QEBAHXZ
?dir@QFileInfo@@QEBA?AVQDir@@XZ
?dirName@QDir@@QEBA?AVQString@@XZ
?direction@QAbstractAnimation@@QEBA?AW4Direction@1@XZ
?direction@QChar@@QEBA?AW4Direction@1@XZ
?direction@QChar@@SA?AW4Direction@1@G@Z
?direction@QChar@@SA?AW4Direction@1@I@Z
?direction@QCharRef@@QEBA?AW4Direction@QChar@@XZ
?direction@QTimeLine@@QEBA?AW4Direction@1@XZ
?directionChanged@QAbstractAnimation@@IEAAXW4Direction@1@@Z
?directories@QFileSystemWatcher@@QEBA?AVQStringList@@XZ
?directoryChanged@QFileSystemWatcher@@IEAAXAEBVQString@@@Z
?disableReset@QNonContiguousByteDevice@@QEAAXXZ
?disconnect@QMetaObject@@SA_NPEBVQObject@@H0H@Z
?disconnect@QObject@@QEAA_NPEBDPEBV1@0@Z
?disconnect@QObject@@QEAA_NPEBV1@PEBD@Z
?disconnect@QObject@@SA_NPEBV1@AEBVQMetaMethod@@01@Z
?disconnect@QObject@@SA_NPEBV1@PEBD01@Z
?disconnectNotify@QBuffer@@MEAAXPEBD@Z
?disconnectNotify@QFutureWatcherBase@@MEAAXPEBD@Z
?disconnectNotify@QObject@@MEAAXPEBD@Z
?disconnectNotify@QObjectPrivate@@QEAAXPEBD@Z
?disconnectOne@QMetaObject@@SA_NPEBVQObject@@H0H@Z
?disconnectOutputInterface@QFutureWatcherBase@@IEAAX_N@Z
?displayText@QDateTimeParser@@UEBA?AVQString@@XZ
?doStat@QFSFileEnginePrivate@@QEBA_NV?$QFlags@W4MetaDataFlag@QFileSystemMetaData@@@@@Z
?documentEncoding@QXmlStreamReader@@QEBA?AVQStringRef@@XZ
?documentVersion@QXmlStreamReader@@QEBA?AVQStringRef@@XZ
?doubleToString@QLocalePrivate@@QEBA?AVQString@@NHW4DoubleForm@1@HI@Z
?doubleToString@QLocalePrivate@@SA?AVQString@@VQChar@@00000NHW4DoubleForm@1@HI@Z
?drives@QDir@@SA?AV?$QList@VQFileInfo@@@@XZ
?drives@QFSFileEngine@@SA?AV?$QList@VQFileInfo@@@@XZ
?dropMimeData@QAbstractItemModel@@UEAA_NPEBVQMimeData@@W4DropAction@Qt@@HHAEBVQModelIndex@@@Z
?dropMimeData@QAbstractListModel@@UEAA_NPEBVQMimeData@@W4DropAction@Qt@@HHAEBVQModelIndex@@@Z
?dropMimeData@QAbstractTableModel@@UEAA_NPEBVQMimeData@@W4DropAction@Qt@@HHAEBVQModelIndex@@@Z
?ds@QTime@@AEBAHXZ
?dtdName@QXmlStreamReader@@QEBA?AVQStringRef@@XZ
?dtdPublicId@QXmlStreamReader@@QEBA?AVQStringRef@@XZ
?dtdSystemId@QXmlStreamReader@@QEBA?AVQStringRef@@XZ
?dumpObjectInfo@QObject@@QEAAXXZ
?dumpObjectTree@QObject@@QEAAXXZ
?duration@QParallelAnimationGroup@@UEBAHXZ
?duration@QPauseAnimation@@UEBAHXZ
?duration@QSequentialAnimationGroup@@UEBAHXZ
?duration@QTimeLine@@QEBAHXZ
?duration@QVariantAnimation@@UEBAHXZ
?dx@QLine@@QEBAHXZ
?dx@QLineF@@QEBANXZ
?dy@QLine@@QEBAHXZ
?dy@QLineF@@QEBANXZ
?dynamicPropertyNames@QObject@@QEBA?AV?$QList@VQByteArray@@@@XZ
?easingCurve@QTimeLine@@QEBA?AVQEasingCurve@@XZ
?easingCurve@QVariantAnimation@@QEBA?AVQEasingCurve@@XZ
?elapsed@QElapsedTimer@@QEBA_JXZ
?elapsed@QTime@@QEBAHXZ
?emitFinished@QStatePrivate@@QEAAXXZ
?emitPropertiesAssigned@QStatePrivate@@QEAAXXZ
?emitTriggered@QAbstractTransitionPrivate@@QEAAXXZ
?empty@?$QVector@VQPoint@@@@QEBA_NXZ
?empty@?$QVector@VQPointF@@@@QEBA_NXZ
?empty@?$QVector@VQXmlStreamAttribute@@@@QEBA_NXZ
?enclosingMetaObject@QMetaClassInfo@@QEBAPEBUQMetaObject@@XZ
?enclosingMetaObject@QMetaEnum@@QEBAPEBUQMetaObject@@XZ
?enclosingMetaObject@QMetaMethod@@QEBAPEBUQMetaObject@@XZ
?enclosingMetaObject@QMetaProperty@@QEBAPEBUQMetaObject@@XZ
?encodeData@QAbstractItemModel@@IEBAXAEBV?$QList@VQModelIndex@@@@AEAVQDataStream@@@Z
?encodeName@QFile@@SA?AVQByteArray@@AEBVQString@@@Z
?encodedFragment@QUrl@@QEBA?AVQByteArray@@XZ
?encodedHost@QUrl@@QEBA?AVQByteArray@@XZ
?encodedPassword@QUrl@@QEBA?AVQByteArray@@XZ
?encodedPath@QUrl@@QEBA?AVQByteArray@@XZ
?encodedQuery@QUrl@@QEBA?AVQByteArray@@XZ
?encodedQueryItemValue@QUrl@@QEBA?AVQByteArray@@AEBV2@@Z
?encodedQueryItems@QUrl@@QEBA?AV?$QList@U?$QPair@VQByteArray@@V1@@@@@XZ
?encodedUserName@QUrl@@QEBA?AVQByteArray@@XZ
?end@?$QVector@VQPoint@@@@QEAAPEAVQPoint@@XZ
?end@?$QVector@VQPoint@@@@QEBAPEBVQPoint@@XZ
?end@?$QVector@VQPointF@@@@QEAAPEAVQPointF@@XZ
?end@?$QVector@VQPointF@@@@QEBAPEBVQPointF@@XZ
?end@?$QVector@VQXmlStreamAttribute@@@@QEAAPEAVQXmlStreamAttribute@@XZ
?end@?$QVector@VQXmlStreamAttribute@@@@QEBAPEBVQXmlStreamAttribute@@XZ
?end@QByteArray@@QEAAPEADXZ
?end@QByteArray@@QEBAPEBDXZ
?end@QListData@@QEBAPEAPEAXXZ
?end@QString@@QEAAPEAVQChar@@XZ
?end@QString@@QEBAPEBVQChar@@XZ
?end@ResultStoreBase@QtConcurrent@@QEBA?AVResultIteratorBase@2@XZ
?endArray@QSettings@@QEAAXXZ
?endEntryList@QAbstractFileEngine@@UEAAPEAVQAbstractFileEngineIterator@@XZ
?endEntryList@QFSFileEngine@@UEAAPEAVQAbstractFileEngineIterator@@XZ
?endFrame@QTimeLine@@QEBAHXZ
?endGroup@QSettings@@QEAAXXZ
?endInsertColumns@QAbstractItemModel@@IEAAXXZ
?endInsertRows@QAbstractItemModel@@IEAAXXZ
?endMicrostep@QStateMachine@@MEAAXPEAVQEvent@@@Z
?endMoveColumns@QAbstractItemModel@@IEAAXXZ
?endMoveRows@QAbstractItemModel@@IEAAXXZ
?endRemoveColumns@QAbstractItemModel@@IEAAXXZ
?endRemoveRows@QAbstractItemModel@@IEAAXXZ
?endResetModel@QAbstractItemModel@@IEAAXXZ
?endSelectTransitions@QStateMachine@@MEAAXPEAVQEvent@@@Z
?endValue@QVariantAnimation@@QEBA?AVQVariant@@XZ
?endl@@YAAEAVQTextStream@@AEAV1@@Z
?endsWith@?$QVector@VQPoint@@@@QEBA_NAEBVQPoint@@@Z
?endsWith@?$QVector@VQPointF@@@@QEBA_NAEBVQPointF@@@Z
?endsWith@?$QVector@VQXmlStreamAttribute@@@@QEBA_NAEBVQXmlStreamAttribute@@@Z
?endsWith@QByteArray@@QEBA_NAEBV1@@Z
?endsWith@QByteArray@@QEBA_ND@Z
?endsWith@QByteArray@@QEBA_NPEBD@Z
?endsWith@QString@@QEBA_NAEBV1@W4CaseSensitivity@Qt@@@Z
?endsWith@QString@@QEBA_NAEBVQChar@@W4CaseSensitivity@Qt@@@Z
?endsWith@QString@@QEBA_NAEBVQLatin1String@@W4CaseSensitivity@Qt@@@Z
?endsWith@QString@@QEBA_NAEBVQStringRef@@W4CaseSensitivity@Qt@@@Z
?endsWith@QStringRef@@QEBA_NAEBV1@W4CaseSensitivity@Qt@@@Z
?endsWith@QStringRef@@QEBA_NAEBVQString@@W4CaseSensitivity@Qt@@@Z
?endsWith@QStringRef@@QEBA_NVQChar@@W4CaseSensitivity@Qt@@@Z
?endsWith@QStringRef@@QEBA_NVQLatin1String@@W4CaseSensitivity@Qt@@@Z
?ensureTimerUpdate@QUnifiedTimer@@SAXXZ
?enterStates@QStateMachinePrivate@@QEAA?AV?$QList@PEAVQAbstractState@@@@PEAVQEvent@@AEBV?$QList@PEAVQAbstractTransition@@@@@Z
?entered@QAbstractState@@AEAAXXZ
?entityDeclarations@QXmlStreamReader@@QEBA?AV?$QVector@VQXmlStreamEntityDeclaration@@@@XZ
?entityResolver@QXmlStreamReader@@QEBAPEAVQXmlStreamEntityResolver@@XZ
?entryInfo@QAbstractFileEngineIterator@@MEBA?AVQVariant@@W4EntryInfoType@1@@Z
?entryInfoList@QDir@@QEBA?AV?$QList@VQFileInfo@@@@AEBVQStringList@@V?$QFlags@W4Filter@QDir@@@@V?$QFlags@W4SortFlag@QDir@@@@@Z
?entryInfoList@QDir@@QEBA?AV?$QList@VQFileInfo@@@@V?$QFlags@W4Filter@QDir@@@@V?$QFlags@W4SortFlag@QDir@@@@@Z
?entryList@QAbstractFileEngine@@UEBA?AVQStringList@@V?$QFlags@W4Filter@QDir@@@@AEBV2@@Z
?entryList@QDir@@QEBA?AVQStringList@@AEBV2@V?$QFlags@W4Filter@QDir@@@@V?$QFlags@W4SortFlag@QDir@@@@@Z
?entryList@QDir@@QEBA?AVQStringList@@V?$QFlags@W4Filter@QDir@@@@V?$QFlags@W4SortFlag@QDir@@@@@Z
?entryList@QFSFileEngine@@UEBA?AVQStringList@@V?$QFlags@W4Filter@QDir@@@@AEBV2@@Z
?enumerator@QMetaObject@@QEBA?AVQMetaEnum@@H@Z
?enumerator@QMetaProperty@@QEBA?AVQMetaEnum@@XZ
?enumeratorCount@QMetaObject@@QEBAHXZ
?enumeratorOffset@QMetaObject@@QEBAHXZ
?environment@QProcess@@QEBA?AVQStringList@@XZ
?erase@?$QVector@VQPoint@@@@QEAAPEAVQPoint@@PEAV2@0@Z
?erase@?$QVector@VQPoint@@@@QEAAPEAVQPoint@@PEAV2@@Z
?erase@?$QVector@VQPointF@@@@QEAAPEAVQPointF@@PEAV2@0@Z
?erase@?$QVector@VQPointF@@@@QEAAPEAVQPointF@@PEAV2@@Z
?erase@?$QVector@VQXmlStreamAttribute@@@@QEAAPEAVQXmlStreamAttribute@@PEAV2@0@Z
?erase@?$QVector@VQXmlStreamAttribute@@@@QEAAPEAVQXmlStreamAttribute@@PEAV2@@Z
?erase@QListData@@QEAAPEAPEAXPEAPEAX@Z
?error@QAbstractFileEngine@@QEBA?AW4FileError@QFile@@XZ
?error@QFile@@QEBA?AW4FileError@1@XZ
?error@QProcess@@IEAAXW4ProcessError@1@@Z
?error@QProcess@@QEBA?AW4ProcessError@1@XZ
?error@QSharedMemory@@QEBA?AW4SharedMemoryError@1@XZ
?error@QStateMachine@@QEBA?AW4Error@1@XZ
?error@QSystemError@@QEAAHXZ
?error@QSystemSemaphore@@QEBA?AW4SystemSemaphoreError@1@XZ
?error@QXmlStreamReader@@QEBA?AW4Error@1@XZ
?errorState@QState@@QEBAPEAVQAbstractState@@XZ
?errorString@QAbstractFileEngine@@QEBA?AVQString@@XZ
?errorString@QIODevice@@QEBA?AVQString@@XZ
?errorString@QLibrary@@QEBA?AVQString@@XZ
?errorString@QPluginLoader@@QEBA?AVQString@@XZ
?errorString@QRegExp@@QEAA?AVQString@@XZ
?errorString@QRegExp@@QEBA?AVQString@@XZ
?errorString@QSharedMemory@@QEBA?AVQString@@XZ
?errorString@QStateMachine@@QEBA?AVQString@@XZ
?errorString@QSystemSemaphore@@QEBA?AVQString@@XZ
?errorString@QUrl@@QEBA?AVQString@@XZ
?errorString@QXmlStreamReader@@QEBA?AVQString@@XZ
?escape@QRegExp@@SA?AVQString@@AEBV2@@Z
?event@QAbstractAnimation@@MEAA_NPEAVQEvent@@@Z
?event@QAbstractState@@MEAA_NPEAVQEvent@@@Z
?event@QAbstractTransition@@MEAA_NPEAVQEvent@@@Z
?event@QAnimationGroup@@MEAA_NPEAVQEvent@@@Z
?event@QCoreApplication@@MEAA_NPEAVQEvent@@@Z
?event@QEventDispatcherWin32@@UEAA_NPEAVQEvent@@@Z
?event@QEventTransition@@MEAA_NPEAVQEvent@@@Z
?event@QFinalState@@MEAA_NPEAVQEvent@@@Z
?event@QFutureWatcherBase@@UEAA_NPEAVQEvent@@@Z
?event@QHistoryState@@MEAA_NPEAVQEvent@@@Z
?event@QObject@@UEAA_NPEAVQEvent@@@Z
?event@QParallelAnimationGroup@@MEAA_NPEAVQEvent@@@Z
?event@QPauseAnimation@@MEAA_NPEAVQEvent@@@Z
?event@QPropertyAnimation@@MEAA_NPEAVQEvent@@@Z
?event@QSequentialAnimationGroup@@MEAA_NPEAVQEvent@@@Z
?event@QSettings@@MEAA_NPEAVQEvent@@@Z
?event@QSignalTransition@@MEAA_NPEAVQEvent@@@Z
?event@QSocketNotifier@@MEAA_NPEAVQEvent@@@Z
?event@QState@@MEAA_NPEAVQEvent@@@Z
?event@QStateMachine@@MEAA_NPEAVQEvent@@@Z
?event@QVariantAnimation@@MEAA_NPEAVQEvent@@@Z
?event@QWinEventNotifier@@MEAA_NPEAVQEvent@@@Z
?event@WrappedEvent@QStateMachine@@QEBAPEAVQEvent@@XZ
?eventDispatcher@QCoreApplicationPrivate@@2PEAVQAbstractEventDispatcher@@EA
?eventFilter@QObject@@UEAA_NPEAV1@PEAVQEvent@@@Z
?eventFilter@QStateMachine@@UEAA_NPEAVQObject@@PEAVQEvent@@@Z
?eventSource@QEventTransition@@QEBAPEAVQObject@@XZ
?eventTest@QEventTransition@@MEAA_NPEAVQEvent@@@Z
?eventTest@QSignalTransition@@MEAA_NPEAVQEvent@@@Z
?eventType@QEventTransition@@QEBA?AW4Type@QEvent@@XZ
?exactMatch@QRegExp@@QEBA_NAEBVQString@@@Z
?exception@ExceptionStore@internal@QtConcurrent@@QEAA?AVExceptionHolder@23@XZ
?exceptionStore@QFutureInterfaceBase@@QEAAAEAVExceptionStore@internal@QtConcurrent@@XZ
?exec@QCoreApplication@@SAHXZ
?exec@QEventLoop@@QEAAHV?$QFlags@W4ProcessEventsFlag@QEventLoop@@@@@Z
?exec@QTextStreamManipulator@@QEAAXAEAVQTextStream@@@Z
?exec@QThread@@IEAAHXZ
?execute@QProcess@@SAHAEBVQString@@@Z
?execute@QProcess@@SAHAEBVQString@@AEBVQStringList@@@Z
?executeTransitionContent@QStateMachinePrivate@@QEAAXPEAVQEvent@@AEBV?$QList@PEAVQAbstractTransition@@@@@Z
?exists@QDir@@QEBA_NAEBVQString@@@Z
?exists@QDir@@QEBA_NXZ
?exists@QFile@@QEBA_NXZ
?exists@QFile@@SA_NAEBVQString@@@Z
?exists@QFileInfo@@QEBA_NXZ
?exit@QCoreApplication@@SAXH@Z
?exit@QEventLoop@@QEAAXH@Z
?exit@QThread@@QEAAXH@Z
?exitCode@QProcess@@QEBAHXZ
?exitStates@QStateMachinePrivate@@QEAA?AV?$QList@PEAVQAbstractState@@@@PEAVQEvent@@AEBV?$QList@PEAVQAbstractTransition@@@@@Z
?exitStatus@QProcess@@QEBA?AW4ExitStatus@1@XZ
?exited@QAbstractState@@AEAAXXZ
?expand@QByteArray@@AEAAXH@Z
?expand@QString@@AEAAXH@Z
?expandedTo@QSize@@QEBA?AV1@AEBV1@@Z
?expandedTo@QSizeF@@QEBA?AV1@AEBV1@@Z
?expectedResultCount@QFutureInterfaceBase@@QEAAHXZ
?expiryTimeout@QThreadPool@@QEBAHXZ
?exponential@QLocale@@QEBA?AVQChar@@XZ
?exponential@QLocalePrivate@@QEBA?AVQChar@@XZ
?extension@QAbstractFileEngine@@UEAA_NW4Extension@1@PEBVExtensionOption@1@PEAVExtensionReturn@1@@Z
?extension@QFSFileEngine@@UEAA_NW4Extension@QAbstractFileEngine@@PEBVExtensionOption@3@PEAVExtensionReturn@3@@Z
?fallbackLocale@QSystemLocale@@UEBA?AVQLocale@@XZ
?fallbacksEnabled@QSettings@@QEBA_NXZ
?fetchAndAddAcquire@QBasicAtomicInt@@QEAAHH@Z
?fetchAndAddOrdered@QBasicAtomicInt@@QEAAHH@Z
?fetchAndAddRelaxed@QBasicAtomicInt@@QEAAHH@Z
?fetchAndAddRelease@QBasicAtomicInt@@QEAAHH@Z
?fetchAndStoreAcquire@QBasicAtomicInt@@QEAAHH@Z
?fetchAndStoreOrdered@QBasicAtomicInt@@QEAAHH@Z
?fetchAndStoreRelaxed@QBasicAtomicInt@@QEAAHH@Z
?fetchAndStoreRelease@QBasicAtomicInt@@QEAAHH@Z
?fetchMore@QAbstractItemModel@@UEAAXAEBVQModelIndex@@@Z
?fieldAlignment@QTextStream@@QEBA?AW4FieldAlignment@1@XZ
?fieldInfo@QDateTimeParser@@QEBA?AV?$QFlags@W4FieldInfoFlag@QDateTimeParser@@@@H@Z
?fieldWidth@QTextStream@@QEBAHXZ
?fileChanged@QFileSystemWatcher@@IEAAXAEBVQString@@@Z
?fileEngine@QFile@@UEBAPEAVQAbstractFileEngine@@XZ
?fileEngine@QTemporaryFile@@UEBAPEAVQAbstractFileEngine@@XZ
?fileFlags@QAbstractFileEngine@@UEBA?AV?$QFlags@W4FileFlag@QAbstractFileEngine@@@@V2@@Z
?fileFlags@QFSFileEngine@@UEBA?AV?$QFlags@W4FileFlag@QAbstractFileEngine@@@@V2@@Z
?fileInfo@QDirIterator@@QEBA?AVQFileInfo@@XZ
?fileName@QAbstractFileEngine@@UEBA?AVQString@@W4FileName@1@@Z
?fileName@QDirIterator@@QEBA?AVQString@@XZ
?fileName@QFSFileEngine@@UEBA?AVQString@@W4FileName@QAbstractFileEngine@@@Z
?fileName@QFile@@QEBA?AVQString@@XZ
?fileName@QFileInfo@@QEBA?AVQString@@XZ
?fileName@QFileSystemEntry@@QEBA?AVQString@@XZ
?fileName@QLibrary@@QEBA?AVQString@@XZ
?fileName@QPluginLoader@@QEBA?AVQString@@XZ
?fileName@QResource@@QEBA?AVQString@@XZ
?fileName@QSettings@@QEBA?AVQString@@XZ
?fileName@QTemporaryFile@@QEBA?AVQString@@XZ
?filePath@QDir@@QEBA?AVQString@@AEBV2@@Z
?filePath@QDirIterator@@QEBA?AVQString@@XZ
?filePath@QFileInfo@@QEBA?AVQString@@XZ
?filePath@QFileSystemEntry@@QEBA?AVQString@@XZ
?fileTemplate@QTemporaryFile@@QEBA?AVQString@@XZ
?fileTime@QAbstractFileEngine@@UEBA?AVQDateTime@@W4FileTime@1@@Z
?fileTime@QFSFileEngine@@UEBA?AVQDateTime@@W4FileTime@QAbstractFileEngine@@@Z
?files@QFileSystemWatcher@@QEBA?AVQStringList@@XZ
?fill@?$QVector@VQPoint@@@@QEAAAEAV1@AEBVQPoint@@H@Z
?fill@?$QVector@VQPointF@@@@QEAAAEAV1@AEBVQPointF@@H@Z
?fill@?$QVector@VQXmlStreamAttribute@@@@QEAAAEAV1@AEBVQXmlStreamAttribute@@H@Z
?fill@QBitArray@@QEAAX_NHH@Z
?fill@QBitArray@@QEAA_N_NH@Z
?fill@QByteArray@@QEAAAEAV1@DH@Z
?fill@QString@@QEAAAEAV1@VQChar@@H@Z
?filter@QDir@@QEBA?AV?$QFlags@W4Filter@QDir@@@@XZ
?filterEvent@QAbstractEventDispatcher@@QEAA_NPEAX@Z
?filterEvent@QCoreApplication@@QEAA_NPEAXPEAJ@Z
?filterMode@ResultStoreBase@QtConcurrent@@QEBA_NXZ
?filters@QAbstractFileEngineIterator@@QEBA?AV?$QFlags@W4Filter@QDir@@@@XZ
?findAmPm@QDateTimeParser@@QEBAHAEAVQString@@HPEAH@Z
?findDay@QDateTimeParser@@QEBAHAEBVQString@@HHPEAV2@PEAH@Z
?findErrorState@QStateMachinePrivate@@QEAAPEAVQAbstractState@@PEAV2@@Z
?findFileNameSeparators@QFileSystemEntry@@AEBAXXZ
?findLCA@QStateMachinePrivate@@QEBAPEAVQState@@AEBV?$QList@PEAVQAbstractState@@@@@Z
?findLastSeparator@QFileSystemEntry@@AEBAXXZ
?findLocale@QLocalePrivate@@SAPEBU1@W4Language@QLocale@@W4Script@3@W4Country@3@@Z
?findMonth@QDateTimeParser@@QEBAHAEBVQString@@HHPEAV2@PEAH@Z
?finish@QThreadStorageData@@SAXPEAPEAX@Z
?finish@ThreadEngineBase@QtConcurrent@@MEAAXXZ
?finished@QAbstractAnimation@@IEAAXXZ
?finished@QFutureWatcherBase@@IEAAXXZ
?finished@QProcess@@IEAAXH@Z
?finished@QProcess@@IEAAXHW4ExitStatus@1@@Z
?finished@QState@@IEAAXXZ
?finished@QThread@@IEAAXXZ
?finished@QTimeLine@@IEAAXXZ
?first@?$QVector@VQPoint@@@@QEAAAEAVQPoint@@XZ
?first@?$QVector@VQPoint@@@@QEBAAEBVQPoint@@XZ
?first@?$QVector@VQPointF@@@@QEAAAEAVQPointF@@XZ
?first@?$QVector@VQPointF@@@@QEBAAEBVQPointF@@XZ
?first@?$QVector@VQXmlStreamAttribute@@@@QEAAAEAVQXmlStreamAttribute@@XZ
?first@?$QVector@VQXmlStreamAttribute@@@@QEBAAEBVQXmlStreamAttribute@@XZ
?firstDayOfWeek@QLocale@@QEBA?AW4DayOfWeek@Qt@@XZ
?firstNode@QHashData@@QEAAPEAUNode@1@XZ
?fixed@@YAAEAVQTextStream@@AEAV1@@Z
?flags@QAbstractItemModel@@UEBA?AV?$QFlags@W4ItemFlag@Qt@@@@AEBVQModelIndex@@@Z
?flags@QModelIndex@@QEBA?AV?$QFlags@W4ItemFlag@Qt@@@@XZ
?flags@QPersistentModelIndex@@QEBA?AV?$QFlags@W4ItemFlag@Qt@@@@XZ
?floatingPointPrecision@QDataStream@@QEBA?AW4FloatingPointPrecision@1@XZ
?flush@@YAAEAVQTextStream@@AEAV1@@Z
?flush@QAbstractFileEngine@@UEAA_NXZ
?flush@QCoreApplication@@SAXXZ
?flush@QEventDispatcherWin32@@UEAAXXZ
?flush@QFSFileEngine@@UEAA_NXZ
?flush@QFile@@QEAA_NXZ
?flush@QTextStream@@QEAAXXZ
?flushFh@QFSFileEnginePrivate@@QEAA_NXZ
?forcepoint@@YAAEAVQTextStream@@AEAV1@@Z
?forcesign@@YAAEAVQTextStream@@AEAV1@@Z
?format@QSettings@@QEBA?AW4Format@1@XZ
?formats@QMimeData@@UEBA?AVQStringList@@XZ
?fragment@QUrl@@QEBA?AVQString@@XZ
?frameChanged@QTimeLine@@IEAAXH@Z
?frameForTime@QTimeLine@@QEBAHH@Z
?free@?$QVector@VQPoint@@@@AEAAXPEAU?$QVectorTypedData@VQPoint@@@@@Z
?free@?$QVector@VQPointF@@@@AEAAXPEAU?$QVectorTypedData@VQPointF@@@@@Z
?free@?$QVector@VQXmlStreamAttribute@@@@AEAAXPEAU?$QVectorTypedData@VQXmlStreamAttribute@@@@@Z
?free@QContiguousCacheData@@SAXPEAU1@@Z
?free@QString@@CAXPEAUData@1@@Z
?free@QVectorData@@SAXPEAU1@H@Z
?freeNode@QHashData@@QEAAXPEAX@Z
?free_helper@QHashData@@QEAAXP6AXPEAUNode@1@@Z@Z
?fromAce@QUrl@@SA?AVQString@@AEBVQByteArray@@@Z
?fromAscii@QChar@@SA?AV1@D@Z
?fromAscii@QString@@SA?AV1@PEBDH@Z
?fromAscii_helper@QString@@CAPEAUData@1@PEBDH@Z
?fromBase64@QByteArray@@SA?AV1@AEBV1@@Z
?fromEncoded@QUrl@@SA?AV1@AEBVQByteArray@@@Z
?fromEncoded@QUrl@@SA?AV1@AEBVQByteArray@@W4ParsingMode@1@@Z
?fromHex@QByteArray@@SA?AV1@AEBV1@@Z
?fromJulianDay@QDate@@SA?AV1@H@Z
?fromLatin1@QChar@@SA?AV1@D@Z
?fromLatin1@QString@@SA?AV1@PEBDH@Z
?fromLatin1_helper@QString@@CAPEAUData@1@PEBDH@Z
?fromList@?$QVector@VQPoint@@@@SA?AV1@AEBV?$QList@VQPoint@@@@@Z
?fromList@?$QVector@VQPointF@@@@SA?AV1@AEBV?$QList@VQPointF@@@@@Z
?fromList@?$QVector@VQXmlStreamAttribute@@@@SA?AV1@AEBV?$QList@VQXmlStreamAttribute@@@@@Z
?fromLocal8Bit@QString@@SA?AV1@PEBDH@Z
?fromLocalFile@QUrl@@SA?AV1@AEBVQString@@@Z
?fromMSecsSinceEpoch@QDateTime@@SA?AV1@_J@Z
?fromName@QConfFile@@SAPEAV1@AEBVQString@@_N@Z
?fromNativeSeparators@QDir@@SA?AVQString@@AEBV2@@Z
?fromPercentEncoding@QByteArray@@SA?AV1@AEBV1@D@Z
?fromPercentEncoding@QUrl@@SA?AVQString@@AEBVQByteArray@@@Z
?fromPolar@QLineF@@SA?AV1@NN@Z
?fromPunycode@QUrl@@SA?AVQString@@AEBVQByteArray@@@Z
?fromRawData@QByteArray@@SA?AV1@PEBDH@Z
?fromRawData@QString@@SA?AV1@PEBVQChar@@H@Z
?fromRfc4122@QUuid@@SA?AU1@AEBVQByteArray@@@Z
?fromStdString@QString@@SA?AV1@AEBV?$basic_string@DU?$char_traits@D@std@@V?$allocator@D@2@@std@@@Z
?fromStdVector@?$QVector@VQPoint@@@@SA?AV1@AEBV?$vector@VQPoint@@V?$allocator@VQPoint@@@std@@@std@@@Z
?fromStdVector@?$QVector@VQPointF@@@@SA?AV1@AEBV?$vector@VQPointF@@V?$allocator@VQPointF@@@std@@@std@@@Z
?fromStdVector@?$QVector@VQXmlStreamAttribute@@@@SA?AV1@AEBV?$vector@VQXmlStreamAttribute@@V?$allocator@VQXmlStreamAttribute@@@std@@@std@@@Z
?fromStdWString@QString@@SA?AV1@AEBV?$basic_string@_WU?$char_traits@_W@std@@V?$allocator@_W@2@@std@@@Z
?fromString@QDate@@SA?AV1@AEBVQString@@0@Z
?fromString@QDate@@SA?AV1@AEBVQString@@W4DateFormat@Qt@@@Z
?fromString@QDateTime@@SA?AV1@AEBVQString@@0@Z
?fromString@QDateTime@@SA?AV1@AEBVQString@@W4DateFormat@Qt@@@Z
?fromString@QDateTimeParser@@QEBA_NAEBVQString@@PEAVQDate@@PEAVQTime@@@Z
?fromString@QTime@@SA?AV1@AEBVQString@@0@Z
?fromString@QTime@@SA?AV1@AEBVQString@@W4DateFormat@Qt@@@Z
?fromTime_t@QDateTime@@SA?AV1@I@Z
?fromUcs4@QString@@SA?AV1@PEBIH@Z
?fromUnicode@QTextCodec@@QEBA?AVQByteArray@@AEBVQString@@@Z
?fromUnicode@QTextCodec@@QEBA?AVQByteArray@@PEBVQChar@@HPEAUConverterState@1@@Z
?fromUnicode@QTextEncoder@@QEAA?AVQByteArray@@AEBVQString@@@Z
?fromUnicode@QTextEncoder@@QEAA?AVQByteArray@@PEBVQChar@@H@Z
?fromUserInput@QUrl@@SA?AV1@AEBVQString@@@Z
?fromUtf16@QString@@SA?AV1@PEBGH@Z
?fromUtf8@QString@@SA?AV1@PEBDH@Z
?fromWCharArray@QString@@SA?AV1@PEB_WH@Z
?front@?$QVector@VQPoint@@@@QEAAAEAVQPoint@@XZ
?front@?$QVector@VQPoint@@@@QEBAAEBVQPoint@@XZ
?front@?$QVector@VQPointF@@@@QEAAAEAVQPointF@@XZ
?front@?$QVector@VQPointF@@@@QEBAAEBVQPointF@@XZ
?front@?$QVector@VQXmlStreamAttribute@@@@QEAAAEAVQXmlStreamAttribute@@XZ
?front@?$QVector@VQXmlStreamAttribute@@@@QEBAAEBVQXmlStreamAttribute@@XZ
?generateByteOrderMark@QTextStream@@QEBA_NXZ
?get@QAbstractTransitionPrivate@@SAPEAV1@PEAVQAbstractTransition@@@Z
?get@QEventTransitionPrivate@@SAPEAV1@PEAVQEventTransition@@@Z
?get@QMutexPool@@QEAAPEAVQMutex@@PEBX@Z
?get@QObjectPrivate@@SAPEAV1@PEAVQObject@@@Z
?get@QStateMachinePrivate@@SAPEAV1@PEAVQStateMachine@@@Z
?get@QStatePrivate@@SAPEAV1@PEAVQState@@@Z
?get@QStatePrivate@@SAPEBV1@PEBVQState@@@Z
?get@QThreadStorageData@@QEBAPEAPEAXXZ
?getAmPmText@QDateTimeParser@@UEBA?AVQString@@W4AmPm@1@W4Case@1@@Z
?getAndRef@ExternalRefCountData@QtSharedPointer@@SAPEAU12@PEBVQObject@@@Z
?getChar@QIODevice@@QEAA_NPEAD@Z
?getCoords@QRect@@QEBAXPEAH000@Z
?getCoords@QRectF@@QEBAXPEAN000@Z
?getDate@QDate@@QEAAXPEAH00@Z
?getDigit@QDateTimeParser@@QEBAHAEBVQDateTime@@H@Z
?getInterpolator@QVariantAnimationPrivate@@SAP6A?AVQVariant@@PEBX0N@ZH@Z
?getLangAndCountry@QLocalePrivate@@SAXAEBVQString@@AEAW4Language@QLocale@@AEAW4Script@4@AEAW4Country@4@@Z
?getMaximum@QDateTimeParser@@UEBA?AVQDateTime@@XZ
?getMinimum@QDateTimeParser@@UEBA?AVQDateTime@@XZ
?getRect@QRect@@QEBAXPEAH000@Z
?getRect@QRectF@@QEBAXPEAN000@Z
?globalInstance@QThreadPool@@SAPEAV1@XZ
?globalInstanceGet@QMutexPool@@SAPEAVQMutex@@PEBX@Z
?globalRestorePolicy@QStateMachine@@QEBA?AW4RestorePolicy@1@XZ
?goToState@QStateMachinePrivate@@QEAAXPEAVQAbstractState@@@Z
?gregorianToJulian@QDate@@SAIHHH@Z
?group@QAbstractAnimation@@QEBAPEAVQAnimationGroup@@XZ
?group@QFileInfo@@QEBA?AVQString@@XZ
?group@QLocalePrivate@@QEBA?AVQChar@@XZ
?group@QSettings@@QEBA?AVQString@@XZ
?groupId@QFileInfo@@QEBAIXZ
?groupSeparator@QLocale@@QEBA?AVQChar@@XZ
?grow@QString@@CAHH@Z
?grow@QVectorData@@SAHHHH_N@Z
?hadWritten@QWindowsPipeWriter@@QEBA_NXZ
?handle@QAbstractFileEngine@@UEBAHXZ
?handle@QFSFileEngine@@UEBAHXZ
?handle@QFile@@QEBAHXZ
?handle@QSharedMemoryPrivate@@QEAAPEAXXZ
?handle@QWinEventNotifier@@QEBAPEAXXZ
?handleException@ThreadEngineBase@QtConcurrent@@AEAAXAEBVException@2@@Z
?handleFilteredEvent@QStateMachinePrivate@@QEAAXPEAVQObject@@PEAVQEvent@@@Z
?handleTransitionSignal@QStateMachinePrivate@@QEAAXPEAVQObject@@HPEAPEAX@Z
?handler@QStateMachinePrivate@@2PEBUHandler@1@EB
?handler@QVariant@@1PEBUHandler@1@EB
?hasAttribute@QXmlStreamAttributes@@QEBA_NAEBVQLatin1String@@@Z
?hasAttribute@QXmlStreamAttributes@@QEBA_NAEBVQString@@0@Z
?hasAttribute@QXmlStreamAttributes@@QEBA_NAEBVQString@@@Z
?hasChildren@QAbstractItemModel@@UEBA_NAEBVQModelIndex@@@Z
?hasChildren@QAbstractListModel@@EEBA_NAEBVQModelIndex@@@Z
?hasChildren@QAbstractTableModel@@EEBA_NAEBVQModelIndex@@@Z
?hasColor@QMimeData@@QEBA_NXZ
?hasEncodedQueryItem@QUrl@@QEBA_NAEBVQByteArray@@@Z
?hasError@QXmlStreamReader@@QEBA_NXZ
?hasError@QXmlStreamWriter@@QEBA_NXZ
?hasException@ExceptionStore@internal@QtConcurrent@@QEBA_NXZ
?hasExpired@QElapsedTimer@@QEBA_N_J@Z
?hasFailure@QTextDecoder@@QEBA_NXZ
?hasFailure@QTextEncoder@@QEBA_NXZ
?hasFormat@QMimeData@@UEBA_NAEBVQString@@@Z
?hasFragment@QUrl@@QEBA_NXZ
?hasHtml@QMimeData@@QEBA_NXZ
?hasImage@QMimeData@@QEBA_NXZ
?hasIndex@QAbstractItemModel@@QEBA_NHHAEBVQModelIndex@@@Z
?hasMirrored@QChar@@QEBA_NXZ
?hasMirrored@QCharRef@@QEBA_NXZ
?hasNext@QDirIterator@@QEBA_NXZ
?hasNextResult@ResultStoreBase@QtConcurrent@@QEBA_NXZ
?hasNotifySignal@QMetaProperty@@QEBA_NXZ
?hasPendingEvents@QCoreApplication@@SA_NXZ
?hasPendingEvents@QEventDispatcherWin32@@UEAA_NXZ
?hasQuery@QUrl@@QEBA_NXZ
?hasQueryItem@QUrl@@QEBA_NAEBVQString@@@Z
?hasRestorable@QStateMachinePrivate@@QEBA_NPEAVQObject@@AEBVQByteArray@@@Z
?hasShrunk@QHashData@@QEAAXXZ
?hasStdCppSet@QMetaProperty@@QEBA_NXZ
?hasText@QMimeData@@QEBA_NXZ
?hasThrown@ExceptionStore@internal@QtConcurrent@@QEBA_NXZ
?hasUrls@QMimeData@@QEBA_NXZ
?hash@QCryptographicHash@@SA?AVQByteArray@@AEBV2@W4Algorithm@1@@Z
?headerData@QAbstractItemModel@@UEBA?AVQVariant@@HW4Orientation@Qt@@H@Z
?headerDataChanged@QAbstractItemModel@@IEAAXW4Orientation@Qt@@HH@Z
?height@QRect@@QEBAHXZ
?height@QRectF@@QEBANXZ
?height@QSize@@QEBAHXZ
?height@QSizeF@@QEBANXZ
?hex@@YAAEAVQTextStream@@AEAV1@@Z
?highSurrogate@QChar@@SAGI@Z
?historyStates@QStatePrivate@@QEBA?AV?$QList@PEAVQHistoryState@@@@XZ
?historyType@QHistoryState@@QEBA?AW4HistoryType@1@XZ
?home@QDir@@SA?AV1@XZ
?homePath@QDir@@SA?AVQString@@XZ
?homePath@QFSFileEngine@@SA?AVQString@@XZ
?host@QUrl@@QEBA?AVQString@@XZ
?hour@QTime@@QEBAHXZ
?html@QMimeData@@QEBA?AVQString@@XZ
?id@QMetaCallEvent@@QEBAHXZ
?idealThreadCount@QThread@@SAHXZ
?idnWhitelist@QUrl@@SA?AVQStringList@@XZ
?ignore@QEvent@@QEAAXXZ
?imageData@QMimeData@@QEBA?AVQVariant@@XZ
?index@QAbstractListModel@@UEBA?AVQModelIndex@@HHAEBV2@@Z
?index@QAbstractTableModel@@UEBA?AVQModelIndex@@HHAEBV2@@Z
?indexIn@QByteArrayMatcher@@QEBAHAEBVQByteArray@@H@Z
?indexIn@QByteArrayMatcher@@QEBAHPEBDHH@Z
?indexIn@QRegExp@@QEBAHAEBVQString@@HW4CaretMode@1@@Z
?indexIn@QStringMatcher@@QEBAHAEBVQString@@H@Z
?indexIn@QStringMatcher@@QEBAHPEBVQChar@@HH@Z
?indexOf@?$QVector@VQPoint@@@@QEBAHAEBVQPoint@@H@Z
?indexOf@?$QVector@VQPointF@@@@QEBAHAEBVQPointF@@H@Z
?indexOf@?$QVector@VQXmlStreamAttribute@@@@QEBAHAEBVQXmlStreamAttribute@@H@Z
?indexOf@QByteArray@@QEBAHAEBV1@H@Z
?indexOf@QByteArray@@QEBAHAEBVQString@@H@Z
?indexOf@QByteArray@@QEBAHDH@Z
?indexOf@QByteArray@@QEBAHPEBDH@Z
?indexOf@QString@@QEBAHAEAVQRegExp@@H@Z
?indexOf@QString@@QEBAHAEBV1@HW4CaseSensitivity@Qt@@@Z
?indexOf@QString@@QEBAHAEBVQLatin1String@@HW4CaseSensitivity@Qt@@@Z
?indexOf@QString@@QEBAHAEBVQRegExp@@H@Z
?indexOf@QString@@QEBAHAEBVQStringRef@@HW4CaseSensitivity@Qt@@@Z
?indexOf@QString@@QEBAHVQChar@@HW4CaseSensitivity@Qt@@@Z
?indexOf@QStringRef@@QEBAHAEBV1@HW4CaseSensitivity@Qt@@@Z
?indexOf@QStringRef@@QEBAHAEBVQString@@HW4CaseSensitivity@Qt@@@Z
?indexOf@QStringRef@@QEBAHVQChar@@HW4CaseSensitivity@Qt@@@Z
?indexOf@QStringRef@@QEBAHVQLatin1String@@HW4CaseSensitivity@Qt@@@Z
?indexOfAnimation@QAnimationGroup@@QEBAHPEAVQAbstractAnimation@@@Z
?indexOfClassInfo@QMetaObject@@QEBAHPEBD@Z
?indexOfConstructor@QMetaObject@@QEBAHPEBD@Z
?indexOfEnumerator@QMetaObject@@QEBAHPEBD@Z
?indexOfMethod@QMetaObject@@QEBAHPEBD@Z
?indexOfProperty@QMetaObject@@QEBAHPEBD@Z
?indexOfSignal@QMetaObject@@QEBAHPEBD@Z
?indexOfSlot@QMetaObject@@QEBAHPEBD@Z
?indexValid@QAbstractItemModelPrivate@@QEBA_NAEBVQModelIndex@@@Z
?inherits@QObject@@QEBA_NPEBD@Z
?iniCodec@QSettings@@QEBAPEAVQTextCodec@@XZ
?iniEscapedKey@QSettingsPrivate@@SAXAEBVQString@@AEAVQByteArray@@@Z
?iniEscapedString@QSettingsPrivate@@SAXAEBVQString@@AEAVQByteArray@@PEAVQTextCodec@@@Z
?iniEscapedStringList@QSettingsPrivate@@SAXAEBVQStringList@@AEAVQByteArray@@PEAVQTextCodec@@@Z
?iniUnescapedKey@QSettingsPrivate@@SA_NAEBVQByteArray@@HHAEAVQString@@@Z
?iniUnescapedStringList@QSettingsPrivate@@SA_NAEBVQByteArray@@HHAEAVQString@@AEAVQStringList@@PEAVQTextCodec@@@Z
?init@QAbstractEventDispatcherPrivate@@QEAAXXZ
?init@QCoreApplication@@AEAAXXZ
?init@QFSFileEnginePrivate@@IEAAXXZ
?initKey@QSharedMemoryPrivate@@QEAA_NXZ
?initialState@QState@@QEBAPEAVQAbstractState@@XZ
?initialize@QThread@@CAXXZ
?initializeAnimation@QStateMachinePrivate@@QEAA?AU?$QPair@V?$QList@PEAVQAbstractAnimation@@@@V1@@@PEAVQAbstractAnimation@@AEBUQPropertyAssignment@@@Z
?insert@?$QVector@VQPoint@@@@QEAAPEAVQPoint@@PEAV2@AEBV2@@Z
?insert@?$QVector@VQPoint@@@@QEAAPEAVQPoint@@PEAV2@HAEBV2@@Z
?insert@?$QVector@VQPoint@@@@QEAAXHAEBVQPoint@@@Z
?insert@?$QVector@VQPoint@@@@QEAAXHHAEBVQPoint@@@Z
?insert@?$QVector@VQPointF@@@@QEAAPEAVQPointF@@PEAV2@AEBV2@@Z
?insert@?$QVector@VQPointF@@@@QEAAPEAVQPointF@@PEAV2@HAEBV2@@Z
?insert@?$QVector@VQPointF@@@@QEAAXHAEBVQPointF@@@Z
?insert@?$QVector@VQPointF@@@@QEAAXHHAEBVQPointF@@@Z
?insert@?$QVector@VQXmlStreamAttribute@@@@QEAAPEAVQXmlStreamAttribute@@PEAV2@AEBV2@@Z
?insert@?$QVector@VQXmlStreamAttribute@@@@QEAAPEAVQXmlStreamAttribute@@PEAV2@HAEBV2@@Z
?insert@?$QVector@VQXmlStreamAttribute@@@@QEAAXHAEBVQXmlStreamAttribute@@@Z
?insert@?$QVector@VQXmlStreamAttribute@@@@QEAAXHHAEBVQXmlStreamAttribute@@@Z
?insert@QByteArray@@QEAAAEAV1@HAEBV1@@Z
?insert@QByteArray@@QEAAAEAV1@HAEBVQString@@@Z
?insert@QByteArray@@QEAAAEAV1@HD@Z
?insert@QByteArray@@QEAAAEAV1@HPEBD@Z
?insert@QByteArray@@QEAAAEAV1@HPEBDH@Z
?insert@QListData@@QEAAPEAPEAXH@Z
?insert@QProcessEnvironment@@QEAAXAEBV1@@Z
?insert@QProcessEnvironment@@QEAAXAEBVQString@@0@Z
?insert@QString@@QEAAAEAV1@HAEBV1@@Z
?insert@QString@@QEAAAEAV1@HAEBVQLatin1String@@@Z
?insert@QString@@QEAAAEAV1@HPEBVQChar@@H@Z
?insert@QString@@QEAAAEAV1@HVQChar@@@Z
?insertAnimation@QAnimationGroup@@QEAAXHPEAVQAbstractAnimation@@@Z
?insertColumn@QAbstractItemModel@@QEAA_NHAEBVQModelIndex@@@Z
?insertColumns@QAbstractItemModel@@UEAA_NHHAEBVQModelIndex@@@Z
?insertPause@QSequentialAnimationGroup@@QEAAPEAVQPauseAnimation@@HH@Z
?insertResultItem@ResultStoreBase@QtConcurrent@@IEAAHHAEAVResultItem@2@@Z
?insertResultItemIfValid@ResultStoreBase@QtConcurrent@@IEAAXHAEAVResultItem@2@@Z
?insertRow@QAbstractItemModel@@QEAA_NHAEBVQModelIndex@@@Z
?insertRows@QAbstractItemModel@@UEAA_NHHAEBVQModelIndex@@@Z
?install@QAnimationDriver@@QEAAXXZ
?installAnimationDriver@QUnifiedTimer@@QEAAXPEAVQAnimationDriver@@@Z
?installEventFilter@QObject@@QEAAXPEAV1@@Z
?installTranslator@QCoreApplication@@SAXPEAVQTranslator@@@Z
?instance@QAbstractEventDispatcher@@SAPEAV1@PEAVQThread@@@Z
?instance@QCoreApplication@@SAPEAV1@XZ
?instance@QFactoryLoader@@QEBAPEAVQObject@@AEBVQString@@@Z
?instance@QMutexPool@@SAPEAV1@XZ
?instance@QPluginLoader@@QEAAPEAVQObject@@XZ
?instance@QUnifiedTimer@@SAPEAV1@XZ
?instance@QUnifiedTimer@@SAPEAV1@_N@Z
?integerBase@QTextStream@@QEBAHXZ
?internalId@QModelIndex@@QEBA_JXZ
?internalId@QPersistentModelIndex@@QEBA_JXZ
?internalPointer@QModelIndex@@QEBAPEAXXZ
?internalPointer@QPersistentModelIndex@@QEBAPEAXXZ
?internalSafetyCheckAdd2@QtSharedPointer@@YAXPEBXPEDX@Z
?internalSafetyCheckAdd@QtSharedPointer@@YAXPEDX@Z
?internalSafetyCheckCleanCheck@QtSharedPointer@@YAXXZ
?internalSafetyCheckRemove2@QtSharedPointer@@YAXPEBX@Z
?internalSafetyCheckRemove@QtSharedPointer@@YAXPEDX@Z
?interpolated@QVariantAnimation@@MEBA?AVQVariant@@AEBV2@0N@Z
?interrupt@QEventDispatcherWin32@@UEAAXXZ
?intersect@QLineF@@QEBA?AW4IntersectType@1@AEBV1@PEAVQPointF@@@Z
?intersect@QRect@@QEBA?AV1@AEBV1@@Z
?intersect@QRectF@@QEBA?AV1@AEBV1@@Z
?intersected@QRect@@QEBA?AV1@AEBV1@@Z
?intersected@QRectF@@QEBA?AV1@AEBV1@@Z
?intersects@QRect@@QEBA_NAEBV1@@Z
?intersects@QRectF@@QEBA_NAEBV1@@Z
?interval@QTimer@@QEBAHXZ
?invalidate@QElapsedTimer@@QEAAXXZ
?invalidatePersistentIndex@QAbstractItemModelPrivate@@QEAAXAEBVQModelIndex@@@Z
?invalidatePersistentIndexes@QAbstractItemModelPrivate@@QEAAXXZ
?invoke@QMetaMethod@@QEBA_NPEAVQObject@@VQGenericArgument@@111111111@Z
?invoke@QMetaMethod@@QEBA_NPEAVQObject@@VQGenericReturnArgument@@VQGenericArgument@@222222222@Z
?invoke@QMetaMethod@@QEBA_NPEAVQObject@@W4ConnectionType@Qt@@VQGenericArgument@@222222222@Z
?invoke@QMetaMethod@@QEBA_NPEAVQObject@@W4ConnectionType@Qt@@VQGenericReturnArgument@@VQGenericArgument@@333333333@Z
?invokeMethod@QMetaObject@@SA_NPEAVQObject@@PEBDVQGenericArgument@@222222222@Z
?invokeMethod@QMetaObject@@SA_NPEAVQObject@@PEBDVQGenericReturnArgument@@VQGenericArgument@@333333333@Z
?invokeMethod@QMetaObject@@SA_NPEAVQObject@@PEBDW4ConnectionType@Qt@@VQGenericArgument@@333333333@Z
?invokeMethod@QMetaObject@@SA_NPEAVQObject@@PEBDW4ConnectionType@Qt@@VQGenericReturnArgument@@VQGenericArgument@@444444444@Z
?isAbsolute@QDir@@QEBA_NXZ
?isAbsolute@QFileInfo@@QEBA_NXZ
?isAbsolute@QFileSystemEntry@@QEBA_NXZ
?isAbsolutePath@QDir@@SA_NAEBVQString@@@Z
?isAccepted@QEvent@@QEBA_NXZ
?isActive@QBasicTimer@@QEBA_NXZ
?isActive@QTimer@@QEBA_NXZ
?isAnimated@QStateMachine@@QEBA_NXZ
?isAtBoundary@QTextBoundaryFinder@@QEBA_NXZ
?isAtomic@QStateMachinePrivate@@QEBA_NPEBVQAbstractState@@@Z
?isAttached@QSharedMemory@@QEBA_NXZ
?isBaseChar@QXmlUtils@@CA_NVQChar@@@Z
?isBundle@QFileInfo@@QEBA_NXZ
?isCDATA@QXmlStreamReader@@QEBA_NXZ
?isCanceled@QFutureInterfaceBase@@QEBA_NXZ
?isCanceled@QFutureWatcherBase@@QEBA_NXZ
?isCanceled@ThreadEngineBase@QtConcurrent@@QEAA_NXZ
?isChar@QXmlUtils@@SA_NVQChar@@@Z
?isCharacters@QXmlStreamReader@@QEBA_NXZ
?isClean@QFileSystemEntry@@QEBA_NXZ
?isCombiningChar@QXmlUtils@@CA_NVQChar@@@Z
?isComment@QXmlStreamReader@@QEBA_NXZ
?isCompound@QStateMachinePrivate@@QEBA_NPEBVQAbstractState@@@Z
?isCompressed@QResource@@QEBA_NXZ
?isConstant@QMetaProperty@@QEBA_NXZ
?isDTD@QXmlStreamReader@@QEBA_NXZ
?isDefault@QXmlStreamAttribute@@QEBA_NXZ
?isDescendantOf@QStateMachinePrivate@@SA_NPEBVQAbstractState@@0@Z
?isDesignable@QMetaProperty@@QEBA_NPEBVQObject@@@Z
?isDetached@?$QVector@VQPoint@@@@QEBA_NXZ
?isDetached@?$QVector@VQPointF@@@@QEBA_NXZ
?isDetached@?$QVector@VQXmlStreamAttribute@@@@QEBA_NXZ
?isDetached@QBitArray@@QEBA_NXZ
?isDetached@QByteArray@@QEBA_NXZ
?isDetached@QString@@QEBA_NXZ
?isDetached@QUrl@@QEBA_NXZ
?isDetached@QVariant@@QEBA_NXZ
?isDigit@QChar@@QEBA_NXZ
?isDigit@QCharRef@@QEBA_NXZ
?isDigit@QXmlUtils@@CA_NVQChar@@@Z
?isDir@QFileInfo@@QEBA_NXZ
?isDir@QResource@@IEBA_NXZ
?isDriveRoot@QFileSystemEntry@@QEBA_NXZ
?isEditable@QMetaProperty@@QEBA_NPEBVQObject@@@Z
?isEmpty@?$QVector@VQPoint@@@@QEBA_NXZ
?isEmpty@?$QVector@VQPointF@@@@QEBA_NXZ
?isEmpty@?$QVector@VQXmlStreamAttribute@@@@QEBA_NXZ
?isEmpty@QBitArray@@QEBA_NXZ
?isEmpty@QByteArray@@QEBA_NXZ
?isEmpty@QFileSystemEntry@@QEBA_NXZ
?isEmpty@QListData@@QEBA_NXZ
?isEmpty@QObjectCleanupHandler@@QEBA_NXZ
?isEmpty@QProcessEnvironment@@QEBA_NXZ
?isEmpty@QRect@@QEBA_NXZ
?isEmpty@QRectF@@QEBA_NXZ
?isEmpty@QRegExp@@QEBA_NXZ
?isEmpty@QSize@@QEBA_NXZ
?isEmpty@QSizeF@@QEBA_NXZ
?isEmpty@QString@@QEBA_NXZ
?isEmpty@QStringRef@@QEBA_NXZ
?isEmpty@QTranslator@@UEBA_NXZ
?isEmpty@QUrl@@QEBA_NXZ
?isEnabled@QSocketNotifier@@QEBA_NXZ
?isEnabled@QWinEventNotifier@@QEBA_NXZ
?isEncName@QXmlUtils@@SA_NAEBVQString@@@Z
?isEndDocument@QXmlStreamReader@@QEBA_NXZ
?isEndElement@QXmlStreamReader@@QEBA_NXZ
?isEntityReference@QXmlStreamReader@@QEBA_NXZ
?isEnumType@QMetaProperty@@QEBA_NXZ
?isExecutable@QFileInfo@@QEBA_NXZ
?isExtender@QXmlUtils@@CA_NVQChar@@@Z
?isExternalEventQueueEmpty@QStateMachinePrivate@@QEAA_NXZ
?isFetchAndAddNative@QBasicAtomicInt@@SA_NXZ
?isFetchAndAddWaitFree@QBasicAtomicInt@@SA_NXZ
?isFetchAndStoreNative@QBasicAtomicInt@@SA_NXZ
?isFetchAndStoreWaitFree@QBasicAtomicInt@@SA_NXZ
?isFile@QFileInfo@@QEBA_NXZ
?isFile@QResource@@IEBA_NXZ
?isFinal@QMetaProperty@@QEBA_NXZ
?isFinal@QStateMachinePrivate@@SA_NPEBVQAbstractState@@@Z
?isFinished@QFutureInterfaceBase@@QEBA_NXZ
?isFinished@QFutureWatcherBase@@QEBA_NXZ
?isFinished@QThread@@QEBA_NXZ
?isFlag@QMetaEnum@@QEBA_NXZ
?isFlagType@QMetaProperty@@QEBA_NXZ
?isHidden@QFileInfo@@QEBA_NXZ
?isHighSurrogate@QChar@@QEBA_NXZ
?isHighSurrogate@QChar@@SA_NI@Z
?isIdeographic@QXmlUtils@@CA_NVQChar@@@Z
?isInFinalState@QStateMachinePrivate@@QEBA_NPEAVQAbstractState@@@Z
?isInternalEventQueueEmpty@QStateMachinePrivate@@QEAA_NXZ
?isLeapYear@QDate@@SA_NH@Z
?isLetter@QChar@@QEBA_NXZ
?isLetter@QCharRef@@QEBA_NXZ
?isLetter@QXmlUtils@@SA_NVQChar@@@Z
?isLetterOrNumber@QChar@@QEBA_NXZ
?isLetterOrNumber@QCharRef@@QEAA_NXZ
?isLibrary@QLibrary@@SA_NAEBVQString@@@Z
?isLoaded@QLibrary@@QEBA_NXZ
?isLoaded@QPluginLoader@@QEBA_NXZ
?isLocalFile@QUrl@@QEBA_NXZ
?isLowSurrogate@QChar@@QEBA_NXZ
?isLowSurrogate@QChar@@SA_NI@Z
?isLower@QChar@@QEBA_NXZ
?isLower@QCharRef@@QEBA_NXZ
?isMark@QChar@@QEBA_NXZ
?isMark@QCharRef@@QEBA_NXZ
?isMinimal@QRegExp@@QEBA_NXZ
?isMonotonic@QElapsedTimer@@SA_NXZ
?isNCName@QXmlUtils@@SA_NAEBVQString@@@Z
?isNCName@QXmlUtils@@SA_NAEBVQStringRef@@@Z
?isNameChar@QXmlUtils@@SA_NVQChar@@@Z
?isNull@QBitArray@@QEBA_NXZ
?isNull@QByteArray@@QEBA_NXZ
?isNull@QChar@@QEBA_NXZ
?isNull@QCharRef@@QEBA_NXZ
?isNull@QDate@@QEBA_NXZ
?isNull@QDateTime@@QEBA_NXZ
?isNull@QLine@@QEBA_NXZ
?isNull@QLineF@@QEBA_NXZ
?isNull@QPoint@@QEBA_NXZ
?isNull@QPointF@@QEBA_NXZ
?isNull@QRect@@QEBA_NXZ
?isNull@QRectF@@QEBA_NXZ
?isNull@QSize@@QEBA_NXZ
?isNull@QSizeF@@QEBA_NXZ
?isNull@QString@@QEBA_NXZ
?isNull@QStringRef@@QEBA_NXZ
?isNull@QTime@@QEBA_NXZ
?isNull@QUuid@@QEBA_NXZ
?isNull@QVariant@@QEBA_NXZ
?isNumber@QChar@@QEBA_NXZ
?isNumber@QCharRef@@QEBA_NXZ
?isOpen@QIODevice@@QEBA_NXZ
?isParallel@QStateMachinePrivate@@SA_NPEBVQAbstractState@@@Z
?isParentOf@QUrl@@QEBA_NAEBV1@@Z
?isPaused@QFutureInterfaceBase@@QEBA_NXZ
?isPaused@QFutureWatcherBase@@QEBA_NXZ
?isPreempted@QStateMachinePrivate@@QEBA_NPEBVQAbstractState@@AEBV?$QSet@PEAVQAbstractTransition@@@@@Z
?isPrint@QChar@@QEBA_NXZ
?isPrint@QCharRef@@QEBA_NXZ
?isProcessingInstruction@QXmlStreamReader@@QEBA_NXZ
?isProgressReportingEnabled@ThreadEngineBase@QtConcurrent@@QEAA_NXZ
?isProgressUpdateNeeded@QFutureInterfaceBase@@QEBA_NXZ
?isPublicID@QXmlUtils@@SA_NAEBVQString@@@Z
?isPunct@QChar@@QEBA_NXZ
?isPunct@QCharRef@@QEBA_NXZ
?isReadable@QDir@@QEBA_NXZ
?isReadable@QFileInfo@@QEBA_NXZ
?isReadable@QIODevice@@QEBA_NXZ
?isReadable@QMetaProperty@@QEBA_NXZ
?isReferenceCountingNative@QBasicAtomicInt@@SA_NXZ
?isReferenceCountingWaitFree@QBasicAtomicInt@@SA_NXZ
?isRegistered@QMetaType@@SA_NH@Z
?isRelative@QDir@@QEBA_NXZ
?isRelative@QFileInfo@@QEBA_NXZ
?isRelative@QFileSystemEntry@@QEBA_NXZ
?isRelative@QUrl@@QEBA_NXZ
?isRelativePath@QAbstractFileEngine@@UEBA_NXZ
?isRelativePath@QDir@@SA_NAEBVQString@@@Z
?isRelativePath@QFSFileEngine@@UEBA_NXZ
?isResetDisabled@QNonContiguousByteDevice@@QEAA_NXZ
?isResettable@QMetaProperty@@QEBA_NXZ
?isResultReadyAt@QFutureInterfaceBase@@QEBA_NH@Z
?isRightToLeft@QString@@QEBA_NXZ
?isRoot@QDir@@QEBA_NXZ
?isRoot@QFileInfo@@QEBA_NXZ
?isRoot@QFileSystemEntry@@QEBA_NXZ
?isRunning@QAnimationDriver@@QEBA_NXZ
?isRunning@QEventLoop@@QEBA_NXZ
?isRunning@QFutureInterfaceBase@@QEBA_NXZ
?isRunning@QFutureWatcherBase@@QEBA_NXZ
?isRunning@QStateMachine@@QEBA_NXZ
?isRunning@QThread@@QEBA_NXZ
?isScriptable@QMetaProperty@@QEBA_NPEBVQObject@@@Z
?isSender@QObjectPrivate@@QEBA_NPEBVQObject@@PEBD@Z
?isSequential@QAbstractFileEngine@@UEBA_NXZ
?isSequential@QFSFileEngine@@UEBA_NXZ
?isSequential@QFile@@UEBA_NXZ
?isSequential@QIODevice@@UEBA_NXZ
?isSequential@QIODevicePrivate@@QEBA_NXZ
?isSequential@QProcess@@UEBA_NXZ
?isSharedWith@?$QVector@VQPoint@@@@QEBA_NAEBV1@@Z
?isSharedWith@?$QVector@VQPointF@@@@QEBA_NAEBV1@@Z
?isSharedWith@?$QVector@VQXmlStreamAttribute@@@@QEBA_NAEBV1@@Z
?isSharedWith@QByteArray@@QEBA_NAEBV1@@Z
?isSharedWith@QString@@QEBA_NAEBV1@@Z
?isSignalConnected@QObjectPrivate@@QEBA_NI@Z
?isSimpleText@QString@@QEBA_NXZ
?isSingleShot@QTimer@@QEBA_NXZ
?isSpace@QChar@@QEBA_NXZ
?isSpace@QCharRef@@QEBA_NXZ
?isStandaloneDocument@QXmlStreamReader@@QEBA_NXZ
?isStartDocument@QXmlStreamReader@@QEBA_NXZ
?isStartElement@QXmlStreamReader@@QEBA_NXZ
?isStarted@QFutureInterfaceBase@@QEBA_NXZ
?isStarted@QFutureWatcherBase@@QEBA_NXZ
?isStored@QMetaProperty@@QEBA_NPEBVQObject@@@Z
?isSymLink@QFileInfo@@QEBA_NXZ
?isSymbol@QChar@@QEBA_NXZ
?isTestAndSetNative@QBasicAtomicInt@@SA_NXZ
?isTestAndSetWaitFree@QBasicAtomicInt@@SA_NXZ
?isTextModeEnabled@QIODevice@@QEBA_NXZ
?isThrottled@QFutureInterfaceBase@@QEBA_NXZ
?isTitleCase@QChar@@QEBA_NXZ
?isTitleCase@QCharRef@@QEBA_NXZ
?isTranslatorInstalled@QCoreApplicationPrivate@@SA_NPEAVQTranslator@@@Z
?isUpper@QChar@@QEBA_NXZ
?isUpper@QCharRef@@QEBA_NXZ
?isUser@QMetaProperty@@QEBA_NPEBVQObject@@@Z
?isValid@QDate@@QEBA_NXZ
?isValid@QDate@@SA_NHHH@Z
?isValid@QDateTime@@QEBA_NXZ
?isValid@QElapsedTimer@@QEBA_NXZ
?isValid@QMetaEnum@@QEBA_NXZ
?isValid@QMetaProperty@@QEBA_NXZ
?isValid@QModelIndex@@QEBA_NXZ
?isValid@QPersistentModelIndex@@QEBA_NXZ
?isValid@QRect@@QEBA_NXZ
?isValid@QRectF@@QEBA_NXZ
?isValid@QRegExp@@QEBA_NXZ
?isValid@QResource@@QEBA_NXZ
?isValid@QSize@@QEBA_NXZ
?isValid@QSizeF@@QEBA_NXZ
?isValid@QTextBoundaryFinder@@QEBA_NXZ
?isValid@QTime@@QEBA_NXZ
?isValid@QTime@@SA_NHHHH@Z
?isValid@QUrl@@QEBA_NXZ
?isValid@QVariant@@QEBA_NXZ
?isVector@ResultIteratorBase@QtConcurrent@@QEBA_NXZ
?isWhitespace@QXmlStreamReader@@QEBA_NXZ
?isWidgetType@QObject@@QEBA_NXZ
?isWritable@QConfFile@@QEBA_NXZ
?isWritable@QFileInfo@@QEBA_NXZ
?isWritable@QIODevice@@QEBA_NXZ
?isWritable@QMetaProperty@@QEBA_NXZ
?isWritable@QSettings@@QEBA_NXZ
?is_app_closing@QCoreApplicationPrivate@@2_NA
?is_app_running@QCoreApplicationPrivate@@2_NA
?itemData@QAbstractItemModel@@UEBA?AV?$QMap@HVQVariant@@@@AEBVQModelIndex@@@Z
?itemsAboutToBeMoved@QAbstractItemModelPrivate@@QEAAXAEBVQModelIndex@@HH0HW4Orientation@Qt@@@Z
?itemsMoved@QAbstractItemModelPrivate@@QEAAXAEBVQModelIndex@@HH0HW4Orientation@Qt@@@Z
?joining@QChar@@QEBA?AW4Joining@1@XZ
?joining@QChar@@SA?AW4Joining@1@G@Z
?joining@QChar@@SA?AW4Joining@1@I@Z
?joining@QCharRef@@QEBA?AW4Joining@QChar@@XZ
?julianToGregorian@QDate@@SAXIAEAH00@Z
?key@QMetaEnum@@QEBAPEBDH@Z
?key@QSharedMemory@@QEBA?AVQString@@XZ
?key@QSystemSemaphore@@QEBA?AVQString@@XZ
?keyCount@QMetaEnum@@QEBAHXZ
?keyToValue@QMetaEnum@@QEBAHPEBD@Z
?keyValueAt@QVariantAnimation@@QEBA?AVQVariant@@N@Z
?keyValues@QVariantAnimation@@QEBA?AV?$QVector@U?$QPair@NVQVariant@@@@@@XZ
?keys@QFactoryLoader@@QEBA?AVQStringList@@XZ
?keys@QProcessEnvironment@@QEBA?AVQStringList@@XZ
?keys@QTextCodecPlugin@@EEBA?AVQStringList@@XZ
?keysToValue@QMetaEnum@@QEBAHPEBD@Z
?kill@QProcess@@QEAAXXZ
?killTimer@QObject@@QEAAXH@Z
?killTimer@QTimer@@AEAAXH@Z
?language@QLocale@@QEBA?AW4Language@1@XZ
?languageCode@QLocalePrivate@@QEBA?AVQString@@XZ
?languageId@QLocalePrivate@@QEBAGXZ
?languageToString@QLocale@@SA?AVQString@@W4Language@1@@Z
?last@?$QVector@VQPoint@@@@QEAAAEAVQPoint@@XZ
?last@?$QVector@VQPoint@@@@QEBAAEBVQPoint@@XZ
?last@?$QVector@VQPointF@@@@QEAAAEAVQPointF@@XZ
?last@?$QVector@VQPointF@@@@QEBAAEBVQPointF@@XZ
?last@?$QVector@VQXmlStreamAttribute@@@@QEAAAEAVQXmlStreamAttribute@@XZ
?last@?$QVector@VQXmlStreamAttribute@@@@QEBAAEBVQXmlStreamAttribute@@XZ
?lastIndexIn@QRegExp@@QEBAHAEBVQString@@HW4CaretMode@1@@Z
?lastIndexOf@?$QVector@VQPoint@@@@QEBAHAEBVQPoint@@H@Z
?lastIndexOf@?$QVector@VQPointF@@@@QEBAHAEBVQPointF@@H@Z
?lastIndexOf@?$QVector@VQXmlStreamAttribute@@@@QEBAHAEBVQXmlStreamAttribute@@H@Z
?lastIndexOf@QByteArray@@QEBAHAEBV1@H@Z
?lastIndexOf@QByteArray@@QEBAHAEBVQString@@H@Z
?lastIndexOf@QByteArray@@QEBAHDH@Z
?lastIndexOf@QByteArray@@QEBAHPEBDH@Z
?lastIndexOf@QString@@QEBAHAEAVQRegExp@@H@Z
?lastIndexOf@QString@@QEBAHAEBV1@HW4CaseSensitivity@Qt@@@Z
?lastIndexOf@QString@@QEBAHAEBVQLatin1String@@HW4CaseSensitivity@Qt@@@Z
?lastIndexOf@QString@@QEBAHAEBVQRegExp@@H@Z
?lastIndexOf@QString@@QEBAHAEBVQStringRef@@HW4CaseSensitivity@Qt@@@Z
?lastIndexOf@QString@@QEBAHVQChar@@HW4CaseSensitivity@Qt@@@Z
?lastIndexOf@QStringRef@@QEBAHAEBV1@HW4CaseSensitivity@Qt@@@Z
?lastIndexOf@QStringRef@@QEBAHAEBVQString@@HW4CaseSensitivity@Qt@@@Z
?lastIndexOf@QStringRef@@QEBAHVQChar@@HW4CaseSensitivity@Qt@@@Z
?lastIndexOf@QStringRef@@QEBAHVQLatin1String@@HW4CaseSensitivity@Qt@@@Z
?lastModified@QFileInfo@@QEBA?AVQDateTime@@XZ
?lastRead@QFileInfo@@QEBA?AVQDateTime@@XZ
?latin1@QLatin1String@@QEBAPEBDXZ
?layoutAboutToBeChanged@QAbstractItemModel@@IEAAXXZ
?layoutChanged@QAbstractItemModel@@IEAAXXZ
?left@@YAAEAVQTextStream@@AEAV1@@Z
?left@QByteArray@@QEBA?AV1@H@Z
?left@QRect@@QEBAHXZ
?left@QRectF@@QEBANXZ
?left@QString@@QEBA?AV1@H@Z
?leftJustified@QByteArray@@QEBA?AV1@HD_N@Z
?leftJustified@QString@@QEBA?AV1@HVQChar@@_N@Z
?leftRef@QString@@QEBA?AVQStringRef@@H@Z
?length@QByteArray@@QEBAHXZ
?length@QLineF@@QEBANXZ
?length@QString@@QEBAHXZ
?length@QStringRef@@QEBAHXZ
?libraryPaths@QCoreApplication@@SA?AVQStringList@@XZ
?licensedProducts@QLibraryInfo@@SA?AVQString@@XZ
?licensee@QLibraryInfo@@SA?AVQString@@XZ
?lineBreakClass@QUnicodeTables@@YA?AW4LineBreakClass@1@I@Z
?lineNumber@QXmlStreamReader@@QEBA_JXZ
?link@QAbstractFileEngine@@UEAA_NAEBVQString@@@Z
?link@QFSFileEngine@@UEAA_NAEBVQString@@@Z
?link@QFile@@QEAA_NAEBVQString@@@Z
?link@QFile@@SA_NAEBVQString@@0@Z
?list@QLocalePrivate@@QEBA?AVQChar@@XZ
?load@QLibrary@@QEAA_NXZ
?load@QMetaType@@SA_NAEAVQDataStream@@HPEAX@Z
?load@QPluginLoader@@QEAA_NXZ
?load@QSystemLibrary@@SAPEAUHINSTANCE__@@PEB_W_N@Z
?load@QTranslator@@QEAA_NAEBVQLocale@@AEBVQString@@111@Z
?load@QTranslator@@QEAA_NAEBVQString@@000@Z
?load@QTranslator@@QEAA_NPEBEH@Z
?load@QVariant@@QEAAXAEAVQDataStream@@@Z
?loadHints@QLibrary@@QEBA?AV?$QFlags@W4LoadHint@QLibrary@@@@XZ
?loadHints@QPluginLoader@@QEBA?AV?$QFlags@W4LoadHint@QLibrary@@@@XZ
?locale@QDateTimeParser@@UEBA?AVQLocale@@XZ
?locale@QResource@@QEBA?AVQLocale@@XZ
?locale@QTextStream@@QEBA?AVQLocale@@XZ
?localeAwareCompare@QString@@QEBAHAEBV1@@Z
?localeAwareCompare@QString@@QEBAHAEBVQStringRef@@@Z
?localeAwareCompare@QString@@SAHAEBV1@0@Z
?localeAwareCompare@QString@@SAHAEBV1@AEBVQStringRef@@@Z
?localeAwareCompare@QStringRef@@QEBAHAEBV1@@Z
?localeAwareCompare@QStringRef@@QEBAHAEBVQString@@@Z
?localeAwareCompare@QStringRef@@SAHAEBV1@0@Z
?localeAwareCompare@QStringRef@@SAHAEBV1@AEBVQString@@@Z
?localeAwareCompare_helper@QString@@CAHPEBVQChar@@H0H@Z
?location@QLibraryInfo@@SA?AVQString@@W4LibraryLocation@1@@Z
?lock@QMutex@@QEAAXXZ
?lock@QSharedMemory@@QEAA_NXZ
?lockForRead@QReadWriteLock@@QEAAXXZ
?lockForWrite@QReadWriteLock@@QEAAXXZ
?lockInline@QMutex@@QEAAXXZ
?lockInternal@QMutex@@AEAAXXZ
?longDayName@QDate@@SA?AVQString@@H@Z
?longDayName@QDate@@SA?AVQString@@HW4MonthNameType@1@@Z
?longFileName@QFSFileEnginePrivate@@SA?AVQString@@AEBV2@@Z
?longLongToString@QLocalePrivate@@QEBA?AVQString@@_JHHHI@Z
?longLongToString@QLocalePrivate@@SA?AVQString@@VQChar@@000_JHHHI@Z
?longMonthName@QDate@@SA?AVQString@@H@Z
?longMonthName@QDate@@SA?AVQString@@HW4MonthNameType@1@@Z
?loopCount@QAbstractAnimation@@QEBAHXZ
?loopCount@QTimeLine@@QEBAHXZ
?lowSurrogate@QChar@@SAGI@Z
?lowercasebase@@YAAEAVQTextStream@@AEAV1@@Z
?lowercasedigits@@YAAEAVQTextStream@@AEAV1@@Z
?machine@QAbstractState@@QEBAPEAVQStateMachine@@XZ
?machine@QAbstractTransition@@QEBAPEAVQStateMachine@@XZ
?machine@QAbstractTransitionPrivate@@QEBAPEAVQStateMachine@@XZ
?mainThread@QCoreApplicationPrivate@@SAPEAVQThread@@XZ
?makeAbsolute@QDir@@QEAA_NXZ
?makeAbsolute@QFileInfo@@QEAA_NXZ
?makeDecoder@QTextCodec@@QEBAPEAVQTextDecoder@@V?$QFlags@W4ConversionFlag@QTextCodec@@@@@Z
?makeDecoder@QTextCodec@@QEBAPEAVQTextDecoder@@XZ
?makeEncoder@QTextCodec@@QEBAPEAVQTextEncoder@@V?$QFlags@W4ConversionFlag@QTextCodec@@@@@Z
?makeEncoder@QTextCodec@@QEBAPEAVQTextEncoder@@XZ
?makePlatformSafeKey@QSharedMemoryPrivate@@SA?AVQString@@AEBV2@0@Z
?malloc@?$QVector@VQPoint@@@@AEAAPEAUQVectorData@@H@Z
?malloc@?$QVector@VQPointF@@@@AEAAPEAUQVectorData@@H@Z
?malloc@?$QVector@VQXmlStreamAttribute@@@@AEAAPEAUQVectorData@@H@Z
?malloc@QVectorData@@SAPEAU1@HHHPEAU1@@Z
?manhattanLength@QPoint@@QEBAHXZ
?manhattanLength@QPointF@@QEBANXZ
?map@QAbstractFileEngine@@QEAAPEAE_J0W4MemoryMapFlags@QFile@@@Z
?map@QFSFileEnginePrivate@@QEAAPEAE_J0W4MemoryMapFlags@QFile@@@Z
?map@QFile@@QEAAPEAE_J0W4MemoryMapFlags@1@@Z
?map@QSignalMapper@@QEAAXPEAVQObject@@@Z
?map@QSignalMapper@@QEAAXXZ
?mapped@QSignalMapper@@IEAAXAEBVQString@@@Z
?mapped@QSignalMapper@@IEAAXH@Z
?mapped@QSignalMapper@@IEAAXPEAVQObject@@@Z
?mapped@QSignalMapper@@IEAAXPEAVQWidget@@@Z
?mapping@QSignalMapper@@QEBAPEAVQObject@@AEBVQString@@@Z
?mapping@QSignalMapper@@QEBAPEAVQObject@@H@Z
?mapping@QSignalMapper@@QEBAPEAVQObject@@PEAV2@@Z
?mapping@QSignalMapper@@QEBAPEAVQObject@@PEAVQWidget@@@Z
?match@QAbstractItemModel@@UEBA?AV?$QList@VQModelIndex@@@@AEBVQModelIndex@@HAEBVQVariant@@HV?$QFlags@W4MatchFlag@Qt@@@@@Z
?match@QDir@@SA_NAEBVQString@@0@Z
?match@QDir@@SA_NAEBVQStringList@@AEBVQString@@@Z
?matchedLength@QRegExp@@QEBAHXZ
?matchingLocales@QLocale@@SA?AV?$QList@VQLocale@@@@W4Language@1@W4Script@1@W4Country@1@@Z
?maxChange@QDateTimeParser@@QEBAHH@Z
?maxThreadCount@QThreadPool@@QEBAHXZ
?maybeRegister@QEventTransitionPrivate@@QEAAXXZ
?maybeSpace@QDebug@@QEAAAEAV1@XZ
?measurementSystem@QLocale@@QEBA?AW4MeasurementSystem@1@XZ
?measurementSystem@QLocalePrivate@@QEBA?AW4MeasurementSystem@QLocale@@XZ
?mergedKeyMap@QConfFile@@QEBA?AV?$QMap@VQSettingsKey@@VQVariant@@@@XZ
?metaCall@QAbstractDynamicMetaObject@@UEAAHW4Call@QMetaObject@@HPEAPEAX@Z
?metaObject@QAbstractAnimation@@UEBAPEBUQMetaObject@@XZ
?metaObject@QAbstractEventDispatcher@@UEBAPEBUQMetaObject@@XZ
?metaObject@QAbstractItemModel@@UEBAPEBUQMetaObject@@XZ
?metaObject@QAbstractListModel@@UEBAPEBUQMetaObject@@XZ
?metaObject@QAbstractState@@UEBAPEBUQMetaObject@@XZ
?metaObject@QAbstractTableModel@@UEBAPEBUQMetaObject@@XZ
?metaObject@QAbstractTransition@@UEBAPEBUQMetaObject@@XZ
?metaObject@QAnimationDriver@@UEBAPEBUQMetaObject@@XZ
?metaObject@QAnimationGroup@@UEBAPEBUQMetaObject@@XZ
?metaObject@QBuffer@@UEBAPEBUQMetaObject@@XZ
?metaObject@QCoreApplication@@UEBAPEBUQMetaObject@@XZ
?metaObject@QEventDispatcherWin32@@UEBAPEBUQMetaObject@@XZ
?metaObject@QEventLoop@@UEBAPEBUQMetaObject@@XZ
?metaObject@QEventTransition@@UEBAPEBUQMetaObject@@XZ
?metaObject@QFactoryLoader@@UEBAPEBUQMetaObject@@XZ
?metaObject@QFile@@UEBAPEBUQMetaObject@@XZ
?metaObject@QFileSystemWatcher@@UEBAPEBUQMetaObject@@XZ
?metaObject@QFinalState@@UEBAPEBUQMetaObject@@XZ
?metaObject@QFutureWatcherBase@@UEBAPEBUQMetaObject@@XZ
?metaObject@QHistoryState@@UEBAPEBUQMetaObject@@XZ
?metaObject@QIODevice@@UEBAPEBUQMetaObject@@XZ
?metaObject@QLibrary@@UEBAPEBUQMetaObject@@XZ
?metaObject@QMimeData@@UEBAPEBUQMetaObject@@XZ
?metaObject@QNonContiguousByteDevice@@UEBAPEBUQMetaObject@@XZ
?metaObject@QObject@@UEBAPEBUQMetaObject@@XZ
?metaObject@QObjectCleanupHandler@@UEBAPEBUQMetaObject@@XZ
?metaObject@QParallelAnimationGroup@@UEBAPEBUQMetaObject@@XZ
?metaObject@QPauseAnimation@@UEBAPEBUQMetaObject@@XZ
?metaObject@QPluginLoader@@UEBAPEBUQMetaObject@@XZ
?metaObject@QProcess@@UEBAPEBUQMetaObject@@XZ
?metaObject@QPropertyAnimation@@UEBAPEBUQMetaObject@@XZ
?metaObject@QSequentialAnimationGroup@@UEBAPEBUQMetaObject@@XZ
?metaObject@QSettings@@UEBAPEBUQMetaObject@@XZ
?metaObject@QSharedMemory@@UEBAPEBUQMetaObject@@XZ
?metaObject@QSignalMapper@@UEBAPEBUQMetaObject@@XZ
?metaObject@QSignalTransition@@UEBAPEBUQMetaObject@@XZ
?metaObject@QSocketNotifier@@UEBAPEBUQMetaObject@@XZ
?metaObject@QState@@UEBAPEBUQMetaObject@@XZ
?metaObject@QStateMachine@@UEBAPEBUQMetaObject@@XZ
?metaObject@QTemporaryFile@@UEBAPEBUQMetaObject@@XZ
?metaObject@QTextCodecPlugin@@UEBAPEBUQMetaObject@@XZ
?metaObject@QThread@@UEBAPEBUQMetaObject@@XZ
?metaObject@QThreadPool@@UEBAPEBUQMetaObject@@XZ
?metaObject@QTimeLine@@UEBAPEBUQMetaObject@@XZ
?metaObject@QTimer@@UEBAPEBUQMetaObject@@XZ
?metaObject@QTranslator@@UEBAPEBUQMetaObject@@XZ
?metaObject@QVariantAnimation@@UEBAPEBUQMetaObject@@XZ
?metaObject@QWinEventNotifier@@UEBAPEBUQMetaObject@@XZ
?metaObject@QWindowsPipeWriter@@UEBAPEBUQMetaObject@@XZ
?metacall@QMetaObject@@SAHPEAVQObject@@W4Call@1@HPEAPEAX@Z
?method@QMetaObject@@QEBA?AVQMetaMethod@@H@Z
?methodCount@QMetaObject@@QEBAHXZ
?methodIndex@QMetaMethod@@QEBAHXZ
?methodOffset@QMetaObject@@QEBAHXZ
?methodType@QMetaMethod@@QEBA?AW4MethodType@1@XZ
?microstep@QStateMachinePrivate@@QEAAXPEAVQEvent@@AEBV?$QList@PEAVQAbstractTransition@@@@@Z
?mid@?$QVector@VQPoint@@@@QEBA?AV1@HH@Z
?mid@?$QVector@VQPointF@@@@QEBA?AV1@HH@Z
?mid@?$QVector@VQXmlStreamAttribute@@@@QEBA?AV1@HH@Z
?mid@QByteArray@@QEBA?AV1@HH@Z
?mid@QString@@QEBA?AV1@HH@Z
?midRef@QString@@QEBA?AVQStringRef@@HH@Z
?mightGrow@QHashData@@QEAAXXZ
?mimeData@QAbstractItemModel@@UEBAPEAVQMimeData@@AEBV?$QList@VQModelIndex@@@@@Z
?mimeTypes@QAbstractItemModel@@UEBA?AVQStringList@@XZ
?minus@QLocalePrivate@@QEBA?AVQChar@@XZ
?minute@QTime@@QEBAHXZ
?mirroredChar@QChar@@QEBA?AV1@XZ
?mirroredChar@QChar@@SAGG@Z
?mirroredChar@QChar@@SAII@Z
?mirroredChar@QCharRef@@QEBA?AVQChar@@XZ
?mkdir@QAbstractFileEngine@@UEBA_NAEBVQString@@_N@Z
?mkdir@QDir@@QEBA_NAEBVQString@@@Z
?mkdir@QFSFileEngine@@UEBA_NAEBVQString@@_N@Z
?mkpath@QDir@@QEBA_NAEBVQString@@@Z
?model@QModelIndex@@QEBAPEBVQAbstractItemModel@@XZ
?model@QPersistentModelIndex@@QEBAPEBVQAbstractItemModel@@XZ
?modelAboutToBeReset@QAbstractItemModel@@AEAAXXZ
?modelReset@QAbstractItemModel@@AEAAXXZ
?month@QDate@@QEBAHXZ
?monthName@QLocale@@QEBA?AVQString@@HW4FormatType@1@@Z
?move@QListData@@QEAAXHH@Z
?moveBottom@QRect@@QEAAXH@Z
?moveBottom@QRectF@@QEAAXN@Z
?moveBottomLeft@QRect@@QEAAXAEBVQPoint@@@Z
?moveBottomLeft@QRectF@@QEAAXAEBVQPointF@@@Z
?moveBottomRight@QRect@@QEAAXAEBVQPoint@@@Z
?moveBottomRight@QRectF@@QEAAXAEBVQPointF@@@Z
?moveCenter@QRect@@QEAAXAEBVQPoint@@@Z
?moveCenter@QRectF@@QEAAXAEBVQPointF@@@Z
?moveLeft@QRect@@QEAAXH@Z
?moveLeft@QRectF@@QEAAXN@Z
?movePersistentIndexes@QAbstractItemModelPrivate@@QEAAXV?$QVector@PEAVQPersistentModelIndexData@@@@HAEBVQModelIndex@@W4Orientation@Qt@@@Z
?moveRight@QRect@@QEAAXH@Z
?moveRight@QRectF@@QEAAXN@Z
?moveTo@QRect@@QEAAXAEBVQPoint@@@Z
?moveTo@QRect@@QEAAXHH@Z
?moveTo@QRectF@@QEAAXAEBVQPointF@@@Z
?moveTo@QRectF@@QEAAXNN@Z
?moveToThread@QObject@@QEAAXPEAVQThread@@@Z
?moveToThread_helper@QObjectPrivate@@QEAAXXZ
?moveTop@QRect@@QEAAXH@Z
?moveTop@QRectF@@QEAAXN@Z
?moveTopLeft@QRect@@QEAAXAEBVQPoint@@@Z
?moveTopLeft@QRectF@@QEAAXAEBVQPointF@@@Z
?moveTopRight@QRect@@QEAAXAEBVQPoint@@@Z
?moveTopRight@QRectF@@QEAAXAEBVQPointF@@@Z
?msec@QTime@@QEBAHXZ
?msecsSinceReference@QElapsedTimer@@QEBA_JXZ
?msecsTo@QDateTime@@QEBA_JAEBV1@@Z
?msecsTo@QElapsedTimer@@QEBA_JAEBV1@@Z
?msecsTo@QTime@@QEBAHAEBV1@@Z
?msleep@QThread@@KAXK@Z
?multiArg@QString@@AEBA?AV1@HPEAPEBV1@@Z
?mutex@QFutureInterfaceBase@@QEBAPEAVQMutex@@XZ
?mutex@QMutexLocker@@QEBAPEAVQMutex@@XZ
?name@QGenericArgument@@QEBAPEBDXZ
?name@QLocale@@QEBA?AVQString@@XZ
?name@QMetaClassInfo@@QEBAPEBDXZ
?name@QMetaEnum@@QEBAPEBDXZ
?name@QMetaProperty@@QEBAPEBDXZ
?name@QXmlStreamAttribute@@QEBA?AVQStringRef@@XZ
?name@QXmlStreamEntityDeclaration@@QEBA?AVQStringRef@@XZ
?name@QXmlStreamNotationDeclaration@@QEBA?AVQStringRef@@XZ
?name@QXmlStreamReader@@QEBA?AVQStringRef@@XZ
?nameFilters@QAbstractFileEngineIterator@@QEBA?AVQStringList@@XZ
?nameFilters@QDir@@QEBA?AVQStringList@@XZ
?nameFiltersFromString@QDir@@SA?AVQStringList@@AEBVQString@@@Z
?nameToType@QVariant@@SA?AW4Type@1@PEBD@Z
?namedObjects@QObjectPrivate@@2PEAV?$QMultiHash@VQString@@PEAVQObject@@@@EA
?namespaceDeclarations@QXmlStreamReader@@QEBA?AV?$QVector@VQXmlStreamNamespaceDeclaration@@@@XZ
?namespaceProcessing@QXmlStreamReader@@QEBA_NXZ
?namespaceUri@QXmlStreamAttribute@@QEBA?AVQStringRef@@XZ
?namespaceUri@QXmlStreamNamespaceDeclaration@@QEBA?AVQStringRef@@XZ
?namespaceUri@QXmlStreamReader@@QEBA?AVQStringRef@@XZ
?nativeArguments@QProcess@@QEBA?AVQString@@XZ
?nativeClose@QFSFileEnginePrivate@@QEAA_NXZ
?nativeCountryName@QLocale@@QEBA?AVQString@@XZ
?nativeFilePath@QFileSystemEntry@@QEBA?AVQString@@XZ
?nativeFlush@QFSFileEnginePrivate@@QEAA_NXZ
?nativeHandle@QFSFileEnginePrivate@@QEBAHXZ
?nativeIsSequential@QFSFileEnginePrivate@@QEBA_NXZ
?nativeKey@QSharedMemory@@QEBA?AVQString@@XZ
?nativeLanguageName@QLocale@@QEBA?AVQString@@XZ
?nativeOpen@QFSFileEnginePrivate@@QEAA_NV?$QFlags@W4OpenModeFlag@QIODevice@@@@@Z
?nativePos@QFSFileEnginePrivate@@QEBA_JXZ
?nativeRead@QFSFileEnginePrivate@@QEAA_JPEAD_J@Z
?nativeReadLine@QFSFileEnginePrivate@@QEAA_JPEAD_J@Z
?nativeSeek@QFSFileEnginePrivate@@QEAA_N_J@Z
?nativeSize@QFSFileEnginePrivate@@QEBA_JXZ
?nativeWrite@QFSFileEnginePrivate@@QEAA_JPEBD_J@Z
?negativeSign@QLocale@@QEBA?AVQChar@@XZ
?newInstance@QMetaObject@@QEBAPEAVQObject@@VQGenericArgument@@000000000@Z
?next@QDirIterator@@QEAA?AVQString@@XZ
?nextNode@QHashData@@SAPEAUNode@1@PEAU21@@Z
?node_create@QMapData@@QEAAPEAUNode@1@QEAPEAU21@H@Z
?node_create@QMapData@@QEAAPEAUNode@1@QEAPEAU21@HH@Z
?node_delete@QMapData@@QEAAXQEAPEAUNode@1@HPEAU21@@Z
?noforcepoint@@YAAEAVQTextStream@@AEAV1@@Z
?noforcesign@@YAAEAVQTextStream@@AEAV1@@Z
?normalVector@QLineF@@QEBA?AV1@XZ
?normalized@QRect@@QEBA?AV1@XZ
?normalized@QRectF@@QEBA?AV1@XZ
?normalized@QString@@QEBA?AV1@W4NormalizationForm@1@@Z
?normalized@QString@@QEBA?AV1@W4NormalizationForm@1@W4UnicodeVersion@QChar@@@Z
?normalizedKey@QSettingsPrivate@@SA?AVQString@@AEBV2@@Z
?normalizedSignature@QMetaObject@@SA?AVQByteArray@@PEBD@Z
?normalizedType@QMetaObject@@SA?AVQByteArray@@PEBD@Z
?noshowbase@@YAAEAVQTextStream@@AEAV1@@Z
?nospace@QDebug@@QEAAAEAV1@XZ
?notationDeclarations@QXmlStreamReader@@QEBA?AV?$QVector@VQXmlStreamNotationDeclaration@@@@XZ
?notationName@QXmlStreamEntityDeclaration@@QEBA?AVQStringRef@@XZ
?notify@QCoreApplication@@UEAA_NPEAVQObject@@PEAVQEvent@@@Z
?notifyInternal@QCoreApplication@@AEAA_NPEAVQObject@@PEAVQEvent@@@Z
?notifySignal@QMetaProperty@@QEBA?AVQMetaMethod@@XZ
?notifySignalIndex@QMetaProperty@@QEBAHXZ
?notify_helper@QCoreApplicationPrivate@@QEAA_NPEAVQObject@@PEAVQEvent@@@Z
?nsecsElapsed@QElapsedTimer@@QEBA_JXZ
?nulTerminated@QByteArray@@AEBA?AV1@XZ
?null@QString@@2UNull@1@B
?numCaptures@QRegExp@@QEBAHXZ
?number@QByteArray@@SA?AV1@HH@Z
?number@QByteArray@@SA?AV1@IH@Z
?number@QByteArray@@SA?AV1@NDH@Z
?number@QByteArray@@SA?AV1@_JH@Z
?number@QByteArray@@SA?AV1@_KH@Z
?number@QString@@SA?AV1@HH@Z
?number@QString@@SA?AV1@IH@Z
?number@QString@@SA?AV1@JH@Z
?number@QString@@SA?AV1@KH@Z
?number@QString@@SA?AV1@NDH@Z
?number@QString@@SA?AV1@_JH@Z
?number@QString@@SA?AV1@_KH@Z
?numberFlags@QTextStream@@QEBA?AV?$QFlags@W4NumberFlag@QTextStream@@@@XZ
?numberOptions@QLocale@@QEBA?AV?$QFlags@W4NumberOption@QLocale@@@@XZ
?numberToCLocale@QLocalePrivate@@QEBA_NAEBVQString@@W4GroupSeparatorMode@1@PEAV?$QVarLengthArray@D$0BAA@@@@Z
?object@WrappedEvent@QStateMachine@@QEBAPEAVQObject@@XZ
?objectDestroyed@QObjectCleanupHandler@@AEAAXPEAVQObject@@@Z
?objectName@QObject@@QEBA?AVQString@@XZ
?objectNameChanged@QAbstractDeclarativeData@@2P6AXPEAV1@PEAVQObject@@@ZEA
?oct@@YAAEAVQTextStream@@AEAV1@@Z
?onEntry@QFinalState@@MEAAXPEAVQEvent@@@Z
?onEntry@QHistoryState@@MEAAXPEAVQEvent@@@Z
?onEntry@QState@@MEAAXPEAVQEvent@@@Z
?onEntry@QStateMachine@@MEAAXPEAVQEvent@@@Z
?onExit@QFinalState@@MEAAXPEAVQEvent@@@Z
?onExit@QHistoryState@@MEAAXPEAVQEvent@@@Z
?onExit@QState@@MEAAXPEAVQEvent@@@Z
?onExit@QStateMachine@@MEAAXPEAVQEvent@@@Z
?onTransition@QEventTransition@@MEAAXPEAVQEvent@@@Z
?onTransition@QSignalTransition@@MEAAXPEAVQEvent@@@Z
?open@QAbstractFileEngine@@UEAA_NV?$QFlags@W4OpenModeFlag@QIODevice@@@@@Z
?open@QBuffer@@UEAA_NV?$QFlags@W4OpenModeFlag@QIODevice@@@@@Z
?open@QFSFileEngine@@QEAA_NV?$QFlags@W4OpenModeFlag@QIODevice@@@@H@Z
?open@QFSFileEngine@@QEAA_NV?$QFlags@W4OpenModeFlag@QIODevice@@@@HV?$QFlags@W4FileHandleFlag@QFile@@@@@Z
?open@QFSFileEngine@@QEAA_NV?$QFlags@W4OpenModeFlag@QIODevice@@@@PEAU_iobuf@@@Z
?open@QFSFileEngine@@QEAA_NV?$QFlags@W4OpenModeFlag@QIODevice@@@@PEAU_iobuf@@V?$QFlags@W4FileHandleFlag@QFile@@@@@Z
?open@QFSFileEngine@@UEAA_NV?$QFlags@W4OpenModeFlag@QIODevice@@@@@Z
?open@QFile@@QEAA_NHV?$QFlags@W4OpenModeFlag@QIODevice@@@@@Z
?open@QFile@@QEAA_NHV?$QFlags@W4OpenModeFlag@QIODevice@@@@V?$QFlags@W4FileHandleFlag@QFile@@@@@Z
?open@QFile@@QEAA_NPEAU_iobuf@@V?$QFlags@W4OpenModeFlag@QIODevice@@@@@Z
?open@QFile@@QEAA_NPEAU_iobuf@@V?$QFlags@W4OpenModeFlag@QIODevice@@@@V?$QFlags@W4FileHandleFlag@QFile@@@@@Z
?open@QFile@@UEAA_NV?$QFlags@W4OpenModeFlag@QIODevice@@@@@Z
?open@QIODevice@@UEAA_NV?$QFlags@W4OpenModeFlag@QIODevice@@@@@Z
?open@QTemporaryFile@@MEAA_NV?$QFlags@W4OpenModeFlag@QIODevice@@@@@Z
?open@QTemporaryFile@@QEAA_NXZ
?openFd@QFSFileEnginePrivate@@QEAA_NV?$QFlags@W4OpenModeFlag@QIODevice@@@@H@Z
?openFh@QFSFileEnginePrivate@@QEAA_NV?$QFlags@W4OpenModeFlag@QIODevice@@@@PEAU_iobuf@@@Z
?openMode@QIODevice@@QEBA?AV?$QFlags@W4OpenModeFlag@QIODevice@@@@XZ
?organizationDomain@QCoreApplication@@SA?AVQString@@XZ
?organizationName@QCoreApplication@@SA?AVQString@@XZ
?organizationName@QSettings@@QEBA?AVQString@@XZ
?overshoot@QEasingCurve@@QEBANXZ
?owner@QAbstractFileEngine@@UEBA?AVQString@@W4FileOwner@1@@Z
?owner@QFSFileEngine@@UEBA?AVQString@@W4FileOwner@QAbstractFileEngine@@@Z
?owner@QFileInfo@@QEBA?AVQString@@XZ
?ownerId@QAbstractFileEngine@@UEBAIW4FileOwner@1@@Z
?ownerId@QFSFileEngine@@UEBAIW4FileOwner@QAbstractFileEngine@@@Z
?ownerId@QFileInfo@@QEBAIXZ
?p1@QLine@@QEBA?AVQPoint@@XZ
?p1@QLineF@@QEBA?AVQPointF@@XZ
?p2@QLine@@QEBA?AVQPoint@@XZ
?p2@QLineF@@QEBA?AVQPointF@@XZ
?padChar@QTextStream@@QEBA?AVQChar@@XZ
?parameterNames@QMetaMethod@@QEBA?AV?$QList@VQByteArray@@@@XZ
?parameterTypes@QMetaMethod@@QEBA?AV?$QList@VQByteArray@@@@XZ
?parent@QAbstractListModel@@EEBA?AVQModelIndex@@AEBV2@@Z
?parent@QAbstractTableModel@@EEBA?AVQModelIndex@@AEBV2@@Z
?parent@QModelIndex@@QEBA?AV1@XZ
?parent@QObject@@QEBAPEAV1@XZ
?parent@QPersistentModelIndex@@QEBA?AVQModelIndex@@XZ
?parentChanged@QAbstractDeclarativeData@@2P6AXPEAV1@PEAVQObject@@1@ZEA
?parentState@QAbstractState@@QEBAPEAVQState@@XZ
?parse@QDateTimeParser@@QEBA?AUStateNode@1@AEAVQString@@AEAHAEBVQDateTime@@_N@Z
?parseFormat@QDateTimeParser@@QEAA_NAEBVQString@@@Z
?parseSection@QDateTimeParser@@QEBAHAEBVQDateTime@@HAEAVQString@@AEAHHAEAW4State@1@PEAH@Z
?password@QUrl@@QEBA?AVQString@@XZ
?path@QAbstractFileEngineIterator@@QEBA?AVQString@@XZ
?path@QDir@@QEBA?AVQString@@XZ
?path@QDirIterator@@QEBA?AVQString@@XZ
?path@QFileInfo@@QEBA?AVQString@@XZ
?path@QFileSystemEntry@@QEBA?AVQString@@XZ
?path@QUrl@@QEBA?AVQString@@XZ
?pattern@QByteArrayMatcher@@QEBA?AVQByteArray@@XZ
?pattern@QRegExp@@QEBA?AVQString@@XZ
?pattern@QStringMatcher@@QEBA?AVQString@@XZ
?patternSyntax@QRegExp@@QEBA?AW4PatternSyntax@1@XZ
?pause@QAbstractAnimation@@QEAAXXZ
?pause@QFutureWatcherBase@@QEAAXXZ
?paused@QFutureWatcherBase@@IEAAXXZ
?peek@QIODevice@@QEAA?AVQByteArray@@_J@Z
?peek@QIODevice@@QEAA_JPEAD_J@Z
?peek@QIODevicePrivate@@UEAA?AVQByteArray@@_J@Z
?peek@QIODevicePrivate@@UEAA_JPEAD_J@Z
?percent@QLocale@@QEBA?AVQChar@@XZ
?percent@QLocalePrivate@@QEBA?AVQChar@@XZ
?period@QEasingCurve@@QEBANXZ
?permission@QFileInfo@@QEBA_NV?$QFlags@W4Permission@QFile@@@@@Z
?permissions@QFile@@QEBA?AV?$QFlags@W4Permission@QFile@@@@XZ
?permissions@QFile@@SA?AV?$QFlags@W4Permission@QFile@@@@AEBVQString@@@Z
?permissions@QFileInfo@@QEBA?AV?$QFlags@W4Permission@QFile@@@@XZ
?persistentIndexList@QAbstractItemModel@@IEBA?AV?$QList@VQModelIndex@@@@XZ
?pid@QProcess@@QEBAPEAU_PROCESS_INFORMATION@@XZ
?placeMetaCall@QMetaCallEvent@@UEAAXPEAVQObject@@@Z
?plus@QLocalePrivate@@QEBA?AVQChar@@XZ
?pmText@QLocale@@QEBA?AVQString@@XZ
?pointAt@QLineF@@QEBA?AVQPointF@@N@Z
?polished@QChildEvent@@QEBA_NXZ
?pop_back@?$QVector@VQPoint@@@@QEAAXXZ
?pop_back@?$QVector@VQPointF@@@@QEAAXXZ
?pop_back@?$QVector@VQXmlStreamAttribute@@@@QEAAXXZ
?pop_front@?$QVector@VQPoint@@@@QEAAXXZ
?pop_front@?$QVector@VQPointF@@@@QEAAXXZ
?pop_front@?$QVector@VQXmlStreamAttribute@@@@QEAAXXZ
?port@QUrl@@QEBAHH@Z
?port@QUrl@@QEBAHXZ
?pos@QAbstractFileEngine@@UEBA_JXZ
?pos@QBuffer@@UEBA_JXZ
?pos@QFSFileEngine@@UEBA_JXZ
?pos@QFile@@UEBA_JXZ
?pos@QIODevice@@UEBA_JXZ
?pos@QRegExp@@QEAAHH@Z
?pos@QRegExp@@QEBAHH@Z
?pos@QTextStream@@QEBA_JXZ
?posFdFh@QFSFileEnginePrivate@@QEBA_JXZ
?position@QStringRef@@QEBAHXZ
?position@QTextBoundaryFinder@@QEBAHXZ
?position@QXmlStreamStringRef@@QEBAHXZ
?positiveSign@QLocale@@QEBA?AVQChar@@XZ
?postDelayedEvent@QStateMachine@@QEAAHPEAVQEvent@@H@Z
?postEvent@QCoreApplication@@SAXPEAVQObject@@PEAVQEvent@@@Z
?postEvent@QCoreApplication@@SAXPEAVQObject@@PEAVQEvent@@H@Z
?postEvent@QStateMachine@@QEAAXPEAVQEvent@@W4EventPriority@1@@Z
?postExternalEvent@QStateMachinePrivate@@QEAAXPEAVQEvent@@@Z
?postInternalEvent@QStateMachinePrivate@@QEAAXPEAVQEvent@@@Z
?potentialValue@QDateTimeParser@@QEBA_NAEBVQString@@HHHAEBVQDateTime@@H@Z
?prefix@QXmlStreamAttribute@@QEBA?AVQStringRef@@XZ
?prefix@QXmlStreamNamespaceDeclaration@@QEBA?AVQStringRef@@XZ
?prefix@QXmlStreamReader@@QEBA?AVQStringRef@@XZ
?prepend@?$QVector@VQPoint@@@@QEAAXAEBVQPoint@@@Z
?prepend@?$QVector@VQPointF@@@@QEAAXAEBVQPointF@@@Z
?prepend@?$QVector@VQXmlStreamAttribute@@@@QEAAXAEBVQXmlStreamAttribute@@@Z
?prepend@QByteArray@@QEAAAEAV1@AEBV1@@Z
?prepend@QByteArray@@QEAAAEAV1@D@Z
?prepend@QByteArray@@QEAAAEAV1@PEBD@Z
?prepend@QByteArray@@QEAAAEAV1@PEBDH@Z
?prepend@QListData@@QEAAPEAPEAXXZ
?prepend@QString@@QEAAAEAV1@AEBV1@@Z
?prepend@QString@@QEAAAEAV1@AEBVQByteArray@@@Z
?prepend@QString@@QEAAAEAV1@AEBVQLatin1String@@@Z
?prepend@QString@@QEAAAEAV1@PEBD@Z
?prepend@QString@@QEAAAEAV1@VQChar@@@Z
?previousNode@QHashData@@SAPEAUNode@1@PEAU21@@Z
?priority@QThread@@QEBA?AW4Priority@1@XZ
?processChannelMode@QProcess@@QEBA?AW4ProcessChannelMode@1@XZ
?processChild@QSettingsPrivate@@SAXVQString@@W4ChildSpec@1@AEAV?$QMap@VQString@@V1@@@@Z
?processCommandLineArguments@QCoreApplicationPrivate@@QEAAXXZ
?processEnvironment@QProcess@@QEBA?AVQProcessEnvironment@@XZ
?processEvents@QCoreApplication@@SAXV?$QFlags@W4ProcessEventsFlag@QEventLoop@@@@@Z
?processEvents@QCoreApplication@@SAXV?$QFlags@W4ProcessEventsFlag@QEventLoop@@@@H@Z
?processEvents@QEventDispatcherWin32@@UEAA_NV?$QFlags@W4ProcessEventsFlag@QEventLoop@@@@@Z
?processEvents@QEventLoop@@QEAAXV?$QFlags@W4ProcessEventsFlag@QEventLoop@@@@H@Z
?processEvents@QEventLoop@@QEAA_NV?$QFlags@W4ProcessEventsFlag@QEventLoop@@@@@Z
?processEvents@QStateMachinePrivate@@QEAAXW4EventProcessingMode@1@@Z
?processingInstructionData@QXmlStreamReader@@QEBA?AVQStringRef@@XZ
?processingInstructionTarget@QXmlStreamReader@@QEBA?AVQStringRef@@XZ
?progressMaximum@QFutureInterfaceBase@@QEBAHXZ
?progressMaximum@QFutureWatcherBase@@QEBAHXZ
?progressMinimum@QFutureInterfaceBase@@QEBAHXZ
?progressMinimum@QFutureWatcherBase@@QEBAHXZ
?progressRangeChanged@QFutureWatcherBase@@IEAAXHH@Z
?progressText@QFutureInterfaceBase@@QEBA?AVQString@@XZ
?progressText@QFutureWatcherBase@@QEBA?AVQString@@XZ
?progressTextChanged@QFutureWatcherBase@@IEAAXAEBVQString@@@Z
?progressValue@QFutureInterfaceBase@@QEBAHXZ
?progressValue@QFutureWatcherBase@@QEBAHXZ
?progressValueChanged@QFutureWatcherBase@@IEAAXH@Z
?properAncestors@QStateMachinePrivate@@SA?AV?$QList@PEAVQState@@@@PEBVQAbstractState@@PEBVQState@@@Z
?properties@QUnicodeTables@@YAPEBUProperties@1@G@Z
?properties@QUnicodeTables@@YAPEBUProperties@1@I@Z
?propertiesAssigned@QState@@IEAAXXZ
?property@QMetaObject@@QEBA?AVQMetaProperty@@H@Z
?property@QObject@@QEBA?AVQVariant@@PEBD@Z
?propertyCount@QMetaObject@@QEBAHXZ
?propertyIndex@QMetaProperty@@QEBAHXZ
?propertyName@QDynamicPropertyChangeEvent@@QEBA?AVQByteArray@@XZ
?propertyName@QPropertyAnimation@@QEBA?AVQByteArray@@XZ
?propertyOffset@QMetaObject@@QEBAHXZ
?publicId@QXmlStreamEntityDeclaration@@QEBA?AVQStringRef@@XZ
?publicId@QXmlStreamNotationDeclaration@@QEBA?AVQStringRef@@XZ
?push_back@?$QVector@VQPoint@@@@QEAAXAEBVQPoint@@@Z
?push_back@?$QVector@VQPointF@@@@QEAAXAEBVQPointF@@@Z
?push_back@?$QVector@VQXmlStreamAttribute@@@@QEAAXAEBVQXmlStreamAttribute@@@Z
?push_back@QByteArray@@QEAAXAEBV1@@Z
?push_back@QByteArray@@QEAAXD@Z
?push_back@QByteArray@@QEAAXPEBD@Z
?push_back@QString@@QEAAXAEBV1@@Z
?push_back@QString@@QEAAXVQChar@@@Z
?push_front@?$QVector@VQPoint@@@@QEAAXAEBVQPoint@@@Z
?push_front@?$QVector@VQPointF@@@@QEAAXAEBVQPointF@@@Z
?push_front@?$QVector@VQXmlStreamAttribute@@@@QEAAXAEBVQXmlStreamAttribute@@@Z
?push_front@QByteArray@@QEAAXAEBV1@@Z
?push_front@QByteArray@@QEAAXD@Z
?push_front@QByteArray@@QEAAXPEBD@Z
?push_front@QString@@QEAAXAEBV1@@Z
?push_front@QString@@QEAAXVQChar@@@Z
?putChar@QIODevice@@QEAA_ND@Z
?putCharHelper@QIODevicePrivate@@UEAA_ND@Z
?qAddPostRoutine@@YAXP6AXXZ@Z
?qAllocMore@@YAHHH@Z
?qAppFileName@@YA?AVQString@@XZ
?qAppName@@YA?AVQString@@XZ
?qBadAlloc@@YAXXZ
?qChecksum@@YAGPEBDI@Z
?qCompress@@YA?AVQByteArray@@PEBEHH@Z
?qCritical@@YA?AVQDebug@@XZ
?qCritical@@YAXPEBDZZ
?qDebug@@YA?AVQDebug@@XZ
?qDebug@@YAXPEBDZZ
?qDecodeDataUrl@@YA?AU?$QPair@VQString@@VQByteArray@@@@AEBVQUrl@@@Z
?qDeleteInEventHandler@@YAXPEAVQObject@@@Z
?qDetectCPUFeatures@@YAIXZ
?qErrnoWarning@@YAXHPEBDZZ
?qErrnoWarning@@YAXPEBDZZ
?qFatal@@YAXPEBDZZ
?qFlagLocation@@YAPEBDPEBD@Z
?qFree@@YAXPEAX@Z
?qFreeAligned@@YAXPEAX@Z
?qGetCharAttributes@@YAXPEBGIPEBUHB_ScriptItem@@IPEAUHB_CharAttributes@@@Z
?qGlobalPostedEventsCount@@YAIXZ
?qHBFreeFace@@YAXPEAUHB_FaceRec_@@@Z
?qHBNewFace@@YAPEAUHB_FaceRec_@@PEAXP6A?AW4HB_Error@@0IPEAEPEAI@Z@Z
?qHash@@YAIAEBVQBitArray@@@Z
?qHash@@YAIAEBVQByteArray@@@Z
?qHash@@YAIAEBVQString@@@Z
?qHash@@YAIAEBVQStringRef@@@Z
?qInf@@YANXZ
?qInitResourceIO@@YAXXZ
?qInstallMsgHandler@@YAP6AXW4QtMsgType@@PEBD@ZP6AX01@Z@Z
?qIsEffectiveTLD@@YA_NAEBVQString@@@Z
?qIsFinite@@YA_NM@Z
?qIsFinite@@YA_NN@Z
?qIsInf@@YA_NM@Z
?qIsInf@@YA_NN@Z
?qIsNaN@@YA_NM@Z
?qIsNaN@@YA_NN@Z
?qMalloc@@YAPEAX_K@Z
?qMallocAligned@@YAPEAX_K0@Z
?qMemCopy@@YAPEAXPEAXPEBX_K@Z
?qMemSet@@YAPEAXPEAXH_K@Z
?qMetaTypeGuiHelper@@3PEBUQMetaTypeGuiHelper@@EB
?qQNaN@@YANXZ
?qRealloc@@YAPEAXPEAX_K@Z
?qReallocAligned@@YAPEAXPEAX_K11@Z
?qRegisterResourceData@@YA_NHPEBE00@Z
?qRegisterStaticPluginInstanceFunction@@YAXP6APEAVQObject@@XZ@Z
?qRemovePostRoutine@@YAXP6AXXZ@Z
?qSNaN@@YANXZ
?qShapeItem@@YAEPEAUHB_ShaperItem_@@@Z
?qSharedBuild@@YA_NXZ
?qTopLevelDomain@@YA?AVQString@@AEBV1@@Z
?qUncompress@@YA?AVQByteArray@@PEBEH@Z
?qUnregisterResourceData@@YA_NHPEBE00@Z
?qVersion@@YAPEBDXZ
?qWarning@@YA?AVQDebug@@XZ
?qWarning@@YAXPEBDZZ
?qWinAppCmdShow@@YAHXZ
?qWinAppInst@@YAPEAUHINSTANCE__@@XZ
?qWinAppPrevInst@@YAPEAUHINSTANCE__@@XZ
?qWinMain@@YAXPEAUHINSTANCE__@@0PEADHAEAHAEAV?$QVector@PEAD@@@Z
?qWinMsgHandler@@YAXW4QtMsgType@@PEBD@Z
?q_func@QAbstractEventDispatcherPrivate@@AEAAPEAVQAbstractEventDispatcher@@XZ
?q_func@QAbstractEventDispatcherPrivate@@AEBAPEBVQAbstractEventDispatcher@@XZ
?q_func@QAbstractItemModelPrivate@@AEAAPEAVQAbstractItemModel@@XZ
?q_func@QAbstractItemModelPrivate@@AEBAPEBVQAbstractItemModel@@XZ
?q_func@QAbstractTransitionPrivate@@AEAAPEAVQAbstractTransition@@XZ
?q_func@QAbstractTransitionPrivate@@AEBAPEBVQAbstractTransition@@XZ
?q_func@QCoreApplicationPrivate@@AEAAPEAVQCoreApplication@@XZ
?q_func@QCoreApplicationPrivate@@AEBAPEBVQCoreApplication@@XZ
?q_func@QEventTransitionPrivate@@AEAAPEAVQEventTransition@@XZ
?q_func@QEventTransitionPrivate@@AEBAPEBVQEventTransition@@XZ
?q_func@QFSFileEnginePrivate@@AEAAPEAVQFSFileEngine@@XZ
?q_func@QFSFileEnginePrivate@@AEBAPEBVQFSFileEngine@@XZ
?q_func@QIODevicePrivate@@AEAAPEAVQIODevice@@XZ
?q_func@QIODevicePrivate@@AEBAPEBVQIODevice@@XZ
?q_func@QObjectPrivate@@AEAAPEAVQObject@@XZ
?q_func@QObjectPrivate@@AEBAPEBVQObject@@XZ
?q_func@QSettingsPrivate@@AEAAPEAVQSettings@@XZ
?q_func@QSettingsPrivate@@AEBAPEBVQSettings@@XZ
?q_func@QSharedMemoryPrivate@@AEAAPEAVQSharedMemory@@XZ
?q_func@QSharedMemoryPrivate@@AEBAPEBVQSharedMemory@@XZ
?q_func@QStateMachinePrivate@@AEAAPEAVQStateMachine@@XZ
?q_func@QStateMachinePrivate@@AEBAPEBVQStateMachine@@XZ
?q_func@QStatePrivate@@AEAAPEAVQState@@XZ
?q_func@QStatePrivate@@AEBAPEBVQState@@XZ
?qcoreStateMachineHandler@@YAPEBUHandler@QStateMachinePrivate@@XZ
?qcoreVariantHandler@@YAPEBUHandler@QVariant@@XZ
?qdtoa@@YAPEADNHHPEAH0PEAPEAD1@Z
?qgetenv@@YA?AVQByteArray@@PEBD@Z
?qmljsDebugArguments@QCoreApplicationPrivate@@SA?AVQString@@XZ
?qputenv@@YA_NPEBDAEBVQByteArray@@@Z
?qrand@@YAHXZ
?qsnprintf@@YAHPEAD_KPEBDZZ
?qsrand@@YAXI@Z
?qstrcmp@@YAHAEBVQByteArray@@0@Z
?qstrcmp@@YAHAEBVQByteArray@@PEBD@Z
?qstrcmp@@YAHPEBD0@Z
?qstrcpy@@YAPEADPEADPEBD@Z
?qstrdup@@YAPEADPEBD@Z
?qstricmp@@YAHPEBD0@Z
?qstrncpy@@YAPEADPEADPEBDI@Z
?qstrnicmp@@YAHPEBD0I@Z
?qstrtod@@YANPEBDPEAPEBDPEA_N@Z
?qtTrId@@YA?AVQString@@PEBDH@Z
?qt_assert@@YAXPEBD0H@Z
?qt_assert_x@@YAXPEBD00H@Z
?qt_call_post_routines@@YAXXZ
?qt_check_pointer@@YAXPEBDH@Z
?qt_check_std3rules@@YA_NPEBVQChar@@H@Z
?qt_error_string@@YA?AVQString@@H@Z
?qt_global_mutexpool@@3PEAVQMutexPool@@EA
?qt_int_sqrt@@YAII@Z
?qt_localeFromLCID@@YA?AVQLocale@@K@Z
?qt_locale_initialized@@3_NA
?qt_message_output@@YAXW4QtMsgType@@PEBD@Z
?qt_metacall@QAbstractAnimation@@UEAAHW4Call@QMetaObject@@HPEAPEAX@Z
?qt_metacall@QAbstractEventDispatcher@@UEAAHW4Call@QMetaObject@@HPEAPEAX@Z
?qt_metacall@QAbstractItemModel@@UEAAHW4Call@QMetaObject@@HPEAPEAX@Z
?qt_metacall@QAbstractListModel@@UEAAHW4Call@QMetaObject@@HPEAPEAX@Z
?qt_metacall@QAbstractState@@UEAAHW4Call@QMetaObject@@HPEAPEAX@Z
?qt_metacall@QAbstractTableModel@@UEAAHW4Call@QMetaObject@@HPEAPEAX@Z
?qt_metacall@QAbstractTransition@@UEAAHW4Call@QMetaObject@@HPEAPEAX@Z
?qt_metacall@QAnimationDriver@@UEAAHW4Call@QMetaObject@@HPEAPEAX@Z
?qt_metacall@QAnimationGroup@@UEAAHW4Call@QMetaObject@@HPEAPEAX@Z
?qt_metacall@QBuffer@@UEAAHW4Call@QMetaObject@@HPEAPEAX@Z
?qt_metacall@QCoreApplication@@UEAAHW4Call@QMetaObject@@HPEAPEAX@Z
?qt_metacall@QEventDispatcherWin32@@UEAAHW4Call@QMetaObject@@HPEAPEAX@Z
?qt_metacall@QEventLoop@@UEAAHW4Call@QMetaObject@@HPEAPEAX@Z
?qt_metacall@QEventTransition@@UEAAHW4Call@QMetaObject@@HPEAPEAX@Z
?qt_metacall@QFactoryLoader@@UEAAHW4Call@QMetaObject@@HPEAPEAX@Z
?qt_metacall@QFile@@UEAAHW4Call@QMetaObject@@HPEAPEAX@Z
?qt_metacall@QFileSystemWatcher@@UEAAHW4Call@QMetaObject@@HPEAPEAX@Z
?qt_metacall@QFinalState@@UEAAHW4Call@QMetaObject@@HPEAPEAX@Z
?qt_metacall@QFutureWatcherBase@@UEAAHW4Call@QMetaObject@@HPEAPEAX@Z
?qt_metacall@QHistoryState@@UEAAHW4Call@QMetaObject@@HPEAPEAX@Z
?qt_metacall@QIODevice@@UEAAHW4Call@QMetaObject@@HPEAPEAX@Z
?qt_metacall@QLibrary@@UEAAHW4Call@QMetaObject@@HPEAPEAX@Z
?qt_metacall@QMimeData@@UEAAHW4Call@QMetaObject@@HPEAPEAX@Z
?qt_metacall@QNonContiguousByteDevice@@UEAAHW4Call@QMetaObject@@HPEAPEAX@Z
?qt_metacall@QObject@@UEAAHW4Call@QMetaObject@@HPEAPEAX@Z
?qt_metacall@QObjectCleanupHandler@@UEAAHW4Call@QMetaObject@@HPEAPEAX@Z
?qt_metacall@QParallelAnimationGroup@@UEAAHW4Call@QMetaObject@@HPEAPEAX@Z
?qt_metacall@QPauseAnimation@@UEAAHW4Call@QMetaObject@@HPEAPEAX@Z
?qt_metacall@QPluginLoader@@UEAAHW4Call@QMetaObject@@HPEAPEAX@Z
?qt_metacall@QProcess@@UEAAHW4Call@QMetaObject@@HPEAPEAX@Z
?qt_metacall@QPropertyAnimation@@UEAAHW4Call@QMetaObject@@HPEAPEAX@Z
?qt_metacall@QSequentialAnimationGroup@@UEAAHW4Call@QMetaObject@@HPEAPEAX@Z
?qt_metacall@QSettings@@UEAAHW4Call@QMetaObject@@HPEAPEAX@Z
?qt_metacall@QSharedMemory@@UEAAHW4Call@QMetaObject@@HPEAPEAX@Z
?qt_metacall@QSignalMapper@@UEAAHW4Call@QMetaObject@@HPEAPEAX@Z
?qt_metacall@QSignalTransition@@UEAAHW4Call@QMetaObject@@HPEAPEAX@Z
?qt_metacall@QSocketNotifier@@UEAAHW4Call@QMetaObject@@HPEAPEAX@Z
?qt_metacall@QState@@UEAAHW4Call@QMetaObject@@HPEAPEAX@Z
?qt_metacall@QStateMachine@@UEAAHW4Call@QMetaObject@@HPEAPEAX@Z
?qt_metacall@QTemporaryFile@@UEAAHW4Call@QMetaObject@@HPEAPEAX@Z
?qt_metacall@QTextCodecPlugin@@UEAAHW4Call@QMetaObject@@HPEAPEAX@Z
?qt_metacall@QThread@@UEAAHW4Call@QMetaObject@@HPEAPEAX@Z
?qt_metacall@QThreadPool@@UEAAHW4Call@QMetaObject@@HPEAPEAX@Z
?qt_metacall@QTimeLine@@UEAAHW4Call@QMetaObject@@HPEAPEAX@Z
?qt_metacall@QTimer@@UEAAHW4Call@QMetaObject@@HPEAPEAX@Z
?qt_metacall@QTranslator@@UEAAHW4Call@QMetaObject@@HPEAPEAX@Z
?qt_metacall@QVariantAnimation@@UEAAHW4Call@QMetaObject@@HPEAPEAX@Z
?qt_metacall@QWinEventNotifier@@UEAAHW4Call@QMetaObject@@HPEAPEAX@Z
?qt_metacall@QWindowsPipeWriter@@UEAAHW4Call@QMetaObject@@HPEAPEAX@Z
?qt_metacast@QAbstractAnimation@@UEAAPEAXPEBD@Z
?qt_metacast@QAbstractEventDispatcher@@UEAAPEAXPEBD@Z
?qt_metacast@QAbstractItemModel@@UEAAPEAXPEBD@Z
?qt_metacast@QAbstractListModel@@UEAAPEAXPEBD@Z
?qt_metacast@QAbstractState@@UEAAPEAXPEBD@Z
?qt_metacast@QAbstractTableModel@@UEAAPEAXPEBD@Z
?qt_metacast@QAbstractTransition@@UEAAPEAXPEBD@Z
?qt_metacast@QAnimationDriver@@UEAAPEAXPEBD@Z
?qt_metacast@QAnimationGroup@@UEAAPEAXPEBD@Z
?qt_metacast@QBuffer@@UEAAPEAXPEBD@Z
?qt_metacast@QCoreApplication@@UEAAPEAXPEBD@Z
?qt_metacast@QEventDispatcherWin32@@UEAAPEAXPEBD@Z
?qt_metacast@QEventLoop@@UEAAPEAXPEBD@Z
?qt_metacast@QEventTransition@@UEAAPEAXPEBD@Z
?qt_metacast@QFactoryLoader@@UEAAPEAXPEBD@Z
?qt_metacast@QFile@@UEAAPEAXPEBD@Z
?qt_metacast@QFileSystemWatcher@@UEAAPEAXPEBD@Z
?qt_metacast@QFinalState@@UEAAPEAXPEBD@Z
?qt_metacast@QFutureWatcherBase@@UEAAPEAXPEBD@Z
?qt_metacast@QHistoryState@@UEAAPEAXPEBD@Z
?qt_metacast@QIODevice@@UEAAPEAXPEBD@Z
?qt_metacast@QLibrary@@UEAAPEAXPEBD@Z
?qt_metacast@QMimeData@@UEAAPEAXPEBD@Z
?qt_metacast@QNonContiguousByteDevice@@UEAAPEAXPEBD@Z
?qt_metacast@QObject@@UEAAPEAXPEBD@Z
?qt_metacast@QObjectCleanupHandler@@UEAAPEAXPEBD@Z
?qt_metacast@QParallelAnimationGroup@@UEAAPEAXPEBD@Z
?qt_metacast@QPauseAnimation@@UEAAPEAXPEBD@Z
?qt_metacast@QPluginLoader@@UEAAPEAXPEBD@Z
?qt_metacast@QProcess@@UEAAPEAXPEBD@Z
?qt_metacast@QPropertyAnimation@@UEAAPEAXPEBD@Z
?qt_metacast@QSequentialAnimationGroup@@UEAAPEAXPEBD@Z
?qt_metacast@QSettings@@UEAAPEAXPEBD@Z
?qt_metacast@QSharedMemory@@UEAAPEAXPEBD@Z
?qt_metacast@QSignalMapper@@UEAAPEAXPEBD@Z
?qt_metacast@QSignalTransition@@UEAAPEAXPEBD@Z
?qt_metacast@QSocketNotifier@@UEAAPEAXPEBD@Z
?qt_metacast@QState@@UEAAPEAXPEBD@Z
?qt_metacast@QStateMachine@@UEAAPEAXPEBD@Z
?qt_metacast@QTemporaryFile@@UEAAPEAXPEBD@Z
?qt_metacast@QTextCodecPlugin@@UEAAPEAXPEBD@Z
?qt_metacast@QThread@@UEAAPEAXPEBD@Z
?qt_metacast@QThreadPool@@UEAAPEAXPEBD@Z
?qt_metacast@QTimeLine@@UEAAPEAXPEBD@Z
?qt_metacast@QTimer@@UEAAPEAXPEBD@Z
?qt_metacast@QTranslator@@UEAAPEAXPEBD@Z
?qt_metacast@QVariantAnimation@@UEAAPEAXPEBD@Z
?qt_metacast@QWinEventNotifier@@UEAAPEAXPEBD@Z
?qt_metacast@QWindowsPipeWriter@@UEAAPEAXPEBD@Z
?qt_nameprep@@YAXPEAVQString@@H@Z
?qt_ntfs_permission_lookup@@3HA
?qt_qFindChild_helper@@YAPEAVQObject@@PEBV1@AEBVQString@@AEBUQMetaObject@@@Z
?qt_qFindChildren_helper@@YAXPEBVQObject@@AEBVQString@@PEBVQRegExp@@AEBUQMetaObject@@PEAV?$QList@PEAX@@@Z
?qt_regexp_toCanonical@@YA?AVQString@@AEBV1@W4PatternSyntax@QRegExp@@@Z
?qt_register_signal_spy_callbacks@@YAXAEBUQSignalSpyCallbackSet@@@Z
?qt_signal_spy_callback_set@@3UQSignalSpyCallbackSet@@A
?qt_sine_table@@3QBNB
?qt_static_metacall@QAbstractAnimation@@CAXPEAVQObject@@W4Call@QMetaObject@@HPEAPEAX@Z
?qt_static_metacall@QAbstractEventDispatcher@@CAXPEAVQObject@@W4Call@QMetaObject@@HPEAPEAX@Z
?qt_static_metacall@QAbstractItemModel@@CAXPEAVQObject@@W4Call@QMetaObject@@HPEAPEAX@Z
?qt_static_metacall@QAbstractListModel@@CAXPEAVQObject@@W4Call@QMetaObject@@HPEAPEAX@Z
?qt_static_metacall@QAbstractState@@CAXPEAVQObject@@W4Call@QMetaObject@@HPEAPEAX@Z
?qt_static_metacall@QAbstractTableModel@@CAXPEAVQObject@@W4Call@QMetaObject@@HPEAPEAX@Z
?qt_static_metacall@QAbstractTransition@@CAXPEAVQObject@@W4Call@QMetaObject@@HPEAPEAX@Z
?qt_static_metacall@QAnimationDriver@@CAXPEAVQObject@@W4Call@QMetaObject@@HPEAPEAX@Z
?qt_static_metacall@QAnimationGroup@@CAXPEAVQObject@@W4Call@QMetaObject@@HPEAPEAX@Z
?qt_static_metacall@QBuffer@@CAXPEAVQObject@@W4Call@QMetaObject@@HPEAPEAX@Z
?qt_static_metacall@QCoreApplication@@CAXPEAVQObject@@W4Call@QMetaObject@@HPEAPEAX@Z
?qt_static_metacall@QEventDispatcherWin32@@CAXPEAVQObject@@W4Call@QMetaObject@@HPEAPEAX@Z
?qt_static_metacall@QEventLoop@@CAXPEAVQObject@@W4Call@QMetaObject@@HPEAPEAX@Z
?qt_static_metacall@QEventTransition@@CAXPEAVQObject@@W4Call@QMetaObject@@HPEAPEAX@Z
?qt_static_metacall@QFactoryLoader@@CAXPEAVQObject@@W4Call@QMetaObject@@HPEAPEAX@Z
?qt_static_metacall@QFile@@CAXPEAVQObject@@W4Call@QMetaObject@@HPEAPEAX@Z
?qt_static_metacall@QFileSystemWatcher@@CAXPEAVQObject@@W4Call@QMetaObject@@HPEAPEAX@Z
?qt_static_metacall@QFinalState@@CAXPEAVQObject@@W4Call@QMetaObject@@HPEAPEAX@Z
?qt_static_metacall@QFutureWatcherBase@@CAXPEAVQObject@@W4Call@QMetaObject@@HPEAPEAX@Z
?qt_static_metacall@QHistoryState@@CAXPEAVQObject@@W4Call@QMetaObject@@HPEAPEAX@Z
?qt_static_metacall@QIODevice@@CAXPEAVQObject@@W4Call@QMetaObject@@HPEAPEAX@Z
?qt_static_metacall@QLibrary@@CAXPEAVQObject@@W4Call@QMetaObject@@HPEAPEAX@Z
?qt_static_metacall@QMimeData@@CAXPEAVQObject@@W4Call@QMetaObject@@HPEAPEAX@Z
?qt_static_metacall@QNonContiguousByteDevice@@CAXPEAVQObject@@W4Call@QMetaObject@@HPEAPEAX@Z
?qt_static_metacall@QObject@@CAXPEAV1@W4Call@QMetaObject@@HPEAPEAX@Z
?qt_static_metacall@QObjectCleanupHandler@@CAXPEAVQObject@@W4Call@QMetaObject@@HPEAPEAX@Z
?qt_static_metacall@QParallelAnimationGroup@@CAXPEAVQObject@@W4Call@QMetaObject@@HPEAPEAX@Z
?qt_static_metacall@QPauseAnimation@@CAXPEAVQObject@@W4Call@QMetaObject@@HPEAPEAX@Z
?qt_static_metacall@QPluginLoader@@CAXPEAVQObject@@W4Call@QMetaObject@@HPEAPEAX@Z
?qt_static_metacall@QProcess@@CAXPEAVQObject@@W4Call@QMetaObject@@HPEAPEAX@Z
?qt_static_metacall@QPropertyAnimation@@CAXPEAVQObject@@W4Call@QMetaObject@@HPEAPEAX@Z
?qt_static_metacall@QSequentialAnimationGroup@@CAXPEAVQObject@@W4Call@QMetaObject@@HPEAPEAX@Z
?qt_static_metacall@QSettings@@CAXPEAVQObject@@W4Call@QMetaObject@@HPEAPEAX@Z
?qt_static_metacall@QSharedMemory@@CAXPEAVQObject@@W4Call@QMetaObject@@HPEAPEAX@Z
?qt_static_metacall@QSignalMapper@@CAXPEAVQObject@@W4Call@QMetaObject@@HPEAPEAX@Z
?qt_static_metacall@QSignalTransition@@CAXPEAVQObject@@W4Call@QMetaObject@@HPEAPEAX@Z
?qt_static_metacall@QSocketNotifier@@CAXPEAVQObject@@W4Call@QMetaObject@@HPEAPEAX@Z
?qt_static_metacall@QState@@CAXPEAVQObject@@W4Call@QMetaObject@@HPEAPEAX@Z
?qt_static_metacall@QStateMachine@@CAXPEAVQObject@@W4Call@QMetaObject@@HPEAPEAX@Z
?qt_static_metacall@QTemporaryFile@@CAXPEAVQObject@@W4Call@QMetaObject@@HPEAPEAX@Z
?qt_static_metacall@QTextCodecPlugin@@CAXPEAVQObject@@W4Call@QMetaObject@@HPEAPEAX@Z
?qt_static_metacall@QThread@@CAXPEAVQObject@@W4Call@QMetaObject@@HPEAPEAX@Z
?qt_static_metacall@QThreadPool@@CAXPEAVQObject@@W4Call@QMetaObject@@HPEAPEAX@Z
?qt_static_metacall@QTimeLine@@CAXPEAVQObject@@W4Call@QMetaObject@@HPEAPEAX@Z
?qt_static_metacall@QTimer@@CAXPEAVQObject@@W4Call@QMetaObject@@HPEAPEAX@Z
?qt_static_metacall@QTranslator@@CAXPEAVQObject@@W4Call@QMetaObject@@HPEAPEAX@Z
?qt_static_metacall@QVariantAnimation@@CAXPEAVQObject@@W4Call@QMetaObject@@HPEAPEAX@Z
?qt_static_metacall@QWinEventNotifier@@CAXPEAVQObject@@W4Call@QMetaObject@@HPEAPEAX@Z
?qt_static_metacall@QWindowsPipeWriter@@CAXPEAVQObject@@W4Call@QMetaObject@@HPEAPEAX@Z
?qualifiedName@QXmlStreamAttribute@@QEBA?AVQStringRef@@XZ
?qualifiedName@QXmlStreamReader@@QEBA?AVQStringRef@@XZ
?query@QSystemLocale@@UEBA?AVQVariant@@W4QueryType@1@V2@@Z
?queryItemValue@QUrl@@QEBA?AVQString@@AEBV2@@Z
?queryItems@QUrl@@QEBA?AV?$QList@U?$QPair@VQString@@V1@@@@@XZ
?queryPairDelimiter@QUrl@@QEBADXZ
?queryState@QFutureInterfaceBase@@QEBA_NW4State@1@@Z
?queryValueDelimiter@QUrl@@QEBADXZ
?quit@QCoreApplication@@SAXXZ
?quit@QEventLoop@@QEAAXXZ
?quit@QThread@@QEAAXXZ
?quoteString@QLocale@@QEBA?AVQString@@AEBV2@W4QuotationStyle@1@@Z
?quoteString@QLocale@@QEBA?AVQString@@AEBVQStringRef@@W4QuotationStyle@1@@Z
?qvsnprintf@@YAHPEAD_KPEBD0@Z
?raise@Exception@QtConcurrent@@UEBAXXZ
?raise@UnhandledException@QtConcurrent@@UEBAXXZ
?raiseError@QXmlStreamReader@@QEAAXAEBVQString@@@Z
?rangeContains@QXmlUtils@@CA_NPEBVQXmlCharRange@@0VQChar@@@Z
?read@QAbstractFileEngine@@UEAA_JPEAD_J@Z
?read@QFSFileEngine@@UEAA_JPEAD_J@Z
?read@QIODevice@@QEAA?AVQByteArray@@_J@Z
?read@QIODevice@@QEAA_JPEAD_J@Z
?read@QMetaProperty@@QEBA?AVQVariant@@PEBVQObject@@@Z
?read@QTextStream@@QEAA?AVQString@@_J@Z
?readAll@QIODevice@@QEAA?AVQByteArray@@XZ
?readAll@QTextStream@@QEAA?AVQString@@XZ
?readAllStandardError@QProcess@@QEAA?AVQByteArray@@XZ
?readAllStandardOutput@QProcess@@QEAA?AVQByteArray@@XZ
?readBytes@QDataStream@@QEAAAEAV1@AEAPEADAEAI@Z
?readChannel@QProcess@@QEBA?AW4ProcessChannel@1@XZ
?readChannelFinished@QIODevice@@IEAAXXZ
?readChannelMode@QProcess@@QEBA?AW4ProcessChannelMode@1@XZ
?readData@QBuffer@@MEAA_JPEAD_J@Z
?readData@QFile@@MEAA_JPEAD_J@Z
?readData@QProcess@@MEAA_JPEAD_J@Z
?readElementText@QXmlStreamReader@@QEAA?AVQString@@W4ReadElementTextBehaviour@1@@Z
?readElementText@QXmlStreamReader@@QEAA?AVQString@@XZ
?readFdFh@QFSFileEnginePrivate@@QEAA_JPEAD_J@Z
?readLine@QAbstractFileEngine@@UEAA_JPEAD_J@Z
?readLine@QFSFileEngine@@UEAA_JPEAD_J@Z
?readLine@QIODevice@@QEAA?AVQByteArray@@_J@Z
?readLine@QIODevice@@QEAA_JPEAD_J@Z
?readLine@QTextStream@@QEAA?AVQString@@_J@Z
?readLineData@QFile@@MEAA_JPEAD_J@Z
?readLineData@QIODevice@@MEAA_JPEAD_J@Z
?readLineFdFh@QFSFileEnginePrivate@@QEAA_JPEAD_J@Z
?readLink@QFile@@QEBA?AVQString@@XZ
?readLink@QFile@@SA?AVQString@@AEBV2@@Z
?readLink@QFileInfo@@QEBA?AVQString@@XZ
?readNext@QXmlStreamReader@@QEAA?AW4TokenType@1@XZ
?readNextStartElement@QXmlStreamReader@@QEAA_NXZ
?readProgress@QNonContiguousByteDevice@@IEAAX_J0@Z
?readRawData@QDataStream@@QEAAHPEADH@Z
?readWriteLock@QReadLocker@@QEBAPEAVQReadWriteLock@@XZ
?readWriteLock@QWriteLocker@@QEBAPEAVQReadWriteLock@@XZ
?readyRead@QIODevice@@IEAAXXZ
?readyRead@QNonContiguousByteDevice@@IEAAXXZ
?readyReadStandardError@QProcess@@IEAAXXZ
?readyReadStandardOutput@QProcess@@IEAAXXZ
?realNumberNotation@QTextStream@@QEBA?AW4RealNumberNotation@1@XZ
?realNumberPrecision@QTextStream@@QEBAHXZ
?realloc@?$QVector@VQPoint@@@@AEAAXHH@Z
?realloc@?$QVector@VQPointF@@@@AEAAXHH@Z
?realloc@?$QVector@VQXmlStreamAttribute@@@@AEAAXHH@Z
?realloc@QByteArray@@AEAAXH@Z
?realloc@QListData@@QEAAXH@Z
?realloc@QString@@AEAAXH@Z
?realloc@QString@@AEAAXXZ
?reallocate@QVectorData@@SAPEAU1@PEAU1@HHH@Z
?receiverList@QObjectPrivate@@QEBA?AV?$QList@PEAVQObject@@@@PEBD@Z
?receivers@QObject@@IEBAHPEBD@Z
?ref@QBasicAtomicInt@@QEAA_NXZ
?referenceCountIsOne@QFutureInterfaceBase@@IEBA_NXZ
?refresh@QDir@@QEBAXXZ
?refresh@QFileInfo@@QEAAXXZ
?refreshAll@QFactoryLoader@@SAXXZ
?registerAnimation@QUnifiedTimer@@SAXPEAVQAbstractAnimation@@_N@Z
?registerCallback@QInternal@@SA_NW4Callback@1@P6A_NPEAPEAX@Z@Z
?registerEventNotifier@QEventDispatcherWin32@@QEAA_NPEAVQWinEventNotifier@@@Z
?registerEventTransition@QStateMachinePrivate@@QEAAXPEAVQEventTransition@@@Z
?registerEventType@QEvent@@SAHH@Z
?registerFormat@QSettings@@SA?AW4Format@1@AEBVQString@@P6A_NAEAVQIODevice@@AEAV?$QMap@VQString@@VQVariant@@@@@ZP6A_N1AEBV5@@ZW4CaseSensitivity@Qt@@@Z
?registerInterpolator@QVariantAnimation@@CAXP6A?AVQVariant@@PEBX0N@ZH@Z
?registerResource@QResource@@SA_NAEBVQString@@0@Z
?registerResource@QResource@@SA_NPEBEAEBVQString@@@Z
?registerRestorable@QStateMachinePrivate@@QEAAXPEAVQObject@@AEBVQByteArray@@@Z
?registerRunningAnimation@QUnifiedTimer@@AEAAXPEAVQAbstractAnimation@@@Z
?registerSignalTransition@QStateMachinePrivate@@QEAAXPEAVQSignalTransition@@@Z
?registerSocketNotifier@QEventDispatcherWin32@@UEAAXPEAVQSocketNotifier@@@Z
?registerStreamOperators@QMetaType@@SAXHP6AXAEAVQDataStream@@PEBX@ZP6AX0PEAX@Z@Z
?registerStreamOperators@QMetaType@@SAXPEBDP6AXAEAVQDataStream@@PEBX@ZP6AX1PEAX@Z@Z
?registerTimer@QAbstractEventDispatcher@@QEAAHHPEAVQObject@@@Z
?registerTimer@QEventDispatcherWin32@@UEAAXHHPEAVQObject@@@Z
?registerTransitions@QStateMachinePrivate@@QEAAXPEAVQAbstractState@@@Z
?registerType@QMetaType@@SAHPEBDP6AXPEAX@ZP6APEAXPEBX@Z@Z
?registerTypedef@QMetaType@@SAHPEBDH@Z
?registerUserData@QObject@@SAIXZ
?registeredTimers@QEventDispatcherWin32@@UEBA?AV?$QList@U?$QPair@HH@@@@PEAVQObject@@@Z
?rehash@QHashData@@QEAAXH@Z
?relativeFilePath@QDir@@QEBA?AVQString@@AEBV2@@Z
?release@QSemaphore@@QEAAXH@Z
?release@QSystemSemaphore@@QEAA_NH@Z
?releaseThread@QThreadPool@@QEAAXXZ
?releaseTimerId@QAbstractEventDispatcherPrivate@@SAXH@Z
?relock@QMutexLocker@@QEAAXXZ
?relock@QReadLocker@@QEAAXXZ
?relock@QWriteLocker@@QEAAXXZ
?remove@?$QVector@VQPoint@@@@QEAAXH@Z
?remove@?$QVector@VQPoint@@@@QEAAXHH@Z
?remove@?$QVector@VQPointF@@@@QEAAXH@Z
?remove@?$QVector@VQPointF@@@@QEAAXHH@Z
?remove@?$QVector@VQXmlStreamAttribute@@@@QEAAXH@Z
?remove@?$QVector@VQXmlStreamAttribute@@@@QEAAXHH@Z
?remove@QAbstractFileEngine@@UEAA_NXZ
?remove@QByteArray@@QEAAAEAV1@HH@Z
?remove@QDir@@QEAA_NAEBVQString@@@Z
?remove@QFSFileEngine@@UEAA_NXZ
?remove@QFile@@QEAA_NXZ
?remove@QFile@@SA_NAEBVQString@@@Z
?remove@QListData@@QEAAXH@Z
?remove@QListData@@QEAAXHH@Z
?remove@QObjectCleanupHandler@@QEAAXPEAVQObject@@@Z
?remove@QProcessEnvironment@@QEAAXAEBVQString@@@Z
?remove@QSettings@@QEAAXAEBVQString@@@Z
?remove@QString@@QEAAAEAV1@AEBV1@W4CaseSensitivity@Qt@@@Z
?remove@QString@@QEAAAEAV1@AEBVQRegExp@@@Z
?remove@QString@@QEAAAEAV1@HH@Z
?remove@QString@@QEAAAEAV1@VQChar@@W4CaseSensitivity@Qt@@@Z
?removeAllEncodedQueryItems@QUrl@@QEAAXAEBVQByteArray@@@Z
?removeAllQueryItems@QUrl@@QEAAXAEBVQString@@@Z
?removeAnimation@QAbstractTransition@@QEAAXPEAVQAbstractAnimation@@@Z
?removeAnimation@QAnimationGroup@@QEAAXPEAVQAbstractAnimation@@@Z
?removeColumn@QAbstractItemModel@@QEAA_NHAEBVQModelIndex@@@Z
?removeColumns@QAbstractItemModel@@UEAA_NHHAEBVQModelIndex@@@Z
?removeDefaultAnimation@QStateMachine@@QEAAXPEAVQAbstractAnimation@@@Z
?removeEncodedQueryItem@QUrl@@QEAAXAEBVQByteArray@@@Z
?removeEventFilter@QObject@@QEAAXPEAV1@@Z
?removeFormat@QMimeData@@QEAAXAEBVQString@@@Z
?removeGuard@QMetaObject@@SAXPEAPEAVQObject@@@Z
?removeLibraryPath@QCoreApplication@@SAXAEBVQString@@@Z
?removeMappings@QSignalMapper@@QEAAXPEAVQObject@@@Z
?removePath@QFileSystemWatcher@@QEAAXAEBVQString@@@Z
?removePaths@QFileSystemWatcher@@QEAAXAEBVQStringList@@@Z
?removePersistentIndexData@QAbstractItemModelPrivate@@QEAAXPEAVQPersistentModelIndexData@@@Z
?removePostedEvent@QCoreApplicationPrivate@@SAXPEAVQEvent@@@Z
?removePostedEvents@QCoreApplication@@SAXPEAVQObject@@@Z
?removePostedEvents@QCoreApplication@@SAXPEAVQObject@@H@Z
?removePostedTimerEvent@QCoreApplicationPrivate@@SAXPEAVQObject@@H@Z
?removeQueryItem@QUrl@@QEAAXAEBVQString@@@Z
?removeRow@QAbstractItemModel@@QEAA_NHAEBVQModelIndex@@@Z
?removeRows@QAbstractItemModel@@UEAA_NHHAEBVQModelIndex@@@Z
?removeStartState@QStateMachinePrivate@@QEAAXXZ
?removeState@QStateMachine@@QEAAXPEAVQAbstractState@@@Z
?removeTransition@QState@@QEAAXPEAVQAbstractTransition@@@Z
?removeTranslator@QCoreApplication@@SAXPEAVQTranslator@@@Z
?removed@QChildEvent@@QEBA_NXZ
?rename@QAbstractFileEngine@@UEAA_NAEBVQString@@@Z
?rename@QDir@@QEAA_NAEBVQString@@0@Z
?rename@QFSFileEngine@@UEAA_NAEBVQString@@@Z
?rename@QFile@@QEAA_NAEBVQString@@@Z
?rename@QFile@@SA_NAEBVQString@@0@Z
?repeated@QByteArray@@QEBA?AV1@H@Z
?repeated@QString@@QEBA?AV1@H@Z
?replace@?$QVector@VQPoint@@@@QEAAXHAEBVQPoint@@@Z
?replace@?$QVector@VQPointF@@@@QEAAXHAEBVQPointF@@@Z
?replace@?$QVector@VQXmlStreamAttribute@@@@QEAAXHAEBVQXmlStreamAttribute@@@Z
?replace@QByteArray@@QEAAAEAV1@AEBV1@0@Z
?replace@QByteArray@@QEAAAEAV1@AEBV1@PEBD@Z
?replace@QByteArray@@QEAAAEAV1@AEBVQString@@AEBV1@@Z
?replace@QByteArray@@QEAAAEAV1@AEBVQString@@PEBD@Z
?replace@QByteArray@@QEAAAEAV1@DAEBV1@@Z
?replace@QByteArray@@QEAAAEAV1@DAEBVQString@@@Z
?replace@QByteArray@@QEAAAEAV1@DD@Z
?replace@QByteArray@@QEAAAEAV1@DPEBD@Z
?replace@QByteArray@@QEAAAEAV1@HHAEBV1@@Z
?replace@QByteArray@@QEAAAEAV1@HHPEBD@Z
?replace@QByteArray@@QEAAAEAV1@HHPEBDH@Z
?replace@QByteArray@@QEAAAEAV1@PEBD0@Z
?replace@QByteArray@@QEAAAEAV1@PEBDAEBV1@@Z
?replace@QByteArray@@QEAAAEAV1@PEBDH0H@Z
?replace@QString@@QEAAAEAV1@AEBV1@0W4CaseSensitivity@Qt@@@Z
?replace@QString@@QEAAAEAV1@AEBV1@AEBVQLatin1String@@W4CaseSensitivity@Qt@@@Z
?replace@QString@@QEAAAEAV1@AEBVQLatin1String@@0W4CaseSensitivity@Qt@@@Z
?replace@QString@@QEAAAEAV1@AEBVQLatin1String@@AEBV1@W4CaseSensitivity@Qt@@@Z
?replace@QString@@QEAAAEAV1@AEBVQRegExp@@AEBV1@@Z
?replace@QString@@QEAAAEAV1@HHAEBV1@@Z
?replace@QString@@QEAAAEAV1@HHPEBVQChar@@H@Z
?replace@QString@@QEAAAEAV1@HHVQChar@@@Z
?replace@QString@@QEAAAEAV1@PEBVQChar@@H0HW4CaseSensitivity@Qt@@@Z
?replace@QString@@QEAAAEAV1@VQChar@@0W4CaseSensitivity@Qt@@@Z
?replace@QString@@QEAAAEAV1@VQChar@@AEBV1@W4CaseSensitivity@Qt@@@Z
?replace@QString@@QEAAAEAV1@VQChar@@AEBVQLatin1String@@W4CaseSensitivity@Qt@@@Z
?replace_helper@QString@@AEAAXPEAIHHPEBVQChar@@H@Z
?reportCanceled@QFutureInterfaceBase@@QEAAXXZ
?reportException@QFutureInterfaceBase@@QEAAXAEBVException@QtConcurrent@@@Z
?reportFinished@QFutureInterfaceBase@@QEAAXXZ
?reportResultsReady@QFutureInterfaceBase@@QEAAXHH@Z
?reportStarted@QFutureInterfaceBase@@QEAAXXZ
?requestUpdate@QSettingsPrivate@@QEAAXXZ
?requiresSurrogates@QChar@@SA_NI@Z
?reserve@?$QVector@VQPoint@@@@QEAAXH@Z
?reserve@?$QVector@VQPointF@@@@QEAAXH@Z
?reserve@?$QVector@VQXmlStreamAttribute@@@@QEAAXH@Z
?reserve@QByteArray@@QEAAXH@Z
?reserve@QString@@QEAAXH@Z
?reserveThread@QThreadPool@@QEAAXXZ
?reset@@YAAEAVQTextStream@@AEAV1@@Z
?reset@QAbstractItemModel@@IEAAXXZ
?reset@QCryptographicHash@@QEAAXXZ
?reset@QIODevice@@UEAA_NXZ
?reset@QMetaProperty@@QEBA_NPEAVQObject@@@Z
?reset@QTextStream@@QEAAXXZ
?resetCurrentSender@QObjectPrivate@@SAXPEAVQObject@@PEAUSender@1@1@Z
?resetInternalData@QAbstractItemModel@@IEAAXXZ
?resetStatus@QDataStream@@QEAAXXZ
?resetStatus@QTextStream@@QEAAXXZ
?resize@?$QVector@VQPoint@@@@QEAAXH@Z
?resize@?$QVector@VQPointF@@@@QEAAXH@Z
?resize@?$QVector@VQXmlStreamAttribute@@@@QEAAXH@Z
?resize@QBitArray@@QEAAXH@Z
?resize@QByteArray@@QEAAXH@Z
?resize@QFile@@QEAA_N_J@Z
?resize@QFile@@SA_NAEBVQString@@_J@Z
?resize@QString@@QEAAXH@Z
?resolve@QLibrary@@QEAAPEAXPEBD@Z
?resolve@QLibrary@@SAPEAXAEBVQString@@0PEBD@Z
?resolve@QLibrary@@SAPEAXAEBVQString@@HPEBD@Z
?resolve@QLibrary@@SAPEAXAEBVQString@@PEBD@Z
?resolveEntity@QXmlStreamEntityResolver@@UEAA?AVQString@@AEBV2@0@Z
?resolveFilePath@QFileSystemEntry@@AEBAXXZ
?resolveNativeFilePath@QFileSystemEntry@@AEBAXXZ
?resolveUndeclaredEntity@QXmlStreamEntityResolver@@UEAA?AVQString@@AEBV2@@Z
?resolved@QUrl@@QEBA?AV1@AEBV1@@Z
?restart@QElapsedTimer@@QEAA_JXZ
?restart@QTime@@QEAAHXZ
?restartAnimationTimer@QUnifiedTimer@@QEAAXXZ
?restorableValue@QStateMachinePrivate@@QEBA?AVQVariant@@PEAVQObject@@AEBVQByteArray@@@Z
?restorablesToPropertyList@QStateMachinePrivate@@QEBA?AV?$QList@UQPropertyAssignment@@@@AEBV?$QHash@U?$QPair@PEAVQObject@@VQByteArray@@@@VQVariant@@@@@Z
?result@QCryptographicHash@@QEBA?AVQByteArray@@XZ
?resultAt@ResultStoreBase@QtConcurrent@@QEBA?AVResultIteratorBase@2@H@Z
?resultCount@QFutureInterfaceBase@@QEBAHXZ
?resultIndex@ResultIteratorBase@QtConcurrent@@QEBAHXZ
?resultReadyAt@QFutureWatcherBase@@IEAAXH@Z
?resultStoreBase@QFutureInterfaceBase@@QEAAAEAVResultStoreBase@QtConcurrent@@XZ
?resultStoreBase@QFutureInterfaceBase@@QEBAAEBVResultStoreBase@QtConcurrent@@XZ
?resultsReadyAt@QFutureWatcherBase@@IEAAXHH@Z
?resume@QAbstractAnimation@@QEAAXXZ
?resume@QFutureWatcherBase@@QEAAXXZ
?resume@QTimeLine@@QEAAXXZ
?resumed@QFutureWatcherBase@@IEAAXXZ
?retrieveData@QMimeData@@MEBA?AVQVariant@@AEBVQString@@W4Type@2@@Z
?revert@QAbstractItemModel@@UEAAXXZ
?revision@QMetaMethod@@QEBAHXZ
?revision@QMetaProperty@@QEBAHXZ
?rheight@QSize@@QEAAAEAHXZ
?rheight@QSizeF@@QEAAAEANXZ
?right@@YAAEAVQTextStream@@AEAV1@@Z
?right@QByteArray@@QEBA?AV1@H@Z
?right@QRect@@QEBAHXZ
?right@QRectF@@QEBANXZ
?right@QString@@QEBA?AV1@H@Z
?rightJustified@QByteArray@@QEBA?AV1@HD_N@Z
?rightJustified@QString@@QEBA?AV1@HVQChar@@_N@Z
?rightRef@QString@@QEBA?AVQStringRef@@H@Z
?rmdir@QAbstractFileEngine@@UEBA_NAEBVQString@@_N@Z
?rmdir@QDir@@QEBA_NAEBVQString@@@Z
?rmdir@QFSFileEngine@@UEBA_NAEBVQString@@_N@Z
?rmpath@QDir@@QEBA_NAEBVQString@@@Z
?roleNames@QAbstractItemModel@@QEBAAEBV?$QHash@HVQByteArray@@@@XZ
?root@QDir@@SA?AV1@XZ
?rootPath@QDir@@SA?AVQString@@XZ
?rootPath@QFSFileEngine@@SA?AVQString@@XZ
?rootState@QStateMachinePrivate@@QEBAPEAVQState@@XZ
?row@QChar@@QEBAEXZ
?row@QCharRef@@QEBAEXZ
?row@QModelIndex@@QEBAHXZ
?row@QPersistentModelIndex@@QEBAHXZ
?rowsAboutToBeInserted@QAbstractItemModel@@AEAAXAEBVQModelIndex@@HH@Z
?rowsAboutToBeInserted@QAbstractItemModelPrivate@@QEAAXAEBVQModelIndex@@HH@Z
?rowsAboutToBeMoved@QAbstractItemModel@@AEAAXAEBVQModelIndex@@HH0H@Z
?rowsAboutToBeRemoved@QAbstractItemModel@@AEAAXAEBVQModelIndex@@HH@Z
?rowsAboutToBeRemoved@QAbstractItemModelPrivate@@QEAAXAEBVQModelIndex@@HH@Z
?rowsInserted@QAbstractItemModel@@AEAAXAEBVQModelIndex@@HH@Z
?rowsInserted@QAbstractItemModelPrivate@@QEAAXAEBVQModelIndex@@HH@Z
?rowsMoved@QAbstractItemModel@@AEAAXAEBVQModelIndex@@HH0H@Z
?rowsRemoved@QAbstractItemModel@@AEAAXAEBVQModelIndex@@HH@Z
?rowsRemoved@QAbstractItemModelPrivate@@QEAAXAEBVQModelIndex@@HH@Z
?run@QThread@@MEAAXXZ
?run@QWindowsPipeWriter@@MEAAXXZ
?run@ThreadEngineBase@QtConcurrent@@EEAAXXZ
?runningAnimationCount@QUnifiedTimer@@QEAAHXZ
?rwidth@QSize@@QEAAAEAHXZ
?rwidth@QSizeF@@QEAAAEANXZ
?rx@QPoint@@QEAAAEAHXZ
?rx@QPointF@@QEAAAEANXZ
?ry@QPoint@@QEAAAEAHXZ
?ry@QPointF@@QEAAAEANXZ
?save@QMetaType@@SA_NAEAVQDataStream@@HPEBX@Z
?save@QVariant@@QEBAXAEAVQDataStream@@@Z
?scale@QSize@@QEAAXAEBV1@W4AspectRatioMode@Qt@@@Z
?scale@QSize@@QEAAXHHW4AspectRatioMode@Qt@@@Z
?scale@QSizeF@@QEAAXAEBV1@W4AspectRatioMode@Qt@@@Z
?scale@QSizeF@@QEAAXNNW4AspectRatioMode@Qt@@@Z
?scheme@QUrl@@QEBA?AVQString@@XZ
?scientific@@YAAEAVQTextStream@@AEAV1@@Z
?scope@QMetaEnum@@QEBAPEBDXZ
?scope@QSettings@@QEBA?AW4Scope@1@XZ
?scope@QSystemError@@QEAA?AW4ErrorScope@1@XZ
?script@QLocale@@QEBA?AW4Script@1@XZ
?script@QUnicodeTables@@YAHI@Z
?scriptCode@QLocalePrivate@@QEBA?AVQString@@XZ
?scriptToString@QLocale@@SA?AVQString@@W4Script@1@@Z
?searchPaths@QDir@@SA?AVQStringList@@AEBVQString@@@Z
?searchPaths@QResource@@SA?AVQStringList@@XZ
?second@QTime@@QEBAHXZ
?secsTo@QDateTime@@QEBAHAEBV1@@Z
?secsTo@QElapsedTimer@@QEBA_JAEBV1@@Z
?secsTo@QTime@@QEBAHAEBV1@@Z
?section@QString@@QEBA?AV1@AEBV1@HHV?$QFlags@W4SectionFlag@QString@@@@@Z
?section@QString@@QEBA?AV1@AEBVQRegExp@@HHV?$QFlags@W4SectionFlag@QString@@@@@Z
?section@QString@@QEBA?AV1@VQChar@@HHV?$QFlags@W4SectionFlag@QString@@@@@Z
?sectionFormat@QDateTimeParser@@QEBA?AVQString@@H@Z
?sectionFormat@QDateTimeParser@@QEBA?AVQString@@W4Section@1@H@Z
?sectionMaxSize@QDateTimeParser@@QEBAHH@Z
?sectionMaxSize@QDateTimeParser@@QEBAHW4Section@1@H@Z
?sectionName@QDateTimeParser@@QEBA?AVQString@@H@Z
?sectionNode@QDateTimeParser@@QEBAAEBUSectionNode@1@H@Z
?sectionPos@QDateTimeParser@@QEBAHAEBUSectionNode@1@@Z
?sectionPos@QDateTimeParser@@QEBAHH@Z
?sectionSize@QDateTimeParser@@QEBAHH@Z
?sectionText@QDateTimeParser@@QEBA?AVQString@@AEBV2@HH@Z
?sectionText@QDateTimeParser@@QEBA?AVQString@@H@Z
?sectionType@QDateTimeParser@@QEBA?AW4Section@1@H@Z
?seek@QAbstractFileEngine@@UEAA_N_J@Z
?seek@QBuffer@@UEAA_N_J@Z
?seek@QFSFileEngine@@UEAA_N_J@Z
?seek@QFile@@UEAA_N_J@Z
?seek@QIODevice@@UEAA_N_J@Z
?seek@QTextStream@@QEAA_N_J@Z
?seekFdFh@QFSFileEnginePrivate@@QEAA_N_J@Z
?selectTransitions@QStateMachinePrivate@@QEBA?AV?$QSet@PEAVQAbstractTransition@@@@PEAVQEvent@@@Z
?self@QCoreApplication@@0PEAV1@EA
?sendEvent@QCoreApplication@@SA_NPEAVQObject@@PEAVQEvent@@@Z
?sendPostedEvents@QCoreApplication@@SAXPEAVQObject@@H@Z
?sendPostedEvents@QCoreApplication@@SAXXZ
?sendPostedEvents@QCoreApplicationPrivate@@SAXPEAVQObject@@HPEAVQThreadData@@@Z
?sendSpontaneousEvent@QCoreApplication@@CA_NPEAVQObject@@PEAVQEvent@@@Z
?sendThroughApplicationEventFilters@QCoreApplicationPrivate@@QEAA_NPEAVQObject@@PEAVQEvent@@@Z
?sendThroughObjectEventFilters@QCoreApplicationPrivate@@QEAA_NPEAVQObject@@PEAVQEvent@@@Z
?sender@QMetaCallEvent@@QEBAPEBVQObject@@XZ
?sender@QObject@@IEBAPEAV1@XZ
?sender@SignalEvent@QStateMachine@@QEBAPEAVQObject@@XZ
?senderList@QObjectPrivate@@QEBA?AV?$QList@PEAVQObject@@@@XZ
?senderObject@QSignalTransition@@QEBAPEAVQObject@@XZ
?senderSignalIndex@QObject@@IEBAHXZ
?separator@QDir@@SA?AVQChar@@XZ
?set@QThreadStorageData@@QEAAPEAPEAXPEAX@Z
?setAccepted@QEvent@@QEAAX_N@Z
?setAmplitude@QEasingCurve@@QEAAXN@Z
?setAngle@QLineF@@QEAAXN@Z
?setAnimated@QStateMachine@@QEAAX_N@Z
?setApplicationName@QCoreApplication@@SAXAEBVQString@@@Z
?setApplicationVersion@QCoreApplication@@SAXAEBVQString@@@Z
?setArrayIndex@QSettings@@QEAAXH@Z
?setAttribute@QCoreApplication@@SAXW4ApplicationAttribute@Qt@@_N@Z
?setAuthority@QUrl@@QEAAXAEBVQString@@@Z
?setAutoDetectUnicode@QTextStream@@QEAAX_N@Z
?setAutoFormatting@QXmlStreamWriter@@QEAAX_N@Z
?setAutoFormattingIndent@QXmlStreamWriter@@QEAAXH@Z
?setAutoRemove@QTemporaryFile@@QEAAX_N@Z
?setBit@QBitArray@@QEAAXH@Z
?setBit@QBitArray@@QEAAXH_N@Z
?setBottom@QRect@@QEAAXH@Z
?setBottom@QRectF@@QEAAXN@Z
?setBottomLeft@QRect@@QEAAXAEBVQPoint@@@Z
?setBottomLeft@QRectF@@QEAAXAEBVQPointF@@@Z
?setBottomRight@QRect@@QEAAXAEBVQPoint@@@Z
?setBottomRight@QRectF@@QEAAXAEBVQPointF@@@Z
?setBuffer@QBuffer@@QEAAXPEAVQByteArray@@@Z
?setByteOrder@QDataStream@@QEAAXW4ByteOrder@1@@Z
?setCaching@QFileInfo@@QEAAX_N@Z
?setCaseSensitivity@QRegExp@@QEAAXW4CaseSensitivity@Qt@@@Z
?setCaseSensitivity@QStringMatcher@@QEAAXW4CaseSensitivity@Qt@@@Z
?setCell@QChar@@QEAAXE@Z
?setCell@QCharRef@@QEAAXE@Z
?setChildMode@QState@@QEAAXW4ChildMode@1@@Z
?setCodec@QTextStream@@QEAAXPEAVQTextCodec@@@Z
?setCodec@QTextStream@@QEAAXPEBD@Z
?setCodec@QXmlStreamWriter@@QEAAXPEAVQTextCodec@@@Z
?setCodec@QXmlStreamWriter@@QEAAXPEBD@Z
?setCodecForCStrings@QTextCodec@@SAXPEAV1@@Z
?setCodecForLocale@QTextCodec@@SAXPEAV1@@Z
?setCodecForTr@QTextCodec@@SAXPEAV1@@Z
?setColorData@QMimeData@@QEAAXAEBVQVariant@@@Z
?setConsistentTiming@QUnifiedTimer@@QEAAX_N@Z
?setCoords@QRect@@QEAAXHHHH@Z
?setCoords@QRectF@@QEAAXNNNN@Z
?setCurrent@QDir@@SA_NAEBVQString@@@Z
?setCurrentPath@QFSFileEngine@@SA_NAEBVQString@@@Z
?setCurrentSender@QObjectPrivate@@SAPEAUSender@1@PEAVQObject@@PEAU21@@Z
?setCurrentTime@QAbstractAnimation@@QEAAXH@Z
?setCurrentTime@QTimeLine@@QEAAXH@Z
?setCurveShape@QTimeLine@@QEAAXW4CurveShape@1@@Z
?setCustomType@QEasingCurve@@QEAAXP6ANN@Z@Z
?setData@QAbstractItemModel@@UEAA_NAEBVQModelIndex@@AEBVQVariant@@H@Z
?setData@QBuffer@@QEAAXAEBVQByteArray@@@Z
?setData@QBuffer@@QEAAXPEBDH@Z
?setData@QMimeData@@QEAAXAEBVQString@@AEBVQByteArray@@@Z
?setDate@QDate@@QEAA_NHHH@Z
?setDate@QDateTime@@QEAAXAEBVQDate@@@Z
?setDecodingFunction@QFile@@SAXP6A?AVQString@@AEBVQByteArray@@@Z@Z
?setDefault@QLocale@@SAXAEBV1@@Z
?setDefaultFormat@QSettings@@SAXW4Format@1@@Z
?setDefaultState@QHistoryState@@QEAAXPEAVQAbstractState@@@Z
?setDevice@QDataStream@@QEAAXPEAVQIODevice@@@Z
?setDevice@QTextStream@@QEAAXPEAVQIODevice@@@Z
?setDevice@QXmlStreamReader@@QEAAXPEAVQIODevice@@@Z
?setDevice@QXmlStreamWriter@@QEAAXPEAVQIODevice@@@Z
?setDigit@QDateTimeParser@@QEBA_NAEAVQDateTime@@HH@Z
?setDirection@QAbstractAnimation@@QEAAXW4Direction@1@@Z
?setDirection@QTimeLine@@QEAAXW4Direction@1@@Z
?setDuration@QPauseAnimation@@QEAAXH@Z
?setDuration@QTimeLine@@QEAAXH@Z
?setDuration@QVariantAnimation@@QEAAXH@Z
?setEasingCurve@QTimeLine@@QEAAXAEBVQEasingCurve@@@Z
?setEasingCurve@QVariantAnimation@@QEAAXAEBVQEasingCurve@@@Z
?setEnabled@QSocketNotifier@@QEAAX_N@Z
?setEnabled@QWinEventNotifier@@QEAAX_N@Z
?setEncodedFragment@QUrl@@QEAAXAEBVQByteArray@@@Z
?setEncodedHost@QUrl@@QEAAXAEBVQByteArray@@@Z
?setEncodedPassword@QUrl@@QEAAXAEBVQByteArray@@@Z
?setEncodedPath@QUrl@@QEAAXAEBVQByteArray@@@Z
?setEncodedQuery@QUrl@@QEAAXAEBVQByteArray@@@Z
?setEncodedQueryItems@QUrl@@QEAAXAEBV?$QList@U?$QPair@VQByteArray@@V1@@@@@@Z
?setEncodedUrl@QUrl@@QEAAXAEBVQByteArray@@@Z
?setEncodedUrl@QUrl@@QEAAXAEBVQByteArray@@W4ParsingMode@1@@Z
?setEncodedUserName@QUrl@@QEAAXAEBVQByteArray@@@Z
?setEncodingFunction@QFile@@SAXP6A?AVQByteArray@@AEBVQString@@@Z@Z
?setEndFrame@QTimeLine@@QEAAXH@Z
?setEndValue@QVariantAnimation@@QEAAXAEBVQVariant@@@Z
?setEntityResolver@QXmlStreamReader@@QEAAXPEAVQXmlStreamEntityResolver@@@Z
?setEnvironment@QProcess@@QEAAXAEBVQStringList@@@Z
?setError@QAbstractFileEngine@@IEAAXW4FileError@QFile@@AEBVQString@@@Z
?setError@QStateMachinePrivate@@QEAAXW4Error@QStateMachine@@PEAVQAbstractState@@@Z
?setErrorState@QState@@QEAAXPEAVQAbstractState@@@Z
?setErrorString@QIODevice@@IEAAXAEBVQString@@@Z
?setErrorString@QSharedMemoryPrivate@@QEAAXAEBVQString@@@Z
?setEventFilter@QAbstractEventDispatcher@@QEAAP6A_NPEAX@ZP6A_N0@Z@Z
?setEventFilter@QCoreApplication@@QEAAP6A_NPEAXPEAJ@ZP6A_N01@Z@Z
?setEventSource@QEventTransition@@QEAAXPEAVQObject@@@Z
?setEventType@QEventTransition@@QEAAXW4Type@QEvent@@@Z
?setException@ExceptionStore@internal@QtConcurrent@@QEAAXAEBVException@3@@Z
?setExpectedResultCount@QFutureInterfaceBase@@QEAAXH@Z
?setExpiryTimeout@QThreadPool@@QEAAXH@Z
?setFallbacksEnabled@QSettings@@QEAAX_N@Z
?setFieldAlignment@QTextStream@@QEAAXW4FieldAlignment@1@@Z
?setFieldWidth@QTextStream@@QEAAXH@Z
?setFile@QFileInfo@@QEAAXAEBVQDir@@AEBVQString@@@Z
?setFile@QFileInfo@@QEAAXAEBVQFile@@@Z
?setFile@QFileInfo@@QEAAXAEBVQString@@@Z
?setFileName@QAbstractFileEngine@@UEAAXAEBVQString@@@Z
?setFileName@QFSFileEngine@@UEAAXAEBVQString@@@Z
?setFileName@QFile@@QEAAXAEBVQString@@@Z
?setFileName@QLibrary@@QEAAXAEBVQString@@@Z
?setFileName@QPluginLoader@@QEAAXAEBVQString@@@Z
?setFileName@QResource@@QEAAXAEBVQString@@@Z
?setFileNameAndVersion@QLibrary@@QEAAXAEBVQString@@0@Z
?setFileNameAndVersion@QLibrary@@QEAAXAEBVQString@@H@Z
?setFileTemplate@QTemporaryFile@@QEAAXAEBVQString@@@Z
?setFilter@QDir@@QEAAXV?$QFlags@W4Filter@QDir@@@@@Z
?setFilterMode@QFutureInterfaceBase@@QEAAX_N@Z
?setFilterMode@ResultStoreBase@QtConcurrent@@QEAAX_N@Z
?setFloatingPointPrecision@QDataStream@@QEAAXW4FloatingPointPrecision@1@@Z
?setFragment@QUrl@@QEAAXAEBVQString@@@Z
?setFrameRange@QTimeLine@@QEAAXHH@Z
?setGenerateByteOrderMark@QTextStream@@QEAAX_N@Z
?setGlobalRestorePolicy@QStateMachine@@QEAAXW4RestorePolicy@1@@Z
?setHMS@QTime@@QEAA_NHHHH@Z
?setHandle@QWinEventNotifier@@QEAAXPEAX@Z
?setHeaderData@QAbstractItemModel@@UEAA_NHW4Orientation@Qt@@AEBVQVariant@@H@Z
?setHeight@QRect@@QEAAXH@Z
?setHeight@QRectF@@QEAAXN@Z
?setHeight@QSize@@QEAAXH@Z
?setHeight@QSizeF@@QEAAXN@Z
?setHistoryType@QHistoryState@@QEAAXW4HistoryType@1@@Z
?setHost@QUrl@@QEAAXAEBVQString@@@Z
?setHtml@QMimeData@@QEAAXAEBVQString@@@Z
?setIdnWhitelist@QUrl@@SAXAEBVQStringList@@@Z
?setImageData@QMimeData@@QEAAXAEBVQVariant@@@Z
?setIniCodec@QSettings@@QEAAXPEAVQTextCodec@@@Z
?setIniCodec@QSettings@@QEAAXPEBD@Z
?setInitialState@QState@@QEAAXPEAVQAbstractState@@@Z
?setIntegerBase@QTextStream@@QEAAXH@Z
?setInterval@QTimer@@QEAAXH@Z
?setItemData@QAbstractItemModel@@UEAA_NAEBVQModelIndex@@AEBV?$QMap@HVQVariant@@@@@Z
?setKey@QSharedMemory@@QEAAXAEBVQString@@@Z
?setKey@QSystemSemaphore@@QEAAXAEBVQString@@HW4AccessMode@1@@Z
?setKeyValueAt@QVariantAnimation@@QEAAXNAEBVQVariant@@@Z
?setKeyValues@QVariantAnimation@@QEAAXAEBV?$QVector@U?$QPair@NVQVariant@@@@@@@Z
?setLeft@QRect@@QEAAXH@Z
?setLeft@QRectF@@QEAAXN@Z
?setLength@QLineF@@QEAAXN@Z
?setLibraryPaths@QCoreApplication@@SAXAEBVQStringList@@@Z
?setLine@QLine@@QEAAXHHHH@Z
?setLine@QLineF@@QEAAXNNNN@Z
?setLoadHints@QLibrary@@QEAAXV?$QFlags@W4LoadHint@QLibrary@@@@@Z
?setLoadHints@QPluginLoader@@QEAAXV?$QFlags@W4LoadHint@QLibrary@@@@@Z
?setLocale@QResource@@QEAAXAEBVQLocale@@@Z
?setLocale@QTextStream@@QEAAXAEBVQLocale@@@Z
?setLoopCount@QAbstractAnimation@@QEAAXH@Z
?setLoopCount@QTimeLine@@QEAAXH@Z
?setMSecsSinceEpoch@QDateTime@@QEAAX_J@Z
?setMapping@QSignalMapper@@QEAAXPEAVQObject@@0@Z
?setMapping@QSignalMapper@@QEAAXPEAVQObject@@AEBVQString@@@Z
?setMapping@QSignalMapper@@QEAAXPEAVQObject@@H@Z
?setMapping@QSignalMapper@@QEAAXPEAVQObject@@PEAVQWidget@@@Z
?setMaxThreadCount@QThreadPool@@QEAAXH@Z
?setMinimal@QRegExp@@QEAAX_N@Z
?setNameFilters@QDir@@QEAAXAEBVQStringList@@@Z
?setNamespaceProcessing@QXmlStreamReader@@QEAAX_N@Z
?setNativeArguments@QProcess@@QEAAXAEBVQString@@@Z
?setNativeKey@QSharedMemory@@QEAAXAEBVQString@@@Z
?setNum@QByteArray@@QEAAAEAV1@FH@Z
?setNum@QByteArray@@QEAAAEAV1@GH@Z
?setNum@QByteArray@@QEAAAEAV1@HH@Z
?setNum@QByteArray@@QEAAAEAV1@IH@Z
?setNum@QByteArray@@QEAAAEAV1@MDH@Z
?setNum@QByteArray@@QEAAAEAV1@NDH@Z
?setNum@QByteArray@@QEAAAEAV1@_JH@Z
?setNum@QByteArray@@QEAAAEAV1@_KH@Z
?setNum@QString@@QEAAAEAV1@FH@Z
?setNum@QString@@QEAAAEAV1@GH@Z
?setNum@QString@@QEAAAEAV1@HH@Z
?setNum@QString@@QEAAAEAV1@IH@Z
?setNum@QString@@QEAAAEAV1@JH@Z
?setNum@QString@@QEAAAEAV1@KH@Z
?setNum@QString@@QEAAAEAV1@MDH@Z
?setNum@QString@@QEAAAEAV1@NDH@Z
?setNum@QString@@QEAAAEAV1@_JH@Z
?setNum@QString@@QEAAAEAV1@_KH@Z
?setNumberFlags@QTextStream@@QEAAXV?$QFlags@W4NumberFlag@QTextStream@@@@@Z
?setNumberOptions@QLocale@@QEAAXV?$QFlags@W4NumberOption@QLocale@@@@@Z
?setObjectName@QObject@@QEAAXAEBVQString@@@Z
?setOpenMode@QIODevice@@IEAAXV?$QFlags@W4OpenModeFlag@QIODevice@@@@@Z
?setOrganizationDomain@QCoreApplication@@SAXAEBVQString@@@Z
?setOrganizationName@QCoreApplication@@SAXAEBVQString@@@Z
?setOvershoot@QEasingCurve@@QEAAXN@Z
?setP1@QLine@@QEAAXAEBVQPoint@@@Z
?setP1@QLineF@@QEAAXAEBVQPointF@@@Z
?setP2@QLine@@QEAAXAEBVQPoint@@@Z
?setP2@QLineF@@QEAAXAEBVQPointF@@@Z
?setPadChar@QTextStream@@QEAAXVQChar@@@Z
?setParent@QObject@@QEAAXPEAV1@@Z
?setParent_helper@QObjectPrivate@@QEAAXPEAVQObject@@@Z
?setPassword@QUrl@@QEAAXAEBVQString@@@Z
?setPath@QAbstractFileEngineIterator@@AEAAXAEBVQString@@@Z
?setPath@QDir@@QEAAXAEBVQString@@@Z
?setPath@QSettings@@SAXW4Format@1@W4Scope@1@AEBVQString@@@Z
?setPath@QUrl@@QEAAXAEBVQString@@@Z
?setPattern@QByteArrayMatcher@@QEAAXAEBVQByteArray@@@Z
?setPattern@QRegExp@@QEAAXAEBVQString@@@Z
?setPattern@QStringMatcher@@QEAAXAEBVQString@@@Z
?setPatternSyntax@QRegExp@@QEAAXW4PatternSyntax@1@@Z
?setPaused@QAbstractAnimation@@QEAAX_N@Z
?setPaused@QFutureInterfaceBase@@QEAAX_N@Z
?setPaused@QFutureWatcherBase@@QEAAX_N@Z
?setPaused@QTimeLine@@QEAAX_N@Z
?setPendingResultsLimit@QFutureWatcherBase@@QEAAXH@Z
?setPeriod@QEasingCurve@@QEAAXN@Z
?setPermissions@QAbstractFileEngine@@UEAA_NI@Z
?setPermissions@QFSFileEngine@@UEAA_NI@Z
?setPermissions@QFile@@QEAA_NV?$QFlags@W4Permission@QFile@@@@@Z
?setPermissions@QFile@@SA_NAEBVQString@@V?$QFlags@W4Permission@QFile@@@@@Z
?setPoints@QLine@@QEAAXAEBVQPoint@@0@Z
?setPoints@QLineF@@QEAAXAEBVQPointF@@0@Z
?setPort@QUrl@@QEAAXH@Z
?setPosition@QTextBoundaryFinder@@QEAAXH@Z
?setPriority@QThread@@QEAAXW4Priority@1@@Z
?setProcessChannelMode@QProcess@@QEAAXW4ProcessChannelMode@1@@Z
?setProcessEnvironment@QProcess@@QEAAXAEBVQProcessEnvironment@@@Z
?setProcessState@QProcess@@IEAAXW4ProcessState@1@@Z
?setProgressRange@QFutureInterfaceBase@@QEAAXHH@Z
?setProgressRange@ThreadEngineBase@QtConcurrent@@QEAAXHH@Z
?setProgressValue@QFutureInterfaceBase@@QEAAXH@Z
?setProgressValue@ThreadEngineBase@QtConcurrent@@QEAAXH@Z
?setProgressValueAndText@QFutureInterfaceBase@@QEAAXHAEBVQString@@@Z
?setProperty@QObject@@QEAA_NPEBDAEBVQVariant@@@Z
?setPropertyName@QPropertyAnimation@@QEAAXAEBVQByteArray@@@Z
?setQObjectShared@ExternalRefCountData@QtSharedPointer@@QEAAXPEBVQObject@@_N@Z
?setQueryDelimiters@QUrl@@QEAAXDD@Z
?setQueryItems@QUrl@@QEAAXAEBV?$QList@U?$QPair@VQString@@V1@@@@@@Z
?setRawData@QByteArray@@QEAAAEAV1@PEBDI@Z
?setRawData@QString@@QEAAAEAV1@PEBVQChar@@H@Z
?setReadChannel@QProcess@@QEAAXW4ProcessChannel@1@@Z
?setReadChannelMode@QProcess@@QEAAXW4ProcessChannelMode@1@@Z
?setRealNumberNotation@QTextStream@@QEAAXW4RealNumberNotation@1@@Z
?setRealNumberPrecision@QTextStream@@QEAAXH@Z
?setRect@QRect@@QEAAXHHHH@Z
?setRect@QRectF@@QEAAXNNNN@Z
?setRight@QRect@@QEAAXH@Z
?setRight@QRectF@@QEAAXN@Z
?setRoleNames@QAbstractItemModel@@IEAAXAEBV?$QHash@HVQByteArray@@@@@Z
?setRow@QChar@@QEAAXE@Z
?setRow@QCharRef@@QEAAXE@Z
?setRunnable@QFutureInterfaceBase@@QEAAXPEAVQRunnable@@@Z
?setScheme@QUrl@@QEAAXAEBVQString@@@Z
?setSearchPaths@QDir@@SAXAEBVQString@@AEBVQStringList@@@Z
?setSenderObject@QSignalTransition@@QEAAXPEAVQObject@@@Z
?setSharable@?$QVector@VQPoint@@@@QEAAX_N@Z
?setSharable@?$QVector@VQPointF@@@@QEAAX_N@Z
?setSharable@?$QVector@VQXmlStreamAttribute@@@@QEAAX_N@Z
?setSignal@QSignalTransition@@QEAAXAEBVQByteArray@@@Z
?setSingleShot@QTimer@@QEAAX_N@Z
?setSize@QAbstractFileEngine@@UEAA_N_J@Z
?setSize@QFSFileEngine@@UEAA_N_J@Z
?setSize@QRect@@QEAAXAEBVQSize@@@Z
?setSize@QRectF@@QEAAXAEBVQSizeF@@@Z
?setSlowModeEnabled@QUnifiedTimer@@QEAAX_N@Z
?setSlowdownFactor@QUnifiedTimer@@QEAAXN@Z
?setSorting@QDir@@QEAAXV?$QFlags@W4SortFlag@QDir@@@@@Z
?setStackSize@QThread@@QEAAXI@Z
?setStandardErrorFile@QProcess@@QEAAXAEBVQString@@V?$QFlags@W4OpenModeFlag@QIODevice@@@@@Z
?setStandardInputFile@QProcess@@QEAAXAEBVQString@@@Z
?setStandardOutputFile@QProcess@@QEAAXAEBVQString@@V?$QFlags@W4OpenModeFlag@QIODevice@@@@@Z
?setStandardOutputProcess@QProcess@@QEAAXPEAV1@@Z
?setStartFrame@QTimeLine@@QEAAXH@Z
?setStartValue@QVariantAnimation@@QEAAXAEBVQVariant@@@Z
?setStatus@QDataStream@@QEAAXW4Status@1@@Z
?setStatus@QSettingsPrivate@@QEBAXW4Status@QSettings@@@Z
?setStatus@QTextStream@@QEAAXW4Status@1@@Z
?setString@QTextStream@@QEAAXPEAVQString@@V?$QFlags@W4OpenModeFlag@QIODevice@@@@@Z
?setSupportedDragActions@QAbstractItemModel@@QEAAXV?$QFlags@W4DropAction@Qt@@@@@Z
?setSystemIniPath@QSettings@@SAXAEBVQString@@@Z
?setTargetObject@QPropertyAnimation@@QEAAXPEAVQObject@@@Z
?setTargetState@QAbstractTransition@@QEAAXPEAVQAbstractState@@@Z
?setTargetStates@QAbstractTransition@@QEAAXAEBV?$QList@PEAVQAbstractState@@@@@Z
?setTerminationEnabled@QThread@@KAX_N@Z
?setText@QMimeData@@QEAAXAEBVQString@@@Z
?setTextModeEnabled@QIODevice@@QEAAX_N@Z
?setThreadData_helper@QObjectPrivate@@QEAAXPEAVQThreadData@@0@Z
?setThrottled@QFutureInterfaceBase@@QEAAX_N@Z
?setTime@QDateTime@@QEAAXAEBVQTime@@@Z
?setTimeSpec@QDateTime@@QEAAXW4TimeSpec@Qt@@@Z
?setTime_t@QDateTime@@QEAAXI@Z
?setTimingInterval@QUnifiedTimer@@QEAAXH@Z
?setTop@QRect@@QEAAXH@Z
?setTop@QRectF@@QEAAXN@Z
?setTopLeft@QRect@@QEAAXAEBVQPoint@@@Z
?setTopLeft@QRectF@@QEAAXAEBVQPointF@@@Z
?setTopRight@QRect@@QEAAXAEBVQPoint@@@Z
?setTopRight@QRectF@@QEAAXAEBVQPointF@@@Z
?setType@QEasingCurve@@QEAAXW4Type@1@@Z
?setUnicode@QString@@QEAAAEAV1@PEBVQChar@@H@Z
?setUpdateInterval@QTimeLine@@QEAAXH@Z
?setUrl@QUrl@@QEAAXAEBVQString@@@Z
?setUrl@QUrl@@QEAAXAEBVQString@@W4ParsingMode@1@@Z
?setUrls@QMimeData@@QEAAXAEBV?$QList@VQUrl@@@@@Z
?setUserData@QObject@@QEAAXIPEAVQObjectUserData@@@Z
?setUserInfo@QUrl@@QEAAXAEBVQString@@@Z
?setUserIniPath@QSettings@@SAXAEBVQString@@@Z
?setUserName@QUrl@@QEAAXAEBVQString@@@Z
?setUtcOffset@QDateTime@@QEAAXH@Z
?setUtf16@QString@@QEAAAEAV1@PEBGH@Z
?setValue@QSettings@@QEAAXAEBVQString@@AEBVQVariant@@@Z
?setVersion@QDataStream@@QEAAXH@Z
?setWidth@QRect@@QEAAXH@Z
?setWidth@QRectF@@QEAAXN@Z
?setWidth@QSize@@QEAAXH@Z
?setWidth@QSizeF@@QEAAXN@Z
?setWorkingDirectory@QProcess@@QEAAXAEBVQString@@@Z
?setX@QPoint@@QEAAXH@Z
?setX@QPointF@@QEAAXN@Z
?setX@QRect@@QEAAXH@Z
?setX@QRectF@@QEAAXN@Z
?setY@QPoint@@QEAAXH@Z
?setY@QPointF@@QEAAXN@Z
?setY@QRect@@QEAAXH@Z
?setY@QRectF@@QEAAXN@Z
?setYMD@QDate@@QEAA_NHHH@Z
?setupChildProcess@QProcess@@MEAAXXZ
?shared_empty@QByteArray@@0UData@1@A
?shared_empty@QString@@0UData@1@A
?shared_null@QByteArray@@0UData@1@A
?shared_null@QHashData@@2U1@A
?shared_null@QLinkedListData@@2U1@A
?shared_null@QListData@@2UData@1@A
?shared_null@QMapData@@2U1@A
?shared_null@QString@@0UData@1@A
?shared_null@QVectorData@@2U1@A
?shortDayName@QDate@@SA?AVQString@@H@Z
?shortDayName@QDate@@SA?AVQString@@HW4MonthNameType@1@@Z
?shortMonthName@QDate@@SA?AVQString@@H@Z
?shortMonthName@QDate@@SA?AVQString@@HW4MonthNameType@1@@Z
?shouldStartThread@ThreadEngineBase@QtConcurrent@@MEAA_NXZ
?shouldThrottleThread@ThreadEngineBase@QtConcurrent@@MEAA_NXZ
?showbase@@YAAEAVQTextStream@@AEAV1@@Z
?sibling@QAbstractItemModel@@QEBA?AVQModelIndex@@HHAEBV2@@Z
?sibling@QModelIndex@@QEBA?AV1@HH@Z
?sibling@QPersistentModelIndex@@QEBA?AVQModelIndex@@HH@Z
?signal@QSignalTransition@@QEBA?AVQByteArray@@XZ
?signalId@QMetaCallEvent@@QEBAHXZ
?signalIndex@QObjectPrivate@@QEBAHPEBD@Z
?signalIndex@SignalEvent@QStateMachine@@QEBAHXZ
?signalSignature@QObjectPrivate@@SAXAEBVQMetaMethod@@PEAV?$QVarLengthArray@D$0BAA@@@@Z
?signalsBlocked@QObject@@QEBA_NXZ
?signature@QMetaMethod@@QEBAPEBDXZ
?simplified@QByteArray@@QEBA?AV1@XZ
?simplified@QString@@QEBA?AV1@XZ
?singleShot@QTimer@@SAXHPEAVQObject@@PEBD@Z
?size@?$QVector@VQPoint@@@@QEBAHXZ
?size@?$QVector@VQPointF@@@@QEBAHXZ
?size@?$QVector@VQXmlStreamAttribute@@@@QEBAHXZ
?size@QAbstractFileEngine@@UEBA_JXZ
?size@QBitArray@@QEBAHXZ
?size@QBuffer@@UEBA_JXZ
?size@QByteArray@@QEBAHXZ
?size@QFSFileEngine@@UEBA_JXZ
?size@QFile@@UEBA_JXZ
?size@QFileInfo@@QEBA_JXZ
?size@QIODevice@@UEBA_JXZ
?size@QListData@@QEBAHXZ
?size@QRect@@QEBA?AVQSize@@XZ
?size@QRectF@@QEBA?AVQSizeF@@XZ
?size@QResource@@QEBA_JXZ
?size@QSharedMemory@@QEBAHXZ
?size@QString@@QEBAHXZ
?size@QStringRef@@QEBAHXZ
?size@QXmlStreamStringRef@@QEBAHXZ
?sizeOfTypedData@?$QVector@VQPoint@@@@AEAAHXZ
?sizeOfTypedData@?$QVector@VQPointF@@@@AEAAHXZ
?sizeOfTypedData@?$QVector@VQXmlStreamAttribute@@@@AEAAHXZ
?skipCurrentElement@QXmlStreamReader@@QEAAXXZ
?skipRawData@QDataStream@@QEAAHH@Z
?skipToNextSection@QDateTimeParser@@QEBA_NHAEBVQDateTime@@AEBVQString@@@Z
?skipWhiteSpace@QTextStream@@QEAAXXZ
?sleep@QThread@@KAXK@Z
?socket@QSocketNotifier@@QEBAHXZ
?sort@QAbstractItemModel@@UEAAXHW4SortOrder@Qt@@@Z
?sorting@QDir@@QEBA?AV?$QFlags@W4SortFlag@QDir@@@@XZ
?sourceState@QAbstractTransition@@QEBAPEAVQState@@XZ
?sourceState@QAbstractTransitionPrivate@@QEBAPEAVQState@@XZ
?space@QDebug@@QEAAAEAV1@XZ
?span@QAbstractItemModel@@UEBA?AVQSize@@AEBVQModelIndex@@@Z
?split@QByteArray@@QEBA?AV?$QList@VQByteArray@@@@D@Z
?split@QString@@QEBA?AVQStringList@@AEBV1@W4SplitBehavior@1@W4CaseSensitivity@Qt@@@Z
?split@QString@@QEBA?AVQStringList@@AEBVQChar@@W4SplitBehavior@1@W4CaseSensitivity@Qt@@@Z
?split@QString@@QEBA?AVQStringList@@AEBVQRegExp@@W4SplitBehavior@1@@Z
?splitArgs@QSettingsPrivate@@SA?AVQStringList@@AEBVQString@@H@Z
?spontaneous@QEvent@@QEBA_NXZ
?sprintf@QString@@QEAAAEAV1@PEBDZZ
?squeeze@?$QVector@VQPoint@@@@QEAAXXZ
?squeeze@?$QVector@VQPointF@@@@QEAAXXZ
?squeeze@?$QVector@VQXmlStreamAttribute@@@@QEAAXXZ
?squeeze@QByteArray@@QEAAXXZ
?squeeze@QString@@QEAAXXZ
?stackSize@QThread@@QEBAIXZ
?standaloneDayName@QLocale@@QEBA?AVQString@@HW4FormatType@1@@Z
?standaloneMonthName@QLocale@@QEBA?AVQString@@HW4FormatType@1@@Z
?start@QAbstractAnimation@@QEAAXW4DeletionPolicy@1@@Z
?start@QAnimationDriver@@AEAAXXZ
?start@QBasicTimer@@QEAAXHPEAVQObject@@@Z
?start@QElapsedTimer@@QEAAXXZ
?start@QProcess@@QEAAXAEBVQString@@AEBVQStringList@@V?$QFlags@W4OpenModeFlag@QIODevice@@@@@Z
?start@QProcess@@QEAAXAEBVQString@@V?$QFlags@W4OpenModeFlag@QIODevice@@@@@Z
?start@QStateMachine@@QEAAXXZ
?start@QThread@@QEAAXW4Priority@1@@Z
?start@QThreadPool@@QEAAXPEAVQRunnable@@H@Z
?start@QTime@@QEAAXXZ
?start@QTimeLine@@QEAAXXZ
?start@QTimer@@QEAAXH@Z
?start@QTimer@@QEAAXXZ
?start@ThreadEngineBase@QtConcurrent@@MEAAXXZ
?startBlocking@ThreadEngineBase@QtConcurrent@@QEAAXXZ
?startDetached@QProcess@@SA_NAEBVQString@@@Z
?startDetached@QProcess@@SA_NAEBVQString@@AEBVQStringList@@0PEA_J@Z
?startDetached@QProcess@@SA_NAEBVQString@@AEBVQStringList@@@Z
?startFrame@QTimeLine@@QEBAHXZ
?startSingleThreaded@ThreadEngineBase@QtConcurrent@@QEAAXXZ
?startState@QStateMachinePrivate@@QEAAPEAVQState@@XZ
?startThread@ThreadEngineBase@QtConcurrent@@QEAAXXZ
?startThreadInternal@ThreadEngineBase@QtConcurrent@@AEAA_NXZ
?startThreads@ThreadEngineBase@QtConcurrent@@AEAAXXZ
?startTimer@QObject@@QEAAHH@Z
?startTimer@QTimer@@AEAAHH@Z
?startValue@QVariantAnimation@@QEBA?AVQVariant@@XZ
?started@QAnimationDriver@@MEAAXXZ
?started@QFutureWatcherBase@@IEAAXXZ
?started@QProcess@@IEAAXXZ
?started@QStateMachine@@IEAAXXZ
?started@QThread@@IEAAXXZ
?startingUp@QAbstractEventDispatcher@@UEAAXXZ
?startingUp@QCoreApplication@@SA_NXZ
?startingUp@QEventDispatcherWin32@@UEAAXXZ
?startsWith@?$QVector@VQPoint@@@@QEBA_NAEBVQPoint@@@Z
?startsWith@?$QVector@VQPointF@@@@QEBA_NAEBVQPointF@@@Z
?startsWith@?$QVector@VQXmlStreamAttribute@@@@QEBA_NAEBVQXmlStreamAttribute@@@Z
?startsWith@QByteArray@@QEBA_NAEBV1@@Z
?startsWith@QByteArray@@QEBA_ND@Z
?startsWith@QByteArray@@QEBA_NPEBD@Z
?startsWith@QString@@QEBA_NAEBV1@W4CaseSensitivity@Qt@@@Z
?startsWith@QString@@QEBA_NAEBVQChar@@W4CaseSensitivity@Qt@@@Z
?startsWith@QString@@QEBA_NAEBVQLatin1String@@W4CaseSensitivity@Qt@@@Z
?startsWith@QString@@QEBA_NAEBVQStringRef@@W4CaseSensitivity@Qt@@@Z
?startsWith@QStringRef@@QEBA_NAEBV1@W4CaseSensitivity@Qt@@@Z
?startsWith@QStringRef@@QEBA_NAEBVQString@@W4CaseSensitivity@Qt@@@Z
?startsWith@QStringRef@@QEBA_NVQChar@@W4CaseSensitivity@Qt@@@Z
?startsWith@QStringRef@@QEBA_NVQLatin1String@@W4CaseSensitivity@Qt@@@Z
?state@QAbstractAnimation@@QEBA?AW4State@1@XZ
?state@QProcess@@QEBA?AW4ProcessState@1@XZ
?state@QTimeLine@@QEBA?AW4State@1@XZ
?stateChanged@QAbstractAnimation@@IEAAXW4State@1@0@Z
?stateChanged@QProcess@@IEAAXW4ProcessState@1@@Z
?stateChanged@QTimeLine@@IEAAXW4State@1@@Z
?stateEntryLessThan@QStateMachinePrivate@@SA_NPEAVQAbstractState@@0@Z
?stateExitLessThan@QStateMachinePrivate@@SA_NPEAVQAbstractState@@0@Z
?stateName@QDateTimeParser@@QEBA?AVQString@@H@Z
?staticEmptyModel@QAbstractItemModelPrivate@@SAPEAVQAbstractItemModel@@XZ
?staticInstances@QPluginLoader@@SA?AV?$QList@PEAVQObject@@@@XZ
?staticMetaObject@QAbstractAnimation@@2UQMetaObject@@B
?staticMetaObject@QAbstractEventDispatcher@@2UQMetaObject@@B
?staticMetaObject@QAbstractItemModel@@2UQMetaObject@@B
?staticMetaObject@QAbstractListModel@@2UQMetaObject@@B
?staticMetaObject@QAbstractState@@2UQMetaObject@@B
?staticMetaObject@QAbstractTableModel@@2UQMetaObject@@B
?staticMetaObject@QAbstractTransition@@2UQMetaObject@@B
?staticMetaObject@QAnimationDriver@@2UQMetaObject@@B
?staticMetaObject@QAnimationGroup@@2UQMetaObject@@B
?staticMetaObject@QBuffer@@2UQMetaObject@@B
?staticMetaObject@QCoreApplication@@2UQMetaObject@@B
?staticMetaObject@QEasingCurve@@2UQMetaObject@@B
?staticMetaObject@QEvent@@2UQMetaObject@@B
?staticMetaObject@QEventDispatcherWin32@@2UQMetaObject@@B
?staticMetaObject@QEventLoop@@2UQMetaObject@@B
?staticMetaObject@QEventTransition@@2UQMetaObject@@B
?staticMetaObject@QFactoryLoader@@2UQMetaObject@@B
?staticMetaObject@QFile@@2UQMetaObject@@B
?staticMetaObject@QFileSystemWatcher@@2UQMetaObject@@B
?staticMetaObject@QFinalState@@2UQMetaObject@@B
?staticMetaObject@QFutureWatcherBase@@2UQMetaObject@@B
?staticMetaObject@QHistoryState@@2UQMetaObject@@B
?staticMetaObject@QIODevice@@2UQMetaObject@@B
?staticMetaObject@QLibrary@@2UQMetaObject@@B
?staticMetaObject@QLocale@@2UQMetaObject@@B
?staticMetaObject@QMimeData@@2UQMetaObject@@B
?staticMetaObject@QNonContiguousByteDevice@@2UQMetaObject@@B
?staticMetaObject@QObject@@2UQMetaObject@@B
?staticMetaObject@QObjectCleanupHandler@@2UQMetaObject@@B
?staticMetaObject@QParallelAnimationGroup@@2UQMetaObject@@B
?staticMetaObject@QPauseAnimation@@2UQMetaObject@@B
?staticMetaObject@QPluginLoader@@2UQMetaObject@@B
?staticMetaObject@QProcess@@2UQMetaObject@@B
?staticMetaObject@QPropertyAnimation@@2UQMetaObject@@B
?staticMetaObject@QSequentialAnimationGroup@@2UQMetaObject@@B
?staticMetaObject@QSettings@@2UQMetaObject@@B
?staticMetaObject@QSharedMemory@@2UQMetaObject@@B
?staticMetaObject@QSignalMapper@@2UQMetaObject@@B
?staticMetaObject@QSignalTransition@@2UQMetaObject@@B
?staticMetaObject@QSocketNotifier@@2UQMetaObject@@B
?staticMetaObject@QState@@2UQMetaObject@@B
?staticMetaObject@QStateMachine@@2UQMetaObject@@B
?staticMetaObject@QTemporaryFile@@2UQMetaObject@@B
?staticMetaObject@QTextCodecPlugin@@2UQMetaObject@@B
?staticMetaObject@QThread@@2UQMetaObject@@B
?staticMetaObject@QThreadPool@@2UQMetaObject@@B
?staticMetaObject@QTimeLine@@2UQMetaObject@@B
?staticMetaObject@QTimer@@2UQMetaObject@@B
?staticMetaObject@QTranslator@@2UQMetaObject@@B
?staticMetaObject@QVariantAnimation@@2UQMetaObject@@B
?staticMetaObject@QWinEventNotifier@@2UQMetaObject@@B
?staticMetaObject@QWindowsPipeWriter@@2UQMetaObject@@B
?staticMetaObjectExtraData@QAbstractAnimation@@0UQMetaObjectExtraData@@B
?staticMetaObjectExtraData@QAbstractEventDispatcher@@0UQMetaObjectExtraData@@B
?staticMetaObjectExtraData@QAbstractItemModel@@0UQMetaObjectExtraData@@B
?staticMetaObjectExtraData@QAbstractListModel@@0UQMetaObjectExtraData@@B
?staticMetaObjectExtraData@QAbstractState@@0UQMetaObjectExtraData@@B
?staticMetaObjectExtraData@QAbstractTableModel@@0UQMetaObjectExtraData@@B
?staticMetaObjectExtraData@QAbstractTransition@@0UQMetaObjectExtraData@@B
?staticMetaObjectExtraData@QAnimationDriver@@0UQMetaObjectExtraData@@B
?staticMetaObjectExtraData@QAnimationGroup@@0UQMetaObjectExtraData@@B
?staticMetaObjectExtraData@QBuffer@@0UQMetaObjectExtraData@@B
?staticMetaObjectExtraData@QCoreApplication@@0UQMetaObjectExtraData@@B
?staticMetaObjectExtraData@QEventDispatcherWin32@@0UQMetaObjectExtraData@@B
?staticMetaObjectExtraData@QEventLoop@@0UQMetaObjectExtraData@@B
?staticMetaObjectExtraData@QEventTransition@@0UQMetaObjectExtraData@@B
?staticMetaObjectExtraData@QFactoryLoader@@0UQMetaObjectExtraData@@B
?staticMetaObjectExtraData@QFile@@0UQMetaObjectExtraData@@B
?staticMetaObjectExtraData@QFileSystemWatcher@@0UQMetaObjectExtraData@@B
?staticMetaObjectExtraData@QFinalState@@0UQMetaObjectExtraData@@B
?staticMetaObjectExtraData@QFutureWatcherBase@@0UQMetaObjectExtraData@@B
?staticMetaObjectExtraData@QHistoryState@@0UQMetaObjectExtraData@@B
?staticMetaObjectExtraData@QIODevice@@0UQMetaObjectExtraData@@B
?staticMetaObjectExtraData@QLibrary@@0UQMetaObjectExtraData@@B
?staticMetaObjectExtraData@QMimeData@@0UQMetaObjectExtraData@@B
?staticMetaObjectExtraData@QNonContiguousByteDevice@@0UQMetaObjectExtraData@@B
?staticMetaObjectExtraData@QObject@@0UQMetaObjectExtraData@@B
?staticMetaObjectExtraData@QObjectCleanupHandler@@0UQMetaObjectExtraData@@B
?staticMetaObjectExtraData@QParallelAnimationGroup@@0UQMetaObjectExtraData@@B
?staticMetaObjectExtraData@QPauseAnimation@@0UQMetaObjectExtraData@@B
?staticMetaObjectExtraData@QPluginLoader@@0UQMetaObjectExtraData@@B
?staticMetaObjectExtraData@QProcess@@0UQMetaObjectExtraData@@B
?staticMetaObjectExtraData@QPropertyAnimation@@0UQMetaObjectExtraData@@B
?staticMetaObjectExtraData@QSequentialAnimationGroup@@0UQMetaObjectExtraData@@B
?staticMetaObjectExtraData@QSettings@@0UQMetaObjectExtraData@@B
?staticMetaObjectExtraData@QSharedMemory@@0UQMetaObjectExtraData@@B
?staticMetaObjectExtraData@QSignalMapper@@0UQMetaObjectExtraData@@B
?staticMetaObjectExtraData@QSignalTransition@@0UQMetaObjectExtraData@@B
?staticMetaObjectExtraData@QSocketNotifier@@0UQMetaObjectExtraData@@B
?staticMetaObjectExtraData@QState@@0UQMetaObjectExtraData@@B
?staticMetaObjectExtraData@QStateMachine@@0UQMetaObjectExtraData@@B
?staticMetaObjectExtraData@QTemporaryFile@@0UQMetaObjectExtraData@@B
?staticMetaObjectExtraData@QTextCodecPlugin@@0UQMetaObjectExtraData@@B
?staticMetaObjectExtraData@QThread@@0UQMetaObjectExtraData@@B
?staticMetaObjectExtraData@QThreadPool@@0UQMetaObjectExtraData@@B
?staticMetaObjectExtraData@QTimeLine@@0UQMetaObjectExtraData@@B
?staticMetaObjectExtraData@QTimer@@0UQMetaObjectExtraData@@B
?staticMetaObjectExtraData@QTranslator@@0UQMetaObjectExtraData@@B
?staticMetaObjectExtraData@QVariantAnimation@@0UQMetaObjectExtraData@@B
?staticMetaObjectExtraData@QWinEventNotifier@@0UQMetaObjectExtraData@@B
?staticMetaObjectExtraData@QWindowsPipeWriter@@0UQMetaObjectExtraData@@B
?staticQtMetaObject@QObject@@1UQMetaObject@@B
?static_metacall@QMetaObject@@QEBAHW4Call@1@HPEAPEAX@Z
?status@QDataStream@@QEBA?AW4Status@1@XZ
?status@QSettings@@QEBA?AW4Status@1@XZ
?status@QTextStream@@QEBA?AW4Status@1@XZ
?stop@QAbstractAnimation@@QEAAXXZ
?stop@QAnimationDriver@@AEAAXXZ
?stop@QBasicTimer@@QEAAXXZ
?stop@QStateMachine@@QEAAXXZ
?stop@QTimeLine@@QEAAXXZ
?stop@QTimer@@QEAAXXZ
?stopped@QAnimationDriver@@MEAAXXZ
?stopped@QStateMachine@@IEAAXXZ
?string@QStringRef@@QEBAPEBVQString@@XZ
?string@QTextBoundaryFinder@@QEBA?AVQString@@XZ
?string@QTextStream@@QEBAPEAVQString@@XZ
?string@QXmlStreamStringRef@@QEBAPEBVQString@@XZ
?stringListToVariantList@QSettingsPrivate@@SA?AVQVariant@@AEBVQStringList@@@Z
?stringToDouble@QLocalePrivate@@QEBANAEBVQString@@PEA_NW4GroupSeparatorMode@1@@Z
?stringToLongLong@QLocalePrivate@@QEBA_JAEBVQString@@HPEA_NW4GroupSeparatorMode@1@@Z
?stringToUnsLongLong@QLocalePrivate@@QEBA_KAEBVQString@@HPEA_NW4GroupSeparatorMode@1@@Z
?stringToVariant@QSettingsPrivate@@SA?AVQVariant@@AEBVQString@@@Z
?submit@QAbstractItemModel@@UEAA_NXZ
?suffix@QFileInfo@@QEBA?AVQString@@XZ
?suffix@QFileSystemEntry@@QEBA?AVQString@@XZ
?superClass@QMetaObject@@QEBAPEBU1@XZ
?supportedDragActions@QAbstractItemModel@@QEBA?AV?$QFlags@W4DropAction@Qt@@@@XZ
?supportedDropActions@QAbstractItemModel@@UEBA?AV?$QFlags@W4DropAction@Qt@@@@XZ
?supportsExtension@QAbstractFileEngine@@UEBA_NW4Extension@1@@Z
?supportsExtension@QFSFileEngine@@UEBA_NW4Extension@QAbstractFileEngine@@@Z
?surrogateToUcs4@QChar@@SAIGG@Z
?surrogateToUcs4@QChar@@SAIV1@0@Z
?swap@?$QVector@VQPoint@@@@QEAAXAEAV1@@Z
?swap@?$QVector@VQPointF@@@@QEAAXAEAV1@@Z
?swap@?$QVector@VQXmlStreamAttribute@@@@QEAAXAEAV1@@Z
?swap@QBitArray@@QEAAXAEAV1@@Z
?swap@QByteArray@@QEAAXAEAV1@@Z
?swap@QRegExp@@QEAAXAEAV1@@Z
?swap@QString@@QEAAXAEAV1@@Z
?swap@QUrl@@QEAAXAEAV1@@Z
?swap@QVariant@@QEAAXAEAV1@@Z
?symLinkTarget@QFile@@QEBA?AVQString@@XZ
?symLinkTarget@QFile@@SA?AVQString@@AEBV2@@Z
?symLinkTarget@QFileInfo@@QEBA?AVQString@@XZ
?sync@QSettings@@QEAAXXZ
?syncPendingResults@ResultStoreBase@QtConcurrent@@IEAAXXZ
?syncResultCount@ResultStoreBase@QtConcurrent@@IEAAXXZ
?system@QLocale@@SA?AV1@XZ
?systemEnvironment@QProcess@@SA?AVQStringList@@XZ
?systemEnvironment@QProcessEnvironment@@SA?AV1@XZ
?systemId@QXmlStreamEntityDeclaration@@QEBA?AVQStringRef@@XZ
?systemId@QXmlStreamNotationDeclaration@@QEBA?AVQStringRef@@XZ
?tag@QMetaMethod@@QEBAPEBDXZ
?takeAnimation@QAnimationGroup@@QEAAPEAVQAbstractAnimation@@H@Z
?targetObject@QPropertyAnimation@@QEBAPEAVQObject@@XZ
?targetState@QAbstractTransition@@QEBAPEAVQAbstractState@@XZ
?targetStates@QAbstractTransition@@QEBA?AV?$QList@PEAVQAbstractState@@@@XZ
?temp@QDir@@SA?AV1@XZ
?tempPath@QDir@@SA?AVQString@@XZ
?tempPath@QFSFileEngine@@SA?AVQString@@XZ
?terminate@QProcess@@QEAAXXZ
?terminate@QThread@@QEAAXXZ
?terminated@QThread@@IEAAXXZ
?testAndSetAcquire@QBasicAtomicInt@@QEAA_NHH@Z
?testAndSetOrdered@QBasicAtomicInt@@QEAA_NHH@Z
?testAndSetRelaxed@QBasicAtomicInt@@QEAA_NHH@Z
?testAndSetRelease@QBasicAtomicInt@@QEAA_NHH@Z
?testAttribute@QCoreApplication@@SA_NW4ApplicationAttribute@Qt@@@Z
?testAttribute@QCoreApplicationPrivate@@SA_NI@Z
?testBit@QBitArray@@QEBA_NH@Z
?text@QMimeData@@QEBA?AVQString@@XZ
?text@QXmlStreamReader@@QEBA?AVQStringRef@@XZ
?textDirection@QLocale@@QEBA?AW4LayoutDirection@Qt@@XZ
?theMainThread@QCoreApplicationPrivate@@2PEAVQThread@@EA
?thread@QObject@@QEBAPEAVQThread@@XZ
?threadExit@ThreadEngineBase@QtConcurrent@@AEAAXXZ
?threadFunction@ThreadEngineBase@QtConcurrent@@MEAA?AW4ThreadFunctionResult@2@XZ
?threadThrottleExit@ThreadEngineBase@QtConcurrent@@AEAA_NXZ
?throwPossibleException@ExceptionStore@internal@QtConcurrent@@QEAAXXZ
?time@QDateTime@@QEBA?AVQTime@@XZ
?timeAfterUser@BlockSizeManager@QtConcurrent@@QEAAXXZ
?timeBeforeUser@BlockSizeManager@QtConcurrent@@QEAAXXZ
?timeFormat@QLocale@@QEBA?AVQString@@W4FormatType@1@@Z
?timeSpec@QDateTime@@QEBA?AW4TimeSpec@Qt@@XZ
?timeout@QTimer@@IEAAXXZ
?timerEvent@QObject@@MEAAXPEAVQTimerEvent@@@Z
?timerEvent@QTimeLine@@MEAAXPEAVQTimerEvent@@@Z
?timerEvent@QTimer@@MEAAXPEAVQTimerEvent@@@Z
?timerEvent@QUnifiedTimer@@MEAAXPEAVQTimerEvent@@@Z
?timerId@QBasicTimer@@QEBAHXZ
?timerId@QTimer@@QEBAHXZ
?timerId@QTimerEvent@@QEBAHXZ
?toAce@QUrl@@SA?AVQByteArray@@AEBVQString@@@Z
?toAlignedRect@QRectF@@QEBA?AVQRect@@XZ
?toAscii@QChar@@QEBA?BDXZ
?toAscii@QCharRef@@QEBA?BDXZ
?toAscii@QString@@QEBA?AVQByteArray@@XZ
?toAscii@QStringRef@@QEBA?AVQByteArray@@XZ
?toBase64@QByteArray@@QEBA?AV1@XZ
?toBitArray@QVariant@@QEBA?AVQBitArray@@XZ
?toBool@QVariant@@QEBA_NXZ
?toByteArray@QUuid@@QEBA?AVQByteArray@@XZ
?toByteArray@QVariant@@QEBA?AVQByteArray@@XZ
?toCaseFolded@QChar@@QEBA?AV1@XZ
?toCaseFolded@QChar@@SAGG@Z
?toCaseFolded@QChar@@SAII@Z
?toCaseFolded@QString@@QEBA?AV1@XZ
?toChar@QVariant@@QEBA?AVQChar@@XZ
?toCurrencyString@QLocale@@QEBA?AVQString@@FAEBV2@@Z
?toCurrencyString@QLocale@@QEBA?AVQString@@GAEBV2@@Z
?toCurrencyString@QLocale@@QEBA?AVQString@@HAEBV2@@Z
?toCurrencyString@QLocale@@QEBA?AVQString@@IAEBV2@@Z
?toCurrencyString@QLocale@@QEBA?AVQString@@MAEBV2@@Z
?toCurrencyString@QLocale@@QEBA?AVQString@@NAEBV2@@Z
?toCurrencyString@QLocale@@QEBA?AVQString@@_JAEBV2@@Z
?toCurrencyString@QLocale@@QEBA?AVQString@@_KAEBV2@@Z
?toDate@QLocale@@QEBA?AVQDate@@AEBVQString@@0@Z
?toDate@QLocale@@QEBA?AVQDate@@AEBVQString@@W4FormatType@1@@Z
?toDate@QVariant@@QEBA?AVQDate@@XZ
?toDateTime@QLocale@@QEBA?AVQDateTime@@AEBVQString@@0@Z
?toDateTime@QLocale@@QEBA?AVQDateTime@@AEBVQString@@W4FormatType@1@@Z
?toDateTime@QVariant@@QEBA?AVQDateTime@@XZ
?toDouble@QByteArray@@QEBANPEA_N@Z
?toDouble@QLocale@@QEBANAEBVQString@@PEA_N@Z
?toDouble@QString@@QEBANPEA_N@Z
?toDouble@QVariant@@QEBANPEA_N@Z
?toEasingCurve@QVariant@@QEBA?AVQEasingCurve@@XZ
?toEncoded@QUrl@@QEBA?AVQByteArray@@V?$QFlags@W4FormattingOption@QUrl@@@@@Z
?toEnd@QTextBoundaryFinder@@QEAAXXZ
?toFinalState@QStateMachinePrivate@@SAPEAVQFinalState@@PEAVQAbstractState@@@Z
?toFloat@QByteArray@@QEBAMPEA_N@Z
?toFloat@QLocale@@QEBAMAEBVQString@@PEA_N@Z
?toFloat@QString@@QEBAMPEA_N@Z
?toFloat@QVariant@@QEBAMPEA_N@Z
?toHash@QVariant@@QEBA?AV?$QHash@VQString@@VQVariant@@@@XZ
?toHex@QByteArray@@QEBA?AV1@XZ
?toHistoryState@QStateMachinePrivate@@SAPEAVQHistoryState@@PEAVQAbstractState@@@Z
?toInt@QByteArray@@QEBAHPEA_NH@Z
?toInt@QLocale@@QEBAHAEBVQString@@PEA_NH@Z
?toInt@QString@@QEBAHPEA_NH@Z
?toInt@QVariant@@QEBAHPEA_N@Z
?toJulianDay@QDate@@QEBAHXZ
?toLatin1@QChar@@QEBA?BDXZ
?toLatin1@QCharRef@@QEBA?BDXZ
?toLatin1@QString@@QEBA?AVQByteArray@@XZ
?toLatin1@QStringRef@@QEBA?AVQByteArray@@XZ
?toLine@QLineF@@QEBA?AVQLine@@XZ
?toLine@QVariant@@QEBA?AVQLine@@XZ
?toLineF@QVariant@@QEBA?AVQLineF@@XZ
?toList@?$QVector@VQPoint@@@@QEBA?AV?$QList@VQPoint@@@@XZ
?toList@?$QVector@VQPointF@@@@QEBA?AV?$QList@VQPointF@@@@XZ
?toList@?$QVector@VQXmlStreamAttribute@@@@QEBA?AV?$QList@VQXmlStreamAttribute@@@@XZ
?toList@QVariant@@QEBA?AV?$QList@VQVariant@@@@XZ
?toLocal8Bit@QString@@QEBA?AVQByteArray@@XZ
?toLocal8Bit@QStringRef@@QEBA?AVQByteArray@@XZ
?toLocalFile@QUrl@@QEBA?AVQString@@XZ
?toLocalTime@QDateTime@@QEBA?AV1@XZ
?toLocale@QVariant@@QEBA?AVQLocale@@XZ
?toLong@QByteArray@@QEBAJPEA_NH@Z
?toLong@QString@@QEBAJPEA_NH@Z
?toLongLong@QByteArray@@QEBA_JPEA_NH@Z
?toLongLong@QLocale@@QEBA_JAEBVQString@@PEA_NH@Z
?toLongLong@QString@@QEBA_JPEA_NH@Z
?toLongLong@QVariant@@QEBA_JPEA_N@Z
?toLower@QByteArray@@QEBA?AV1@XZ
?toLower@QChar@@QEBA?AV1@XZ
?toLower@QChar@@SAGG@Z
?toLower@QChar@@SAII@Z
?toLower@QCharRef@@QEBA?AVQChar@@XZ
?toLower@QLocale@@QEBA?AVQString@@AEBV2@@Z
?toLower@QString@@QEBA?AV1@XZ
?toMSecsSinceEpoch@QDateTime@@QEBA_JXZ
?toMap@QVariant@@QEBA?AV?$QMap@VQString@@VQVariant@@@@XZ
?toNativeSeparators@QDir@@SA?AVQString@@AEBV2@@Z
?toNextBoundary@QTextBoundaryFinder@@QEAAHXZ
?toPercentEncoding@QByteArray@@QEBA?AV1@AEBV1@0D@Z
?toPercentEncoding@QUrl@@SA?AVQByteArray@@AEBVQString@@AEBV2@1@Z
?toPoint@QPointF@@QEBA?AVQPoint@@XZ
?toPoint@QVariant@@QEBA?AVQPoint@@XZ
?toPointF@QVariant@@QEBA?AVQPointF@@XZ
?toPreviousBoundary@QTextBoundaryFinder@@QEAAHXZ
?toPunycode@QUrl@@SA?AVQByteArray@@AEBVQString@@@Z
?toReal@QVariant@@QEBANPEA_N@Z
?toRect@QRectF@@QEBA?AVQRect@@XZ
?toRect@QVariant@@QEBA?AVQRect@@XZ
?toRectF@QVariant@@QEBA?AVQRectF@@XZ
?toRegExp@QVariant@@QEBA?AVQRegExp@@XZ
?toRfc4122@QUuid@@QEBA?AVQByteArray@@XZ
?toShort@QByteArray@@QEBAFPEA_NH@Z
?toShort@QLocale@@QEBAFAEBVQString@@PEA_NH@Z
?toShort@QString@@QEBAFPEA_NH@Z
?toSize@QSizeF@@QEBA?AVQSize@@XZ
?toSize@QVariant@@QEBA?AVQSize@@XZ
?toSizeF@QVariant@@QEBA?AVQSizeF@@XZ
?toStandardState@QStateMachinePrivate@@SAPEAVQState@@PEAVQAbstractState@@@Z
?toStandardState@QStateMachinePrivate@@SAPEBVQState@@PEBVQAbstractState@@@Z
?toStart@QTextBoundaryFinder@@QEAAXXZ
?toStdString@QString@@QEBA?AV?$basic_string@DU?$char_traits@D@std@@V?$allocator@D@2@@std@@XZ
?toStdVector@?$QVector@VQPoint@@@@QEBA?AV?$vector@VQPoint@@V?$allocator@VQPoint@@@std@@@std@@XZ
?toStdVector@?$QVector@VQPointF@@@@QEBA?AV?$vector@VQPointF@@V?$allocator@VQPointF@@@std@@@std@@XZ
?toStdVector@?$QVector@VQXmlStreamAttribute@@@@QEBA?AV?$vector@VQXmlStreamAttribute@@V?$allocator@VQXmlStreamAttribute@@@std@@@std@@XZ
?toStdWString@QString@@QEBA?AV?$basic_string@_WU?$char_traits@_W@std@@V?$allocator@_W@2@@std@@XZ
?toString@QDate@@QEBA?AVQString@@AEBV2@@Z
?toString@QDate@@QEBA?AVQString@@W4DateFormat@Qt@@@Z
?toString@QDateTime@@QEBA?AVQString@@AEBV2@@Z
?toString@QDateTime@@QEBA?AVQString@@W4DateFormat@Qt@@@Z
?toString@QLocale@@QEBA?AVQString@@AEBVQDate@@AEBV2@@Z
?toString@QLocale@@QEBA?AVQString@@AEBVQDate@@W4FormatType@1@@Z
?toString@QLocale@@QEBA?AVQString@@AEBVQDateTime@@AEBV2@@Z
?toString@QLocale@@QEBA?AVQString@@AEBVQDateTime@@W4FormatType@1@@Z
?toString@QLocale@@QEBA?AVQString@@AEBVQTime@@AEBV2@@Z
?toString@QLocale@@QEBA?AVQString@@AEBVQTime@@W4FormatType@1@@Z
?toString@QLocale@@QEBA?AVQString@@F@Z
?toString@QLocale@@QEBA?AVQString@@G@Z
?toString@QLocale@@QEBA?AVQString@@H@Z
?toString@QLocale@@QEBA?AVQString@@I@Z
?toString@QLocale@@QEBA?AVQString@@MDH@Z
?toString@QLocale@@QEBA?AVQString@@NDH@Z
?toString@QLocale@@QEBA?AVQString@@_J@Z
?toString@QLocale@@QEBA?AVQString@@_K@Z
?toString@QStringRef@@QEBA?AVQString@@XZ
?toString@QSystemError@@QEAA?AVQString@@XZ
?toString@QTime@@QEBA?AVQString@@AEBV2@@Z
?toString@QTime@@QEBA?AVQString@@W4DateFormat@Qt@@@Z
?toString@QUrl@@QEBA?AVQString@@V?$QFlags@W4FormattingOption@QUrl@@@@@Z
?toString@QUuid@@QEBA?AVQString@@XZ
?toString@QVariant@@QEBA?AVQString@@XZ
?toStringList@QProcessEnvironment@@QEBA?AVQStringList@@XZ
?toStringList@QVariant@@QEBA?AVQStringList@@XZ
?toTime@QLocale@@QEBA?AVQTime@@AEBVQString@@0@Z
?toTime@QLocale@@QEBA?AVQTime@@AEBVQString@@W4FormatType@1@@Z
?toTime@QVariant@@QEBA?AVQTime@@XZ
?toTimeSpec@QDateTime@@QEBA?AV1@W4TimeSpec@Qt@@@Z
?toTime_t@QDateTime@@QEBAIXZ
?toTitleCase@QChar@@QEBA?AV1@XZ
?toTitleCase@QChar@@SAGG@Z
?toTitleCase@QChar@@SAII@Z
?toTitleCase@QCharRef@@QEBA?AVQChar@@XZ
?toUInt@QByteArray@@QEBAIPEA_NH@Z
?toUInt@QLocale@@QEBAIAEBVQString@@PEA_NH@Z
?toUInt@QString@@QEBAIPEA_NH@Z
?toUInt@QVariant@@QEBAIPEA_N@Z
?toULong@QByteArray@@QEBAKPEA_NH@Z
?toULong@QString@@QEBAKPEA_NH@Z
?toULongLong@QByteArray@@QEBA_KPEA_NH@Z
?toULongLong@QLocale@@QEBA_JAEBVQString@@PEA_NH@Z
?toULongLong@QString@@QEBA_KPEA_NH@Z
?toULongLong@QVariant@@QEBA_KPEA_N@Z
?toUShort@QByteArray@@QEBAGPEA_NH@Z
?toUShort@QLocale@@QEBAGAEBVQString@@PEA_NH@Z
?toUShort@QString@@QEBAGPEA_NH@Z
?toUTC@QDateTime@@QEBA?AV1@XZ
?toUcs4@QString@@QEBA?AV?$QVector@I@@XZ
?toUcs4@QStringRef@@QEBA?AV?$QVector@I@@XZ
?toUnicode@QTextCodec@@QEBA?AVQString@@AEBVQByteArray@@@Z
?toUnicode@QTextCodec@@QEBA?AVQString@@PEBD@Z
?toUnicode@QTextCodec@@QEBA?AVQString@@PEBDHPEAUConverterState@1@@Z
?toUnicode@QTextDecoder@@QEAA?AVQString@@AEBVQByteArray@@@Z
?toUnicode@QTextDecoder@@QEAA?AVQString@@PEBDH@Z
?toUnicode@QTextDecoder@@QEAAXPEAVQString@@PEBDH@Z
?toUpper@QByteArray@@QEBA?AV1@XZ
?toUpper@QChar@@QEBA?AV1@XZ
?toUpper@QChar@@SAGG@Z
?toUpper@QChar@@SAII@Z
?toUpper@QCharRef@@QEBA?AVQChar@@XZ
?toUpper@QLocale@@QEBA?AVQString@@AEBV2@@Z
?toUpper@QString@@QEBA?AV1@XZ
?toUrl@QVariant@@QEBA?AVQUrl@@XZ
?toUtf8@QString@@QEBA?AVQByteArray@@XZ
?toUtf8@QStringRef@@QEBA?AVQByteArray@@XZ
?toWCharArray@QString@@QEBAHPEA_W@Z
?toggleBit@QBitArray@@QEAA_NH@Z
?toggleDirection@QTimeLine@@QEAAXXZ
?togglePaused@QFutureInterfaceBase@@QEAAXXZ
?togglePaused@QFutureWatcherBase@@QEAAXXZ
?tokenString@QXmlStreamReader@@QEBA?AVQString@@XZ
?tokenType@QXmlStreamReader@@QEBA?AW4TokenType@1@XZ
?top@QRect@@QEBAHXZ
?top@QRectF@@QEBANXZ
?topLeft@QRect@@QEBA?AVQPoint@@XZ
?topLeft@QRectF@@QEBA?AVQPointF@@XZ
?topLevelDomain@QUrl@@QEBA?AVQString@@XZ
?topRight@QRect@@QEBA?AVQPoint@@XZ
?topRight@QRectF@@QEBA?AVQPointF@@XZ
?totalDuration@QAbstractAnimation@@QEBAHXZ
?tr@QAbstractAnimation@@SA?AVQString@@PEBD0@Z
?tr@QAbstractAnimation@@SA?AVQString@@PEBD0H@Z
?tr@QAbstractEventDispatcher@@SA?AVQString@@PEBD0@Z
?tr@QAbstractEventDispatcher@@SA?AVQString@@PEBD0H@Z
?tr@QAbstractItemModel@@SA?AVQString@@PEBD0@Z
?tr@QAbstractItemModel@@SA?AVQString@@PEBD0H@Z
?tr@QAbstractListModel@@SA?AVQString@@PEBD0@Z
?tr@QAbstractListModel@@SA?AVQString@@PEBD0H@Z
?tr@QAbstractState@@SA?AVQString@@PEBD0@Z
?tr@QAbstractState@@SA?AVQString@@PEBD0H@Z
?tr@QAbstractTableModel@@SA?AVQString@@PEBD0@Z
?tr@QAbstractTableModel@@SA?AVQString@@PEBD0H@Z
?tr@QAbstractTransition@@SA?AVQString@@PEBD0@Z
?tr@QAbstractTransition@@SA?AVQString@@PEBD0H@Z
?tr@QAnimationDriver@@SA?AVQString@@PEBD0@Z
?tr@QAnimationDriver@@SA?AVQString@@PEBD0H@Z
?tr@QAnimationGroup@@SA?AVQString@@PEBD0@Z
?tr@QAnimationGroup@@SA?AVQString@@PEBD0H@Z
?tr@QBuffer@@SA?AVQString@@PEBD0@Z
?tr@QBuffer@@SA?AVQString@@PEBD0H@Z
?tr@QCoreApplication@@SA?AVQString@@PEBD0@Z
?tr@QCoreApplication@@SA?AVQString@@PEBD0H@Z
?tr@QEventDispatcherWin32@@SA?AVQString@@PEBD0@Z
?tr@QEventDispatcherWin32@@SA?AVQString@@PEBD0H@Z
?tr@QEventLoop@@SA?AVQString@@PEBD0@Z
?tr@QEventLoop@@SA?AVQString@@PEBD0H@Z
?tr@QEventTransition@@SA?AVQString@@PEBD0@Z
?tr@QEventTransition@@SA?AVQString@@PEBD0H@Z
?tr@QFactoryLoader@@SA?AVQString@@PEBD0@Z
?tr@QFactoryLoader@@SA?AVQString@@PEBD0H@Z
?tr@QFile@@SA?AVQString@@PEBD0@Z
?tr@QFile@@SA?AVQString@@PEBD0H@Z
?tr@QFileSystemWatcher@@SA?AVQString@@PEBD0@Z
?tr@QFileSystemWatcher@@SA?AVQString@@PEBD0H@Z
?tr@QFinalState@@SA?AVQString@@PEBD0@Z
?tr@QFinalState@@SA?AVQString@@PEBD0H@Z
?tr@QFutureWatcherBase@@SA?AVQString@@PEBD0@Z
?tr@QFutureWatcherBase@@SA?AVQString@@PEBD0H@Z
?tr@QHistoryState@@SA?AVQString@@PEBD0@Z
?tr@QHistoryState@@SA?AVQString@@PEBD0H@Z
?tr@QIODevice@@SA?AVQString@@PEBD0@Z
?tr@QIODevice@@SA?AVQString@@PEBD0H@Z
?tr@QLibrary@@SA?AVQString@@PEBD0@Z
?tr@QLibrary@@SA?AVQString@@PEBD0H@Z
?tr@QMetaObject@@QEBA?AVQString@@PEBD0@Z
?tr@QMetaObject@@QEBA?AVQString@@PEBD0H@Z
?tr@QMimeData@@SA?AVQString@@PEBD0@Z
?tr@QMimeData@@SA?AVQString@@PEBD0H@Z
?tr@QNonContiguousByteDevice@@SA?AVQString@@PEBD0@Z
?tr@QNonContiguousByteDevice@@SA?AVQString@@PEBD0H@Z
?tr@QObject@@SA?AVQString@@PEBD0@Z
?tr@QObject@@SA?AVQString@@PEBD0H@Z
?tr@QObjectCleanupHandler@@SA?AVQString@@PEBD0@Z
?tr@QObjectCleanupHandler@@SA?AVQString@@PEBD0H@Z
?tr@QParallelAnimationGroup@@SA?AVQString@@PEBD0@Z
?tr@QParallelAnimationGroup@@SA?AVQString@@PEBD0H@Z
?tr@QPauseAnimation@@SA?AVQString@@PEBD0@Z
?tr@QPauseAnimation@@SA?AVQString@@PEBD0H@Z
?tr@QPluginLoader@@SA?AVQString@@PEBD0@Z
?tr@QPluginLoader@@SA?AVQString@@PEBD0H@Z
?tr@QProcess@@SA?AVQString@@PEBD0@Z
?tr@QProcess@@SA?AVQString@@PEBD0H@Z
?tr@QPropertyAnimation@@SA?AVQString@@PEBD0@Z
?tr@QPropertyAnimation@@SA?AVQString@@PEBD0H@Z
?tr@QSequentialAnimationGroup@@SA?AVQString@@PEBD0@Z
?tr@QSequentialAnimationGroup@@SA?AVQString@@PEBD0H@Z
?tr@QSettings@@SA?AVQString@@PEBD0@Z
?tr@QSettings@@SA?AVQString@@PEBD0H@Z
?tr@QSharedMemory@@SA?AVQString@@PEBD0@Z
?tr@QSharedMemory@@SA?AVQString@@PEBD0H@Z
?tr@QSignalMapper@@SA?AVQString@@PEBD0@Z
?tr@QSignalMapper@@SA?AVQString@@PEBD0H@Z
?tr@QSignalTransition@@SA?AVQString@@PEBD0@Z
?tr@QSignalTransition@@SA?AVQString@@PEBD0H@Z
?tr@QSocketNotifier@@SA?AVQString@@PEBD0@Z
?tr@QSocketNotifier@@SA?AVQString@@PEBD0H@Z
?tr@QState@@SA?AVQString@@PEBD0@Z
?tr@QState@@SA?AVQString@@PEBD0H@Z
?tr@QStateMachine@@SA?AVQString@@PEBD0@Z
?tr@QStateMachine@@SA?AVQString@@PEBD0H@Z
?tr@QTemporaryFile@@SA?AVQString@@PEBD0@Z
?tr@QTemporaryFile@@SA?AVQString@@PEBD0H@Z
?tr@QTextCodecPlugin@@SA?AVQString@@PEBD0@Z
?tr@QTextCodecPlugin@@SA?AVQString@@PEBD0H@Z
?tr@QThread@@SA?AVQString@@PEBD0@Z
?tr@QThread@@SA?AVQString@@PEBD0H@Z
?tr@QThreadPool@@SA?AVQString@@PEBD0@Z
?tr@QThreadPool@@SA?AVQString@@PEBD0H@Z
?tr@QTimeLine@@SA?AVQString@@PEBD0@Z
?tr@QTimeLine@@SA?AVQString@@PEBD0H@Z
?tr@QTimer@@SA?AVQString@@PEBD0@Z
?tr@QTimer@@SA?AVQString@@PEBD0H@Z
?tr@QTranslator@@SA?AVQString@@PEBD0@Z
?tr@QTranslator@@SA?AVQString@@PEBD0H@Z
?tr@QVariantAnimation@@SA?AVQString@@PEBD0@Z
?tr@QVariantAnimation@@SA?AVQString@@PEBD0H@Z
?tr@QWinEventNotifier@@SA?AVQString@@PEBD0@Z
?tr@QWinEventNotifier@@SA?AVQString@@PEBD0H@Z
?tr@QWindowsPipeWriter@@SA?AVQString@@PEBD0@Z
?tr@QWindowsPipeWriter@@SA?AVQString@@PEBD0H@Z
?trUtf8@QAbstractAnimation@@SA?AVQString@@PEBD0@Z
?trUtf8@QAbstractAnimation@@SA?AVQString@@PEBD0H@Z
?trUtf8@QAbstractEventDispatcher@@SA?AVQString@@PEBD0@Z
?trUtf8@QAbstractEventDispatcher@@SA?AVQString@@PEBD0H@Z
?trUtf8@QAbstractItemModel@@SA?AVQString@@PEBD0@Z
?trUtf8@QAbstractItemModel@@SA?AVQString@@PEBD0H@Z
?trUtf8@QAbstractListModel@@SA?AVQString@@PEBD0@Z
?trUtf8@QAbstractListModel@@SA?AVQString@@PEBD0H@Z
?trUtf8@QAbstractState@@SA?AVQString@@PEBD0@Z
?trUtf8@QAbstractState@@SA?AVQString@@PEBD0H@Z
?trUtf8@QAbstractTableModel@@SA?AVQString@@PEBD0@Z
?trUtf8@QAbstractTableModel@@SA?AVQString@@PEBD0H@Z
?trUtf8@QAbstractTransition@@SA?AVQString@@PEBD0@Z
?trUtf8@QAbstractTransition@@SA?AVQString@@PEBD0H@Z
?trUtf8@QAnimationDriver@@SA?AVQString@@PEBD0@Z
?trUtf8@QAnimationDriver@@SA?AVQString@@PEBD0H@Z
?trUtf8@QAnimationGroup@@SA?AVQString@@PEBD0@Z
?trUtf8@QAnimationGroup@@SA?AVQString@@PEBD0H@Z
?trUtf8@QBuffer@@SA?AVQString@@PEBD0@Z
?trUtf8@QBuffer@@SA?AVQString@@PEBD0H@Z
?trUtf8@QCoreApplication@@SA?AVQString@@PEBD0@Z
?trUtf8@QCoreApplication@@SA?AVQString@@PEBD0H@Z
?trUtf8@QEventDispatcherWin32@@SA?AVQString@@PEBD0@Z
?trUtf8@QEventDispatcherWin32@@SA?AVQString@@PEBD0H@Z
?trUtf8@QEventLoop@@SA?AVQString@@PEBD0@Z
?trUtf8@QEventLoop@@SA?AVQString@@PEBD0H@Z
?trUtf8@QEventTransition@@SA?AVQString@@PEBD0@Z
?trUtf8@QEventTransition@@SA?AVQString@@PEBD0H@Z
?trUtf8@QFactoryLoader@@SA?AVQString@@PEBD0@Z
?trUtf8@QFactoryLoader@@SA?AVQString@@PEBD0H@Z
?trUtf8@QFile@@SA?AVQString@@PEBD0@Z
?trUtf8@QFile@@SA?AVQString@@PEBD0H@Z
?trUtf8@QFileSystemWatcher@@SA?AVQString@@PEBD0@Z
?trUtf8@QFileSystemWatcher@@SA?AVQString@@PEBD0H@Z
?trUtf8@QFinalState@@SA?AVQString@@PEBD0@Z
?trUtf8@QFinalState@@SA?AVQString@@PEBD0H@Z
?trUtf8@QFutureWatcherBase@@SA?AVQString@@PEBD0@Z
?trUtf8@QFutureWatcherBase@@SA?AVQString@@PEBD0H@Z
?trUtf8@QHistoryState@@SA?AVQString@@PEBD0@Z
?trUtf8@QHistoryState@@SA?AVQString@@PEBD0H@Z
?trUtf8@QIODevice@@SA?AVQString@@PEBD0@Z
?trUtf8@QIODevice@@SA?AVQString@@PEBD0H@Z
?trUtf8@QLibrary@@SA?AVQString@@PEBD0@Z
?trUtf8@QLibrary@@SA?AVQString@@PEBD0H@Z
?trUtf8@QMetaObject@@QEBA?AVQString@@PEBD0@Z
?trUtf8@QMetaObject@@QEBA?AVQString@@PEBD0H@Z
?trUtf8@QMimeData@@SA?AVQString@@PEBD0@Z
?trUtf8@QMimeData@@SA?AVQString@@PEBD0H@Z
?trUtf8@QNonContiguousByteDevice@@SA?AVQString@@PEBD0@Z
?trUtf8@QNonContiguousByteDevice@@SA?AVQString@@PEBD0H@Z
?trUtf8@QObject@@SA?AVQString@@PEBD0@Z
?trUtf8@QObject@@SA?AVQString@@PEBD0H@Z
?trUtf8@QObjectCleanupHandler@@SA?AVQString@@PEBD0@Z
?trUtf8@QObjectCleanupHandler@@SA?AVQString@@PEBD0H@Z
?trUtf8@QParallelAnimationGroup@@SA?AVQString@@PEBD0@Z
?trUtf8@QParallelAnimationGroup@@SA?AVQString@@PEBD0H@Z
?trUtf8@QPauseAnimation@@SA?AVQString@@PEBD0@Z
?trUtf8@QPauseAnimation@@SA?AVQString@@PEBD0H@Z
?trUtf8@QPluginLoader@@SA?AVQString@@PEBD0@Z
?trUtf8@QPluginLoader@@SA?AVQString@@PEBD0H@Z
?trUtf8@QProcess@@SA?AVQString@@PEBD0@Z
?trUtf8@QProcess@@SA?AVQString@@PEBD0H@Z
?trUtf8@QPropertyAnimation@@SA?AVQString@@PEBD0@Z
?trUtf8@QPropertyAnimation@@SA?AVQString@@PEBD0H@Z
?trUtf8@QSequentialAnimationGroup@@SA?AVQString@@PEBD0@Z
?trUtf8@QSequentialAnimationGroup@@SA?AVQString@@PEBD0H@Z
?trUtf8@QSettings@@SA?AVQString@@PEBD0@Z
?trUtf8@QSettings@@SA?AVQString@@PEBD0H@Z
?trUtf8@QSharedMemory@@SA?AVQString@@PEBD0@Z
?trUtf8@QSharedMemory@@SA?AVQString@@PEBD0H@Z
?trUtf8@QSignalMapper@@SA?AVQString@@PEBD0@Z
?trUtf8@QSignalMapper@@SA?AVQString@@PEBD0H@Z
?trUtf8@QSignalTransition@@SA?AVQString@@PEBD0@Z
?trUtf8@QSignalTransition@@SA?AVQString@@PEBD0H@Z
?trUtf8@QSocketNotifier@@SA?AVQString@@PEBD0@Z
?trUtf8@QSocketNotifier@@SA?AVQString@@PEBD0H@Z
?trUtf8@QState@@SA?AVQString@@PEBD0@Z
?trUtf8@QState@@SA?AVQString@@PEBD0H@Z
?trUtf8@QStateMachine@@SA?AVQString@@PEBD0@Z
?trUtf8@QStateMachine@@SA?AVQString@@PEBD0H@Z
?trUtf8@QTemporaryFile@@SA?AVQString@@PEBD0@Z
?trUtf8@QTemporaryFile@@SA?AVQString@@PEBD0H@Z
?trUtf8@QTextCodecPlugin@@SA?AVQString@@PEBD0@Z
?trUtf8@QTextCodecPlugin@@SA?AVQString@@PEBD0H@Z
?trUtf8@QThread@@SA?AVQString@@PEBD0@Z
?trUtf8@QThread@@SA?AVQString@@PEBD0H@Z
?trUtf8@QThreadPool@@SA?AVQString@@PEBD0@Z
?trUtf8@QThreadPool@@SA?AVQString@@PEBD0H@Z
?trUtf8@QTimeLine@@SA?AVQString@@PEBD0@Z
?trUtf8@QTimeLine@@SA?AVQString@@PEBD0H@Z
?trUtf8@QTimer@@SA?AVQString@@PEBD0@Z
?trUtf8@QTimer@@SA?AVQString@@PEBD0H@Z
?trUtf8@QTranslator@@SA?AVQString@@PEBD0@Z
?trUtf8@QTranslator@@SA?AVQString@@PEBD0H@Z
?trUtf8@QVariantAnimation@@SA?AVQString@@PEBD0@Z
?trUtf8@QVariantAnimation@@SA?AVQString@@PEBD0H@Z
?trUtf8@QWinEventNotifier@@SA?AVQString@@PEBD0@Z
?trUtf8@QWinEventNotifier@@SA?AVQString@@PEBD0H@Z
?trUtf8@QWindowsPipeWriter@@SA?AVQString@@PEBD0@Z
?trUtf8@QWindowsPipeWriter@@SA?AVQString@@PEBD0H@Z
?transitions@QState@@QEBA?AV?$QList@PEAVQAbstractTransition@@@@XZ
?transitions@QStatePrivate@@QEBA?AV?$QList@PEAVQAbstractTransition@@@@XZ
?translate@QCoreApplication@@SA?AVQString@@PEBD00W4Encoding@1@@Z
?translate@QCoreApplication@@SA?AVQString@@PEBD00W4Encoding@1@H@Z
?translate@QLine@@QEAAXAEBVQPoint@@@Z
?translate@QLine@@QEAAXHH@Z
?translate@QLineF@@QEAAXAEBVQPointF@@@Z
?translate@QLineF@@QEAAXNN@Z
?translate@QRect@@QEAAXAEBVQPoint@@@Z
?translate@QRect@@QEAAXHH@Z
?translate@QRectF@@QEAAXAEBVQPointF@@@Z
?translate@QRectF@@QEAAXNN@Z
?translate@QTranslator@@QEBA?AVQString@@PEBD00H@Z
?translate@QTranslator@@UEBA?AVQString@@PEBD00@Z
?translated@QLine@@QEBA?AV1@AEBVQPoint@@@Z
?translated@QLine@@QEBA?AV1@HH@Z
?translated@QLineF@@QEBA?AV1@AEBVQPointF@@@Z
?translated@QLineF@@QEBA?AV1@NN@Z
?translated@QRect@@QEBA?AV1@AEBVQPoint@@@Z
?translated@QRect@@QEBA?AV1@HH@Z
?translated@QRectF@@QEBA?AV1@AEBVQPointF@@@Z
?translated@QRectF@@QEBA?AV1@NN@Z
?transpose@QSize@@QEAAXXZ
?transpose@QSizeF@@QEAAXXZ
?triggered@QAbstractTransition@@AEAAXXZ
?trimmed@QByteArray@@QEBA?AV1@XZ
?trimmed@QString@@QEBA?AV1@XZ
?trolltechConf@QCoreApplicationPrivate@@SAPEAVQSettings@@XZ
?truncate@QBitArray@@QEAAXH@Z
?truncate@QByteArray@@QEAAXH@Z
?truncate@QString@@QEAAXH@Z
?tryAcquire@QSemaphore@@QEAA_NH@Z
?tryAcquire@QSemaphore@@QEAA_NHH@Z
?tryLock@QMutex@@QEAA_NH@Z
?tryLock@QMutex@@QEAA_NXZ
?tryLockForRead@QReadWriteLock@@QEAA_NH@Z
?tryLockForRead@QReadWriteLock@@QEAA_NXZ
?tryLockForWrite@QReadWriteLock@@QEAA_NH@Z
?tryLockForWrite@QReadWriteLock@@QEAA_NXZ
?tryLockInline@QMutex@@QEAA_NXZ
?tryLocker@QSharedMemoryPrivate@@QEAA_NPEAVQSharedMemoryLocker@@AEBVQString@@@Z
?tryStart@QThreadPool@@QEAA_NPEAVQRunnable@@@Z
?type@QEasingCurve@@QEBA?AW4Type@1@XZ
?type@QEvent@@QEBA?AW4Type@1@XZ
?type@QMetaProperty@@QEBA?AW4Type@QVariant@@XZ
?type@QMetaType@@SAHPEBD@Z
?type@QSocketNotifier@@QEBA?AW4Type@1@XZ
?type@QTextBoundaryFinder@@QEBA?AW4BoundaryType@1@XZ
?type@QVariant@@QEBA?AW4Type@1@XZ
?typeName@QMetaMethod@@QEBAPEBDXZ
?typeName@QMetaProperty@@QEBAPEBDXZ
?typeName@QMetaType@@SAPEBDH@Z
?typeName@QVariant@@QEBAPEBDXZ
?typeToName@QVariant@@SAPEBDW4Type@1@@Z
?uiLanguages@QLocale@@QEBA?AVQStringList@@XZ
?ungetChar@QIODevice@@QEAAXD@Z
?unicode@QChar@@QEAAAEAGXZ
?unicode@QChar@@QEBA?BGXZ
?unicode@QCharRef@@QEAAAEAGXZ
?unicode@QCharRef@@QEBA?BGXZ
?unicode@QString@@QEBAPEBVQChar@@XZ
?unicode@QStringRef@@QEBAPEBVQChar@@XZ
?unicodeVersion@QChar@@QEBA?AW4UnicodeVersion@1@XZ
?unicodeVersion@QChar@@SA?AW4UnicodeVersion@1@G@Z
?unicodeVersion@QChar@@SA?AW4UnicodeVersion@1@I@Z
?unicodeVersion@QCharRef@@QEBA?AW4UnicodeVersion@QChar@@XZ
?unitVector@QLineF@@QEBA?AV1@XZ
?unite@QRect@@QEBA?AV1@AEBV1@@Z
?unite@QRectF@@QEBA?AV1@AEBV1@@Z
?united@QRect@@QEBA?AV1@AEBV1@@Z
?united@QRectF@@QEBA?AV1@AEBV1@@Z
?unixSignal@QCoreApplication@@IEAAXH@Z
?unload@QLibrary@@QEAA_NXZ
?unload@QPluginLoader@@QEAA_NXZ
?unlock@QMutex@@QEAAXXZ
?unlock@QMutexLocker@@QEAAXXZ
?unlock@QReadLocker@@QEAAXXZ
?unlock@QReadWriteLock@@QEAAXXZ
?unlock@QSharedMemory@@QEAA_NXZ
?unlock@QWriteLocker@@QEAAXXZ
?unlockInline@QMutex@@QEAAXXZ
?unlockInternal@QMutex@@AEAAXXZ
?unmap@QAbstractFileEngine@@QEAA_NPEAE@Z
?unmap@QFSFileEnginePrivate@@QEAA_NPEAE@Z
?unmap@QFile@@QEAA_NPEAE@Z
?unregister@QEventTransitionPrivate@@QEAAXXZ
?unregisterAllTransitions@QStateMachinePrivate@@QEAAXXZ
?unregisterAnimation@QUnifiedTimer@@SAXPEAVQAbstractAnimation@@@Z
?unregisterCallback@QInternal@@SA_NW4Callback@1@P6A_NPEAPEAX@Z@Z
?unregisterEventNotifier@QEventDispatcherWin32@@QEAAXPEAVQWinEventNotifier@@@Z
?unregisterEventTransition@QStateMachinePrivate@@QEAAXPEAVQEventTransition@@@Z
?unregisterResource@QResource@@SA_NAEBVQString@@0@Z
?unregisterResource@QResource@@SA_NPEBEAEBVQString@@@Z
?unregisterRestorable@QStateMachinePrivate@@QEAAXPEAVQObject@@AEBVQByteArray@@@Z
?unregisterRunningAnimation@QUnifiedTimer@@AEAAXPEAVQAbstractAnimation@@@Z
?unregisterSignalTransition@QStateMachinePrivate@@QEAAXPEAVQSignalTransition@@@Z
?unregisterSocketNotifier@QEventDispatcherWin32@@UEAAXPEAVQSocketNotifier@@@Z
?unregisterTimer@QEventDispatcherWin32@@UEAA_NH@Z
?unregisterTimers@QEventDispatcherWin32@@UEAA_NPEAVQObject@@@Z
?unregisterTransition@QStateMachinePrivate@@QEAAXPEAVQAbstractTransition@@@Z
?unregisterType@QMetaType@@SAXPEBD@Z
?unsLongLongToString@QLocalePrivate@@QEBA?AVQString@@_KHHHI@Z
?unsLongLongToString@QLocalePrivate@@SA?AVQString@@VQChar@@00_KHHHI@Z
?unsetDevice@QDataStream@@QEAAXXZ
?unsetError@QFile@@QEAAXXZ
?update@QFactoryLoader@@QEAAXXZ
?update@QSettingsPrivate@@QEAAXXZ
?updateAnimationTimer@QUnifiedTimer@@SAXXZ
?updateAnimationsTime@QUnifiedTimer@@QEAAXXZ
?updateCurrentTime@QParallelAnimationGroup@@MEAAXH@Z
?updateCurrentTime@QPauseAnimation@@MEAAXH@Z
?updateCurrentTime@QSequentialAnimationGroup@@MEAAXH@Z
?updateCurrentTime@QVariantAnimation@@MEAAXH@Z
?updateCurrentValue@QPropertyAnimation@@MEAAXAEBVQVariant@@@Z
?updateDir@QFactoryLoader@@QEAAXAEBVQString@@AEAVQSettings@@@Z
?updateDirection@QAbstractAnimation@@MEAAXW4Direction@1@@Z
?updateDirection@QParallelAnimationGroup@@MEAAXW4Direction@QAbstractAnimation@@@Z
?updateDirection@QSequentialAnimationGroup@@MEAAXW4Direction@QAbstractAnimation@@@Z
?updateInsertIndex@ResultStoreBase@QtConcurrent@@IEAAHHH@Z
?updateInterval@QTimeLine@@QEBAHXZ
?updateProperties@QString@@AEBAXXZ
?updateState@QAbstractAnimation@@MEAAXW4State@1@0@Z
?updateState@QParallelAnimationGroup@@MEAAXW4State@QAbstractAnimation@@0@Z
?updateState@QPropertyAnimation@@MEAAXW4State@QAbstractAnimation@@0@Z
?updateState@QSequentialAnimationGroup@@MEAAXW4State@QAbstractAnimation@@0@Z
?updateState@QVariantAnimation@@MEAAXW4State@QAbstractAnimation@@0@Z
?updateSystemPrivate@QLocalePrivate@@SAXXZ
?uppercasebase@@YAAEAVQTextStream@@AEAV1@@Z
?uppercasedigits@@YAAEAVQTextStream@@AEAV1@@Z
?urls@QMimeData@@QEBA?AV?$QList@VQUrl@@@@XZ
?userData@QObject@@QEBAPEAVQObjectUserData@@I@Z
?userInfo@QUrl@@QEBA?AVQString@@XZ
?userName@QUrl@@QEBA?AVQString@@XZ
?userProperty@QMetaObject@@QEBA?AVQMetaProperty@@XZ
?userType@QMetaProperty@@QEBAHXZ
?userType@QVariant@@QEBAHXZ
?usleep@QThread@@KAXK@Z
?utcOffset@QDateTime@@QEBAHXZ
?utf16@QString@@QEBAPEBGXZ
?validCodecs@QTextCodec@@CA_NXZ
?validateChars@QLocalePrivate@@QEBA_NAEBVQString@@W4NumberMode@1@PEAVQByteArray@@H@Z
?value@?$QVector@VQPoint@@@@QEBA?AVQPoint@@H@Z
?value@?$QVector@VQPoint@@@@QEBA?AVQPoint@@HAEBV2@@Z
?value@?$QVector@VQPointF@@@@QEBA?AVQPointF@@H@Z
?value@?$QVector@VQPointF@@@@QEBA?AVQPointF@@HAEBV2@@Z
?value@?$QVector@VQXmlStreamAttribute@@@@QEBA?AVQXmlStreamAttribute@@H@Z
?value@?$QVector@VQXmlStreamAttribute@@@@QEBA?AVQXmlStreamAttribute@@HAEBV2@@Z
?value@QMetaClassInfo@@QEBAPEBDXZ
?value@QMetaEnum@@QEBAHH@Z
?value@QProcessEnvironment@@QEBA?AVQString@@AEBV2@0@Z
?value@QSettings@@QEBA?AVQVariant@@AEBVQString@@AEBV2@@Z
?value@QXmlStreamAttribute@@QEBA?AVQStringRef@@XZ
?value@QXmlStreamAttributes@@QEBA?AVQStringRef@@AEBVQLatin1String@@0@Z
?value@QXmlStreamAttributes@@QEBA?AVQStringRef@@AEBVQLatin1String@@@Z
?value@QXmlStreamAttributes@@QEBA?AVQStringRef@@AEBVQString@@0@Z
?value@QXmlStreamAttributes@@QEBA?AVQStringRef@@AEBVQString@@@Z
?value@QXmlStreamAttributes@@QEBA?AVQStringRef@@AEBVQString@@AEBVQLatin1String@@@Z
?value@QXmlStreamEntityDeclaration@@QEBA?AVQStringRef@@XZ
?valueChanged@QTimeLine@@IEAAXN@Z
?valueChanged@QVariantAnimation@@IEAAXAEBVQVariant@@@Z
?valueForProgress@QEasingCurve@@QEBANN@Z
?valueForTime@QTimeLine@@UEBANH@Z
?valueToKey@QMetaEnum@@QEBAPEBDH@Z
?valueToKeys@QMetaEnum@@QEBA?AVQByteArray@@H@Z
?variant@QUuid@@QEBA?AW4Variant@1@XZ
?variantLessThan@QAbstractItemModelPrivate@@SA_NAEBVQVariant@@0@Z
?variantListToStringList@QSettingsPrivate@@SA?AVQStringList@@AEBV?$QList@VQVariant@@@@@Z
?variantToString@QSettingsPrivate@@SA?AVQString@@AEBVQVariant@@@Z
?vectorIndex@ResultIteratorBase@QtConcurrent@@QEBAHXZ
?version@QDataStream@@QEBAHXZ
?version@QUuid@@QEBA?AW4Version@1@XZ
?vsprintf@QString@@QEAAAEAV1@PEBDPEAD@Z
?wait@QThread@@QEAA_NK@Z
?wait@QWaitCondition@@QEAA_NPEAVQMutex@@K@Z
?wait@QWaitCondition@@QEAA_NPEAVQReadWriteLock@@K@Z
?waitForBytesWritten@QIODevice@@UEAA_NH@Z
?waitForBytesWritten@QProcess@@UEAA_NH@Z
?waitForDone@QThreadPool@@QEAAXXZ
?waitForDone@QThreadPool@@QEAA_NH@Z
?waitForFinished@QFutureInterfaceBase@@QEAAXXZ
?waitForFinished@QFutureWatcherBase@@QEAAXXZ
?waitForFinished@QProcess@@QEAA_NH@Z
?waitForNextResult@QFutureInterfaceBase@@QEAA_NXZ
?waitForReadyRead@QIODevice@@UEAA_NH@Z
?waitForReadyRead@QProcess@@UEAA_NH@Z
?waitForResult@QFutureInterfaceBase@@QEAAXH@Z
?waitForResume@QFutureInterfaceBase@@QEAAXXZ
?waitForResume@ThreadEngineBase@QtConcurrent@@QEAAXXZ
?waitForStarted@QProcess@@QEAA_NH@Z
?waitForWrite@QWindowsPipeWriter@@QEAA_NH@Z
?wakeAll@QWaitCondition@@QEAAXXZ
?wakeOne@QWaitCondition@@QEAAXXZ
?wakeUp@QEventDispatcherWin32@@UEAAXXZ
?wakeUp@QEventLoop@@QEAAXXZ
?weekNumber@QDate@@QEBAHPEAH@Z
?weekdays@QLocale@@QEBA?AV?$QList@W4DayOfWeek@Qt@@@@XZ
?width@QRect@@QEBAHXZ
?width@QRectF@@QEBANXZ
?width@QSize@@QEBAHXZ
?width@QSizeF@@QEBANXZ
?willGrow@QHashData@@QEAA_NXZ
?winEventFilter@QCoreApplication@@UEAA_NPEAUtagMSG@@PEAJ@Z
?winGetMessage@@YA_NPEAUtagMSG@@PEAUHWND__@@II@Z
?winPeekMessage@@YA_NPEAUtagMSG@@PEAUHWND__@@III@Z
?winPostMessage@@YA_NPEAUHWND__@@I_K_J@Z
?windowsVersion@QSysInfo@@SA?AW4WinVersion@1@XZ
?workingDirectory@QProcess@@QEBA?AVQString@@XZ
?wrap@QNonContiguousByteDeviceFactory@@SAPEAVQIODevice@@PEAVQNonContiguousByteDevice@@@Z
?write@QAbstractFileEngine@@UEAA_JPEBD_J@Z
?write@QFSFileEngine@@UEAA_JPEBD_J@Z
?write@QIODevice@@QEAA_JAEBVQByteArray@@@Z
?write@QIODevice@@QEAA_JPEBD@Z
?write@QIODevice@@QEAA_JPEBD_J@Z
?write@QMetaProperty@@QEBA_NPEAVQObject@@AEBVQVariant@@@Z
?write@QWindowsPipeWriter@@QEAA_JPEBD_J@Z
?writeAttribute@QXmlStreamWriter@@QEAAXAEBVQString@@00@Z
?writeAttribute@QXmlStreamWriter@@QEAAXAEBVQString@@0@Z
?writeAttribute@QXmlStreamWriter@@QEAAXAEBVQXmlStreamAttribute@@@Z
?writeAttributes@QXmlStreamWriter@@QEAAXAEBVQXmlStreamAttributes@@@Z
?writeBytes@QDataStream@@QEAAAEAV1@PEBDI@Z
?writeCDATA@QXmlStreamWriter@@QEAAXAEBVQString@@@Z
?writeCharacters@QXmlStreamWriter@@QEAAXAEBVQString@@@Z
?writeComment@QXmlStreamWriter@@QEAAXAEBVQString@@@Z
?writeCurrentToken@QXmlStreamWriter@@QEAAXAEBVQXmlStreamReader@@@Z
?writeDTD@QXmlStreamWriter@@QEAAXAEBVQString@@@Z
?writeData@QBuffer@@MEAA_JPEBD_J@Z
?writeData@QFile@@MEAA_JPEBD_J@Z
?writeData@QProcess@@MEAA_JPEBD_J@Z
?writeDefaultNamespace@QXmlStreamWriter@@QEAAXAEBVQString@@@Z
?writeEmptyElement@QXmlStreamWriter@@QEAAXAEBVQString@@0@Z
?writeEmptyElement@QXmlStreamWriter@@QEAAXAEBVQString@@@Z
?writeEndDocument@QXmlStreamWriter@@QEAAXXZ
?writeEndElement@QXmlStreamWriter@@QEAAXXZ
?writeEntityReference@QXmlStreamWriter@@QEAAXAEBVQString@@@Z
?writeFdFh@QFSFileEnginePrivate@@QEAA_JPEBD_J@Z
?writeNamespace@QXmlStreamWriter@@QEAAXAEBVQString@@0@Z
?writeProcessingInstruction@QXmlStreamWriter@@QEAAXAEBVQString@@0@Z
?writeRawData@QDataStream@@QEAAHPEBDH@Z
?writeStartDocument@QXmlStreamWriter@@QEAAXAEBVQString@@@Z
?writeStartDocument@QXmlStreamWriter@@QEAAXAEBVQString@@_N@Z
?writeStartDocument@QXmlStreamWriter@@QEAAXXZ
?writeStartElement@QXmlStreamWriter@@QEAAXAEBVQString@@0@Z
?writeStartElement@QXmlStreamWriter@@QEAAXAEBVQString@@@Z
?writeTextElement@QXmlStreamWriter@@QEAAXAEBVQString@@00@Z
?writeTextElement@QXmlStreamWriter@@QEAAXAEBVQString@@0@Z
?ws@@YAAEAVQTextStream@@AEAV1@@Z
?x1@QLine@@QEBAHXZ
?x1@QLineF@@QEBANXZ
?x2@QLine@@QEBAHXZ
?x2@QLineF@@QEBANXZ
?x@QPoint@@QEBAHXZ
?x@QPointF@@QEBANXZ
?x@QRect@@QEBAHXZ
?x@QRectF@@QEBANXZ
?y1@QLine@@QEBAHXZ
?y1@QLineF@@QEBANXZ
?y2@QLine@@QEBAHXZ
?y2@QLineF@@QEBANXZ
?y@QPoint@@QEBAHXZ
?y@QPointF@@QEBANXZ
?y@QRect@@QEBAHXZ
?y@QRectF@@QEBANXZ
?year@QDate@@QEBAHXZ
?yieldCurrentThread@QThread@@SAXXZ
?zero@QLocalePrivate@@QEBA?AVQChar@@XZ
?zeroDigit@QLocale@@QEBA?AVQChar@@XZ
adler32
adler32_combine
adler32_combine64
compress
compress2
compressBound
crc32
crc32_combine
crc32_combine64
deflate
deflateBound
deflateCopy
deflateEnd
deflateInit2_
deflateInit_
deflateParams
deflatePrime
deflateReset
deflateSetDictionary
deflateSetHeader
deflateTune
get_crc_table
gzbuffer
gzclearerr
gzclose
gzclose_r
gzclose_w
gzdirect
gzdopen
gzeof
gzerror
gzflush
gzgetc
gzgets
gzoffset
gzoffset64
gzopen
gzopen64
gzprintf
gzputc
gzputs
gzread
gzrewind
gzseek
gzseek64
gzsetparams
gztell
gztell64
gzungetc
gzwrite
inflate
inflateBack
inflateBackEnd
inflateBackInit_
inflateCopy
inflateEnd
inflateGetHeader
inflateInit2_
inflateInit_
inflateMark
inflatePrime
inflateReset
inflateReset2
inflateSetDictionary
inflateSync
inflateSyncPoint
inflateUndermine
qt_addObject
qt_removeObject
qt_startup_hook
uncompress
zError
zlibCompileFlags
zlibVersion