Microsoft (R) COFF/PE Dumper Version 14.10.25019.0
Copyright (C) Microsoft Corporation.  All rights reserved.


Dump of file QtGui4.dll

File Type: DLL

  Section contains the following exports for QtGui4.dll

    00000000 characteristics
    53CE53FF time date stamp Tue Jul 22 08:07:27 2014
        0.00 version
           1 ordinal base
       16038 number of functions
       16038 number of names

    ordinal hint RVA      name

          1    0 0032E2F0 ??0?$QList@VQItemSelectionRange@@@@QEAA@AEBV0@@Z
          2    1 0032E330 ??0?$QList@VQItemSelectionRange@@@@QEAA@XZ
          3    2 00019980 ??0Declaration@QCss@@QEAA@AEBU01@@Z
          4    3 000199B0 ??0Declaration@QCss@@QEAA@XZ
          5    4 002EE860 ??0FileInfo@QZipReader@@QEAA@AEBU01@@Z
          6    5 002EE8C0 ??0FileInfo@QZipReader@@QEAA@XZ
          7    6 000F7A80 ??0Key@QPixmapCache@@QEAA@AEBV01@@Z
          8    7 000F7AA0 ??0Key@QPixmapCache@@QEAA@XZ
          9    8 00019C90 ??0Parser@QCss@@QEAA@AEBV01@@Z
         10    9 002DAC60 ??0Parser@QCss@@QEAA@AEBVQString@@_N@Z
         11    A 002DACD0 ??0Parser@QCss@@QEAA@XZ
         12    B 003C6240 ??0QAbstractButton@@IEAA@AEAVQAbstractButtonPrivate@@PEAVQWidget@@@Z
         13    C 003C62A0 ??0QAbstractButton@@QEAA@PEAVQWidget@@@Z
         14    D 005D0C90 ??0QAbstractGraphicsShapeItem@@IEAA@AEAVQAbstractGraphicsShapeItemPrivate@@PEAVQGraphicsItem@@PEAVQGraphicsScene@@@Z
         15    E 005D0CC0 ??0QAbstractGraphicsShapeItem@@QEAA@PEAVQGraphicsItem@@PEAVQGraphicsScene@@@Z
         16    F 0055E5A0 ??0QAbstractItemDelegate@@IEAA@AEAVQObjectPrivate@@PEAVQObject@@@Z
         17   10 0055E5D0 ??0QAbstractItemDelegate@@QEAA@PEAVQObject@@@Z
         18   11 00511F40 ??0QAbstractItemView@@IEAA@AEAVQAbstractItemViewPrivate@@PEAVQWidget@@@Z
         19   12 00511F90 ??0QAbstractItemView@@QEAA@PEAVQWidget@@@Z
         20   13 00512010 ??0QAbstractItemViewPrivate@@QEAA@XZ
         21   14 004B7760 ??0QAbstractPageSetupDialog@@QEAA@AEAVQAbstractPageSetupDialogPrivate@@PEAVQPrinter@@PEAVQWidget@@@Z
         22   15 004B7810 ??0QAbstractPageSetupDialog@@QEAA@PEAVQPrinter@@PEAVQWidget@@@Z
         23   16 004B6F10 ??0QAbstractPrintDialog@@IEAA@AEAVQAbstractPrintDialogPrivate@@PEAVQPrinter@@PEAVQWidget@@@Z
         24   17 004B7000 ??0QAbstractPrintDialog@@QEAA@PEAVQPrinter@@PEAVQWidget@@@Z
         25   18 0059A600 ??0QAbstractProxyModel@@IEAA@AEAVQAbstractProxyModelPrivate@@PEAVQObject@@@Z
         26   19 0059A650 ??0QAbstractProxyModel@@QEAA@PEAVQObject@@@Z
         27   1A 00487B90 ??0QAbstractScrollArea@@IEAA@AEAVQAbstractScrollAreaPrivate@@PEAVQWidget@@@Z
         28   1B 00487BF0 ??0QAbstractScrollArea@@QEAA@PEAVQWidget@@@Z
         29   1C 00487D00 ??0QAbstractScrollAreaPrivate@@QEAA@XZ
         30   1D 003C9A60 ??0QAbstractSlider@@IEAA@AEAVQAbstractSliderPrivate@@PEAVQWidget@@@Z
         31   1E 003C9AA0 ??0QAbstractSlider@@QEAA@PEAVQWidget@@@Z
         32   1F 003CB2B0 ??0QAbstractSpinBox@@IEAA@AEAVQAbstractSpinBoxPrivate@@PEAVQWidget@@@Z
         33   20 003CB310 ??0QAbstractSpinBox@@QEAA@PEAVQWidget@@@Z
         34   21 002B1810 ??0QAbstractTextDocumentLayout@@IEAA@AEAVQAbstractTextDocumentLayoutPrivate@@PEAVQTextDocument@@@Z
         35   22 002B1890 ??0QAbstractTextDocumentLayout@@QEAA@PEAVQTextDocument@@@Z
         36   23 0005E560 ??0QAbstractUndoItem@@QEAA@AEBV0@@Z
         37   24 0005E570 ??0QAbstractUndoItem@@QEAA@XZ
         38   25 00506C30 ??0QAccessible2Interface@@QEAA@AEBV0@@Z
         39   26 00506C40 ??0QAccessible2Interface@@QEAA@XZ
         40   27 00506C50 ??0QAccessibleActionInterface@@QEAA@AEBV0@@Z
         41   28 00506C60 ??0QAccessibleActionInterface@@QEAA@XZ
         42   29 00507DF0 ??0QAccessibleApplication@@QEAA@XZ
         43   2A 00506C70 ??0QAccessibleEditableTextInterface@@QEAA@AEBV0@@Z
         44   2B 00506C80 ??0QAccessibleEditableTextInterface@@QEAA@XZ
         45   2C 00019DB0 ??0QAccessibleEvent@@QEAA@AEBV0@@Z
         46   2D 00019E10 ??0QAccessibleEvent@@QEAA@W4Type@QEvent@@H@Z
         47   2E 00505D20 ??0QAccessibleFactoryInterface@@QEAA@AEBU0@@Z
         48   2F 00505D30 ??0QAccessibleFactoryInterface@@QEAA@XZ
         49   30 00506C90 ??0QAccessibleImageInterface@@QEAA@AEBV0@@Z
         50   31 00506CA0 ??0QAccessibleImageInterface@@QEAA@XZ
         51   32 00019E60 ??0QAccessibleInterface@@QEAA@AEBV0@@Z
         52   33 00019E70 ??0QAccessibleInterface@@QEAA@XZ
         53   34 00019E80 ??0QAccessibleInterfaceEx@@QEAA@AEBV0@@Z
         54   35 00019E90 ??0QAccessibleInterfaceEx@@QEAA@XZ
         55   36 00507E70 ??0QAccessibleObject@@QEAA@PEAVQObject@@@Z
         56   37 00507EE0 ??0QAccessibleObjectEx@@QEAA@PEAVQObject@@@Z
         57   38 0050CD70 ??0QAccessiblePlugin@@QEAA@PEAVQObject@@@Z
         58   39 00506CB0 ??0QAccessibleSimpleEditableTextInterface@@QEAA@AEBV0@@Z
         59   3A 00506CD0 ??0QAccessibleSimpleEditableTextInterface@@QEAA@PEAVQAccessibleInterface@@@Z
         60   3B 00506CF0 ??0QAccessibleTable2CellInterface@@QEAA@AEBV0@@Z
         61   3C 00506D00 ??0QAccessibleTable2CellInterface@@QEAA@XZ
         62   3D 00506D10 ??0QAccessibleTable2Interface@@QEAA@AEBV0@@Z
         63   3E 00506D20 ??0QAccessibleTable2Interface@@QEAA@XZ
         64   3F 00506D30 ??0QAccessibleTableInterface@@QEAA@AEBV0@@Z
         65   40 00506D40 ??0QAccessibleTableInterface@@QEAA@XZ
         66   41 00506D50 ??0QAccessibleTextInterface@@QEAA@AEBV0@@Z
         67   42 00506D60 ??0QAccessibleTextInterface@@QEAA@XZ
         68   43 00506D70 ??0QAccessibleValueInterface@@QEAA@AEBV0@@Z
         69   44 00506D80 ??0QAccessibleValueInterface@@QEAA@XZ
         70   45 00509200 ??0QAccessibleWidget@@QEAA@PEAVQWidget@@W4Role@QAccessible@@AEBVQString@@@Z
         71   46 00509290 ??0QAccessibleWidgetEx@@QEAA@PEAVQWidget@@W4Role@QAccessible@@AEBVQString@@@Z
         72   47 000046C0 ??0QAction@@IEAA@AEAVQActionPrivate@@PEAVQObject@@@Z
         73   48 00004750 ??0QAction@@QEAA@AEBVQIcon@@AEBVQString@@PEAVQObject@@@Z
         74   49 00004830 ??0QAction@@QEAA@AEBVQString@@PEAVQObject@@@Z
         75   4A 000048F0 ??0QAction@@QEAA@PEAVQObject@@@Z
         76   4B 0066E9F0 ??0QActionEvent@@QEAA@AEBV0@@Z
         77   4C 0003BFD0 ??0QActionEvent@@QEAA@HPEAVQAction@@0@Z
         78   4D 00016B30 ??0QActionGroup@@QEAA@PEAVQObject@@@Z
         79   4E 000049A0 ??0QActionPrivate@@QEAA@AEBV0@@Z
         80   4F 00004CD0 ??0QActionPrivate@@QEAA@XZ
         81   50 00019EA0 ??0QApplication@@IEAA@AEAHPEAPEAD@Z
         82   51 00019F30 ??0QApplication@@IEAA@AEAHPEAPEADW4Type@0@@Z
         83   52 00019FD0 ??0QApplication@@IEAA@AEAHPEAPEAD_N@Z
         84   53 0001A070 ??0QApplication@@QEAA@AEAHPEAPEADH@Z
         85   54 0001A110 ??0QApplication@@QEAA@AEAHPEAPEADW4Type@0@H@Z
         86   55 0001A1B0 ??0QApplication@@QEAA@AEAHPEAPEAD_NH@Z
         87   56 0001A260 ??0QApplicationPrivate@@QEAA@AEAHPEAPEADW4Type@QApplication@@H@Z
         88   57 0065B770 ??0QBalloonTip@@IEAA@W4MessageIcon@QSystemTrayIcon@@AEBVQString@@1PEAV2@@Z
         89   58 00670C00 ??0QBasicKeyEventTransition@@QEAA@PEAVQState@@@Z
         90   59 00670C90 ??0QBasicKeyEventTransition@@QEAA@W4Type@QEvent@@HPEAVQState@@@Z
         91   5A 00670D40 ??0QBasicKeyEventTransition@@QEAA@W4Type@QEvent@@HV?$QFlags@W4KeyboardModifier@Qt@@@@PEAVQState@@@Z
         92   5B 00671070 ??0QBasicMouseEventTransition@@QEAA@PEAVQState@@@Z
         93   5C 00671110 ??0QBasicMouseEventTransition@@QEAA@W4Type@QEvent@@W4MouseButton@Qt@@PEAVQState@@@Z
         94   5D 00064A40 ??0QBitmap@@QEAA@AEBV0@@Z
         95   5E 000BCA80 ??0QBitmap@@QEAA@AEBVQPixmap@@@Z
         96   5F 000BCAD0 ??0QBitmap@@QEAA@AEBVQSize@@@Z
         97   60 000BCB00 ??0QBitmap@@QEAA@AEBVQString@@PEBD@Z
         98   61 000BCB90 ??0QBitmap@@QEAA@HH@Z
         99   62 000BCBD0 ??0QBitmap@@QEAA@XZ
        100   63 00104C30 ??0QBlittable@@QEAA@AEBV0@@Z
        101   64 0022CC40 ??0QBlittable@@QEAA@AEBVQSize@@V?$QFlags@W4Capability@QBlittable@@@@@Z
        102   65 00104C50 ??0QBlittablePixmapData@@QEAA@XZ
        103   66 00229FD0 ??0QBlitterPaintEngine@@QEAA@PEAVQBlittablePixmapData@@@Z
        104   67 00033300 ??0QBoxLayout@@QEAA@W4Direction@0@PEAVQWidget@@@Z
        105   68 001474F0 ??0QBrush@@QEAA@AEBV0@@Z
        106   69 00147520 ??0QBrush@@QEAA@AEBVQColor@@AEBVQPixmap@@@Z
        107   6A 001475C0 ??0QBrush@@QEAA@AEBVQColor@@W4BrushStyle@Qt@@@Z
        108   6B 00147660 ??0QBrush@@QEAA@AEBVQGradient@@@Z
        109   6C 00147700 ??0QBrush@@QEAA@AEBVQImage@@@Z
        110   6D 001477D0 ??0QBrush@@QEAA@AEBVQPixmap@@@Z
        111   6E 001478A0 ??0QBrush@@QEAA@W4BrushStyle@Qt@@@Z
        112   6F 00147970 ??0QBrush@@QEAA@W4GlobalColor@Qt@@AEBVQPixmap@@@Z
        113   70 00147A30 ??0QBrush@@QEAA@W4GlobalColor@Qt@@W4BrushStyle@2@@Z
        114   71 00147B00 ??0QBrush@@QEAA@XZ
        115   72 003C6400 ??0QButtonGroup@@QEAA@PEAVQObject@@@Z
        116   73 0035BA10 ??0QCDEStyle@@QEAA@_N@Z
        117   74 003D3140 ??0QCalendarWidget@@QEAA@PEAVQWidget@@@Z
        118   75 003DCAB0 ??0QCheckBox@@QEAA@AEBVQString@@PEAVQWidget@@@Z
        119   76 003DCBA0 ??0QCheckBox@@QEAA@PEAVQWidget@@@Z
        120   77 003992C0 ??0QCleanlooksStyle@@IEAA@AEAVQCleanlooksStylePrivate@@@Z
        121   78 003992F0 ??0QCleanlooksStyle@@QEAA@XZ
        122   79 00037210 ??0QClipboard@@AEAA@PEAVQObject@@@Z
        123   7A 0068B0C0 ??0QClipboardEvent@@QEAA@AEBV0@@Z
        124   7B 0003C020 ??0QClipboardEvent@@QEAA@PEAVQEventPrivate@@@Z
        125   7C 0066EA30 ??0QCloseEvent@@QEAA@AEBV0@@Z
        126   7D 0003C060 ??0QCloseEvent@@QEAA@XZ
        127   7E 0001A460 ??0QColor@@QEAA@AEBV0@@Z
        128   7F 0068B0F0 ??0QColor@@QEAA@AEBVQString@@@Z
        129   80 00001800 ??0QColor@@QEAA@HHHH@Z
        130   81 0014C240 ??0QColor@@QEAA@I@Z
        131   82 004F6C00 ??0QColor@@QEAA@PEBD@Z
        132   83 0014C2A0 ??0QColor@@QEAA@W4GlobalColor@Qt@@@Z
        133   84 0014C2F0 ??0QColor@@QEAA@W4Spec@0@@Z
        134   85 00004E60 ??0QColor@@QEAA@XZ
        135   86 004AD9A0 ??0QColorDialog@@AEAA@PEAVQWidget@@_N@Z
        136   87 004B8040 ??0QColorDialog@@QEAA@AEBVQColor@@PEAVQWidget@@@Z
        137   88 004B8110 ??0QColorDialog@@QEAA@PEAVQWidget@@@Z
        138   89 0022CE70 ??0QColormap@@AEAA@XZ
        139   8A 0022CEA0 ??0QColormap@@QEAA@AEBV0@@Z
        140   8B 005C2950 ??0QColumnView@@IEAA@AEAVQColumnViewPrivate@@PEAVQWidget@@@Z
        141   8C 005C29A0 ??0QColumnView@@QEAA@PEAVQWidget@@@Z
        142   8D 005C74F0 ??0QColumnViewGrip@@IEAA@AEAVQColumnViewGripPrivate@@PEAVQWidget@@V?$QFlags@W4WindowType@Qt@@@@@Z
        143   8E 005C7530 ??0QColumnViewGrip@@QEAA@PEAVQWidget@@@Z
        144   8F 005C2A90 ??0QColumnViewPrivate@@QEAA@XZ
        145   90 003DDC60 ??0QComboBox@@IEAA@AEAVQComboBoxPrivate@@PEAVQWidget@@@Z
        146   91 003DDCC0 ??0QComboBox@@QEAA@PEAVQWidget@@@Z
        147   92 003DDDD0 ??0QComboBoxPrivate@@QEAA@AEBV0@@Z
        148   93 003DDFC0 ??0QComboBoxPrivate@@QEAA@XZ
        149   94 003DE0D0 ??0QComboBoxPrivateContainer@@QEAA@PEAVQAbstractItemView@@PEAVQComboBox@@@Z
        150   95 003DE3C0 ??0QComboBoxPrivateScroller@@QEAA@W4SliderAction@QAbstractSlider@@PEAVQWidget@@@Z
        151   96 003E9B10 ??0QCommandLinkButton@@QEAA@AEBVQString@@0PEAVQWidget@@@Z
        152   97 003E9BE0 ??0QCommandLinkButton@@QEAA@AEBVQString@@PEAVQWidget@@@Z
        153   98 003E9C80 ??0QCommandLinkButton@@QEAA@PEAVQWidget@@@Z
        154   99 0030FA30 ??0QCommonStyle@@IEAA@AEAVQCommonStylePrivate@@@Z
        155   9A 0030FA60 ??0QCommonStyle@@QEAA@XZ
        156   9B 0065DBF0 ??0QCompleter@@QEAA@AEBVQStringList@@PEAVQObject@@@Z
        157   9C 0065DCA0 ??0QCompleter@@QEAA@PEAVQAbstractItemModel@@PEAVQObject@@@Z
        158   9D 0065DD20 ??0QCompleter@@QEAA@PEAVQObject@@@Z
        159   9E 00377F20 ??0QConicalGradient@@QEAA@AEBV0@@Z
        160   9F 00147BD0 ??0QConicalGradient@@QEAA@AEBVQPointF@@N@Z
        161   A0 00147C60 ??0QConicalGradient@@QEAA@NNN@Z
        162   A1 00147CE0 ??0QConicalGradient@@QEAA@XZ
        163   A2 0066EA60 ??0QContextMenuEvent@@QEAA@AEBV0@@Z
        164   A3 0003C090 ??0QContextMenuEvent@@QEAA@W4Reason@0@AEBVQPoint@@1@Z
        165   A4 0003C100 ??0QContextMenuEvent@@QEAA@W4Reason@0@AEBVQPoint@@1V?$QFlags@W4KeyboardModifier@Qt@@@@@Z
        166   A5 0003C180 ??0QContextMenuEvent@@QEAA@W4Reason@0@AEBVQPoint@@@Z
        167   A6 00038930 ??0QCursor@@QEAA@AEBV0@@Z
        168   A7 00038970 ??0QCursor@@QEAA@AEBVQBitmap@@0HH@Z
        169   A8 000389B0 ??0QCursor@@QEAA@AEBVQPixmap@@HH@Z
        170   A9 000A5D50 ??0QCursor@@QEAA@PEAUHICON__@@@Z
        171   AA 00038C00 ??0QCursor@@QEAA@W4CursorShape@Qt@@@Z
        172   AB 00038C40 ??0QCursor@@QEAA@XZ
        173   AC 0001A480 ??0QDashStroker@@QEAA@AEBV0@@Z
        174   AD 001CDB80 ??0QDashStroker@@QEAA@PEAVQStroker@@@Z
        175   AE 005BED00 ??0QDataWidgetMapper@@QEAA@PEAVQObject@@@Z
        176   AF 003EB880 ??0QDateEdit@@QEAA@AEBVQDate@@PEAVQWidget@@@Z
        177   B0 003EB940 ??0QDateEdit@@QEAA@PEAVQWidget@@@Z
        178   B1 003EBA10 ??0QDateTimeEdit@@IEAA@AEBVQVariant@@W4Type@1@PEAVQWidget@@@Z
        179   B2 003EBAB0 ??0QDateTimeEdit@@QEAA@AEBVQDate@@PEAVQWidget@@@Z
        180   B3 003EBB90 ??0QDateTimeEdit@@QEAA@AEBVQDateTime@@PEAVQWidget@@@Z
        181   B4 003EBCF0 ??0QDateTimeEdit@@QEAA@AEBVQTime@@PEAVQWidget@@@Z
        182   B5 003EBDD0 ??0QDateTimeEdit@@QEAA@PEAVQWidget@@@Z
        183   B6 000A6B70 ??0QDesktopWidget@@QEAA@XZ
        184   B7 003F37F0 ??0QDial@@QEAA@PEAVQWidget@@@Z
        185   B8 004BEDF0 ??0QDialog@@IEAA@AEAVQDialogPrivate@@PEAVQWidget@@V?$QFlags@W4WindowType@Qt@@@@@Z
        186   B9 004BEE40 ??0QDialog@@QEAA@PEAVQWidget@@V?$QFlags@W4WindowType@Qt@@@@@Z
        187   BA 003F47F0 ??0QDialogButtonBox@@QEAA@PEAVQWidget@@@Z
        188   BB 003F4880 ??0QDialogButtonBox@@QEAA@V?$QFlags@W4StandardButton@QDialogButtonBox@@@@W4Orientation@Qt@@PEAVQWidget@@@Z
        189   BC 003F4950 ??0QDialogButtonBox@@QEAA@W4Orientation@Qt@@PEAVQWidget@@@Z
        190   BD 0056D2C0 ??0QDirModel@@IEAA@AEAVQDirModelPrivate@@PEAVQObject@@@Z
        191   BE 0056D300 ??0QDirModel@@QEAA@AEBVQStringList@@V?$QFlags@W4Filter@QDir@@@@V?$QFlags@W4SortFlag@QDir@@@@PEAVQObject@@@Z
        192   BF 0056D580 ??0QDirModel@@QEAA@PEAVQObject@@@Z
        193   C0 003F7E30 ??0QDockAreaLayout@@QEAA@AEBV0@@Z
        194   C1 003FDE60 ??0QDockAreaLayout@@QEAA@PEAVQMainWindow@@@Z
        195   C2 003F7F30 ??0QDockAreaLayoutInfo@@QEAA@AEBV0@@Z
        196   C3 003FE1E0 ??0QDockAreaLayoutInfo@@QEAA@PEBHW4DockPosition@QInternal@@W4Orientation@Qt@@HPEAVQMainWindow@@@Z
        197   C4 003FE280 ??0QDockAreaLayoutInfo@@QEAA@XZ
        198   C5 003F8000 ??0QDockWidget@@QEAA@AEBVQString@@PEAVQWidget@@V?$QFlags@W4WindowType@Qt@@@@@Z
        199   C6 003F80C0 ??0QDockWidget@@QEAA@PEAVQWidget@@V?$QFlags@W4WindowType@Qt@@@@@Z
        200   C7 003F8190 ??0QDockWidgetLayout@@QEAA@PEAVQWidget@@@Z
        201   C8 0045DE20 ??0QDoubleSpinBox@@QEAA@PEAVQWidget@@@Z
        202   C9 00486900 ??0QDoubleValidator@@QEAA@NNHPEAVQObject@@@Z
        203   CA 004869D0 ??0QDoubleValidator@@QEAA@PEAVQObject@@@Z
        204   CB 00039490 ??0QDrag@@QEAA@PEAVQWidget@@@Z
        205   CC 0066EAC0 ??0QDragEnterEvent@@QEAA@AEBV0@@Z
        206   CD 0003C200 ??0QDragEnterEvent@@QEAA@AEBVQPoint@@V?$QFlags@W4DropAction@Qt@@@@PEBVQMimeData@@V?$QFlags@W4MouseButton@Qt@@@@V?$QFlags@W4KeyboardModifier@Qt@@@@@Z
        207   CE 0066EB30 ??0QDragLeaveEvent@@QEAA@AEBV0@@Z
        208   CF 0003C270 ??0QDragLeaveEvent@@QEAA@XZ
        209   D0 0066EB60 ??0QDragMoveEvent@@QEAA@AEBV0@@Z
        210   D1 0003C2A0 ??0QDragMoveEvent@@QEAA@AEBVQPoint@@V?$QFlags@W4DropAction@Qt@@@@PEBVQMimeData@@V?$QFlags@W4MouseButton@Qt@@@@V?$QFlags@W4KeyboardModifier@Qt@@@@W4Type@QEvent@@@Z
        211   D2 0066EBB0 ??0QDragResponseEvent@@QEAA@AEBV0@@Z
        212   D3 0003C360 ??0QDragResponseEvent@@QEAA@_N@Z
        213   D4 0066EBF0 ??0QDropEvent@@QEAA@AEBV0@@Z
        214   D5 0003C3A0 ??0QDropEvent@@QEAA@AEBVQPoint@@V?$QFlags@W4DropAction@Qt@@@@PEBVQMimeData@@V?$QFlags@W4MouseButton@Qt@@@@V?$QFlags@W4KeyboardModifier@Qt@@@@W4Type@QEvent@@@Z
        215   D6 004C1280 ??0QErrorMessage@@QEAA@PEAVQWidget@@@Z
        216   D7 004C3E90 ??0QFileDialog@@IEAA@AEBUQFileDialogArgs@@@Z
        217   D8 004C3F60 ??0QFileDialog@@QEAA@PEAVQWidget@@AEBVQString@@11@Z
        218   D9 004C4020 ??0QFileDialog@@QEAA@PEAVQWidget@@V?$QFlags@W4WindowType@Qt@@@@@Z
        219   DA 004C4250 ??0QFileDialogPrivate@@QEAA@XZ
        220   DB 005C1210 ??0QFileIconProvider@@QEAA@XZ
        221   DC 004F3A70 ??0QFileInfoGatherer@@QEAA@PEAVQObject@@@Z
        222   DD 0066ECA0 ??0QFileOpenEvent@@QEAA@AEBV0@@Z
        223   DE 0003C480 ??0QFileOpenEvent@@QEAA@AEBVQString@@@Z
        224   DF 0003C530 ??0QFileOpenEvent@@QEAA@AEBVQUrl@@@Z
        225   E0 004E80B0 ??0QFileSystemModel@@IEAA@AEAVQFileSystemModelPrivate@@PEAVQObject@@@Z
        226   E1 004E80F0 ??0QFileSystemModel@@QEAA@PEAVQObject@@@Z
        227   E2 004ADC90 ??0QFileSystemModelPrivate@@QEAA@XZ
        228   E3 0066ECF0 ??0QFocusEvent@@QEAA@AEBV0@@Z
        229   E4 0003C600 ??0QFocusEvent@@QEAA@W4Type@QEvent@@W4FocusReason@Qt@@@Z
        230   E5 0048BF90 ??0QFocusFrame@@QEAA@PEAVQWidget@@@Z
        231   E6 0023CD20 ??0QFont@@AEAA@PEAVQFontPrivate@@@Z
        232   E7 0023CD60 ??0QFont@@QEAA@AEBV0@@Z
        233   E8 0023CDA0 ??0QFont@@QEAA@AEBV0@PEAVQPaintDevice@@@Z
        234   E9 0023CE70 ??0QFont@@QEAA@AEBVQString@@HH_N@Z
        235   EA 0023CF80 ??0QFont@@QEAA@XZ
        236   EB 0040CF80 ??0QFontComboBox@@QEAA@PEAVQWidget@@@Z
        237   EC 00258D90 ??0QFontDatabase@@QEAA@XZ
        238   ED 004AD9B0 ??0QFontDialog@@AEAA@PEAVQWidget@@_NV?$QFlags@W4WindowType@Qt@@@@@Z
        239   EE 004D3150 ??0QFontDialog@@QEAA@AEBVQFont@@PEAVQWidget@@@Z
        240   EF 004D3200 ??0QFontDialog@@QEAA@PEAVQWidget@@@Z
        241   F0 00245230 ??0QFontEngine@@QEAA@XZ
        242   F1 0023D220 ??0QFontInfo@@QEAA@AEBV0@@Z
        243   F2 0023D250 ??0QFontInfo@@QEAA@AEBVQFont@@@Z
        244   F3 00254CE0 ??0QFontMetrics@@QEAA@AEBV0@@Z
        245   F4 00254D10 ??0QFontMetrics@@QEAA@AEBVQFont@@@Z
        246   F5 00254D40 ??0QFontMetrics@@QEAA@AEBVQFont@@PEAVQPaintDevice@@@Z
        247   F6 00254DF0 ??0QFontMetricsF@@QEAA@AEBV0@@Z
        248   F7 00254E20 ??0QFontMetricsF@@QEAA@AEBVQFont@@@Z
        249   F8 00254E50 ??0QFontMetricsF@@QEAA@AEBVQFont@@PEAVQPaintDevice@@@Z
        250   F9 00254F00 ??0QFontMetricsF@@QEAA@AEBVQFontMetrics@@@Z
        251   FA 0023D280 ??0QFontPrivate@@QEAA@AEBV0@@Z
        252   FB 0023D370 ??0QFontPrivate@@QEAA@XZ
        253   FC 00041750 ??0QFormLayout@@QEAA@PEAVQWidget@@@Z
        254   FD 0040EE50 ??0QFrame@@IEAA@AEAVQFramePrivate@@PEAVQWidget@@V?$QFlags@W4WindowType@Qt@@@@@Z
        255   FE 0040EEB0 ??0QFrame@@QEAA@PEAVQWidget@@V?$QFlags@W4WindowType@Qt@@@@@Z
        256   FF 00085E80 ??0QGesture@@IEAA@AEAVQGesturePrivate@@PEAVQObject@@@Z
        257  100 00085EB0 ??0QGesture@@QEAA@PEAVQObject@@@Z
        258  101 0068B110 ??0QGestureEvent@@QEAA@AEBV0@@Z
        259  102 0003C640 ??0QGestureEvent@@QEAA@AEBV?$QList@PEAVQGesture@@@@@Z
        260  103 0001A6D0 ??0QGestureRecognizer@@QEAA@AEBV0@@Z
        261  104 00089D40 ??0QGestureRecognizer@@QEAA@XZ
        262  105 002FD350 ??0QGlyphRun@@QEAA@AEBV0@@Z
        263  106 002FD380 ??0QGlyphRun@@QEAA@XZ
        264  107 0015D0D0 ??0QGradient@@QEAA@AEBV0@@Z
        265  108 00147D30 ??0QGradient@@QEAA@XZ
        266  109 0065ACA0 ??0QGraphicsAnchor@@AEAA@PEAVQGraphicsAnchorLayout@@@Z
        267  10A 0065AD20 ??0QGraphicsAnchorLayout@@QEAA@PEAVQGraphicsLayoutItem@@@Z
        268  10B 006461F0 ??0QGraphicsAnchorLayoutPrivate@@QEAA@AEBV0@@Z
        269  10C 006465B0 ??0QGraphicsAnchorLayoutPrivate@@QEAA@XZ
        270  10D 00677B90 ??0QGraphicsBlurEffect@@QEAA@PEAVQObject@@@Z
        271  10E 00677CB0 ??0QGraphicsColorizeEffect@@QEAA@PEAVQObject@@@Z
        272  10F 00677DB0 ??0QGraphicsDropShadowEffect@@QEAA@PEAVQObject@@@Z
        273  110 00677EA0 ??0QGraphicsEffect@@IEAA@AEAVQGraphicsEffectPrivate@@PEAVQObject@@@Z
        274  111 00677ED0 ??0QGraphicsEffect@@QEAA@PEAVQObject@@@Z
        275  112 00004E80 ??0QGraphicsEffectPrivate@@QEAA@AEBV0@@Z
        276  113 00004F30 ??0QGraphicsEffectPrivate@@QEAA@XZ
        277  114 00677F70 ??0QGraphicsEffectSource@@IEAA@AEAVQGraphicsEffectSourcePrivate@@PEAVQObject@@@Z
        278  115 005D0DD0 ??0QGraphicsEllipseItem@@QEAA@AEBVQRectF@@PEAVQGraphicsItem@@PEAVQGraphicsScene@@@Z
        279  116 005D0E60 ??0QGraphicsEllipseItem@@QEAA@NNNNPEAVQGraphicsItem@@PEAVQGraphicsScene@@@Z
        280  117 005D0F30 ??0QGraphicsEllipseItem@@QEAA@PEAVQGraphicsItem@@PEAVQGraphicsScene@@@Z
        281  118 005CCAC0 ??0QGraphicsGridLayout@@QEAA@PEAVQGraphicsLayoutItem@@@Z
        282  119 005D1030 ??0QGraphicsItem@@IEAA@AEAVQGraphicsItemPrivate@@PEAV0@PEAVQGraphicsScene@@@Z
        283  11A 005D10C0 ??0QGraphicsItem@@QEAA@PEAV0@PEAVQGraphicsScene@@@Z
        284  11B 005F1780 ??0QGraphicsItemAnimation@@QEAA@PEAVQObject@@@Z
        285  11C 005D12C0 ??0QGraphicsItemGroup@@QEAA@PEAVQGraphicsItem@@PEAVQGraphicsScene@@@Z
        286  11D 00004F90 ??0QGraphicsItemPrivate@@QEAA@AEBV0@@Z
        287  11E 00005680 ??0QGraphicsItemPrivate@@QEAA@XZ
        288  11F 005F4440 ??0QGraphicsLayout@@IEAA@AEAVQGraphicsLayoutPrivate@@PEAVQGraphicsLayoutItem@@@Z
        289  120 005F4500 ??0QGraphicsLayout@@QEAA@PEAVQGraphicsLayoutItem@@@Z
        290  121 005F4FE0 ??0QGraphicsLayoutItem@@IEAA@AEAVQGraphicsLayoutItemPrivate@@@Z
        291  122 005F5000 ??0QGraphicsLayoutItem@@QEAA@PEAV0@_N@Z
        292  123 005CCB90 ??0QGraphicsLayoutItemPrivate@@QEAA@AEBV0@@Z
        293  124 005F5080 ??0QGraphicsLayoutItemPrivate@@QEAA@PEAVQGraphicsLayoutItem@@_N@Z
        294  125 005CCD20 ??0QGraphicsLayoutPrivate@@QEAA@AEBV0@@Z
        295  126 005CCDA0 ??0QGraphicsLayoutPrivate@@QEAA@XZ
        296  127 005D13A0 ??0QGraphicsLineItem@@QEAA@AEBVQLineF@@PEAVQGraphicsItem@@PEAVQGraphicsScene@@@Z
        297  128 005D1460 ??0QGraphicsLineItem@@QEAA@NNNNPEAVQGraphicsItem@@PEAVQGraphicsScene@@@Z
        298  129 005D1560 ??0QGraphicsLineItem@@QEAA@PEAVQGraphicsItem@@PEAVQGraphicsScene@@@Z
        299  12A 005F6890 ??0QGraphicsLinearLayout@@QEAA@PEAVQGraphicsLayoutItem@@@Z
        300  12B 005F6900 ??0QGraphicsLinearLayout@@QEAA@W4Orientation@Qt@@PEAVQGraphicsLayoutItem@@@Z
        301  12C 005D1660 ??0QGraphicsObject@@IEAA@AEAVQGraphicsItemPrivate@@PEAVQGraphicsItem@@PEAVQGraphicsScene@@@Z
        302  12D 005D16E0 ??0QGraphicsObject@@QEAA@PEAVQGraphicsItem@@@Z
        303  12E 00677FA0 ??0QGraphicsOpacityEffect@@QEAA@PEAVQObject@@@Z
        304  12F 005D1780 ??0QGraphicsPathItem@@QEAA@AEBVQPainterPath@@PEAVQGraphicsItem@@PEAVQGraphicsScene@@@Z
        305  130 005D1840 ??0QGraphicsPathItem@@QEAA@PEAVQGraphicsItem@@PEAVQGraphicsScene@@@Z
        306  131 005D1920 ??0QGraphicsPixmapItem@@QEAA@AEBVQPixmap@@PEAVQGraphicsItem@@PEAVQGraphicsScene@@@Z
        307  132 005D19E0 ??0QGraphicsPixmapItem@@QEAA@PEAVQGraphicsItem@@PEAVQGraphicsScene@@@Z
        308  133 005D1AC0 ??0QGraphicsPolygonItem@@QEAA@AEBVQPolygonF@@PEAVQGraphicsItem@@PEAVQGraphicsScene@@@Z
        309  134 005D1B50 ??0QGraphicsPolygonItem@@QEAA@PEAVQGraphicsItem@@PEAVQGraphicsScene@@@Z
        310  135 005F7A20 ??0QGraphicsProxyWidget@@QEAA@PEAVQGraphicsItem@@V?$QFlags@W4WindowType@Qt@@@@@Z
        311  136 005D1C40 ??0QGraphicsRectItem@@QEAA@AEBVQRectF@@PEAVQGraphicsItem@@PEAVQGraphicsScene@@@Z
        312  137 005D1CD0 ??0QGraphicsRectItem@@QEAA@NNNNPEAVQGraphicsItem@@PEAVQGraphicsScene@@@Z
        313  138 005D1DA0 ??0QGraphicsRectItem@@QEAA@PEAVQGraphicsItem@@PEAVQGraphicsScene@@@Z
        314  139 00621610 ??0QGraphicsRotation@@QEAA@PEAVQObject@@@Z
        315  13A 00621720 ??0QGraphicsScale@@QEAA@PEAVQObject@@@Z
        316  13B 005FD320 ??0QGraphicsScene@@QEAA@AEBVQRectF@@PEAVQObject@@@Z
        317  13C 005FD3B0 ??0QGraphicsScene@@QEAA@NNNNPEAVQObject@@@Z
        318  13D 005FD480 ??0QGraphicsScene@@QEAA@PEAVQObject@@@Z
        319  13E 0061AB80 ??0QGraphicsSceneBspTreeIndex@@QEAA@PEAVQGraphicsScene@@@Z
        320  13F 0061CF00 ??0QGraphicsSceneContextMenuEvent@@QEAA@W4Type@QEvent@@@Z
        321  140 0061CFF0 ??0QGraphicsSceneDragDropEvent@@QEAA@W4Type@QEvent@@@Z
        322  141 0061D0E0 ??0QGraphicsSceneEvent@@IEAA@AEAVQGraphicsSceneEventPrivate@@W4Type@QEvent@@@Z
        323  142 0061D120 ??0QGraphicsSceneEvent@@QEAA@W4Type@QEvent@@@Z
        324  143 0061D1B0 ??0QGraphicsSceneHelpEvent@@QEAA@W4Type@QEvent@@@Z
        325  144 0061D2A0 ??0QGraphicsSceneHoverEvent@@QEAA@W4Type@QEvent@@@Z
        326  145 0061F340 ??0QGraphicsSceneIndex@@IEAA@AEAVQGraphicsSceneIndexPrivate@@PEAVQGraphicsScene@@@Z
        327  146 0061F3B0 ??0QGraphicsSceneIndex@@QEAA@PEAVQGraphicsScene@@@Z
        328  147 005FD4F0 ??0QGraphicsSceneLinearIndex@@QEAA@PEAVQGraphicsScene@@@Z
        329  148 0061D3A0 ??0QGraphicsSceneMouseEvent@@QEAA@W4Type@QEvent@@@Z
        330  149 0061D500 ??0QGraphicsSceneMoveEvent@@QEAA@XZ
        331  14A 005D1E80 ??0QGraphicsScenePrivate@@QEAA@AEBV0@@Z
        332  14B 005FD540 ??0QGraphicsScenePrivate@@QEAA@XZ
        333  14C 0061D5E0 ??0QGraphicsSceneResizeEvent@@QEAA@XZ
        334  14D 0061D6C0 ??0QGraphicsSceneWheelEvent@@QEAA@W4Type@QEvent@@@Z
        335  14E 005D2800 ??0QGraphicsSimpleTextItem@@QEAA@AEBVQString@@PEAVQGraphicsItem@@PEAVQGraphicsScene@@@Z
        336  14F 005D2890 ??0QGraphicsSimpleTextItem@@QEAA@PEAVQGraphicsItem@@PEAVQGraphicsScene@@@Z
        337  150 0001A6E0 ??0QGraphicsSystem@@QEAA@AEBV0@@Z
        338  151 0001A6F0 ??0QGraphicsSystem@@QEAA@XZ
        339  152 00236EB0 ??0QGraphicsSystemPlugin@@QEAA@PEAVQObject@@@Z
        340  153 005D29C0 ??0QGraphicsTextItem@@QEAA@AEBVQString@@PEAVQGraphicsItem@@PEAVQGraphicsScene@@@Z
        341  154 005D2B40 ??0QGraphicsTextItem@@QEAA@PEAVQGraphicsItem@@PEAVQGraphicsScene@@@Z
        342  155 006217E0 ??0QGraphicsTransform@@IEAA@AEAVQGraphicsTransformPrivate@@PEAVQObject@@@Z
        343  156 00621810 ??0QGraphicsTransform@@QEAA@PEAVQObject@@@Z
        344  157 006233C0 ??0QGraphicsView@@IEAA@AEAVQGraphicsViewPrivate@@PEAVQWidget@@@Z
        345  158 00623450 ??0QGraphicsView@@QEAA@PEAVQGraphicsScene@@PEAVQWidget@@@Z
        346  159 00623520 ??0QGraphicsView@@QEAA@PEAVQWidget@@@Z
        347  15A 006235E0 ??0QGraphicsViewPrivate@@QEAA@XZ
        348  15B 0062DEA0 ??0QGraphicsWidget@@IEAA@AEAVQGraphicsWidgetPrivate@@PEAVQGraphicsItem@@PEAVQGraphicsScene@@V?$QFlags@W4WindowType@Qt@@@@@Z
        349  15C 0062DF30 ??0QGraphicsWidget@@QEAA@PEAVQGraphicsItem@@V?$QFlags@W4WindowType@Qt@@@@@Z
        350  15D 00046F60 ??0QGridLayout@@QEAA@PEAVQWidget@@@Z
        351  15E 00047020 ??0QGridLayout@@QEAA@XZ
        352  15F 0040FB10 ??0QGroupBox@@QEAA@AEBVQString@@PEAVQWidget@@@Z
        353  160 0040FC20 ??0QGroupBox@@QEAA@PEAVQWidget@@@Z
        354  161 00098B20 ??0QGuiPlatformPlugin@@QEAA@PEAVQObject@@@Z
        355  162 0001A700 ??0QGuiPlatformPluginInterface@@QEAA@AEBU0@@Z
        356  163 0001A710 ??0QGuiPlatformPluginInterface@@QEAA@XZ
        357  164 00033460 ??0QHBoxLayout@@QEAA@PEAVQWidget@@@Z
        358  165 000334A0 ??0QHBoxLayout@@QEAA@XZ
        359  166 00521390 ??0QHeaderView@@IEAA@AEAVQHeaderViewPrivate@@W4Orientation@Qt@@PEAVQWidget@@@Z
        360  167 00521460 ??0QHeaderView@@QEAA@W4Orientation@Qt@@PEAVQWidget@@@Z
        361  168 0066ED30 ??0QHelpEvent@@QEAA@AEBV0@@Z
        362  169 0003C740 ??0QHelpEvent@@QEAA@W4Type@QEvent@@AEBVQPoint@@1@Z
        363  16A 0066ED70 ??0QHideEvent@@QEAA@AEBV0@@Z
        364  16B 0003C790 ??0QHideEvent@@QEAA@XZ
        365  16C 0066EDA0 ??0QHoverEvent@@QEAA@AEBV0@@Z
        366  16D 0003C7C0 ??0QHoverEvent@@QEAA@W4Type@QEvent@@AEBVQPoint@@1@Z
        367  16E 000BDA10 ??0QIcon@@QEAA@AEBV0@@Z
        368  16F 000BDA40 ??0QIcon@@QEAA@AEBVQPixmap@@@Z
        369  170 000BDA70 ??0QIcon@@QEAA@AEBVQString@@@Z
        370  171 000BDAC0 ??0QIcon@@QEAA@PEAVQIconEngine@@@Z
        371  172 000BDB90 ??0QIcon@@QEAA@PEAVQIconEngineV2@@@Z
        372  173 000BDC30 ??0QIcon@@QEAA@XZ
        373  174 0066EDE0 ??0QIconDragEvent@@QEAA@AEBV0@@Z
        374  175 0003C810 ??0QIconDragEvent@@QEAA@XZ
        375  176 000BDC40 ??0QIconEngine@@QEAA@AEBV0@@Z
        376  177 000BDC50 ??0QIconEngine@@QEAA@XZ
        377  178 000BDC60 ??0QIconEngineFactoryInterface@@QEAA@AEBU0@@Z
        378  179 000BDC70 ??0QIconEngineFactoryInterface@@QEAA@XZ
        379  17A 000BDC80 ??0QIconEngineFactoryInterfaceV2@@QEAA@AEBU0@@Z
        380  17B 000BDC90 ??0QIconEngineFactoryInterfaceV2@@QEAA@XZ
        381  17C 00100B00 ??0QIconEnginePlugin@@QEAA@PEAVQObject@@@Z
        382  17D 00100B30 ??0QIconEnginePluginV2@@QEAA@PEAVQObject@@@Z
        383  17E 000BDCA0 ??0QIconEngineV2@@QEAA@AEBV0@@Z
        384  17F 000BDCB0 ??0QIconEngineV2@@QEAA@XZ
        385  180 0052D5B0 ??0QIdentityProxyModel@@IEAA@AEAVQIdentityProxyModelPrivate@@PEAVQObject@@@Z
        386  181 0052D5E0 ??0QIdentityProxyModel@@QEAA@PEAVQObject@@@Z
        387  182 000D3830 ??0QImage@@QEAA@AEBV0@@Z
        388  183 000D3910 ??0QImage@@QEAA@AEBVQSize@@W4Format@0@@Z
        389  184 000D3970 ??0QImage@@QEAA@AEBVQString@@PEBD@Z
        390  185 000D39D0 ??0QImage@@QEAA@HHW4Format@0@@Z
        391  186 000D3A50 ??0QImage@@QEAA@PEAEHHHW4Format@0@@Z
        392  187 000D3AD0 ??0QImage@@QEAA@PEAEHHW4Format@0@@Z
        393  188 000D3B50 ??0QImage@@QEAA@PEBD0@Z
        394  189 000D3BD0 ??0QImage@@QEAA@PEBEHHHW4Format@0@@Z
        395  18A 000D3C50 ??0QImage@@QEAA@PEBEHHW4Format@0@@Z
        396  18B 000D3CD0 ??0QImage@@QEAA@QEBQEBD@Z
        397  18C 000D3D40 ??0QImage@@QEAA@XZ
        398  18D 000D3D70 ??0QImageData@@QEAA@AEBU0@@Z
        399  18E 000D3EB0 ??0QImageData@@QEAA@XZ
        400  18F 000E2890 ??0QImageIOHandler@@IEAA@AEAVQImageIOHandlerPrivate@@@Z
        401  190 000E28B0 ??0QImageIOHandler@@QEAA@XZ
        402  191 0003A140 ??0QImageIOHandlerFactoryInterface@@QEAA@AEBU0@@Z
        403  192 0003A150 ??0QImageIOHandlerFactoryInterface@@QEAA@XZ
        404  193 000E2960 ??0QImageIOPlugin@@QEAA@PEAVQObject@@@Z
        405  194 000D3FB0 ??0QImagePixmapCleanupHooks@@QEAA@AEBV0@@Z
        406  195 000D4060 ??0QImagePixmapCleanupHooks@@QEAA@XZ
        407  196 000E3E90 ??0QImageReader@@QEAA@AEBVQString@@AEBVQByteArray@@@Z
        408  197 000E3F40 ??0QImageReader@@QEAA@PEAVQIODevice@@AEBVQByteArray@@@Z
        409  198 000E3FB0 ??0QImageReader@@QEAA@XZ
        410  199 000D40D0 ??0QImageTextKeyLang@@QEAA@AEBV0@@Z
        411  19A 0068B140 ??0QImageTextKeyLang@@QEAA@PEBD0@Z
        412  19B 000D4120 ??0QImageTextKeyLang@@QEAA@XZ
        413  19C 0001A720 ??0QImageTextureGlyphCache@@QEAA@AEBV0@@Z
        414  19D 0001A770 ??0QImageTextureGlyphCache@@QEAA@W4Type@QFontEngineGlyphCache@@AEBVQTransform@@@Z
        415  19E 000E7D00 ??0QImageWriter@@QEAA@AEBVQString@@AEBVQByteArray@@@Z
        416  19F 000E7DB0 ??0QImageWriter@@QEAA@PEAVQIODevice@@AEBVQByteArray@@@Z
        417  1A0 000E7E20 ??0QImageWriter@@QEAA@XZ
        418  1A1 005CA3C0 ??0QInputContext@@QEAA@PEAVQObject@@@Z
        419  1A2 005C9940 ??0QInputContextFactoryInterface@@QEAA@AEBU0@@Z
        420  1A3 005C9950 ??0QInputContextFactoryInterface@@QEAA@XZ
        421  1A4 005CA220 ??0QInputContextPlugin@@QEAA@PEAVQObject@@@Z
        422  1A5 004AD9C0 ??0QInputDialog@@AEAA@AEBVQString@@0PEAVQWidget@@1V?$QFlags@W4WindowType@Qt@@@@@Z
        423  1A6 004AD9D0 ??0QInputDialog@@AEAA@AEBVQString@@PEAVQWidget@@W4Type@0@V?$QFlags@W4WindowType@Qt@@@@@Z
        424  1A7 004D6930 ??0QInputDialog@@QEAA@PEAVQWidget@@V?$QFlags@W4WindowType@Qt@@@@@Z
        425  1A8 00059AF0 ??0QInputEvent@@QEAA@AEBV0@@Z
        426  1A9 0003C850 ??0QInputEvent@@QEAA@W4Type@QEvent@@V?$QFlags@W4KeyboardModifier@Qt@@@@@Z
        427  1AA 0003C890 ??0QInputMethodEvent@@QEAA@AEBV0@@Z
        428  1AB 0003C930 ??0QInputMethodEvent@@QEAA@AEBVQString@@AEBV?$QList@VAttribute@QInputMethodEvent@@@@@Z
        429  1AC 0003C9D0 ??0QInputMethodEvent@@QEAA@XZ
        430  1AD 00486B00 ??0QIntValidator@@QEAA@HHPEAVQObject@@@Z
        431  1AE 00486B50 ??0QIntValidator@@QEAA@PEAVQObject@@@Z
        432  1AF 0003A160 ??0QInternalMimeData@@QEAA@XZ
        433  1B0 0055EAA0 ??0QItemDelegate@@QEAA@PEAVQObject@@@Z
        434  1B1 0055EB70 ??0QItemEditorCreatorBase@@QEAA@AEBV0@@Z
        435  1B2 0055EB80 ??0QItemEditorCreatorBase@@QEAA@XZ
        436  1B3 0055EB90 ??0QItemEditorFactory@@QEAA@AEBV0@@Z
        437  1B4 0055EBF0 ??0QItemEditorFactory@@QEAA@XZ
        438  1B5 0032EA90 ??0QItemSelection@@QEAA@AEBV0@@Z
        439  1B6 005652D0 ??0QItemSelection@@QEAA@AEBVQModelIndex@@0@Z
        440  1B7 0032EAD0 ??0QItemSelection@@QEAA@XZ
        441  1B8 00565330 ??0QItemSelectionModel@@IEAA@AEAVQItemSelectionModelPrivate@@PEAVQAbstractItemModel@@@Z
        442  1B9 00565390 ??0QItemSelectionModel@@QEAA@PEAVQAbstractItemModel@@@Z
        443  1BA 00565400 ??0QItemSelectionModel@@QEAA@PEAVQAbstractItemModel@@PEAVQObject@@@Z
        444  1BB 0032EB00 ??0QItemSelectionRange@@QEAA@AEBV0@@Z
        445  1BC 0032EB50 ??0QItemSelectionRange@@QEAA@AEBVQModelIndex@@0@Z
        446  1BD 0032EBC0 ??0QItemSelectionRange@@QEAA@AEBVQModelIndex@@@Z
        447  1BE 0032EC30 ??0QItemSelectionRange@@QEAA@XZ
        448  1BF 00059B30 ??0QKeyEvent@@QEAA@AEBV0@@Z
        449  1C0 0003CA40 ??0QKeyEvent@@QEAA@W4Type@QEvent@@HV?$QFlags@W4KeyboardModifier@Qt@@@@AEBVQString@@_NG@Z
        450  1C1 0066FE80 ??0QKeyEventTransition@@QEAA@PEAVQObject@@W4Type@QEvent@@HPEAVQState@@@Z
        451  1C2 0066FF60 ??0QKeyEventTransition@@QEAA@PEAVQState@@@Z
        452  1C3 0004C990 ??0QKeySequence@@QEAA@AEBV0@@Z
        453  1C4 0004C9B0 ??0QKeySequence@@QEAA@AEBVQString@@@Z
        454  1C5 0004CA40 ??0QKeySequence@@QEAA@AEBVQString@@W4SequenceFormat@0@@Z
        455  1C6 0004CAD0 ??0QKeySequence@@QEAA@HHHH@Z
        456  1C7 0004CB70 ??0QKeySequence@@QEAA@W4StandardKey@0@@Z
        457  1C8 0004CC70 ??0QKeySequence@@QEAA@XZ
        458  1C9 0003CC20 ??0QKeySequencePrivate@@QEAA@AEBV0@@Z
        459  1CA 0003CC70 ??0QKeySequencePrivate@@QEAA@XZ
        460  1CB 00415980 ??0QLCDNumber@@QEAA@IPEAVQWidget@@@Z
        461  1CC 00415A40 ??0QLCDNumber@@QEAA@PEAVQWidget@@@Z
        462  1CD 00411A40 ??0QLabel@@QEAA@AEBVQString@@PEAVQWidget@@V?$QFlags@W4WindowType@Qt@@@@@Z
        463  1CE 00411AE0 ??0QLabel@@QEAA@PEAVQWidget@@V?$QFlags@W4WindowType@Qt@@@@@Z
        464  1CF 0004FA10 ??0QLayout@@IEAA@AEAVQLayoutPrivate@@PEAV0@PEAVQWidget@@@Z
        465  1D0 0004FB90 ??0QLayout@@QEAA@PEAVQWidget@@@Z
        466  1D1 0004FC20 ??0QLayout@@QEAA@XZ
        467  1D2 0068B190 ??0QLayoutItem@@QEAA@AEBV0@@Z
        468  1D3 0004FC90 ??0QLayoutItem@@QEAA@V?$QFlags@W4AlignmentFlag@Qt@@@@@Z
        469  1D4 000334E0 ??0QLayoutPrivate@@QEAA@AEBV0@@Z
        470  1D5 0004FCB0 ??0QLayoutPrivate@@QEAA@XZ
        471  1D6 003CB510 ??0QLineControl@@QEAA@AEBVQString@@@Z
        472  1D7 0041BA60 ??0QLineEdit@@QEAA@AEBVQString@@PEAVQWidget@@@Z
        473  1D8 0041BB00 ??0QLineEdit@@QEAA@PEAVQWidget@@@Z
        474  1D9 00377F40 ??0QLinearGradient@@QEAA@AEBV0@@Z
        475  1DA 00147DD0 ??0QLinearGradient@@QEAA@AEBVQPointF@@0@Z
        476  1DB 00147E70 ??0QLinearGradient@@QEAA@NNNN@Z
        477  1DC 00147F00 ??0QLinearGradient@@QEAA@XZ
        478  1DD 00575F30 ??0QListModel@@QEAA@PEAVQListWidget@@@Z
        479  1DE 0052FD30 ??0QListView@@IEAA@AEAVQListViewPrivate@@PEAVQWidget@@@Z
        480  1DF 0052FDA0 ??0QListView@@QEAA@PEAVQWidget@@@Z
        481  1E0 00575FA0 ??0QListWidget@@QEAA@PEAVQWidget@@@Z
        482  1E1 00576050 ??0QListWidgetItem@@QEAA@AEBV0@@Z
        483  1E2 00576120 ??0QListWidgetItem@@QEAA@AEBVQIcon@@AEBVQString@@PEAVQListWidget@@H@Z
        484  1E3 005762A0 ??0QListWidgetItem@@QEAA@AEBVQString@@PEAVQListWidget@@H@Z
        485  1E4 005763E0 ??0QListWidgetItem@@QEAA@PEAVQListWidget@@H@Z
        486  1E5 00425770 ??0QMainWindow@@QEAA@PEAVQWidget@@V?$QFlags@W4WindowType@Qt@@@@@Z
        487  1E6 00427E80 ??0QMainWindowLayout@@QEAA@PEAVQMainWindow@@PEAVQLayout@@@Z
        488  1E7 00005820 ??0QMatrix4x4@@AEAA@H@Z
        489  1E8 00671590 ??0QMatrix4x4@@QEAA@AEBVQMatrix@@@Z
        490  1E9 00671610 ??0QMatrix4x4@@QEAA@AEBVQTransform@@@Z
        491  1EA 00005830 ??0QMatrix4x4@@QEAA@NNNNNNNNNNNNNNNN@Z
        492  1EB 00671690 ??0QMatrix4x4@@QEAA@PEBN@Z
        493  1EC 00671720 ??0QMatrix4x4@@QEAA@PEBNHH@Z
        494  1ED 000058F0 ??0QMatrix4x4@@QEAA@XZ
        495  1EE 0015E4B0 ??0QMatrix@@AEAA@NNNNNN_N@Z
        496  1EF 0015E4F0 ??0QMatrix@@AEAA@_N@Z
        497  1F0 0015E520 ??0QMatrix@@QEAA@AEBV0@@Z
        498  1F1 0015E560 ??0QMatrix@@QEAA@NNNNNN@Z
        499  1F2 005D2D00 ??0QMatrix@@QEAA@W4Initialization@Qt@@@Z
        500  1F3 0015E5A0 ??0QMatrix@@QEAA@XZ
        501  1F4 0042FB70 ??0QMdiArea@@QEAA@PEAVQWidget@@@Z
        502  1F5 0043B410 ??0QMdiSubWindow@@QEAA@PEAVQWidget@@V?$QFlags@W4WindowType@Qt@@@@@Z
        503  1F6 00446780 ??0QMenu@@IEAA@AEAVQMenuPrivate@@PEAVQWidget@@@Z
        504  1F7 004467E0 ??0QMenu@@QEAA@AEBVQString@@PEAVQWidget@@@Z
        505  1F8 00446890 ??0QMenu@@QEAA@PEAVQWidget@@@Z
        506  1F9 004512C0 ??0QMenuBar@@QEAA@PEAVQWidget@@@Z
        507  1FA 004D9F10 ??0QMessageBox@@QEAA@AEBVQString@@0W4Icon@0@HHHPEAVQWidget@@V?$QFlags@W4WindowType@Qt@@@@@Z
        508  1FB 004DA040 ??0QMessageBox@@QEAA@PEAVQWidget@@@Z
        509  1FC 004DA100 ??0QMessageBox@@QEAA@W4Icon@0@AEBVQString@@1V?$QFlags@W4StandardButton@QMessageBox@@@@PEAVQWidget@@V?$QFlags@W4WindowType@Qt@@@@@Z
        510  1FD 0066EE10 ??0QMimeSource@@QEAA@AEBV0@@Z
        511  1FE 00037370 ??0QMimeSource@@QEAA@XZ
        512  1FF 003BBF10 ??0QMotifStyle@@IEAA@AEAVQMotifStylePrivate@@_N@Z
        513  200 003BBF70 ??0QMotifStyle@@QEAA@_N@Z
        514  201 0066EE20 ??0QMouseEvent@@QEAA@AEBV0@@Z
        515  202 0003CCB0 ??0QMouseEvent@@QEAA@W4Type@QEvent@@AEBVQPoint@@1W4MouseButton@Qt@@V?$QFlags@W4MouseButton@Qt@@@@V?$QFlags@W4KeyboardModifier@Qt@@@@@Z
        516  203 0003CD30 ??0QMouseEvent@@QEAA@W4Type@QEvent@@AEBVQPoint@@W4MouseButton@Qt@@V?$QFlags@W4MouseButton@Qt@@@@V?$QFlags@W4KeyboardModifier@Qt@@@@@Z
        517  204 00670520 ??0QMouseEventTransition@@QEAA@PEAVQObject@@W4Type@QEvent@@W4MouseButton@Qt@@PEAVQState@@@Z
        518  205 00670600 ??0QMouseEventTransition@@QEAA@PEAVQState@@@Z
        519  206 0066EE80 ??0QMoveEvent@@QEAA@AEBV0@@Z
        520  207 0003CEA0 ??0QMoveEvent@@QEAA@AEBVQPoint@@0@Z
        521  208 001010B0 ??0QMovie@@QEAA@AEBVQString@@AEBVQByteArray@@PEAVQObject@@@Z
        522  209 00101200 ??0QMovie@@QEAA@PEAVQIODevice@@AEBVQByteArray@@PEAVQObject@@@Z
        523  20A 001012E0 ??0QMovie@@QEAA@PEAVQObject@@@Z
        524  20B 004B32A0 ??0QPageSetupDialog@@QEAA@PEAVQPrinter@@PEAVQWidget@@@Z
        525  20C 004B3320 ??0QPageSetupDialog@@QEAA@PEAVQWidget@@@Z
        526  20D 001E4310 ??0QPaintBuffer@@QEAA@AEBV0@@Z
        527  20E 001E4360 ??0QPaintBuffer@@QEAA@XZ
        528  20F 001E4550 ??0QPaintBufferResource@@QEAA@P6AXPEAX@ZPEAVQObject@@@Z
        529  210 001E45E0 ??0QPaintBufferSignalProxy@@QEAA@XZ
        530  211 00168970 ??0QPaintDevice@@IEAA@XZ
        531  212 00168D20 ??0QPaintEngine@@IEAA@AEAVQPaintEnginePrivate@@V?$QFlags@W4PaintEngineFeature@QPaintEngine@@@@@Z
        532  213 00168D50 ??0QPaintEngine@@QEAA@V?$QFlags@W4PaintEngineFeature@QPaintEngine@@@@@Z
        533  214 0016E1B0 ??0QPaintEngineEx@@IEAA@AEAVQPaintEngineExPrivate@@@Z
        534  215 0016E1F0 ??0QPaintEngineEx@@QEAA@XZ
        535  216 0001A7B0 ??0QPaintEngineExPrivate@@QEAA@AEBV0@@Z
        536  217 0016E250 ??0QPaintEngineExPrivate@@QEAA@XZ
        537  218 001E4610 ??0QPaintEngineExReplayer@@QEAA@AEBV0@@Z
        538  219 001E4640 ??0QPaintEngineExReplayer@@QEAA@XZ
        539  21A 0001A9C0 ??0QPaintEngineState@@QEAA@AEBV0@@Z
        540  21B 0001A9D0 ??0QPaintEngineState@@QEAA@XZ
        541  21C 0068B1B0 ??0QPaintEvent@@QEAA@AEBV0@@Z
        542  21D 0003CEF0 ??0QPaintEvent@@QEAA@AEBVQRect@@@Z
        543  21E 0003CF60 ??0QPaintEvent@@QEAA@AEBVQRegion@@@Z
        544  21F 00173C60 ??0QPainter@@QEAA@PEAVQPaintDevice@@@Z
        545  220 00173CF0 ??0QPainter@@QEAA@XZ
        546  221 00187430 ??0QPainterPath@@QEAA@AEBV0@@Z
        547  222 00187470 ??0QPainterPath@@QEAA@AEBVQPointF@@@Z
        548  223 00187500 ??0QPainterPath@@QEAA@XZ
        549  224 00187700 ??0QPainterPathStroker@@QEAA@XZ
        550  225 001E4670 ??0QPainterReplayer@@QEAA@AEBV0@@Z
        551  226 001E4710 ??0QPainterReplayer@@QEAA@XZ
        552  227 0001AB00 ??0QPainterState@@QEAA@AEBV0@@Z
        553  228 001741A0 ??0QPainterState@@QEAA@PEBV0@@Z
        554  229 001744B0 ??0QPainterState@@QEAA@XZ
        555  22A 000566E0 ??0QPalette@@QEAA@AEBV0@@Z
        556  22B 00056730 ??0QPalette@@QEAA@AEBVQBrush@@00000000@Z
        557  22C 00056810 ??0QPalette@@QEAA@AEBVQColor@@000000@Z
        558  22D 00056A30 ??0QPalette@@QEAA@AEBVQColor@@0@Z
        559  22E 00057050 ??0QPalette@@QEAA@AEBVQColor@@@Z
        560  22F 000570B0 ??0QPalette@@QEAA@W4GlobalColor@Qt@@@Z
        561  230 00057140 ??0QPalette@@QEAA@XZ
        562  231 00085F90 ??0QPanGesture@@QEAA@PEAVQObject@@@Z
        563  232 001984A0 ??0QPathClipper@@QEAA@AEBVQPainterPath@@0@Z
        564  233 001A8EF0 ??0QPen@@QEAA@AEBV0@@Z
        565  234 001A8F10 ??0QPen@@QEAA@AEBVQBrush@@NW4PenStyle@Qt@@W4PenCapStyle@3@W4PenJoinStyle@3@@Z
        566  235 001A8FA0 ??0QPen@@QEAA@AEBVQColor@@@Z
        567  236 001A90A0 ??0QPen@@QEAA@W4PenStyle@Qt@@@Z
        568  237 001A9160 ??0QPen@@QEAA@XZ
        569  238 000EEE10 ??0QPicture@@IEAA@AEAVQPicturePrivate@@@Z
        570  239 000EEE60 ??0QPicture@@QEAA@AEBV0@@Z
        571  23A 000EEEB0 ??0QPicture@@QEAA@H@Z
        572  23B 000EEF60 ??0QPictureFormatInterface@@QEAA@AEBU0@@Z
        573  23C 000EEF70 ??0QPictureFormatInterface@@QEAA@XZ
        574  23D 000F4030 ??0QPictureFormatPlugin@@QEAA@PEAVQObject@@@Z
        575  23E 000EF080 ??0QPictureIO@@QEAA@AEBVQString@@PEBD@Z
        576  23F 000EF0D0 ??0QPictureIO@@QEAA@PEAVQIODevice@@PEBD@Z
        577  240 000EF120 ??0QPictureIO@@QEAA@XZ
        578  241 000860C0 ??0QPinchGesture@@QEAA@PEAVQObject@@@Z
        579  242 000F4580 ??0QPixmap@@AEAA@AEBVQSize@@H@Z
        580  243 000F4670 ??0QPixmap@@AEAA@AEBVQSize@@W4Type@0@@Z
        581  244 000F4760 ??0QPixmap@@QEAA@AEBV0@@Z
        582  245 000F4890 ??0QPixmap@@QEAA@AEBVQSize@@@Z
        583  246 000F4970 ??0QPixmap@@QEAA@AEBVQString@@PEBDV?$QFlags@W4ImageConversionFlag@Qt@@@@@Z
        584  247 000F4A30 ??0QPixmap@@QEAA@HH@Z
        585  248 000F4B00 ??0QPixmap@@QEAA@PEAVQPixmapData@@@Z
        586  249 000F4B50 ??0QPixmap@@QEAA@QEBQEBD@Z
        587  24A 000F4CF0 ??0QPixmap@@QEAA@XZ
        588  24B 000FD1D0 ??0QPixmapBlurFilter@@QEAA@PEAVQObject@@@Z
        589  24C 000FD2D0 ??0QPixmapColorizeFilter@@QEAA@PEAVQObject@@@Z
        590  24D 000FD430 ??0QPixmapConvolutionFilter@@QEAA@PEAVQObject@@@Z
        591  24E 0001AE20 ??0QPixmapData@@QEAA@AEBV0@@Z
        592  24F 000FB570 ??0QPixmapData@@QEAA@W4PixelType@0@H@Z
        593  250 000FD530 ??0QPixmapDropShadowFilter@@QEAA@PEAVQObject@@@Z
        594  251 000FD620 ??0QPixmapFilter@@IEAA@AEAVQPixmapFilterPrivate@@W4FilterType@0@PEAVQObject@@@Z
        595  252 000FD660 ??0QPixmapFilter@@IEAA@W4FilterType@0@PEAVQObject@@@Z
        596  253 003F8330 ??0QPlaceHolderItem@@QEAA@AEBV0@@Z
        597  254 003FE420 ??0QPlaceHolderItem@@QEAA@PEAVQWidget@@@Z
        598  255 003F8380 ??0QPlaceHolderItem@@QEAA@XZ
        599  256 004A2F00 ??0QPlainTextDocumentLayout@@QEAA@PEAVQTextDocument@@@Z
        600  257 004A3000 ??0QPlainTextEdit@@IEAA@AEAVQPlainTextEditPrivate@@PEAVQWidget@@@Z
        601  258 004A3070 ??0QPlainTextEdit@@QEAA@AEBVQString@@PEAVQWidget@@@Z
        602  259 004A3100 ??0QPlainTextEdit@@QEAA@PEAVQWidget@@@Z
        603  25A 00377F60 ??0QPlastiqueStyle@@QEAA@XZ
        604  25B 00064A70 ??0QPolygon@@QEAA@AEBV0@@Z
        605  25C 0068B220 ??0QPolygon@@QEAA@AEBV?$QVector@VQPoint@@@@@Z
        606  25D 001AB000 ??0QPolygon@@QEAA@AEBVQRect@@_N@Z
        607  25E 0015E5D0 ??0QPolygon@@QEAA@H@Z
        608  25F 001AB180 ??0QPolygon@@QEAA@HPEBH@Z
        609  260 00064A90 ??0QPolygon@@QEAA@XZ
        610  261 0012EFA0 ??0QPolygonF@@QEAA@AEBV0@@Z
        611  262 001DA920 ??0QPolygonF@@QEAA@AEBV?$QVector@VQPointF@@@@@Z
        612  263 001AB1D0 ??0QPolygonF@@QEAA@AEBVQPolygon@@@Z
        613  264 001AB270 ??0QPolygonF@@QEAA@AEBVQRectF@@@Z
        614  265 0015E5F0 ??0QPolygonF@@QEAA@H@Z
        615  266 000E9EA0 ??0QPolygonF@@QEAA@XZ
        616  267 004B3C20 ??0QPrintDialog@@QEAA@PEAVQPrinter@@PEAVQWidget@@@Z
        617  268 004B3CE0 ??0QPrintDialog@@QEAA@PEAVQWidget@@@Z
        618  269 0016D480 ??0QPrintEngine@@QEAA@AEBV0@@Z
        619  26A 0016D490 ??0QPrintEngine@@QEAA@XZ
        620  26B 00502DD0 ??0QPrintPreviewDialog@@QEAA@PEAVQPrinter@@PEAVQWidget@@V?$QFlags@W4WindowType@Qt@@@@@Z
        621  26C 00502EB0 ??0QPrintPreviewDialog@@QEAA@PEAVQWidget@@V?$QFlags@W4WindowType@Qt@@@@@Z
        622  26D 004AB260 ??0QPrintPreviewWidget@@QEAA@PEAVQPrinter@@PEAVQWidget@@V?$QFlags@W4WindowType@Qt@@@@@Z
        623  26E 004AB300 ??0QPrintPreviewWidget@@QEAA@PEAVQWidget@@V?$QFlags@W4WindowType@Qt@@@@@Z
        624  26F 001B6F70 ??0QPrinter@@QEAA@AEBVQPrinterInfo@@W4PrinterMode@0@@Z
        625  270 001B7090 ??0QPrinter@@QEAA@W4PrinterMode@0@@Z
        626  271 001BB280 ??0QPrinterInfo@@AEAA@AEBVQString@@@Z
        627  272 001BB2E0 ??0QPrinterInfo@@QEAA@AEBV0@@Z
        628  273 001BB350 ??0QPrinterInfo@@QEAA@AEBVQPrinter@@@Z
        629  274 001BB870 ??0QPrinterInfo@@QEAA@XZ
        630  275 004564F0 ??0QProgressBar@@QEAA@PEAVQWidget@@@Z
        631  276 004DE960 ??0QProgressDialog@@QEAA@AEBVQString@@0HHPEAVQWidget@@V?$QFlags@W4WindowType@Qt@@@@@Z
        632  277 004DEA20 ??0QProgressDialog@@QEAA@PEAVQWidget@@V?$QFlags@W4WindowType@Qt@@@@@Z
        633  278 00599210 ??0QProxyModel@@IEAA@AEAVQProxyModelPrivate@@PEAVQObject@@@Z
        634  279 005992B0 ??0QProxyModel@@QEAA@PEAVQObject@@@Z
        635  27A 0032BBE0 ??0QProxyStyle@@QEAA@PEAVQStyle@@@Z
        636  27B 004576D0 ??0QPushButton@@IEAA@AEAVQPushButtonPrivate@@PEAVQWidget@@@Z
        637  27C 00457720 ??0QPushButton@@QEAA@AEBVQIcon@@AEBVQString@@PEAVQWidget@@@Z
        638  27D 00457800 ??0QPushButton@@QEAA@AEBVQString@@PEAVQWidget@@@Z
        639  27E 004578C0 ??0QPushButton@@QEAA@PEAVQWidget@@@Z
        640  27F 00001820 ??0QQuaternion@@QEAA@AEBVQVector4D@@@Z
        641  280 00001860 ??0QQuaternion@@QEAA@NAEBVQVector3D@@@Z
        642  281 000018A0 ??0QQuaternion@@QEAA@NNNN@Z
        643  282 000018C0 ??0QQuaternion@@QEAA@XZ
        644  283 00378090 ??0QRadialGradient@@QEAA@AEBV0@@Z
        645  284 00147F60 ??0QRadialGradient@@QEAA@AEBVQPointF@@N0@Z
        646  285 00148070 ??0QRadialGradient@@QEAA@AEBVQPointF@@N0N@Z
        647  286 00148150 ??0QRadialGradient@@QEAA@AEBVQPointF@@N@Z
        648  287 00148200 ??0QRadialGradient@@QEAA@NNN@Z
        649  288 00148290 ??0QRadialGradient@@QEAA@NNNNN@Z
        650  289 001483D0 ??0QRadialGradient@@QEAA@NNNNNN@Z
        651  28A 001484A0 ??0QRadialGradient@@QEAA@XZ
        652  28B 00458C80 ??0QRadioButton@@QEAA@AEBVQString@@PEAVQWidget@@@Z
        653  28C 00458D70 ??0QRadioButton@@QEAA@PEAVQWidget@@@Z
        654  28D 000F4D80 ??0QRasterPixmapData@@QEAA@AEBV0@@Z
        655  28E 001036D0 ??0QRasterPixmapData@@QEAA@W4PixelType@QPixmapData@@@Z
        656  28F 00237090 ??0QRasterWindowSurface@@QEAA@PEAVQWidget@@_N@Z
        657  290 002FBBA0 ??0QRawFont@@QEAA@AEBV0@@Z
        658  291 002FBBD0 ??0QRawFont@@QEAA@AEBVQByteArray@@NW4HintingPreference@QFont@@@Z
        659  292 002FBC90 ??0QRawFont@@QEAA@AEBVQString@@NW4HintingPreference@QFont@@@Z
        660  293 002FBD50 ??0QRawFont@@QEAA@XZ
        661  294 001745F0 ??0QRawFontPrivate@@QEAA@AEBV0@@Z
        662  295 00174640 ??0QRawFontPrivate@@QEAA@XZ
        663  296 00486B80 ??0QRegExpValidator@@QEAA@AEBVQRegExp@@PEAVQObject@@@Z
        664  297 00486BD0 ??0QRegExpValidator@@QEAA@PEAVQObject@@@Z
        665  298 001C2180 ??0QRegion@@QEAA@AEBV0@@Z
        666  299 001C21A0 ??0QRegion@@QEAA@AEBVQBitmap@@@Z
        667  29A 001C2220 ??0QRegion@@QEAA@AEBVQPolygon@@W4FillRule@Qt@@@Z
        668  29B 001C2310 ??0QRegion@@QEAA@AEBVQRect@@W4RegionType@0@@Z
        669  29C 001C2550 ??0QRegion@@QEAA@HHHHW4RegionType@0@@Z
        670  29D 001C25D0 ??0QRegion@@QEAA@XZ
        671  29E 0066EF20 ??0QResizeEvent@@QEAA@AEBV0@@Z
        672  29F 0003CFC0 ??0QResizeEvent@@QEAA@AEBVQSize@@0@Z
        673  2A0 00459660 ??0QRubberBand@@QEAA@W4Shape@0@PEAVQWidget@@@Z
        674  2A1 00234FE0 ??0QRuntimePixmapData@@QEAA@AEBV0@@Z
        675  2A2 00235020 ??0QRuntimePixmapData@@QEAA@PEBVQRuntimeGraphicsSystem@@W4PixelType@QPixmapData@@@Z
        676  2A3 000E9EC0 ??0QScriptItem@@QEAA@HAEBUQScriptAnalysis@@@Z
        677  2A4 000E9F00 ??0QScriptItem@@QEAA@XZ
        678  2A5 000E9F30 ??0QScriptLine@@QEAA@XZ
        679  2A6 0048CB90 ??0QScrollArea@@IEAA@AEAVQScrollAreaPrivate@@PEAVQWidget@@@Z
        680  2A7 0048CC20 ??0QScrollArea@@QEAA@PEAVQWidget@@@Z
        681  2A8 00459C90 ??0QScrollBar@@QEAA@PEAVQWidget@@@Z
        682  2A9 00459D40 ??0QScrollBar@@QEAA@W4Orientation@Qt@@PEAVQWidget@@@Z
        683  2AA 0001AEA0 ??0QSessionManager@@AEAA@PEAVQApplication@@AEAVQString@@1@Z
        684  2AB 00058E20 ??0QShortcut@@QEAA@AEBVQKeySequence@@PEAVQWidget@@PEBD2W4ShortcutContext@Qt@@@Z
        685  2AC 00058F40 ??0QShortcut@@QEAA@PEAVQWidget@@@Z
        686  2AD 0066EF60 ??0QShortcutEvent@@QEAA@AEBV0@@Z
        687  2AE 0003D010 ??0QShortcutEvent@@QEAA@AEBVQKeySequence@@H_N@Z
        688  2AF 0066EFC0 ??0QShowEvent@@QEAA@AEBV0@@Z
        689  2B0 0003D090 ??0QShowEvent@@QEAA@XZ
        690  2B1 004E0B90 ??0QSidebar@@QEAA@PEAVQWidget@@@Z
        691  2B2 0045B890 ??0QSizeGrip@@QEAA@PEAVQWidget@@@Z
        692  2B3 0068B240 ??0QSizePolicy@@AEAA@H@Z
        693  2B4 0004FD60 ??0QSizePolicy@@QEAA@W4Policy@0@0@Z
        694  2B5 003C64F0 ??0QSizePolicy@@QEAA@W4Policy@0@0W4ControlType@0@@Z
        695  2B6 00064AB0 ??0QSizePolicy@@QEAA@XZ
        696  2B7 0045C920 ??0QSlider@@QEAA@PEAVQWidget@@@Z
        697  2B8 0045C9D0 ??0QSlider@@QEAA@W4Orientation@Qt@@PEAVQWidget@@@Z
        698  2B9 00097000 ??0QSoftKeyManager@@AEAA@XZ
        699  2BA 005A23E0 ??0QSortFilterProxyModel@@QEAA@PEAVQObject@@@Z
        700  2BB 000BBC20 ??0QSound@@QEAA@AEBVQString@@PEAVQObject@@@Z
        701  2BC 0068B250 ??0QSpacerItem@@QEAA@AEBV0@@Z
        702  2BD 0004FD70 ??0QSpacerItem@@QEAA@HHW4Policy@QSizePolicy@@0@Z
        703  2BE 00540940 ??0QSpanCollection@@QEAA@AEBV0@@Z
        704  2BF 005409F0 ??0QSpanCollection@@QEAA@XZ
        705  2C0 0045DFC0 ??0QSpinBox@@QEAA@PEAVQWidget@@@Z
        706  2C1 00460090 ??0QSplashScreen@@QEAA@AEBVQPixmap@@V?$QFlags@W4WindowType@Qt@@@@@Z
        707  2C2 00460120 ??0QSplashScreen@@QEAA@PEAVQWidget@@AEBVQPixmap@@V?$QFlags@W4WindowType@Qt@@@@@Z
        708  2C3 00460C10 ??0QSplitter@@QEAA@PEAVQWidget@@@Z
        709  2C4 00460CC0 ??0QSplitter@@QEAA@W4Orientation@Qt@@PEAVQWidget@@@Z
        710  2C5 00460D70 ??0QSplitterHandle@@QEAA@W4Orientation@Qt@@PEAVQSplitter@@@Z
        711  2C6 0005D0D0 ??0QStackedLayout@@QEAA@PEAVQLayout@@@Z
        712  2C7 0005D140 ??0QStackedLayout@@QEAA@PEAVQWidget@@@Z
        713  2C8 0005D1B0 ??0QStackedLayout@@QEAA@XZ
        714  2C9 00465B90 ??0QStackedWidget@@QEAA@PEAVQWidget@@@Z
        715  2CA 005B1500 ??0QStandardItem@@IEAA@AEAVQStandardItemPrivate@@@Z
        716  2CB 005B1520 ??0QStandardItem@@IEAA@AEBV0@@Z
        717  2CC 005B15A0 ??0QStandardItem@@QEAA@AEBVQIcon@@AEBVQString@@@Z
        718  2CD 005B1670 ??0QStandardItem@@QEAA@AEBVQString@@@Z
        719  2CE 005B1700 ??0QStandardItem@@QEAA@HH@Z
        720  2CF 005B1780 ??0QStandardItem@@QEAA@XZ
        721  2D0 005B17D0 ??0QStandardItemModel@@IEAA@AEAVQStandardItemModelPrivate@@PEAVQObject@@@Z
        722  2D1 005B1830 ??0QStandardItemModel@@QEAA@HHPEAVQObject@@@Z
        723  2D2 005B19C0 ??0QStandardItemModel@@QEAA@PEAVQObject@@@Z
        724  2D3 0066EFF0 ??0QStatePrivate@@QEAA@AEBV0@@Z
        725  2D4 002F8D50 ??0QStaticText@@QEAA@AEBV0@@Z
        726  2D5 002F8D80 ??0QStaticText@@QEAA@AEBVQString@@@Z
        727  2D6 002F8E00 ??0QStaticText@@QEAA@XZ
        728  2D7 0016E2E0 ??0QStaticTextItem@@QEAA@AEBV0@@Z
        729  2D8 0016E330 ??0QStaticTextItem@@QEAA@XZ
        730  2D9 002F8E50 ??0QStaticTextPrivate@@QEAA@AEBV0@@Z
        731  2DA 002F8FC0 ??0QStaticTextPrivate@@QEAA@XZ
        732  2DB 00466180 ??0QStatusBar@@QEAA@PEAVQWidget@@@Z
        733  2DC 0066F110 ??0QStatusTipEvent@@QEAA@AEBV0@@Z
        734  2DD 0003D0C0 ??0QStatusTipEvent@@QEAA@AEBVQString@@@Z
        735  2DE 005BC3E0 ??0QStringListModel@@QEAA@AEBVQStringList@@PEAVQObject@@@Z
        736  2DF 005BC450 ??0QStringListModel@@QEAA@PEAVQObject@@@Z
        737  2E0 0001B140 ??0QStroker@@QEAA@AEBV0@@Z
        738  2E1 001CDC20 ??0QStroker@@QEAA@XZ
        739  2E2 0001B210 ??0QStrokerOps@@QEAA@AEBV0@@Z
        740  2E3 001CDC90 ??0QStrokerOps@@QEAA@XZ
        741  2E4 00307110 ??0QStyle@@IEAA@AEAVQStylePrivate@@@Z
        742  2E5 00307140 ??0QStyle@@QEAA@XZ
        743  2E6 00308820 ??0QStyleFactoryInterface@@QEAA@AEBU0@@Z
        744  2E7 00308830 ??0QStyleFactoryInterface@@QEAA@XZ
        745  2E8 00309A60 ??0QStyleHintReturn@@QEAA@HH@Z
        746  2E9 00005950 ??0QStyleHintReturnMask@@QEAA@AEBV0@@Z
        747  2EA 00309A70 ??0QStyleHintReturnMask@@QEAA@XZ
        748  2EB 00005990 ??0QStyleHintReturnVariant@@QEAA@AEBV0@@Z
        749  2EC 00309AA0 ??0QStyleHintReturnVariant@@QEAA@XZ
        750  2ED 00309AD0 ??0QStyleOption@@QEAA@AEBV0@@Z
        751  2EE 00309B50 ??0QStyleOption@@QEAA@HH@Z
        752  2EF 00309BC0 ??0QStyleOptionButton@@IEAA@H@Z
        753  2F0 000059D0 ??0QStyleOptionButton@@QEAA@AEBV0@@Z
        754  2F1 00309C50 ??0QStyleOptionButton@@QEAA@XZ
        755  2F2 00309CF0 ??0QStyleOptionComboBox@@IEAA@H@Z
        756  2F3 00005A80 ??0QStyleOptionComboBox@@QEAA@AEBV0@@Z
        757  2F4 00309D50 ??0QStyleOptionComboBox@@QEAA@XZ
        758  2F5 00005B00 ??0QStyleOptionComplex@@QEAA@AEBV0@@Z
        759  2F6 00309E00 ??0QStyleOptionComplex@@QEAA@HH@Z
        760  2F7 00309E80 ??0QStyleOptionDockWidget@@IEAA@H@Z
        761  2F8 00005B60 ??0QStyleOptionDockWidget@@QEAA@AEBV0@@Z
        762  2F9 00309F00 ??0QStyleOptionDockWidget@@QEAA@XZ
        763  2FA 00309F80 ??0QStyleOptionDockWidgetV2@@IEAA@H@Z
        764  2FB 00005BE0 ??0QStyleOptionDockWidgetV2@@QEAA@AEBV0@@Z
        765  2FC 00309FA0 ??0QStyleOptionDockWidgetV2@@QEAA@AEBVQStyleOptionDockWidget@@@Z
        766  2FD 0030A000 ??0QStyleOptionDockWidgetV2@@QEAA@XZ
        767  2FE 0030A020 ??0QStyleOptionFocusRect@@IEAA@H@Z
        768  2FF 00005C50 ??0QStyleOptionFocusRect@@QEAA@AEBV0@@Z
        769  300 0030A0A0 ??0QStyleOptionFocusRect@@QEAA@XZ
        770  301 0030A120 ??0QStyleOptionFrame@@IEAA@H@Z
        771  302 00005CC0 ??0QStyleOptionFrame@@QEAA@AEBV0@@Z
        772  303 0030A190 ??0QStyleOptionFrame@@QEAA@XZ
        773  304 0030A210 ??0QStyleOptionFrameV2@@IEAA@H@Z
        774  305 00005D20 ??0QStyleOptionFrameV2@@QEAA@AEBV0@@Z
        775  306 0030A230 ??0QStyleOptionFrameV2@@QEAA@AEBVQStyleOptionFrame@@@Z
        776  307 0030A2E0 ??0QStyleOptionFrameV2@@QEAA@XZ
        777  308 0030A360 ??0QStyleOptionFrameV3@@IEAA@H@Z
        778  309 00005D80 ??0QStyleOptionFrameV3@@QEAA@AEBV0@@Z
        779  30A 0030A380 ??0QStyleOptionFrameV3@@QEAA@AEBVQStyleOptionFrame@@@Z
        780  30B 0030A3F0 ??0QStyleOptionFrameV3@@QEAA@XZ
        781  30C 0030A480 ??0QStyleOptionGraphicsItem@@IEAA@H@Z
        782  30D 00005DF0 ??0QStyleOptionGraphicsItem@@QEAA@AEBV0@@Z
        783  30E 0030A510 ??0QStyleOptionGraphicsItem@@QEAA@XZ
        784  30F 0030A5A0 ??0QStyleOptionGroupBox@@IEAA@H@Z
        785  310 00005EA0 ??0QStyleOptionGroupBox@@QEAA@AEBV0@@Z
        786  311 0030A600 ??0QStyleOptionGroupBox@@QEAA@XZ
        787  312 0030A6B0 ??0QStyleOptionHeader@@IEAA@H@Z
        788  313 00005F60 ??0QStyleOptionHeader@@QEAA@AEBV0@@Z
        789  314 0030A760 ??0QStyleOptionHeader@@QEAA@XZ
        790  315 0030A810 ??0QStyleOptionMenuItem@@IEAA@H@Z
        791  316 00006030 ??0QStyleOptionMenuItem@@QEAA@AEBV0@@Z
        792  317 0030A8C0 ??0QStyleOptionMenuItem@@QEAA@XZ
        793  318 0030A970 ??0QStyleOptionProgressBar@@IEAA@H@Z
        794  319 000060A0 ??0QStyleOptionProgressBar@@QEAA@AEBV0@@Z
        795  31A 0030AA00 ??0QStyleOptionProgressBar@@QEAA@XZ
        796  31B 0030AAA0 ??0QStyleOptionProgressBarV2@@IEAA@H@Z
        797  31C 0030AAD0 ??0QStyleOptionProgressBarV2@@QEAA@AEBV0@@Z
        798  31D 0030AB40 ??0QStyleOptionProgressBarV2@@QEAA@AEBVQStyleOptionProgressBar@@@Z
        799  31E 0030ABD0 ??0QStyleOptionProgressBarV2@@QEAA@XZ
        800  31F 0030AC00 ??0QStyleOptionQ3DockWindow@@IEAA@H@Z
        801  320 00006130 ??0QStyleOptionQ3DockWindow@@QEAA@AEBV0@@Z
        802  321 0030AC70 ??0QStyleOptionQ3DockWindow@@QEAA@XZ
        803  322 0030ACF0 ??0QStyleOptionQ3ListView@@IEAA@H@Z
        804  323 00006190 ??0QStyleOptionQ3ListView@@QEAA@AEBV0@@Z
        805  324 0030AD50 ??0QStyleOptionQ3ListView@@QEAA@XZ
        806  325 0030AE10 ??0QStyleOptionQ3ListViewItem@@IEAA@H@Z
        807  326 00006200 ??0QStyleOptionQ3ListViewItem@@QEAA@AEBV0@@Z
        808  327 0030AE90 ??0QStyleOptionQ3ListViewItem@@QEAA@XZ
        809  328 0030AF20 ??0QStyleOptionRubberBand@@IEAA@H@Z
        810  329 00006270 ??0QStyleOptionRubberBand@@QEAA@AEBV0@@Z
        811  32A 0030AFA0 ??0QStyleOptionRubberBand@@QEAA@XZ
        812  32B 0030B020 ??0QStyleOptionSizeGrip@@IEAA@H@Z
        813  32C 000062D0 ??0QStyleOptionSizeGrip@@QEAA@AEBV0@@Z
        814  32D 0030B050 ??0QStyleOptionSizeGrip@@QEAA@XZ
        815  32E 0030B0D0 ??0QStyleOptionSlider@@IEAA@H@Z
        816  32F 00006330 ??0QStyleOptionSlider@@QEAA@AEBV0@@Z
        817  330 0030B110 ??0QStyleOptionSlider@@QEAA@XZ
        818  331 0030B1C0 ??0QStyleOptionSpinBox@@IEAA@H@Z
        819  332 00006380 ??0QStyleOptionSpinBox@@QEAA@AEBV0@@Z
        820  333 0030B1F0 ??0QStyleOptionSpinBox@@QEAA@XZ
        821  334 0030B280 ??0QStyleOptionTab@@IEAA@H@Z
        822  335 000063F0 ??0QStyleOptionTab@@QEAA@AEBV0@@Z
        823  336 0030B320 ??0QStyleOptionTab@@QEAA@XZ
        824  337 0030B3C0 ??0QStyleOptionTabBarBase@@IEAA@H@Z
        825  338 000064A0 ??0QStyleOptionTabBarBase@@QEAA@AEBV0@@Z
        826  339 0030B450 ??0QStyleOptionTabBarBase@@QEAA@XZ
        827  33A 0030B4E0 ??0QStyleOptionTabBarBaseV2@@IEAA@H@Z
        828  33B 00006550 ??0QStyleOptionTabBarBaseV2@@QEAA@AEBV0@@Z
        829  33C 0030B500 ??0QStyleOptionTabBarBaseV2@@QEAA@AEBVQStyleOptionTabBarBase@@@Z
        830  33D 0030B560 ??0QStyleOptionTabBarBaseV2@@QEAA@XZ
        831  33E 0030B580 ??0QStyleOptionTabV2@@IEAA@H@Z
        832  33F 000065D0 ??0QStyleOptionTabV2@@QEAA@AEBV0@@Z
        833  340 0030B5B0 ??0QStyleOptionTabV2@@QEAA@AEBVQStyleOptionTab@@@Z
        834  341 0030B640 ??0QStyleOptionTabV2@@QEAA@XZ
        835  342 0030B680 ??0QStyleOptionTabV3@@IEAA@H@Z
        836  343 00006670 ??0QStyleOptionTabV3@@QEAA@AEBV0@@Z
        837  344 0030B6D0 ??0QStyleOptionTabV3@@QEAA@AEBVQStyleOptionTab@@@Z
        838  345 000066D0 ??0QStyleOptionTabV3@@QEAA@AEBVQStyleOptionTabV2@@@Z
        839  346 0030B7C0 ??0QStyleOptionTabV3@@QEAA@XZ
        840  347 0030B810 ??0QStyleOptionTabWidgetFrame@@IEAA@H@Z
        841  348 00006730 ??0QStyleOptionTabWidgetFrame@@QEAA@AEBV0@@Z
        842  349 0030B8B0 ??0QStyleOptionTabWidgetFrame@@QEAA@XZ
        843  34A 0030B950 ??0QStyleOptionTabWidgetFrameV2@@IEAA@H@Z
        844  34B 000067E0 ??0QStyleOptionTabWidgetFrameV2@@QEAA@AEBV0@@Z
        845  34C 0030B990 ??0QStyleOptionTabWidgetFrameV2@@QEAA@AEBVQStyleOptionTabWidgetFrame@@@Z
        846  34D 0030BA40 ??0QStyleOptionTabWidgetFrameV2@@QEAA@XZ
        847  34E 0030BA80 ??0QStyleOptionTitleBar@@IEAA@H@Z
        848  34F 00006840 ??0QStyleOptionTitleBar@@QEAA@AEBV0@@Z
        849  350 0030BAD0 ??0QStyleOptionTitleBar@@QEAA@XZ
        850  351 0030BB70 ??0QStyleOptionToolBar@@IEAA@H@Z
        851  352 000068F0 ??0QStyleOptionToolBar@@QEAA@AEBV0@@Z
        852  353 0030BC00 ??0QStyleOptionToolBar@@QEAA@XZ
        853  354 0030BCA0 ??0QStyleOptionToolBox@@IEAA@H@Z
        854  355 00006970 ??0QStyleOptionToolBox@@QEAA@AEBV0@@Z
        855  356 0030BD20 ??0QStyleOptionToolBox@@QEAA@XZ
        856  357 0030BDA0 ??0QStyleOptionToolBoxV2@@IEAA@H@Z
        857  358 00006A00 ??0QStyleOptionToolBoxV2@@QEAA@AEBV0@@Z
        858  359 0030BDC0 ??0QStyleOptionToolBoxV2@@QEAA@AEBVQStyleOptionToolBox@@@Z
        859  35A 0030BE30 ??0QStyleOptionToolBoxV2@@QEAA@XZ
        860  35B 0030BE60 ??0QStyleOptionToolButton@@IEAA@H@Z
        861  35C 00006A70 ??0QStyleOptionToolButton@@QEAA@AEBV0@@Z
        862  35D 0030BED0 ??0QStyleOptionToolButton@@QEAA@XZ
        863  35E 0030BF90 ??0QStyleOptionViewItem@@IEAA@H@Z
        864  35F 00006B00 ??0QStyleOptionViewItem@@QEAA@AEBV0@@Z
        865  360 0030C030 ??0QStyleOptionViewItem@@QEAA@XZ
        866  361 0030C0D0 ??0QStyleOptionViewItemV2@@IEAA@H@Z
        867  362 00006BB0 ??0QStyleOptionViewItemV2@@QEAA@AEBV0@@Z
        868  363 0030C0F0 ??0QStyleOptionViewItemV2@@QEAA@AEBVQStyleOptionViewItem@@@Z
        869  364 0030C170 ??0QStyleOptionViewItemV2@@QEAA@XZ
        870  365 0030C1A0 ??0QStyleOptionViewItemV3@@IEAA@H@Z
        871  366 00006C40 ??0QStyleOptionViewItemV3@@QEAA@AEBV0@@Z
        872  367 0030C1E0 ??0QStyleOptionViewItemV3@@QEAA@AEBVQStyleOptionViewItem@@@Z
        873  368 0030C240 ??0QStyleOptionViewItemV3@@QEAA@XZ
        874  369 0030C290 ??0QStyleOptionViewItemV4@@IEAA@H@Z
        875  36A 00006C90 ??0QStyleOptionViewItemV4@@QEAA@AEBV0@@Z
        876  36B 0030C320 ??0QStyleOptionViewItemV4@@QEAA@AEBVQStyleOptionViewItem@@@Z
        877  36C 0030C3C0 ??0QStyleOptionViewItemV4@@QEAA@XZ
        878  36D 0030CDC0 ??0QStylePlugin@@QEAA@PEAVQObject@@@Z
        879  36E 00331320 ??0QStyleSheetStyle@@QEAA@PEAVQStyle@@@Z
        880  36F 005C7BB0 ??0QStyledItemDelegate@@QEAA@PEAVQObject@@@Z
        881  370 00086240 ??0QSwipeGesture@@QEAA@PEAVQObject@@@Z
        882  371 002D7D30 ??0QSyntaxHighlighter@@QEAA@PEAVQObject@@@Z
        883  372 002D7D90 ??0QSyntaxHighlighter@@QEAA@PEAVQTextDocument@@@Z
        884  373 002D7E00 ??0QSyntaxHighlighter@@QEAA@PEAVQTextEdit@@@Z
        885  374 0065BE90 ??0QSystemTrayIcon@@QEAA@AEBVQIcon@@PEAVQObject@@@Z
        886  375 0065BF20 ??0QSystemTrayIcon@@QEAA@PEAVQObject@@@Z
        887  376 00468440 ??0QTabBar@@QEAA@PEAVQWidget@@@Z
        888  377 00470DD0 ??0QTabWidget@@QEAA@PEAVQWidget@@@Z
        889  378 00540A80 ??0QTableView@@IEAA@AEAVQTableViewPrivate@@PEAVQWidget@@@Z
        890  379 00540AD0 ??0QTableView@@QEAA@PEAVQWidget@@@Z
        891  37A 0057EAB0 ??0QTableWidget@@QEAA@HHPEAVQWidget@@@Z
        892  37B 0057EBA0 ??0QTableWidget@@QEAA@PEAVQWidget@@@Z
        893  37C 0057EC70 ??0QTableWidgetItem@@QEAA@AEBV0@@Z
        894  37D 0057ED10 ??0QTableWidgetItem@@QEAA@AEBVQIcon@@AEBVQString@@H@Z
        895  37E 0057EE00 ??0QTableWidgetItem@@QEAA@AEBVQString@@H@Z
        896  37F 0057EEB0 ??0QTableWidgetItem@@QEAA@H@Z
        897  380 0057EF70 ??0QTableWidgetSelectionRange@@QEAA@AEBV0@@Z
        898  381 0057EF90 ??0QTableWidgetSelectionRange@@QEAA@HHHH@Z
        899  382 0057EFB0 ??0QTableWidgetSelectionRange@@QEAA@XZ
        900  383 0066F160 ??0QTabletEvent@@QEAA@AEBV0@@Z
        901  384 0003D110 ??0QTabletEvent@@QEAA@W4Type@QEvent@@AEBVQPoint@@1AEBVQPointF@@HHNHHNNHV?$QFlags@W4KeyboardModifier@Qt@@@@_J@Z
        902  385 00086380 ??0QTapAndHoldGesture@@QEAA@PEAVQObject@@@Z
        903  386 00086480 ??0QTapGesture@@QEAA@PEAVQObject@@@Z
        904  387 001D4790 ??0QTessellator@@QEAA@AEBV0@@Z
        905  388 001D47B0 ??0QTessellator@@QEAA@XZ
        906  389 00067B70 ??0QTextBlock@@QEAA@AEBV0@@Z
        907  38A 00067B80 ??0QTextBlock@@QEAA@PEAVQTextDocumentPrivate@@H@Z
        908  38B 00067B90 ??0QTextBlock@@QEAA@XZ
        909  38C 0028A350 ??0QTextBlockFormat@@IEAA@AEBVQTextFormat@@@Z
        910  38D 00064B10 ??0QTextBlockFormat@@QEAA@AEBV0@@Z
        911  38E 0028A390 ??0QTextBlockFormat@@QEAA@XZ
        912  38F 00290AA0 ??0QTextBlockGroup@@IEAA@AEAVQTextBlockGroupPrivate@@PEAVQTextDocument@@@Z
        913  390 00290AD0 ??0QTextBlockGroup@@IEAA@PEAVQTextDocument@@@Z
        914  391 00067BA0 ??0QTextBlockUserData@@QEAA@AEBV0@@Z
        915  392 00067BB0 ??0QTextBlockUserData@@QEAA@XZ
        916  393 004786F0 ??0QTextBrowser@@QEAA@PEAVQWidget@@@Z
        917  394 0028A3B0 ??0QTextCharFormat@@IEAA@AEBVQTextFormat@@@Z
        918  395 00064B30 ??0QTextCharFormat@@QEAA@AEBV0@@Z
        919  396 0028A3F0 ??0QTextCharFormat@@QEAA@XZ
        920  397 00264760 ??0QTextControl@@QEAA@AEBVQString@@PEAVQObject@@@Z
        921  398 00264800 ??0QTextControl@@QEAA@PEAVQObject@@@Z
        922  399 002648B0 ??0QTextControl@@QEAA@PEAVQTextDocument@@PEAVQObject@@@Z
        923  39A 002C2840 ??0QTextCursor@@QEAA@AEBV0@@Z
        924  39B 002C2870 ??0QTextCursor@@QEAA@AEBVQTextBlock@@@Z
        925  39C 002C2990 ??0QTextCursor@@QEAA@PEAVQTextCursorPrivate@@@Z
        926  39D 002C29C0 ??0QTextCursor@@QEAA@PEAVQTextDocument@@@Z
        927  39E 002C2A70 ??0QTextCursor@@QEAA@PEAVQTextDocumentPrivate@@H@Z
        928  39F 002C2BB0 ??0QTextCursor@@QEAA@PEAVQTextFrame@@@Z
        929  3A0 002C2CE0 ??0QTextCursor@@QEAA@XZ
        930  3A1 00295AA0 ??0QTextDocument@@IEAA@AEAVQTextDocumentPrivate@@PEAVQObject@@@Z
        931  3A2 00295AE0 ??0QTextDocument@@QEAA@AEBVQString@@PEAVQObject@@@Z
        932  3A3 00295B80 ??0QTextDocument@@QEAA@PEAVQObject@@@Z
        933  3A4 002C9B00 ??0QTextDocumentFragment@@QEAA@AEBV0@@Z
        934  3A5 002C9B30 ??0QTextDocumentFragment@@QEAA@AEBVQTextCursor@@@Z
        935  3A6 002C9BA0 ??0QTextDocumentFragment@@QEAA@PEBVQTextDocument@@@Z
        936  3A7 002C9C20 ??0QTextDocumentFragment@@QEAA@XZ
        937  3A8 002B2E80 ??0QTextDocumentLayout@@QEAA@PEAVQTextDocument@@@Z
        938  3A9 002A0030 ??0QTextDocumentPrivate@@QEAA@XZ
        939  3AA 002D6C70 ??0QTextDocumentWriter@@QEAA@AEBVQString@@AEBVQByteArray@@@Z
        940  3AB 002D6D50 ??0QTextDocumentWriter@@QEAA@PEAVQIODevice@@AEBVQByteArray@@@Z
        941  3AC 002D6DF0 ??0QTextDocumentWriter@@QEAA@XZ
        942  3AD 004739C0 ??0QTextEdit@@IEAA@AEAVQTextEditPrivate@@PEAVQWidget@@@Z
        943  3AE 00473A30 ??0QTextEdit@@QEAA@AEBVQString@@PEAVQWidget@@@Z
        944  3AF 00473AC0 ??0QTextEdit@@QEAA@PEAVQWidget@@@Z
        945  3B0 000E9F50 ??0QTextEngine@@QEAA@AEBV0@@Z
        946  3B1 002727C0 ??0QTextEngine@@QEAA@AEBVQString@@AEBVQFont@@@Z
        947  3B2 002728A0 ??0QTextEngine@@QEAA@XZ
        948  3B3 0028A410 ??0QTextFormat@@QEAA@AEBV0@@Z
        949  3B4 0028A450 ??0QTextFormat@@QEAA@H@Z
        950  3B5 0028A460 ??0QTextFormat@@QEAA@XZ
        951  3B6 0028A480 ??0QTextFormatCollection@@QEAA@AEBV0@@Z
        952  3B7 000EA0B0 ??0QTextFormatCollection@@QEAA@XZ
        953  3B8 00067BC0 ??0QTextFragment@@QEAA@AEBV0@@Z
        954  3B9 00067BE0 ??0QTextFragment@@QEAA@PEBVQTextDocumentPrivate@@HH@Z
        955  3BA 00067BF0 ??0QTextFragment@@QEAA@XZ
        956  3BB 00290BC0 ??0QTextFrame@@IEAA@AEAVQTextFramePrivate@@PEAVQTextDocument@@@Z
        957  3BC 00290BF0 ??0QTextFrame@@QEAA@PEAVQTextDocument@@@Z
        958  3BD 0028A690 ??0QTextFrameFormat@@IEAA@AEBVQTextFormat@@@Z
        959  3BE 00064B50 ??0QTextFrameFormat@@QEAA@AEBV0@@Z
        960  3BF 0028A6D0 ??0QTextFrameFormat@@QEAA@XZ
        961  3C0 00067C00 ??0QTextFrameLayoutData@@QEAA@AEBV0@@Z
        962  3C1 00067C10 ??0QTextFrameLayoutData@@QEAA@XZ
        963  3C2 0028A780 ??0QTextImageFormat@@IEAA@AEBVQTextFormat@@@Z
        964  3C3 00064B70 ??0QTextImageFormat@@QEAA@AEBV0@@Z
        965  3C4 0028A7C0 ??0QTextImageFormat@@QEAA@XZ
        966  3C5 00067C20 ??0QTextInlineObject@@QEAA@HPEAVQTextEngine@@@Z
        967  3C6 00067C30 ??0QTextInlineObject@@QEAA@XZ
        968  3C7 00067C40 ??0QTextLayout@@AEAA@PEAVQTextEngine@@@Z
        969  3C8 0027E1F0 ??0QTextLayout@@QEAA@AEBVQString@@@Z
        970  3C9 0027E250 ??0QTextLayout@@QEAA@AEBVQString@@AEBVQFont@@PEAVQPaintDevice@@@Z
        971  3CA 0027E390 ??0QTextLayout@@QEAA@AEBVQTextBlock@@@Z
        972  3CB 0027E3F0 ??0QTextLayout@@QEAA@XZ
        973  3CC 00064B90 ??0QTextLength@@QEAA@W4Type@0@N@Z
        974  3CD 00064BA0 ??0QTextLength@@QEAA@XZ
        975  3CE 00067C50 ??0QTextLine@@AEAA@HPEAVQTextEngine@@@Z
        976  3CF 00067C60 ??0QTextLine@@QEAA@XZ
        977  3D0 002D60B0 ??0QTextList@@QEAA@PEAVQTextDocument@@@Z
        978  3D1 0028A820 ??0QTextListFormat@@IEAA@AEBVQTextFormat@@@Z
        979  3D2 00064BB0 ??0QTextListFormat@@QEAA@AEBV0@@Z
        980  3D3 0028A860 ??0QTextListFormat@@QEAA@XZ
        981  3D4 00290D00 ??0QTextObject@@IEAA@AEAVQTextObjectPrivate@@PEAVQTextDocument@@@Z
        982  3D5 00290D30 ??0QTextObject@@IEAA@PEAVQTextDocument@@@Z
        983  3D6 00067C70 ??0QTextObjectInterface@@QEAA@AEBV0@@Z
        984  3D7 00067C80 ??0QTextObjectInterface@@QEAA@XZ
        985  3D8 002D6EC0 ??0QTextOdfWriter@@QEAA@AEBV0@@Z
        986  3D9 002F2990 ??0QTextOdfWriter@@QEAA@AEBVQTextDocument@@PEAVQIODevice@@@Z
        987  3DA 00294CB0 ??0QTextOption@@QEAA@AEBV0@@Z
        988  3DB 00294D90 ??0QTextOption@@QEAA@V?$QFlags@W4AlignmentFlag@Qt@@@@@Z
        989  3DC 00294DF0 ??0QTextOption@@QEAA@XZ
        990  3DD 002D1100 ??0QTextTable@@QEAA@PEAVQTextDocument@@@Z
        991  3DE 00264B70 ??0QTextTableCell@@AEAA@PEBVQTextTable@@H@Z
        992  3DF 00264B80 ??0QTextTableCell@@QEAA@AEBV0@@Z
        993  3E0 00264B90 ??0QTextTableCell@@QEAA@XZ
        994  3E1 0028A8C0 ??0QTextTableCellFormat@@IEAA@AEBVQTextFormat@@@Z
        995  3E2 00064BD0 ??0QTextTableCellFormat@@QEAA@AEBV0@@Z
        996  3E3 0028A900 ??0QTextTableCellFormat@@QEAA@XZ
        997  3E4 0028A960 ??0QTextTableFormat@@IEAA@AEBVQTextFormat@@@Z
        998  3E5 00064BF0 ??0QTextTableFormat@@QEAA@AEBV0@@Z
        999  3E6 0028A9A0 ??0QTextTableFormat@@QEAA@XZ
       1000  3E7 0001B280 ??0QTextureGlyphCache@@QEAA@AEBV0@@Z
       1001  3E8 0001B3A0 ??0QTextureGlyphCache@@QEAA@W4Type@QFontEngineGlyphCache@@AEBVQTransform@@@Z
       1002  3E9 003EC120 ??0QTimeEdit@@QEAA@AEBVQTime@@PEAVQWidget@@@Z
       1003  3EA 003EC1E0 ??0QTimeEdit@@QEAA@PEAVQWidget@@@Z
       1004  3EB 0047BD70 ??0QToolBar@@QEAA@AEBVQString@@PEAVQWidget@@@Z
       1005  3EC 0047BE10 ??0QToolBar@@QEAA@PEAVQWidget@@@Z
       1006  3ED 0066F210 ??0QToolBarChangeEvent@@QEAA@AEBV0@@Z
       1007  3EE 0003D1F0 ??0QToolBarChangeEvent@@QEAA@_N@Z
       1008  3EF 004816E0 ??0QToolBarExtension@@QEAA@PEAVQWidget@@@Z
       1009  3F0 00481EF0 ??0QToolBox@@QEAA@PEAVQWidget@@V?$QFlags@W4WindowType@Qt@@@@@Z
       1010  3F1 00484670 ??0QToolButton@@IEAA@AEAVQToolButtonPrivate@@PEAVQWidget@@@Z
       1011  3F2 004846C0 ??0QToolButton@@QEAA@PEAVQWidget@@@Z
       1012  3F3 0066F250 ??0QTouchEvent@@QEAA@AEBV0@@Z
       1013  3F4 0003D230 ??0QTouchEvent@@QEAA@W4Type@QEvent@@W4DeviceType@0@V?$QFlags@W4KeyboardModifier@Qt@@@@V?$QFlags@W4TouchPointState@Qt@@@@AEBV?$QList@VTouchPoint@QTouchEvent@@@@@Z
       1014  3F5 001DA940 ??0QTransform@@AEAA@NNNNNNNNN_N@Z
       1015  3F6 001DA9B0 ??0QTransform@@AEAA@_N@Z
       1016  3F7 00006D20 ??0QTransform@@QEAA@AEBV0@@Z
       1017  3F8 001DA9F0 ??0QTransform@@QEAA@AEBVQMatrix@@@Z
       1018  3F9 001DAA60 ??0QTransform@@QEAA@NNNNNN@Z
       1019  3FA 001DAAC0 ??0QTransform@@QEAA@NNNNNNNNN@Z
       1020  3FB 005D2D10 ??0QTransform@@QEAA@W4Initialization@Qt@@@Z
       1021  3FC 001DAB30 ??0QTransform@@QEAA@XZ
       1022  3FD 0054F290 ??0QTreeView@@IEAA@AEAVQTreeViewPrivate@@PEAVQWidget@@@Z
       1023  3FE 0054F2E0 ??0QTreeView@@QEAA@PEAVQWidget@@@Z
       1024  3FF 0054F410 ??0QTreeViewPrivate@@QEAA@XZ
       1025  400 0058B510 ??0QTreeWidget@@QEAA@PEAVQWidget@@@Z
       1026  401 0058B780 ??0QTreeWidgetItem@@QEAA@AEBV0@@Z
       1027  402 0058B8C0 ??0QTreeWidgetItem@@QEAA@AEBVQStringList@@H@Z
       1028  403 0058B9F0 ??0QTreeWidgetItem@@QEAA@H@Z
       1029  404 0058BAC0 ??0QTreeWidgetItem@@QEAA@PEAV0@0H@Z
       1030  405 0058BC10 ??0QTreeWidgetItem@@QEAA@PEAV0@AEBVQStringList@@H@Z
       1031  406 0058BD70 ??0QTreeWidgetItem@@QEAA@PEAV0@H@Z
       1032  407 0058BE80 ??0QTreeWidgetItem@@QEAA@PEAVQTreeWidget@@AEBVQStringList@@H@Z
       1033  408 0058C060 ??0QTreeWidgetItem@@QEAA@PEAVQTreeWidget@@H@Z
       1034  409 0058C1B0 ??0QTreeWidgetItem@@QEAA@PEAVQTreeWidget@@PEAV0@H@Z
       1035  40A 005BD640 ??0QTreeWidgetItemIterator@@QEAA@AEBV0@@Z
       1036  40B 005BD6C0 ??0QTreeWidgetItemIterator@@QEAA@PEAVQTreeWidget@@V?$QFlags@W4IteratorFlag@QTreeWidgetItemIterator@@@@@Z
       1037  40C 005BD830 ??0QTreeWidgetItemIterator@@QEAA@PEAVQTreeWidgetItem@@V?$QFlags@W4IteratorFlag@QTreeWidgetItemIterator@@@@@Z
       1038  40D 00669160 ??0QUndoCommand@@QEAA@AEBVQString@@PEAV0@@Z
       1039  40E 00669220 ??0QUndoCommand@@QEAA@PEAV0@@Z
       1040  40F 00667A80 ??0QUndoGroup@@QEAA@PEAVQObject@@@Z
       1041  410 00669330 ??0QUndoStack@@QEAA@PEAVQObject@@@Z
       1042  411 0066B970 ??0QUndoView@@QEAA@PEAVQUndoGroup@@PEAVQWidget@@@Z
       1043  412 0066BA30 ??0QUndoView@@QEAA@PEAVQUndoStack@@PEAVQWidget@@@Z
       1044  413 0066BB00 ??0QUndoView@@QEAA@PEAVQWidget@@@Z
       1045  414 004E0BC0 ??0QUrlModel@@QEAA@PEAVQObject@@@Z
       1046  415 000335F0 ??0QVBoxLayout@@QEAA@PEAVQWidget@@@Z
       1047  416 00033630 ??0QVBoxLayout@@QEAA@XZ
       1048  417 00486C40 ??0QValidator@@IEAA@AEAVQObjectPrivate@@PEAVQObject@@@Z
       1049  418 00486C70 ??0QValidator@@IEAA@AEAVQValidatorPrivate@@PEAVQObject@@@Z
       1050  419 00486CA0 ??0QValidator@@QEAA@PEAVQObject@@@Z
       1051  41A 000018E0 ??0QVector2D@@AEAA@MMH@Z
       1052  41B 000018F0 ??0QVector2D@@QEAA@AEBVQPoint@@@Z
       1053  41C 00001940 ??0QVector2D@@QEAA@AEBVQPointF@@@Z
       1054  41D 00676500 ??0QVector2D@@QEAA@AEBVQVector3D@@@Z
       1055  41E 00676510 ??0QVector2D@@QEAA@AEBVQVector4D@@@Z
       1056  41F 00001990 ??0QVector2D@@QEAA@NN@Z
       1057  420 000019B0 ??0QVector2D@@QEAA@XZ
       1058  421 000019C0 ??0QVector3D@@AEAA@MMMH@Z
       1059  422 000019E0 ??0QVector3D@@QEAA@AEBVQPoint@@@Z
       1060  423 00001A30 ??0QVector3D@@QEAA@AEBVQPointF@@@Z
       1061  424 00676950 ??0QVector3D@@QEAA@AEBVQVector2D@@@Z
       1062  425 00676970 ??0QVector3D@@QEAA@AEBVQVector2D@@N@Z
       1063  426 00676990 ??0QVector3D@@QEAA@AEBVQVector4D@@@Z
       1064  427 00001A80 ??0QVector3D@@QEAA@NNN@Z
       1065  428 00001AB0 ??0QVector3D@@QEAA@XZ
       1066  429 00001AC0 ??0QVector4D@@AEAA@MMMMH@Z
       1067  42A 00001AE0 ??0QVector4D@@QEAA@AEBVQPoint@@@Z
       1068  42B 00001B30 ??0QVector4D@@QEAA@AEBVQPointF@@@Z
       1069  42C 006773F0 ??0QVector4D@@QEAA@AEBVQVector2D@@@Z
       1070  42D 00677410 ??0QVector4D@@QEAA@AEBVQVector2D@@NN@Z
       1071  42E 00677440 ??0QVector4D@@QEAA@AEBVQVector3D@@@Z
       1072  42F 00677460 ??0QVector4D@@QEAA@AEBVQVector3D@@N@Z
       1073  430 00001B80 ??0QVector4D@@QEAA@NNNN@Z
       1074  431 00001BC0 ??0QVector4D@@QEAA@XZ
       1075  432 0001B5D0 ??0QVectorPath@@QEAA@PEBNHPEBW4ElementType@QPainterPath@@I@Z
       1076  433 00106A70 ??0QVolatileImage@@QEAA@AEBV0@@Z
       1077  434 00106AA0 ??0QVolatileImage@@QEAA@AEBVQImage@@@Z
       1078  435 00106B00 ??0QVolatileImage@@QEAA@HHW4Format@QImage@@@Z
       1079  436 00106B80 ??0QVolatileImage@@QEAA@PEAX0@Z
       1080  437 00106BF0 ??0QVolatileImage@@QEAA@XZ
       1081  438 00067FD0 ??0QWhatsThis@@AEAA@XZ
       1082  439 0066F2E0 ??0QWhatsThisClickedEvent@@QEAA@AEBV0@@Z
       1083  43A 0003D3F0 ??0QWhatsThisClickedEvent@@QEAA@AEBVQString@@@Z
       1084  43B 0066F330 ??0QWheelEvent@@QEAA@AEBV0@@Z
       1085  43C 0003D440 ??0QWheelEvent@@QEAA@AEBVQPoint@@0HV?$QFlags@W4MouseButton@Qt@@@@V?$QFlags@W4KeyboardModifier@Qt@@@@W4Orientation@Qt@@@Z
       1086  43D 0003D4D0 ??0QWheelEvent@@QEAA@AEBVQPoint@@HV?$QFlags@W4MouseButton@Qt@@@@V?$QFlags@W4KeyboardModifier@Qt@@@@W4Orientation@Qt@@@Z
       1087  43E 0006BB00 ??0QWidget@@IEAA@AEAVQWidgetPrivate@@PEAV0@V?$QFlags@W4WindowType@Qt@@@@@Z
       1088  43F 0006BB80 ??0QWidget@@QEAA@PEAV0@V?$QFlags@W4WindowType@Qt@@@@@Z
       1089  440 00084EB0 ??0QWidgetAction@@QEAA@PEAVQObject@@@Z
       1090  441 0006BC20 ??0QWidgetBackingStore@@QEAA@AEBV0@@Z
       1091  442 00237DA0 ??0QWidgetBackingStore@@QEAA@PEAVQWidget@@@Z
       1092  443 0006BD10 ??0QWidgetBackingStoreTracker@@QEAA@XZ
       1093  444 00054B60 ??0QWidgetItem@@QEAA@PEAVQWidget@@@Z
       1094  445 00054B80 ??0QWidgetItemV2@@QEAA@PEAVQWidget@@@Z
       1095  446 00006EC0 ??0QWidgetPrivate@@QEAA@AEBV0@@Z
       1096  447 0006BEA0 ??0QWidgetPrivate@@QEAA@H@Z
       1097  448 0048A4A0 ??0QWidgetResizeHandler@@QEAA@PEAVQWidget@@0@Z
       1098  449 0066F390 ??0QWindowStateChangeEvent@@QEAA@AEBV0@@Z
       1099  44A 0003D570 ??0QWindowStateChangeEvent@@QEAA@V?$QFlags@W4WindowState@Qt@@@@@Z
       1100  44B 0003D5B0 ??0QWindowStateChangeEvent@@QEAA@V?$QFlags@W4WindowState@Qt@@@@_N@Z
       1101  44C 0001B5F0 ??0QWindowSurface@@QEAA@AEBV0@@Z
       1102  44D 001E17A0 ??0QWindowSurface@@QEAA@PEAVQWidget@@_N@Z
       1103  44E 0068B2A0 ??0QWindowsMime@@QEAA@AEBV0@@Z
       1104  44F 000ABA80 ??0QWindowsMime@@QEAA@XZ
       1105  450 003B05F0 ??0QWindowsStyle@@IEAA@AEAVQWindowsStylePrivate@@@Z
       1106  451 003B0620 ??0QWindowsStyle@@QEAA@XZ
       1107  452 0035D310 ??0QWindowsVistaStyle@@QEAA@XZ
       1108  453 00368BB0 ??0QWindowsXPStyle@@QEAA@AEAVQWindowsXPStylePrivate@@@Z
       1109  454 00368BE0 ??0QWindowsXPStyle@@QEAA@XZ
       1110  455 001877F0 ??0QWingedEdge@@QEAA@AEBV0@@Z
       1111  456 001985F0 ??0QWingedEdge@@QEAA@AEBVQPainterPath@@0@Z
       1112  457 00198710 ??0QWingedEdge@@QEAA@XZ
       1113  458 004F6CF0 ??0QWizard@@QEAA@PEAVQWidget@@V?$QFlags@W4WindowType@Qt@@@@@Z
       1114  459 004F73A0 ??0QWizardPage@@QEAA@PEAVQWidget@@@Z
       1115  45A 0048E5A0 ??0QWorkspace@@QEAA@PEAVQWidget@@@Z
       1116  45B 002EE960 ??0QZipReader@@QEAA@AEBVQString@@V?$QFlags@W4OpenModeFlag@QIODevice@@@@@Z
       1117  45C 002EEA90 ??0QZipReader@@QEAA@PEAVQIODevice@@@Z
       1118  45D 002EEB80 ??0QZipWriter@@QEAA@AEBVQString@@V?$QFlags@W4OpenModeFlag@QIODevice@@@@@Z
       1119  45E 002EECB0 ??0QZipWriter@@QEAA@PEAVQIODevice@@@Z
       1120  45F 0001B610 ??0Selector@QCss@@QEAA@AEBU01@@Z
       1121  460 0001B650 ??0Selector@QCss@@QEAA@XZ
       1122  461 0001B770 ??0StyleSelector@QCss@@QEAA@AEBV01@@Z
       1123  462 0001B7F0 ??0StyleSelector@QCss@@QEAA@XZ
       1124  463 0001BA80 ??0Symbol@QCss@@QEAA@AEBU01@@Z
       1125  464 0001BAC0 ??0Symbol@QCss@@QEAA@XZ
       1126  465 0068B2B0 ??0Tab@QTextOption@@QEAA@NW4TabType@1@VQChar@@@Z
       1127  466 0028AA60 ??0Tab@QTextOption@@QEAA@XZ
       1128  467 0003D600 ??0TouchPoint@QTouchEvent@@QEAA@AEBV01@@Z
       1129  468 0003D620 ??0TouchPoint@QTouchEvent@@QEAA@H@Z
       1130  469 0001BAF0 ??0Value@QCss@@QEAA@AEBU01@@Z
       1131  46A 0001BB20 ??0Value@QCss@@QEAA@XZ
       1132  46B 0001BB50 ??0ValueExtractor@QCss@@QEAA@AEBU01@@Z
       1133  46C 002DAD80 ??0ValueExtractor@QCss@@QEAA@AEBV?$QVector@UDeclaration@QCss@@@@AEBVQPalette@@@Z
       1134  46D 00068240 ??0iterator@QTextBlock@@AEAA@PEBVQTextDocumentPrivate@@HHH@Z
       1135  46E 00068260 ??0iterator@QTextBlock@@QEAA@AEBV01@@Z
       1136  46F 00068280 ??0iterator@QTextBlock@@QEAA@XZ
       1137  470 00290E50 ??0iterator@QTextFrame@@AEAA@PEAV1@HHH@Z
       1138  471 00290E70 ??0iterator@QTextFrame@@QEAA@AEBV01@@Z
       1139  472 00290EA0 ??0iterator@QTextFrame@@QEAA@XZ
       1140  473 00331D20 ??1?$QList@VQItemSelectionRange@@@@QEAA@XZ
       1141  474 0001CAE0 ??1Declaration@QCss@@QEAA@XZ
       1142  475 002EEF40 ??1FileInfo@QZipReader@@QEAA@XZ
       1143  476 000F7EC0 ??1Key@QPixmapCache@@QEAA@XZ
       1144  477 0001CC20 ??1Parser@QCss@@QEAA@XZ
       1145  478 003C65B0 ??1QAbstractButton@@UEAA@XZ
       1146  479 005D3420 ??1QAbstractGraphicsShapeItem@@UEAA@XZ
       1147  47A 0055E600 ??1QAbstractItemDelegate@@UEAA@XZ
       1148  47B 005125E0 ??1QAbstractItemView@@UEAA@XZ
       1149  47C 00512690 ??1QAbstractItemViewPrivate@@UEAA@XZ
       1150  47D 004B7920 ??1QAbstractPageSetupDialog@@UEAA@XZ
       1151  47E 004B7160 ??1QAbstractPrintDialog@@UEAA@XZ
       1152  47F 0059A6F0 ??1QAbstractProxyModel@@UEAA@XZ
       1153  480 00487E80 ??1QAbstractScrollArea@@UEAA@XZ
       1154  481 000076A0 ??1QAbstractScrollAreaPrivate@@UEAA@XZ
       1155  482 003C9BD0 ??1QAbstractSlider@@UEAA@XZ
       1156  483 003CB750 ??1QAbstractSpinBox@@UEAA@XZ
       1157  484 002B19F0 ??1QAbstractTextDocumentLayout@@UEAA@XZ
       1158  485 0005E800 ??1QAbstractUndoItem@@UEAA@XZ
       1159  486 00506D90 ??1QAccessible2Interface@@UEAA@XZ
       1160  487 00506DA0 ??1QAccessibleActionInterface@@UEAA@XZ
       1161  488 00505DD0 ??1QAccessibleApplication@@UEAA@XZ
       1162  489 00506DB0 ??1QAccessibleEditableTextInterface@@UEAA@XZ
       1163  48A 0001CCB0 ??1QAccessibleEvent@@UEAA@XZ
       1164  48B 00505DE0 ??1QAccessibleFactoryInterface@@UEAA@XZ
       1165  48C 00506DC0 ??1QAccessibleImageInterface@@UEAA@XZ
       1166  48D 0001CCE0 ??1QAccessibleInterface@@UEAA@XZ
       1167  48E 0001CCF0 ??1QAccessibleInterfaceEx@@UEAA@XZ
       1168  48F 00507F60 ??1QAccessibleObject@@MEAA@XZ
       1169  490 00507FC0 ??1QAccessibleObjectEx@@MEAA@XZ
       1170  491 0050CDA0 ??1QAccessiblePlugin@@UEAA@XZ
       1171  492 00506DD0 ??1QAccessibleSimpleEditableTextInterface@@UEAA@XZ
       1172  493 00506DE0 ??1QAccessibleTable2CellInterface@@UEAA@XZ
       1173  494 00506DF0 ??1QAccessibleTable2Interface@@UEAA@XZ
       1174  495 00506E00 ??1QAccessibleTableInterface@@UEAA@XZ
       1175  496 00506E10 ??1QAccessibleTextInterface@@UEAA@XZ
       1176  497 00506E20 ??1QAccessibleValueInterface@@UEAA@XZ
       1177  498 005093D0 ??1QAccessibleWidget@@MEAA@XZ
       1178  499 00509460 ??1QAccessibleWidgetEx@@MEAA@XZ
       1179  49A 000076F0 ??1QAction@@UEAA@XZ
       1180  49B 0003D740 ??1QActionEvent@@UEAA@XZ
       1181  49C 00016C30 ??1QActionGroup@@UEAA@XZ
       1182  49D 00007880 ??1QActionPrivate@@UEAA@XZ
       1183  49E 0001CD00 ??1QApplication@@UEAA@XZ
       1184  49F 0001D2A0 ??1QApplicationPrivate@@UEAA@XZ
       1185  4A0 0065BFF0 ??1QBalloonTip@@MEAA@XZ
       1186  4A1 00670E40 ??1QBasicKeyEventTransition@@UEAA@XZ
       1187  4A2 00671230 ??1QBasicMouseEventTransition@@UEAA@XZ
       1188  4A3 000BCC40 ??1QBitmap@@UEAA@XZ
       1189  4A4 0022CCE0 ??1QBlittable@@UEAA@XZ
       1190  4A5 00104D10 ??1QBlittablePixmapData@@UEAA@XZ
       1191  4A6 0001D450 ??1QBlitterPaintEngine@@UEAA@XZ
       1192  4A7 000336F0 ??1QBoxLayout@@UEAA@XZ
       1193  4A8 00148700 ??1QBrush@@QEAA@XZ
       1194  4A9 003C66E0 ??1QButtonGroup@@UEAA@XZ
       1195  4AA 0035BA40 ??1QCDEStyle@@UEAA@XZ
       1196  4AB 003D3C90 ??1QCalendarWidget@@UEAA@XZ
       1197  4AC 00332110 ??1QCheckBox@@UEAA@XZ
       1198  4AD 003993E0 ??1QCleanlooksStyle@@UEAA@XZ
       1199  4AE 000A51F0 ??1QClipboard@@EEAA@XZ
       1200  4AF 0003D760 ??1QClipboardEvent@@UEAA@XZ
       1201  4B0 0003D780 ??1QCloseEvent@@UEAA@XZ
       1202  4B1 004AD9E0 ??1QColorDialog@@AEAA@XZ
       1203  4B2 004B8DE0 ??1QColorDialog@@UEAA@XZ
       1204  4B3 0022CF40 ??1QColormap@@QEAA@XZ
       1205  4B4 005C2BE0 ??1QColumnView@@UEAA@XZ
       1206  4B5 005C7620 ??1QColumnViewGrip@@UEAA@XZ
       1207  4B6 005C2C20 ??1QColumnViewPrivate@@UEAA@XZ
       1208  4B7 003DE580 ??1QComboBox@@UEAA@XZ
       1209  4B8 003DE610 ??1QComboBoxPrivate@@UEAA@XZ
       1210  4B9 003DE670 ??1QComboBoxPrivateContainer@@UEAA@XZ
       1211  4BA 003DE6B0 ??1QComboBoxPrivateScroller@@UEAA@XZ
       1212  4BB 0035D6B0 ??1QCommandLinkButton@@UEAA@XZ
       1213  4BC 0030FB40 ??1QCommonStyle@@UEAA@XZ
       1214  4BD 0065E450 ??1QCompleter@@UEAA@XZ
       1215  4BE 00148770 ??1QConicalGradient@@QEAA@XZ
       1216  4BF 0003D7A0 ??1QContextMenuEvent@@UEAA@XZ
       1217  4C0 00038CA0 ??1QCursor@@QEAA@XZ
       1218  4C1 0001D460 ??1QDashStroker@@UEAA@XZ
       1219  4C2 005BEFF0 ??1QDataWidgetMapper@@UEAA@XZ
       1220  4C3 003CB820 ??1QDateEdit@@UEAA@XZ
       1221  4C4 003CB840 ??1QDateTimeEdit@@UEAA@XZ
       1222  4C5 000A6C70 ??1QDesktopWidget@@UEAA@XZ
       1223  4C6 003F38F0 ??1QDial@@UEAA@XZ
       1224  4C7 004BEF20 ??1QDialog@@UEAA@XZ
       1225  4C8 003F4B90 ??1QDialogButtonBox@@UEAA@XZ
       1226  4C9 0056DA20 ??1QDirModel@@UEAA@XZ
       1227  4CA 003F8460 ??1QDockAreaLayout@@QEAA@XZ
       1228  4CB 003F84C0 ??1QDockAreaLayoutInfo@@QEAA@XZ
       1229  4CC 003F8530 ??1QDockWidget@@UEAA@XZ
       1230  4CD 003F8560 ??1QDockWidgetLayout@@UEAA@XZ
       1231  4CE 0035D6C0 ??1QDoubleSpinBox@@UEAA@XZ
       1232  4CF 00486D80 ??1QDoubleValidator@@UEAA@XZ
       1233  4D0 00039640 ??1QDrag@@UEAA@XZ
       1234  4D1 0003D7C0 ??1QDragEnterEvent@@UEAA@XZ
       1235  4D2 0003D820 ??1QDragLeaveEvent@@UEAA@XZ
       1236  4D3 0003D840 ??1QDragMoveEvent@@UEAA@XZ
       1237  4D4 0003D8A0 ??1QDragResponseEvent@@UEAA@XZ
       1238  4D5 0003D8C0 ??1QDropEvent@@UEAA@XZ
       1239  4D6 004C1850 ??1QErrorMessage@@UEAA@XZ
       1240  4D7 004C44A0 ??1QFileDialog@@UEAA@XZ
       1241  4D8 004C46B0 ??1QFileDialogPrivate@@UEAA@XZ
       1242  4D9 005C1390 ??1QFileIconProvider@@UEAA@XZ
       1243  4DA 004F3CA0 ??1QFileInfoGatherer@@UEAA@XZ
       1244  4DB 0003D920 ??1QFileOpenEvent@@UEAA@XZ
       1245  4DC 004E83F0 ??1QFileSystemModel@@UEAA@XZ
       1246  4DD 004AE120 ??1QFileSystemModelPrivate@@UEAA@XZ
       1247  4DE 0003D990 ??1QFocusEvent@@UEAA@XZ
       1248  4DF 0048C0E0 ??1QFocusFrame@@UEAA@XZ
       1249  4E0 0023D680 ??1QFont@@QEAA@XZ
       1250  4E1 0040D290 ??1QFontComboBox@@UEAA@XZ
       1251  4E2 004AD9F0 ??1QFontDialog@@AEAA@XZ
       1252  4E3 004D33C0 ??1QFontDialog@@UEAA@XZ
       1253  4E4 00245730 ??1QFontEngine@@UEAA@XZ
       1254  4E5 0023D8A0 ??1QFontInfo@@QEAA@XZ
       1255  4E6 00254F30 ??1QFontMetrics@@QEAA@XZ
       1256  4E7 00254F70 ??1QFontMetricsF@@QEAA@XZ
       1257  4E8 0023D8E0 ??1QFontPrivate@@QEAA@XZ
       1258  4E9 000419C0 ??1QFormLayout@@UEAA@XZ
       1259  4EA 0040EFC0 ??1QFrame@@UEAA@XZ
       1260  4EB 00086570 ??1QGesture@@UEAA@XZ
       1261  4EC 0003D9B0 ??1QGestureEvent@@UEAA@XZ
       1262  4ED 00089D50 ??1QGestureRecognizer@@UEAA@XZ
       1263  4EE 002FD5B0 ??1QGlyphRun@@QEAA@XZ
       1264  4EF 001487B0 ??1QGradient@@QEAA@XZ
       1265  4F0 0065AD90 ??1QGraphicsAnchor@@UEAA@XZ
       1266  4F1 0065ADB0 ??1QGraphicsAnchorLayout@@UEAA@XZ
       1267  4F2 006475B0 ??1QGraphicsAnchorLayoutPrivate@@UEAA@XZ
       1268  4F3 00678090 ??1QGraphicsBlurEffect@@UEAA@XZ
       1269  4F4 006780F0 ??1QGraphicsColorizeEffect@@UEAA@XZ
       1270  4F5 00678150 ??1QGraphicsDropShadowEffect@@UEAA@XZ
       1271  4F6 006781B0 ??1QGraphicsEffect@@UEAA@XZ
       1272  4F7 000079C0 ??1QGraphicsEffectPrivate@@UEAA@XZ
       1273  4F8 00678260 ??1QGraphicsEffectSource@@UEAA@XZ
       1274  4F9 005D3470 ??1QGraphicsEllipseItem@@UEAA@XZ
       1275  4FA 005CD0D0 ??1QGraphicsGridLayout@@UEAA@XZ
       1276  4FB 005D34C0 ??1QGraphicsItem@@UEAA@XZ
       1277  4FC 005F1AC0 ??1QGraphicsItemAnimation@@UEAA@XZ
       1278  4FD 005D3B80 ??1QGraphicsItemGroup@@UEAA@XZ
       1279  4FE 000079D0 ??1QGraphicsItemPrivate@@UEAA@XZ
       1280  4FF 005F4630 ??1QGraphicsLayout@@UEAA@XZ
       1281  500 005F5190 ??1QGraphicsLayoutItem@@UEAA@XZ
       1282  501 005F5240 ??1QGraphicsLayoutItemPrivate@@UEAA@XZ
       1283  502 005CD1E0 ??1QGraphicsLayoutPrivate@@UEAA@XZ
       1284  503 005D3BA0 ??1QGraphicsLineItem@@UEAA@XZ
       1285  504 005F69F0 ??1QGraphicsLinearLayout@@UEAA@XZ
       1286  505 00007AE0 ??1QGraphicsObject@@UEAA@XZ
       1287  506 006782E0 ??1QGraphicsOpacityEffect@@UEAA@XZ
       1288  507 005D3BE0 ??1QGraphicsPathItem@@UEAA@XZ
       1289  508 005D3C40 ??1QGraphicsPixmapItem@@UEAA@XZ
       1290  509 005D3C90 ??1QGraphicsPolygonItem@@UEAA@XZ
       1291  50A 005F7C40 ??1QGraphicsProxyWidget@@UEAA@XZ
       1292  50B 005D3CF0 ??1QGraphicsRectItem@@UEAA@XZ
       1293  50C 006218E0 ??1QGraphicsRotation@@UEAA@XZ
       1294  50D 00621930 ??1QGraphicsScale@@UEAA@XZ
       1295  50E 005FDC10 ??1QGraphicsScene@@UEAA@XZ
       1296  50F 0061ACE0 ??1QGraphicsSceneBspTreeIndex@@UEAA@XZ
       1297  510 0061D7E0 ??1QGraphicsSceneContextMenuEvent@@UEAA@XZ
       1298  511 0061D840 ??1QGraphicsSceneDragDropEvent@@UEAA@XZ
       1299  512 0061D8A0 ??1QGraphicsSceneEvent@@UEAA@XZ
       1300  513 0061D900 ??1QGraphicsSceneHelpEvent@@UEAA@XZ
       1301  514 0061D960 ??1QGraphicsSceneHoverEvent@@UEAA@XZ
       1302  515 0061F610 ??1QGraphicsSceneIndex@@UEAA@XZ
       1303  516 005FDCD0 ??1QGraphicsSceneLinearIndex@@UEAA@XZ
       1304  517 0061D9C0 ??1QGraphicsSceneMouseEvent@@UEAA@XZ
       1305  518 0061DB00 ??1QGraphicsSceneMoveEvent@@UEAA@XZ
       1306  519 005D3D40 ??1QGraphicsScenePrivate@@UEAA@XZ
       1307  51A 0061DB60 ??1QGraphicsSceneResizeEvent@@UEAA@XZ
       1308  51B 0061DBC0 ??1QGraphicsSceneWheelEvent@@UEAA@XZ
       1309  51C 005D41C0 ??1QGraphicsSimpleTextItem@@UEAA@XZ
       1310  51D 0015E430 ??1QGraphicsSystem@@UEAA@XZ
       1311  51E 00236EF0 ??1QGraphicsSystemPlugin@@UEAA@XZ
       1312  51F 005D4230 ??1QGraphicsTextItem@@UEAA@XZ
       1313  520 00621980 ??1QGraphicsTransform@@UEAA@XZ
       1314  521 00623890 ??1QGraphicsView@@UEAA@XZ
       1315  522 00007B10 ??1QGraphicsViewPrivate@@UEAA@XZ
       1316  523 0062E0F0 ??1QGraphicsWidget@@UEAA@XZ
       1317  524 00047310 ??1QGridLayout@@UEAA@XZ
       1318  525 0040FD70 ??1QGroupBox@@UEAA@XZ
       1319  526 00098B50 ??1QGuiPlatformPlugin@@UEAA@XZ
       1320  527 0001D4C0 ??1QGuiPlatformPluginInterface@@UEAA@XZ
       1321  528 000337E0 ??1QHBoxLayout@@UEAA@XZ
       1322  529 005217A0 ??1QHeaderView@@UEAA@XZ
       1323  52A 0003DAD0 ??1QHelpEvent@@UEAA@XZ
       1324  52B 0003DAF0 ??1QHideEvent@@UEAA@XZ
       1325  52C 0003DB10 ??1QHoverEvent@@UEAA@XZ
       1326  52D 000BE1E0 ??1QIcon@@QEAA@XZ
       1327  52E 0003DB30 ??1QIconDragEvent@@UEAA@XZ
       1328  52F 00100780 ??1QIconEngine@@UEAA@XZ
       1329  530 000BE270 ??1QIconEngineFactoryInterface@@UEAA@XZ
       1330  531 000BE280 ??1QIconEngineFactoryInterfaceV2@@UEAA@XZ
       1331  532 00100B60 ??1QIconEnginePlugin@@UEAA@XZ
       1332  533 00100B90 ??1QIconEnginePluginV2@@UEAA@XZ
       1333  534 000BE290 ??1QIconEngineV2@@UEAA@XZ
       1334  535 0052D700 ??1QIdentityProxyModel@@UEAA@XZ
       1335  536 000D4AE0 ??1QImage@@UEAA@XZ
       1336  537 000D4B50 ??1QImageData@@QEAA@XZ
       1337  538 000E29C0 ??1QImageIOHandler@@UEAA@XZ
       1338  539 0003A210 ??1QImageIOHandlerFactoryInterface@@UEAA@XZ
       1339  53A 000E2A20 ??1QImageIOPlugin@@UEAA@XZ
       1340  53B 000D4C10 ??1QImagePixmapCleanupHooks@@QEAA@XZ
       1341  53C 000E4180 ??1QImageReader@@QEAA@XZ
       1342  53D 000D4C80 ??1QImageTextKeyLang@@QEAA@XZ
       1343  53E 0001D4D0 ??1QImageTextureGlyphCache@@UEAA@XZ
       1344  53F 000E7F00 ??1QImageWriter@@QEAA@XZ
       1345  540 005CA490 ??1QInputContext@@UEAA@XZ
       1346  541 005C9960 ??1QInputContextFactoryInterface@@UEAA@XZ
       1347  542 005CA250 ??1QInputContextPlugin@@UEAA@XZ
       1348  543 004ADA00 ??1QInputDialog@@AEAA@XZ
       1349  544 004D6B90 ??1QInputDialog@@UEAA@XZ
       1350  545 0003DB50 ??1QInputEvent@@UEAA@XZ
       1351  546 0003DB70 ??1QInputMethodEvent@@UEAA@XZ
       1352  547 00486DB0 ??1QIntValidator@@UEAA@XZ
       1353  548 0003A220 ??1QInternalMimeData@@UEAA@XZ
       1354  549 0055EC80 ??1QItemDelegate@@UEAA@XZ
       1355  54A 0055ECE0 ??1QItemEditorCreatorBase@@UEAA@XZ
       1356  54B 005AC9E0 ??1QItemEditorFactory@@UEAA@XZ
       1357  54C 00332120 ??1QItemSelection@@QEAA@XZ
       1358  54D 00565700 ??1QItemSelectionModel@@UEAA@XZ
       1359  54E 00332180 ??1QItemSelectionRange@@QEAA@XZ
       1360  54F 0003DBE0 ??1QKeyEvent@@UEAA@XZ
       1361  550 00670040 ??1QKeyEventTransition@@UEAA@XZ
       1362  551 0004CE10 ??1QKeySequence@@QEAA@XZ
       1363  552 00415B50 ??1QLCDNumber@@UEAA@XZ
       1364  553 00411C20 ??1QLabel@@UEAA@XZ
       1365  554 0004FDC0 ??1QLayout@@UEAA@XZ
       1366  555 00054C40 ??1QLayoutItem@@UEAA@XZ
       1367  556 00033830 ??1QLayoutPrivate@@UEAA@XZ
       1368  557 003CB860 ??1QLineControl@@UEAA@XZ
       1369  558 0041BC80 ??1QLineEdit@@UEAA@XZ
       1370  559 00148830 ??1QLinearGradient@@QEAA@XZ
       1371  55A 00576740 ??1QListModel@@UEAA@XZ
       1372  55B 005304A0 ??1QListView@@UEAA@XZ
       1373  55C 005767C0 ??1QListWidget@@UEAA@XZ
       1374  55D 005767E0 ??1QListWidgetItem@@UEAA@XZ
       1375  55E 004258D0 ??1QMainWindow@@UEAA@XZ
       1376  55F 00428690 ??1QMainWindowLayout@@UEAA@XZ
       1377  560 00430090 ??1QMdiArea@@UEAA@XZ
       1378  561 0043BBF0 ??1QMdiSubWindow@@UEAA@XZ
       1379  562 00446EF0 ??1QMenu@@UEAA@XZ
       1380  563 00451540 ??1QMenuBar@@UEAA@XZ
       1381  564 004DA480 ??1QMessageBox@@UEAA@XZ
       1382  565 00056630 ??1QMimeSource@@UEAA@XZ
       1383  566 003BC070 ??1QMotifStyle@@UEAA@XZ
       1384  567 0003DC80 ??1QMouseEvent@@UEAA@XZ
       1385  568 006706E0 ??1QMouseEventTransition@@UEAA@XZ
       1386  569 0003DCC0 ??1QMoveEvent@@UEAA@XZ
       1387  56A 00101570 ??1QMovie@@UEAA@XZ
       1388  56B 001B7440 ??1QPageSetupDialog@@UEAA@XZ
       1389  56C 001E4C60 ??1QPaintBuffer@@UEAA@XZ
       1390  56D 001E4E90 ??1QPaintBufferResource@@UEAA@XZ
       1391  56E 001E4FB0 ??1QPaintBufferSignalProxy@@UEAA@XZ
       1392  56F 00168990 ??1QPaintDevice@@UEAA@XZ
       1393  570 00168EA0 ??1QPaintEngine@@UEAA@XZ
       1394  571 0001D500 ??1QPaintEngineEx@@UEAA@XZ
       1395  572 0016E690 ??1QPaintEngineExPrivate@@UEAA@XZ
       1396  573 001E4FC0 ??1QPaintEngineExReplayer@@UEAA@XZ
       1397  574 0003DCE0 ??1QPaintEvent@@UEAA@XZ
       1398  575 00174AF0 ??1QPainter@@QEAA@XZ
       1399  576 00187B40 ??1QPainterPath@@QEAA@XZ
       1400  577 00187C80 ??1QPainterPathStroker@@QEAA@XZ
       1401  578 001E4FD0 ??1QPainterReplayer@@UEAA@XZ
       1402  579 00174CC0 ??1QPainterState@@UEAA@XZ
       1403  57A 00057220 ??1QPalette@@QEAA@XZ
       1404  57B 00007C00 ??1QPanGesture@@UEAA@XZ
       1405  57C 00187CE0 ??1QPathClipper@@QEAA@XZ
       1406  57D 001A93B0 ??1QPen@@QEAA@XZ
       1407  57E 000EF670 ??1QPicture@@UEAA@XZ
       1408  57F 000EF6E0 ??1QPictureFormatInterface@@UEAA@XZ
       1409  580 000F4060 ??1QPictureFormatPlugin@@UEAA@XZ
       1410  581 000EF720 ??1QPictureIO@@QEAA@XZ
       1411  582 00007C10 ??1QPinchGesture@@UEAA@XZ
       1412  583 000F4E10 ??1QPixmap@@UEAA@XZ
       1413  584 000FD730 ??1QPixmapBlurFilter@@UEAA@XZ
       1414  585 00007C20 ??1QPixmapColorizeFilter@@UEAA@XZ
       1415  586 000FD770 ??1QPixmapConvolutionFilter@@UEAA@XZ
       1416  587 000FB5F0 ??1QPixmapData@@UEAA@XZ
       1417  588 000FD7C0 ??1QPixmapDropShadowFilter@@UEAA@XZ
       1418  589 000FD7F0 ??1QPixmapFilter@@UEAA@XZ
       1419  58A 003F8660 ??1QPlaceHolderItem@@QEAA@XZ
       1420  58B 004A32C0 ??1QPlainTextDocumentLayout@@UEAA@XZ
       1421  58C 004A3320 ??1QPlainTextEdit@@UEAA@XZ
       1422  58D 003781C0 ??1QPlastiqueStyle@@UEAA@XZ
       1423  58E 00007C30 ??1QPolygon@@QEAA@XZ
       1424  58F 00007C40 ??1QPolygonF@@QEAA@XZ
       1425  590 004B3E70 ??1QPrintDialog@@UEAA@XZ
       1426  591 0016D5F0 ??1QPrintEngine@@UEAA@XZ
       1427  592 00503080 ??1QPrintPreviewDialog@@UEAA@XZ
       1428  593 004AB4E0 ??1QPrintPreviewWidget@@UEAA@XZ
       1429  594 001B7450 ??1QPrinter@@UEAA@XZ
       1430  595 001BB9A0 ??1QPrinterInfo@@QEAA@XZ
       1431  596 003321B0 ??1QProgressBar@@UEAA@XZ
       1432  597 004DEBA0 ??1QProgressDialog@@UEAA@XZ
       1433  598 005993F0 ??1QProxyModel@@UEAA@XZ
       1434  599 0032BD00 ??1QProxyStyle@@UEAA@XZ
       1435  59A 00457990 ??1QPushButton@@UEAA@XZ
       1436  59B 00148870 ??1QRadialGradient@@QEAA@XZ
       1437  59C 003321C0 ??1QRadioButton@@UEAA@XZ
       1438  59D 00103710 ??1QRasterPixmapData@@UEAA@XZ
       1439  59E 00237100 ??1QRasterWindowSurface@@UEAA@XZ
       1440  59F 002FBE40 ??1QRawFont@@QEAA@XZ
       1441  5A0 00174D80 ??1QRawFontPrivate@@QEAA@XZ
       1442  5A1 00486DD0 ??1QRegExpValidator@@UEAA@XZ
       1443  5A2 001C28E0 ??1QRegion@@QEAA@XZ
       1444  5A3 0003DD20 ??1QResizeEvent@@UEAA@XZ
       1445  5A4 004597B0 ??1QRubberBand@@UEAA@XZ
       1446  5A5 002351E0 ??1QRuntimePixmapData@@UEAA@XZ
       1447  5A6 0048CD80 ??1QScrollArea@@UEAA@XZ
       1448  5A7 00459E30 ??1QScrollBar@@UEAA@XZ
       1449  5A8 0001D580 ??1QSessionManager@@EEAA@XZ
       1450  5A9 00059010 ??1QShortcut@@UEAA@XZ
       1451  5AA 0003DD40 ??1QShortcutEvent@@UEAA@XZ
       1452  5AB 0003DD80 ??1QShowEvent@@UEAA@XZ
       1453  5AC 004E0CB0 ??1QSidebar@@UEAA@XZ
       1454  5AD 0045B990 ??1QSizeGrip@@UEAA@XZ
       1455  5AE 0045CAC0 ??1QSlider@@UEAA@XZ
       1456  5AF 0006C320 ??1QSoftKeyManager@@UEAA@XZ
       1457  5B0 005A29A0 ??1QSortFilterProxyModel@@UEAA@XZ
       1458  5B1 000BBE50 ??1QSound@@UEAA@XZ
       1459  5B2 0004FE70 ??1QSpacerItem@@UEAA@XZ
       1460  5B3 00541000 ??1QSpanCollection@@QEAA@XZ
       1461  5B4 0035D6D0 ??1QSpinBox@@UEAA@XZ
       1462  5B5 00460240 ??1QSplashScreen@@UEAA@XZ
       1463  5B6 00460FC0 ??1QSplitter@@UEAA@XZ
       1464  5B7 0035BA50 ??1QSplitterHandle@@UEAA@XZ
       1465  5B8 0005D2B0 ??1QStackedLayout@@UEAA@XZ
       1466  5B9 00465CF0 ??1QStackedWidget@@UEAA@XZ
       1467  5BA 005B1E70 ??1QStandardItem@@UEAA@XZ
       1468  5BB 005B1EB0 ??1QStandardItemModel@@UEAA@XZ
       1469  5BC 002F9280 ??1QStaticText@@QEAA@XZ
       1470  5BD 002F92C0 ??1QStaticTextItem@@QEAA@XZ
       1471  5BE 002F9340 ??1QStaticTextPrivate@@QEAA@XZ
       1472  5BF 00466350 ??1QStatusBar@@UEAA@XZ
       1473  5C0 0003DDA0 ??1QStatusTipEvent@@UEAA@XZ
       1474  5C1 0040D360 ??1QStringListModel@@UEAA@XZ
       1475  5C2 001CDD60 ??1QStroker@@UEAA@XZ
       1476  5C3 001CDD80 ??1QStrokerOps@@UEAA@XZ
       1477  5C4 00307220 ??1QStyle@@UEAA@XZ
       1478  5C5 00308840 ??1QStyleFactoryInterface@@UEAA@XZ
       1479  5C6 0030C460 ??1QStyleHintReturn@@QEAA@XZ
       1480  5C7 00007C50 ??1QStyleHintReturnMask@@QEAA@XZ
       1481  5C8 00007C80 ??1QStyleHintReturnVariant@@QEAA@XZ
       1482  5C9 0030C470 ??1QStyleOption@@QEAA@XZ
       1483  5CA 00007CB0 ??1QStyleOptionButton@@QEAA@XZ
       1484  5CB 00007CF0 ??1QStyleOptionComboBox@@QEAA@XZ
       1485  5CC 00007D30 ??1QStyleOptionComplex@@QEAA@XZ
       1486  5CD 00007D40 ??1QStyleOptionDockWidget@@QEAA@XZ
       1487  5CE 00007D70 ??1QStyleOptionDockWidgetV2@@QEAA@XZ
       1488  5CF 00007DA0 ??1QStyleOptionFocusRect@@QEAA@XZ
       1489  5D0 00007DB0 ??1QStyleOptionFrame@@QEAA@XZ
       1490  5D1 00007DC0 ??1QStyleOptionFrameV2@@QEAA@XZ
       1491  5D2 00007DD0 ??1QStyleOptionFrameV3@@QEAA@XZ
       1492  5D3 00007DE0 ??1QStyleOptionGraphicsItem@@QEAA@XZ
       1493  5D4 00007DF0 ??1QStyleOptionGroupBox@@QEAA@XZ
       1494  5D5 00007E20 ??1QStyleOptionHeader@@QEAA@XZ
       1495  5D6 00007E60 ??1QStyleOptionMenuItem@@QEAA@XZ
       1496  5D7 00007EB0 ??1QStyleOptionProgressBar@@QEAA@XZ
       1497  5D8 00007EE0 ??1QStyleOptionProgressBarV2@@QEAA@XZ
       1498  5D9 00007F10 ??1QStyleOptionQ3DockWindow@@QEAA@XZ
       1499  5DA 00007F20 ??1QStyleOptionQ3ListView@@QEAA@XZ
       1500  5DB 00007F80 ??1QStyleOptionQ3ListViewItem@@QEAA@XZ
       1501  5DC 00007F90 ??1QStyleOptionRubberBand@@QEAA@XZ
       1502  5DD 00007FA0 ??1QStyleOptionSizeGrip@@QEAA@XZ
       1503  5DE 00007FB0 ??1QStyleOptionSlider@@QEAA@XZ
       1504  5DF 00007FC0 ??1QStyleOptionSpinBox@@QEAA@XZ
       1505  5E0 00007FD0 ??1QStyleOptionTab@@QEAA@XZ
       1506  5E1 00008010 ??1QStyleOptionTabBarBase@@QEAA@XZ
       1507  5E2 00008020 ??1QStyleOptionTabBarBaseV2@@QEAA@XZ
       1508  5E3 00008030 ??1QStyleOptionTabV2@@QEAA@XZ
       1509  5E4 00008070 ??1QStyleOptionTabV3@@QEAA@XZ
       1510  5E5 000080B0 ??1QStyleOptionTabWidgetFrame@@QEAA@XZ
       1511  5E6 000080C0 ??1QStyleOptionTabWidgetFrameV2@@QEAA@XZ
       1512  5E7 000080D0 ??1QStyleOptionTitleBar@@QEAA@XZ
       1513  5E8 00008110 ??1QStyleOptionToolBar@@QEAA@XZ
       1514  5E9 00008120 ??1QStyleOptionToolBox@@QEAA@XZ
       1515  5EA 00008160 ??1QStyleOptionToolBoxV2@@QEAA@XZ
       1516  5EB 000081A0 ??1QStyleOptionToolButton@@QEAA@XZ
       1517  5EC 000081F0 ??1QStyleOptionViewItem@@QEAA@XZ
       1518  5ED 00008220 ??1QStyleOptionViewItemV2@@QEAA@XZ
       1519  5EE 00008250 ??1QStyleOptionViewItemV3@@QEAA@XZ
       1520  5EF 00008280 ??1QStyleOptionViewItemV4@@QEAA@XZ
       1521  5F0 0030CDF0 ??1QStylePlugin@@UEAA@XZ
       1522  5F1 003324B0 ??1QStyleSheetStyle@@UEAA@XZ
       1523  5F2 005C7C80 ??1QStyledItemDelegate@@UEAA@XZ
       1524  5F3 000082F0 ??1QSwipeGesture@@UEAA@XZ
       1525  5F4 002D7F70 ??1QSyntaxHighlighter@@UEAA@XZ
       1526  5F5 0065C040 ??1QSystemTrayIcon@@UEAA@XZ
       1527  5F6 004688A0 ??1QTabBar@@UEAA@XZ
       1528  5F7 00470EE0 ??1QTabWidget@@UEAA@XZ
       1529  5F8 005410E0 ??1QTableView@@UEAA@XZ
       1530  5F9 0057F200 ??1QTableWidget@@UEAA@XZ
       1531  5FA 0057F220 ??1QTableWidgetItem@@UEAA@XZ
       1532  5FB 0057F2C0 ??1QTableWidgetSelectionRange@@QEAA@XZ
       1533  5FC 0003DDE0 ??1QTabletEvent@@UEAA@XZ
       1534  5FD 00008300 ??1QTapAndHoldGesture@@UEAA@XZ
       1535  5FE 00008310 ??1QTapGesture@@UEAA@XZ
       1536  5FF 001D4910 ??1QTessellator@@UEAA@XZ
       1537  600 00064D30 ??1QTextBlockFormat@@QEAA@XZ
       1538  601 00290F30 ??1QTextBlockGroup@@MEAA@XZ
       1539  602 00290F90 ??1QTextBlockUserData@@UEAA@XZ
       1540  603 004788E0 ??1QTextBrowser@@UEAA@XZ
       1541  604 00064D40 ??1QTextCharFormat@@QEAA@XZ
       1542  605 00264EA0 ??1QTextControl@@UEAA@XZ
       1543  606 002C2E40 ??1QTextCursor@@QEAA@XZ
       1544  607 00295F00 ??1QTextDocument@@UEAA@XZ
       1545  608 002CA270 ??1QTextDocumentFragment@@QEAA@XZ
       1546  609 00068320 ??1QTextDocumentLayout@@UEAA@XZ
       1547  60A 002A0600 ??1QTextDocumentPrivate@@UEAA@XZ
       1548  60B 002D7040 ??1QTextDocumentWriter@@QEAA@XZ
       1549  60C 00473C40 ??1QTextEdit@@UEAA@XZ
       1550  60D 00272ED0 ??1QTextEngine@@QEAA@XZ
       1551  60E 0028AC20 ??1QTextFormat@@QEAA@XZ
       1552  60F 0028AC30 ??1QTextFormatCollection@@QEAA@XZ
       1553  610 00290FA0 ??1QTextFrame@@UEAA@XZ
       1554  611 00064D50 ??1QTextFrameFormat@@QEAA@XZ
       1555  612 00291000 ??1QTextFrameLayoutData@@UEAA@XZ
       1556  613 00064D60 ??1QTextImageFormat@@QEAA@XZ
       1557  614 0027E650 ??1QTextLayout@@QEAA@XZ
       1558  615 002D6160 ??1QTextList@@UEAA@XZ
       1559  616 00064D70 ??1QTextListFormat@@QEAA@XZ
       1560  617 00291060 ??1QTextObject@@MEAA@XZ
       1561  618 00068330 ??1QTextObjectInterface@@UEAA@XZ
       1562  619 002D70A0 ??1QTextOdfWriter@@QEAA@XZ
       1563  61A 00294EE0 ??1QTextOption@@QEAA@XZ
       1564  61B 002D1220 ??1QTextTable@@UEAA@XZ
       1565  61C 00265000 ??1QTextTableCell@@QEAA@XZ
       1566  61D 00064D80 ??1QTextTableCellFormat@@QEAA@XZ
       1567  61E 00064D90 ??1QTextTableFormat@@QEAA@XZ
       1568  61F 0001D610 ??1QTextureGlyphCache@@UEAA@XZ
       1569  620 003CB950 ??1QTimeEdit@@UEAA@XZ
       1570  621 0047BF30 ??1QToolBar@@UEAA@XZ
       1571  622 0003DE00 ??1QToolBarChangeEvent@@UEAA@XZ
       1572  623 0047E730 ??1QToolBarExtension@@UEAA@XZ
       1573  624 00482140 ??1QToolBox@@UEAA@XZ
       1574  625 004847D0 ??1QToolButton@@UEAA@XZ
       1575  626 0003DE20 ??1QTouchEvent@@UEAA@XZ
       1576  627 0054F7B0 ??1QTreeView@@UEAA@XZ
       1577  628 0054F7E0 ??1QTreeViewPrivate@@UEAA@XZ
       1578  629 0058C780 ??1QTreeWidget@@UEAA@XZ
       1579  62A 0058C7A0 ??1QTreeWidgetItem@@UEAA@XZ
       1580  62B 005BDC40 ??1QTreeWidgetItemIterator@@QEAA@XZ
       1581  62C 006694F0 ??1QUndoCommand@@UEAA@XZ
       1582  62D 00667B80 ??1QUndoGroup@@UEAA@XZ
       1583  62E 00669600 ??1QUndoStack@@UEAA@XZ
       1584  62F 0066BC60 ??1QUndoView@@UEAA@XZ
       1585  630 004AE340 ??1QUrlModel@@UEAA@XZ
       1586  631 00033840 ??1QVBoxLayout@@UEAA@XZ
       1587  632 00486E20 ??1QValidator@@UEAA@XZ
       1588  633 0016E770 ??1QVectorPath@@QEAA@XZ
       1589  634 001071B0 ??1QVolatileImage@@QEAA@XZ
       1590  635 0003DEC0 ??1QWhatsThisClickedEvent@@UEAA@XZ
       1591  636 0003DF00 ??1QWheelEvent@@UEAA@XZ
       1592  637 0006C440 ??1QWidget@@UEAA@XZ
       1593  638 00084F70 ??1QWidgetAction@@UEAA@XZ
       1594  639 00237EB0 ??1QWidgetBackingStore@@QEAA@XZ
       1595  63A 0006CC90 ??1QWidgetBackingStoreTracker@@QEAA@XZ
       1596  63B 00033890 ??1QWidgetItem@@UEAA@XZ
       1597  63C 00054C50 ??1QWidgetItemV2@@UEAA@XZ
       1598  63D 0006CD20 ??1QWidgetPrivate@@UEAA@XZ
       1599  63E 003F8670 ??1QWidgetResizeHandler@@UEAA@XZ
       1600  63F 0003DF20 ??1QWindowStateChangeEvent@@UEAA@XZ
       1601  640 001E18F0 ??1QWindowSurface@@UEAA@XZ
       1602  641 000AC0D0 ??1QWindowsMime@@UEAA@XZ
       1603  642 003B0850 ??1QWindowsStyle@@UEAA@XZ
       1604  643 00308850 ??1QWindowsVistaStyle@@UEAA@XZ
       1605  644 00368D80 ??1QWindowsXPStyle@@UEAA@XZ
       1606  645 00187E40 ??1QWingedEdge@@QEAA@XZ
       1607  646 004F7A40 ??1QWizard@@UEAA@XZ
       1608  647 0030FBC0 ??1QWizardPage@@UEAA@XZ
       1609  648 0048F1E0 ??1QWorkspace@@UEAA@XZ
       1610  649 002EF000 ??1QZipReader@@QEAA@XZ
       1611  64A 002EF050 ??1QZipWriter@@QEAA@XZ
       1612  64B 0001D690 ??1Selector@QCss@@QEAA@XZ
       1613  64C 002DAF20 ??1StyleSelector@QCss@@UEAA@XZ
       1614  64D 0001D830 ??1Symbol@QCss@@QEAA@XZ
       1615  64E 0003DF40 ??1TouchPoint@QTouchEvent@@QEAA@XZ
       1616  64F 0001D840 ??1Value@QCss@@QEAA@XZ
       1617  650 0001D850 ??1ValueExtractor@QCss@@QEAA@XZ
       1618  651 00332800 ??4?$QList@VQItemSelectionRange@@@@QEAAAEAV0@$$QEAV0@@Z
       1619  652 00332810 ??4?$QList@VQItemSelectionRange@@@@QEAAAEAV0@AEBV0@@Z
       1620  653 0001DED0 ??4Declaration@QCss@@QEAAAEAU01@AEBU01@@Z
       1621  654 002EF0B0 ??4FileInfo@QZipReader@@QEAAAEAU01@AEBU01@@Z
       1622  655 000F8060 ??4Key@QPixmapCache@@QEAAAEAV01@AEBV01@@Z
       1623  656 0001DEF0 ??4Parser@QCss@@QEAAAEAV01@AEBV01@@Z
       1624  657 0005E890 ??4QAbstractUndoItem@@QEAAAEAV0@AEBV0@@Z
       1625  658 00506E30 ??4QAccessible2Interface@@QEAAAEAV0@AEBV0@@Z
       1626  659 0001DF40 ??4QAccessible@@QEAAAEAV0@AEBV0@@Z
       1627  65A 00506E40 ??4QAccessibleActionInterface@@QEAAAEAV0@AEBV0@@Z
       1628  65B 00506E50 ??4QAccessibleEditableTextInterface@@QEAAAEAV0@AEBV0@@Z
       1629  65C 0001DF50 ??4QAccessibleEvent@@QEAAAEAV0@AEBV0@@Z
       1630  65D 00505E10 ??4QAccessibleFactoryInterface@@QEAAAEAU0@AEBU0@@Z
       1631  65E 00506E60 ??4QAccessibleImageInterface@@QEAAAEAV0@AEBV0@@Z
       1632  65F 0001DF90 ??4QAccessibleInterface@@QEAAAEAV0@AEBV0@@Z
       1633  660 0001DFA0 ??4QAccessibleInterfaceEx@@QEAAAEAV0@AEBV0@@Z
       1634  661 00506E70 ??4QAccessibleSimpleEditableTextInterface@@QEAAAEAV0@AEBV0@@Z
       1635  662 00506E80 ??4QAccessibleTable2CellInterface@@QEAAAEAV0@AEBV0@@Z
       1636  663 00506E90 ??4QAccessibleTable2Interface@@QEAAAEAV0@AEBV0@@Z
       1637  664 00506EA0 ??4QAccessibleTableInterface@@QEAAAEAV0@AEBV0@@Z
       1638  665 00506EB0 ??4QAccessibleTextInterface@@QEAAAEAV0@AEBV0@@Z
       1639  666 00506EC0 ??4QAccessibleValueInterface@@QEAAAEAV0@AEBV0@@Z
       1640  667 0068B410 ??4QActionEvent@@QEAAAEAV0@AEBV0@@Z
       1641  668 00008940 ??4QActionPrivate@@QEAAAEAV0@AEBV0@@Z
       1642  669 0012EFC0 ??4QBezier@@QEAAAEAV0@AEBV0@@Z
       1643  66A 00038CE0 ??4QBitmap@@QEAAAEAV0@AEBV0@@Z
       1644  66B 000BCC50 ??4QBitmap@@QEAAAEAV0@AEBVQPixmap@@@Z
       1645  66C 00104D80 ??4QBlittable@@QEAAAEAV0@AEBV0@@Z
       1646  66D 00064DC0 ??4QBrush@@QEAAAEAV0@$$QEAV0@@Z
       1647  66E 001489F0 ??4QBrush@@QEAAAEAV0@AEBV0@@Z
       1648  66F 0068B450 ??4QClipboardEvent@@QEAAAEAV0@AEBV0@@Z
       1649  670 0068B470 ??4QCloseEvent@@QEAAAEAV0@AEBV0@@Z
       1650  671 0014C380 ??4QColor@@QEAAAEAV0@AEBV0@@Z
       1651  672 0014C3A0 ??4QColor@@QEAAAEAV0@W4GlobalColor@Qt@@@Z
       1652  673 004ADA10 ??4QColorDialog@@QEAAAEAV0@AEBV0@@Z
       1653  674 0022CFE0 ??4QColormap@@QEAAAEAV0@AEBV0@@Z
       1654  675 003DE770 ??4QComboBoxPrivate@@QEAAAEAV0@AEBV0@@Z
       1655  676 0068B490 ??4QConicalGradient@@QEAAAEAV0@AEBV0@@Z
       1656  677 0068B4B0 ??4QContextMenuEvent@@QEAAAEAV0@AEBV0@@Z
       1657  678 00038D00 ??4QCursor@@QEAAAEAV0@$$QEAV0@@Z
       1658  679 00038D10 ??4QCursor@@QEAAAEAV0@AEBV0@@Z
       1659  67A 0001DFB0 ??4QDashStroker@@QEAAAEAV0@AEBV0@@Z
       1660  67B 00265140 ??4QDesktopServices@@QEAAAEAV0@AEBV0@@Z
       1661  67C 003F8700 ??4QDockAreaLayout@@QEAAAEAV0@AEBV0@@Z
       1662  67D 003F8830 ??4QDockAreaLayoutInfo@@QEAAAEAV0@AEBV0@@Z
       1663  67E 0068B500 ??4QDragEnterEvent@@QEAAAEAV0@AEBV0@@Z
       1664  67F 0068B540 ??4QDragLeaveEvent@@QEAAAEAV0@AEBV0@@Z
       1665  680 0068B560 ??4QDragMoveEvent@@QEAAAEAV0@AEBV0@@Z
       1666  681 0068B5A0 ??4QDragResponseEvent@@QEAAAEAV0@AEBV0@@Z
       1667  682 0068B5D0 ??4QDropEvent@@QEAAAEAV0@AEBV0@@Z
       1668  683 0068B670 ??4QFileOpenEvent@@QEAAAEAV0@AEBV0@@Z
       1669  684 0068B6B0 ??4QFocusEvent@@QEAAAEAV0@AEBV0@@Z
       1670  685 00008CE0 ??4QFont@@QEAAAEAV0@$$QEAV0@@Z
       1671  686 0023DA00 ??4QFont@@QEAAAEAV0@AEBV0@@Z
       1672  687 0001E0C0 ??4QFontDatabase@@QEAAAEAV0@AEBV0@@Z
       1673  688 004ADA20 ??4QFontDialog@@QEAAAEAV0@AEBV0@@Z
       1674  689 0023DA30 ??4QFontInfo@@QEAAAEAV0@AEBV0@@Z
       1675  68A 0030C4B0 ??4QFontMetrics@@QEAAAEAV0@$$QEAV0@@Z
       1676  68B 00254FB0 ??4QFontMetrics@@QEAAAEAV0@AEBV0@@Z
       1677  68C 0068B6E0 ??4QFontMetricsF@@QEAAAEAV0@$$QEAV0@@Z
       1678  68D 00254FD0 ??4QFontMetricsF@@QEAAAEAV0@AEBV0@@Z
       1679  68E 00254FF0 ??4QFontMetricsF@@QEAAAEAV0@AEBVQFontMetrics@@@Z
       1680  68F 0001E0D0 ??4QFontPrivate@@AEAAAEAV0@AEBV0@@Z
       1681  690 0068B6F0 ??4QGestureEvent@@QEAAAEAV0@AEBV0@@Z
       1682  691 0001E0E0 ??4QGestureRecognizer@@QEAAAEAV0@AEBV0@@Z
       1683  692 002FD6A0 ??4QGlyphRun@@QEAAAEAV0@AEBV0@@Z
       1684  693 00148A50 ??4QGradient@@QEAAAEAV0@AEBV0@@Z
       1685  694 00647D80 ??4QGraphicsAnchorLayoutPrivate@@QEAAAEAV0@AEBV0@@Z
       1686  695 00008D00 ??4QGraphicsEffectPrivate@@QEAAAEAV0@AEBV0@@Z
       1687  696 00008DA0 ??4QGraphicsItemPrivate@@QEAAAEAV0@AEBV0@@Z
       1688  697 005CD550 ??4QGraphicsLayoutItemPrivate@@QEAAAEAV0@AEBV0@@Z
       1689  698 005CD6E0 ??4QGraphicsLayoutPrivate@@QEAAAEAV0@AEBV0@@Z
       1690  699 005D4A60 ??4QGraphicsScenePrivate@@QEAAAEAV0@AEBV0@@Z
       1691  69A 0001E0F0 ??4QGraphicsSystem@@QEAAAEAV0@AEBV0@@Z
       1692  69B 0015E440 ??4QGraphicsSystemEx@@QEAAAEAV0@AEBV0@@Z
       1693  69C 0001E100 ??4QGuiPlatformPluginInterface@@QEAAAEAU0@AEBU0@@Z
       1694  69D 0068B710 ??4QHelpEvent@@QEAAAEAV0@AEBV0@@Z
       1695  69E 0068B750 ??4QHideEvent@@QEAAAEAV0@AEBV0@@Z
       1696  69F 0068B770 ??4QHoverEvent@@QEAAAEAV0@AEBV0@@Z
       1697  6A0 00009440 ??4QIcon@@QEAAAEAV0@$$QEAV0@@Z
       1698  6A1 000BE430 ??4QIcon@@QEAAAEAV0@AEBV0@@Z
       1699  6A2 0068B7B0 ??4QIconDragEvent@@QEAAAEAV0@AEBV0@@Z
       1700  6A3 000BE4E0 ??4QIconEngine@@QEAAAEAV0@AEBV0@@Z
       1701  6A4 000BE4F0 ??4QIconEngineFactoryInterface@@QEAAAEAU0@AEBU0@@Z
       1702  6A5 000BE500 ??4QIconEngineFactoryInterfaceV2@@QEAAAEAU0@AEBU0@@Z
       1703  6A6 000BE510 ??4QIconEngineV2@@QEAAAEAV0@AEBV0@@Z
       1704  6A7 00064DD0 ??4QImage@@QEAAAEAV0@$$QEAV0@@Z
       1705  6A8 000D4E80 ??4QImage@@QEAAAEAV0@AEBV0@@Z
       1706  6A9 000D4F70 ??4QImageData@@QEAAAEAU0@AEBU0@@Z
       1707  6AA 0003A240 ??4QImageIOHandlerFactoryInterface@@QEAAAEAU0@AEBU0@@Z
       1708  6AB 000D50E0 ??4QImagePixmapCleanupHooks@@QEAAAEAV0@AEBV0@@Z
       1709  6AC 0068B7D0 ??4QImageTextKeyLang@@QEAAAEAV0@AEBV0@@Z
       1710  6AD 005C9970 ??4QInputContextFactory@@QEAAAEAV0@AEBV0@@Z
       1711  6AE 005C9980 ??4QInputContextFactoryInterface@@QEAAAEAU0@AEBU0@@Z
       1712  6AF 004ADA30 ??4QInputDialog@@QEAAAEAV0@AEBV0@@Z
       1713  6B0 00623960 ??4QInputEvent@@QEAAAEAV0@AEBV0@@Z
       1714  6B1 0001E110 ??4QInputMethodEvent@@QEAAAEAV0@AEBV0@@Z
       1715  6B2 0055ED50 ??4QItemEditorCreatorBase@@QEAAAEAV0@AEBV0@@Z
       1716  6B3 0055ED60 ??4QItemEditorFactory@@QEAAAEAV0@AEBV0@@Z
       1717  6B4 003331B0 ??4QItemSelection@@QEAAAEAV0@AEBV0@@Z
       1718  6B5 003331D0 ??4QItemSelectionRange@@QEAAAEAV0@AEBV0@@Z
       1719  6B6 0003DF80 ??4QKeyBinding@@QEAAAEAU0@AEBU0@@Z
       1720  6B7 0068B810 ??4QKeyEvent@@QEAAAEAV0@AEBV0@@Z
       1721  6B8 00009450 ??4QKeySequence@@QEAAAEAV0@$$QEAV0@@Z
       1722  6B9 0004CED0 ??4QKeySequence@@QEAAAEAV0@AEBV0@@Z
       1723  6BA 0003DFA0 ??4QKeySequencePrivate@@QEAAAEAV0@AEBV0@@Z
       1724  6BB 0068B870 ??4QLayoutItem@@QEAAAEAV0@AEBV0@@Z
       1725  6BC 00033970 ??4QLayoutPrivate@@QEAAAEAV0@AEBV0@@Z
       1726  6BD 00378220 ??4QLinearGradient@@QEAAAEAV0@AEBV0@@Z
       1727  6BE 00576A90 ??4QListWidgetItem@@QEAAAEAV0@AEBV0@@Z
       1728  6BF 00009460 ??4QMatrix4x4@@QEAAAEAV0@AEBV0@@Z
       1729  6C0 0015E610 ??4QMatrix@@QEAAAEAV0@AEBV0@@Z
       1730  6C1 0068B880 ??4QMimeSource@@QEAAAEAV0@AEBV0@@Z
       1731  6C2 00623990 ??4QMouseEvent@@QEAAAEAV0@AEBV0@@Z
       1732  6C3 0068B890 ??4QMoveEvent@@QEAAAEAV0@AEBV0@@Z
       1733  6C4 001E5140 ??4QPaintBuffer@@QEAAAEAV0@AEBV0@@Z
       1734  6C5 0001E1C0 ??4QPaintEngineExPrivate@@QEAAAEAV0@AEBV0@@Z
       1735  6C6 001E51B0 ??4QPaintEngineExReplayer@@QEAAAEAV0@AEBV0@@Z
       1736  6C7 0001E320 ??4QPaintEngineState@@QEAAAEAV0@AEBV0@@Z
       1737  6C8 0068B8D0 ??4QPaintEvent@@QEAAAEAV0@AEBV0@@Z
       1738  6C9 00166840 ??4QPainterPath@@QEAAAEAV0@$$QEAV0@@Z
       1739  6CA 00187FF0 ??4QPainterPath@@QEAAAEAV0@AEBV0@@Z
       1740  6CB 001E51F0 ??4QPainterReplayer@@QEAAAEAV0@AEBV0@@Z
       1741  6CC 0001E330 ??4QPainterState@@QEAAAEAV0@AEBV0@@Z
       1742  6CD 00057290 ??4QPalette@@QEAAAEAV0@$$QEAV0@@Z
       1743  6CE 000572D0 ??4QPalette@@QEAAAEAV0@AEBV0@@Z
       1744  6CF 0016B380 ??4QPen@@QEAAAEAV0@$$QEAV0@@Z
       1745  6D0 001A9480 ??4QPen@@QEAAAEAV0@AEBV0@@Z
       1746  6D1 000EA2B0 ??4QPicture@@QEAAAEAV0@$$QEAV0@@Z
       1747  6D2 000EF930 ??4QPicture@@QEAAAEAV0@AEBV0@@Z
       1748  6D3 000EF950 ??4QPictureFormatInterface@@QEAAAEAU0@AEBU0@@Z
       1749  6D4 00064DF0 ??4QPixmap@@QEAAAEAV0@$$QEAV0@@Z
       1750  6D5 000F4F60 ??4QPixmap@@QEAAAEAV0@AEBV0@@Z
       1751  6D6 00009500 ??4QPixmapCache@@QEAAAEAV0@AEBV0@@Z
       1752  6D7 0001E510 ??4QPixmapData@@QEAAAEAV0@AEBV0@@Z
       1753  6D8 003F8940 ??4QPlaceHolderItem@@QEAAAEAV0@AEBV0@@Z
       1754  6D9 003BC180 ??4QPolygon@@QEAAAEAV0@AEBV0@@Z
       1755  6DA 000D51E0 ??4QPolygonF@@QEAAAEAV0@AEBV0@@Z
       1756  6DB 0016D610 ??4QPrintEngine@@QEAAAEAV0@AEBV0@@Z
       1757  6DC 001BBA10 ??4QPrinterInfo@@QEAAAEAV0@AEBV0@@Z
       1758  6DD 00001C30 ??4QQuaternion@@QEAAAEAV0@AEBV0@@Z
       1759  6DE 0068B920 ??4QRadialGradient@@QEAAAEAV0@AEBV0@@Z
       1760  6DF 000F5030 ??4QRasterPixmapData@@QEAAAEAV0@AEBV0@@Z
       1761  6E0 002FBF10 ??4QRawFont@@QEAAAEAV0@AEBV0@@Z
       1762  6E1 00174E80 ??4QRawFontPrivate@@QEAAAEAV0@AEBV0@@Z
       1763  6E2 00009510 ??4QRegion@@QEAAAEAV0@$$QEAV0@@Z
       1764  6E3 001C29B0 ??4QRegion@@QEAAAEAV0@AEBV0@@Z
       1765  6E4 0068B940 ??4QResizeEvent@@QEAAAEAV0@AEBV0@@Z
       1766  6E5 002352C0 ??4QRuntimePixmapData@@QEAAAEAV0@AEBV0@@Z
       1767  6E6 000EA2D0 ??4QScriptAnalysis@@QEAAAEAU0@AEBU0@@Z
       1768  6E7 000EA2E0 ??4QScriptItem@@QEAAAEAU0@AEBU0@@Z
       1769  6E8 000EA310 ??4QScriptLine@@QEAAAEAU0@AEBU0@@Z
       1770  6E9 0068B980 ??4QShortcutEvent@@QEAAAEAV0@AEBV0@@Z
       1771  6EA 0068B9C0 ??4QShowEvent@@QEAAAEAV0@AEBV0@@Z
       1772  6EB 0068B9E0 ??4QSizePolicy@@QEAAAEAV0@AEBV0@@Z
       1773  6EC 0068B9F0 ??4QSpacerItem@@QEAAAEAV0@AEBV0@@Z
       1774  6ED 00541310 ??4QSpanCollection@@QEAAAEAV0@AEBV0@@Z
       1775  6EE 005B2310 ??4QStandardItem@@IEAAAEAV0@AEBV0@@Z
       1776  6EF 0066F6D0 ??4QStatePrivate@@QEAAAEAV0@AEBV0@@Z
       1777  6F0 002F9460 ??4QStaticText@@QEAAAEAV0@AEBV0@@Z
       1778  6F1 0016E870 ??4QStaticTextItem@@QEAAXAEBV0@@Z
       1779  6F2 0016E910 ??4QStaticTextPrivate@@QEAAAEAV0@AEBV0@@Z
       1780  6F3 0068BA30 ??4QStatusTipEvent@@QEAAAEAV0@AEBV0@@Z
       1781  6F4 0001E5E0 ??4QStroker@@QEAAAEAV0@AEBV0@@Z
       1782  6F5 0001E6A0 ??4QStrokerOps@@QEAAAEAV0@AEBV0@@Z
       1783  6F6 0001E710 ??4QStyleFactory@@QEAAAEAV0@AEBV0@@Z
       1784  6F7 00308860 ??4QStyleFactoryInterface@@QEAAAEAU0@AEBU0@@Z
       1785  6F8 00009520 ??4QStyleHintReturn@@QEAAAEAV0@AEBV0@@Z
       1786  6F9 00009530 ??4QStyleHintReturnMask@@QEAAAEAV0@AEBV0@@Z
       1787  6FA 00009560 ??4QStyleHintReturnVariant@@QEAAAEAV0@AEBV0@@Z
       1788  6FB 0030C4C0 ??4QStyleOption@@QEAAAEAV0@AEBV0@@Z
       1789  6FC 00009590 ??4QStyleOptionButton@@QEAAAEAV0@AEBV0@@Z
       1790  6FD 000095E0 ??4QStyleOptionComboBox@@QEAAAEAV0@AEBV0@@Z
       1791  6FE 00009660 ??4QStyleOptionComplex@@QEAAAEAV0@AEBV0@@Z
       1792  6FF 00009690 ??4QStyleOptionDockWidget@@QEAAAEAV0@AEBV0@@Z
       1793  700 000096E0 ??4QStyleOptionDockWidgetV2@@QEAAAEAV0@AEBV0@@Z
       1794  701 0030C520 ??4QStyleOptionDockWidgetV2@@QEAAAEAV0@AEBVQStyleOptionDockWidget@@@Z
       1795  702 00009730 ??4QStyleOptionFocusRect@@QEAAAEAV0@AEBV0@@Z
       1796  703 00009760 ??4QStyleOptionFrame@@QEAAAEAV0@AEBV0@@Z
       1797  704 00009790 ??4QStyleOptionFrameV2@@QEAAAEAV0@AEBV0@@Z
       1798  705 0030C570 ??4QStyleOptionFrameV2@@QEAAAEAV0@AEBVQStyleOptionFrame@@@Z
       1799  706 000097D0 ??4QStyleOptionFrameV3@@QEAAAEAV0@AEBV0@@Z
       1800  707 0030C610 ??4QStyleOptionFrameV3@@QEAAAEAV0@AEBVQStyleOptionFrame@@@Z
       1801  708 00009820 ??4QStyleOptionGraphicsItem@@QEAAAEAV0@AEBV0@@Z
       1802  709 00009880 ??4QStyleOptionGroupBox@@QEAAAEAV0@AEBV0@@Z
       1803  70A 000098F0 ??4QStyleOptionHeader@@QEAAAEAV0@AEBV0@@Z
       1804  70B 00009960 ??4QStyleOptionMenuItem@@QEAAAEAV0@AEBV0@@Z
       1805  70C 000099F0 ??4QStyleOptionProgressBar@@QEAAAEAV0@AEBV0@@Z
       1806  70D 00009A40 ??4QStyleOptionProgressBarV2@@QEAAAEAV0@AEBV0@@Z
       1807  70E 0030C660 ??4QStyleOptionProgressBarV2@@QEAAAEAV0@AEBVQStyleOptionProgressBar@@@Z
       1808  70F 00009AB0 ??4QStyleOptionQ3DockWindow@@QEAAAEAV0@AEBV0@@Z
       1809  710 00009AF0 ??4QStyleOptionQ3ListView@@QEAAAEAV0@AEBV0@@Z
       1810  711 00009BB0 ??4QStyleOptionQ3ListViewItem@@QEAAAEAV0@AEBV0@@Z
       1811  712 00009C00 ??4QStyleOptionRubberBand@@QEAAAEAV0@AEBV0@@Z
       1812  713 00009C30 ??4QStyleOptionSizeGrip@@QEAAAEAV0@AEBV0@@Z
       1813  714 00009C70 ??4QStyleOptionSlider@@QEAAAEAV0@AEBV0@@Z
       1814  715 00009CF0 ??4QStyleOptionSpinBox@@QEAAAEAV0@AEBV0@@Z
       1815  716 00009D40 ??4QStyleOptionTab@@QEAAAEAV0@AEBV0@@Z
       1816  717 00009DA0 ??4QStyleOptionTabBarBase@@QEAAAEAV0@AEBV0@@Z
       1817  718 00009E00 ??4QStyleOptionTabBarBaseV2@@QEAAAEAV0@AEBV0@@Z
       1818  719 0030C6D0 ??4QStyleOptionTabBarBaseV2@@QEAAAEAV0@AEBVQStyleOptionTabBarBase@@@Z
       1819  71A 00009E60 ??4QStyleOptionTabV2@@QEAAAEAV0@AEBV0@@Z
       1820  71B 0030C720 ??4QStyleOptionTabV2@@QEAAAEAV0@AEBVQStyleOptionTab@@@Z
       1821  71C 00009ED0 ??4QStyleOptionTabV3@@QEAAAEAV0@AEBV0@@Z
       1822  71D 0030C780 ??4QStyleOptionTabV3@@QEAAAEAV0@AEBVQStyleOptionTab@@@Z
       1823  71E 00009F50 ??4QStyleOptionTabWidgetFrame@@QEAAAEAV0@AEBV0@@Z
       1824  71F 00009FA0 ??4QStyleOptionTabWidgetFrameV2@@QEAAAEAV0@AEBV0@@Z
       1825  720 0030C830 ??4QStyleOptionTabWidgetFrameV2@@QEAAAEAV0@AEBVQStyleOptionTabWidgetFrame@@@Z
       1826  721 0000A020 ??4QStyleOptionTitleBar@@QEAAAEAV0@AEBV0@@Z
       1827  722 0000A080 ??4QStyleOptionToolBar@@QEAAAEAV0@AEBV0@@Z
       1828  723 0000A0D0 ??4QStyleOptionToolBox@@QEAAAEAV0@AEBV0@@Z
       1829  724 0000A110 ??4QStyleOptionToolBoxV2@@QEAAAEAV0@AEBV0@@Z
       1830  725 0030C8A0 ??4QStyleOptionToolBoxV2@@QEAAAEAV0@AEBVQStyleOptionToolBox@@@Z
       1831  726 0000A160 ??4QStyleOptionToolButton@@QEAAAEAV0@AEBV0@@Z
       1832  727 0000A1E0 ??4QStyleOptionViewItem@@QEAAAEAV0@AEBV0@@Z
       1833  728 0000A240 ??4QStyleOptionViewItemV2@@QEAAAEAV0@AEBV0@@Z
       1834  729 0030C900 ??4QStyleOptionViewItemV2@@QEAAAEAV0@AEBVQStyleOptionViewItem@@@Z
       1835  72A 0000A2A0 ??4QStyleOptionViewItemV3@@QEAAAEAV0@AEBV0@@Z
       1836  72B 0030C950 ??4QStyleOptionViewItemV3@@QEAAAEAV0@AEBVQStyleOptionViewItem@@@Z
       1837  72C 0000A320 ??4QStyleOptionViewItemV4@@QEAAAEAV0@AEBV0@@Z
       1838  72D 0030CA00 ??4QStyleOptionViewItemV4@@QEAAAEAV0@AEBVQStyleOptionViewItem@@@Z
       1839  72E 0057F3B0 ??4QTableWidgetItem@@QEAAAEAV0@AEBV0@@Z
       1840  72F 0057F3F0 ??4QTableWidgetSelectionRange@@QEAAAEAV0@AEBV0@@Z
       1841  730 0068BA70 ??4QTabletEvent@@QEAAAEAV0@AEBV0@@Z
       1842  731 001D4A60 ??4QTessellator@@QEAAAEAV0@AEBV0@@Z
       1843  732 00068490 ??4QTextBlock@@QEAAAEAV0@AEBV0@@Z
       1844  733 00064E10 ??4QTextBlockFormat@@QEAAAEAV0@AEBV0@@Z
       1845  734 000684A0 ??4QTextBlockUserData@@QEAAAEAV0@AEBV0@@Z
       1846  735 00064E30 ??4QTextCharFormat@@QEAAAEAV0@AEBV0@@Z
       1847  736 002C2FF0 ??4QTextCursor@@QEAAAEAV0@AEBV0@@Z
       1848  737 002CA3B0 ??4QTextDocumentFragment@@QEAAAEAV0@AEBV0@@Z
       1849  738 000EA360 ??4QTextEngine@@QEAAAEAV0@AEBV0@@Z
       1850  739 0028AEA0 ??4QTextFormat@@QEAAAEAV0@AEBV0@@Z
       1851  73A 0028AED0 ??4QTextFormatCollection@@QEAAAEAV0@AEBV0@@Z
       1852  73B 000684B0 ??4QTextFragment@@QEAAAEAV0@AEBV0@@Z
       1853  73C 00064E50 ??4QTextFrameFormat@@QEAAAEAV0@AEBV0@@Z
       1854  73D 000684D0 ??4QTextFrameLayoutData@@QEAAAEAV0@AEBV0@@Z
       1855  73E 00064E70 ??4QTextImageFormat@@QEAAAEAV0@AEBV0@@Z
       1856  73F 000684E0 ??4QTextInlineObject@@QEAAAEAV0@AEBV0@@Z
       1857  740 0001E720 ??4QTextItem@@QEAAAEAV0@AEBV0@@Z
       1858  741 00064E90 ??4QTextLength@@QEAAAEAV0@AEBV0@@Z
       1859  742 00068500 ??4QTextLine@@QEAAAEAV0@AEBV0@@Z
       1860  743 00064EB0 ??4QTextListFormat@@QEAAAEAV0@AEBV0@@Z
       1861  744 00068520 ??4QTextObjectInterface@@QEAAAEAV0@AEBV0@@Z
       1862  745 00294F20 ??4QTextOption@@QEAAAEAV0@AEBV0@@Z
       1863  746 00265150 ??4QTextTableCell@@QEAAAEAV0@AEBV0@@Z
       1864  747 00064ED0 ??4QTextTableCellFormat@@QEAAAEAV0@AEBV0@@Z
       1865  748 00064EF0 ??4QTextTableFormat@@QEAAAEAV0@AEBV0@@Z
       1866  749 0068BB00 ??4QToolBarChangeEvent@@QEAAAEAV0@AEBV0@@Z
       1867  74A 0005E8A0 ??4QToolTip@@QEAAAEAV0@AEBV0@@Z
       1868  74B 0068BB30 ??4QTouchEvent@@QEAAAEAV0@AEBV0@@Z
       1869  74C 001DAB70 ??4QTransform@@QEAAAEAV0@AEBV0@@Z
       1870  74D 0058CDA0 ??4QTreeWidgetItem@@QEAAAEAV0@AEBV0@@Z
       1871  74E 005BDD70 ??4QTreeWidgetItemIterator@@QEAAAEAV0@AEBV0@@Z
       1872  74F 00001C60 ??4QVector2D@@QEAAAEAV0@AEBV0@@Z
       1873  750 00001C70 ??4QVector3D@@QEAAAEAV0@AEBV0@@Z
       1874  751 00001C90 ??4QVector4D@@QEAAAEAV0@AEBV0@@Z
       1875  752 00107290 ??4QVolatileImage@@QEAAAEAV0@AEBV0@@Z
       1876  753 000590E0 ??4QWhatsThis@@QEAAAEAV0@AEBV0@@Z
       1877  754 0068BBC0 ??4QWhatsThisClickedEvent@@QEAAAEAV0@AEBV0@@Z
       1878  755 0068BC00 ??4QWheelEvent@@QEAAAEAV0@AEBV0@@Z
       1879  756 0006CFD0 ??4QWidgetBackingStore@@QEAAAEAV0@AEBV0@@Z
       1880  757 0000A4F0 ??4QWidgetPrivate@@QEAAAEAV0@AEBV0@@Z
       1881  758 0068BC50 ??4QWindowStateChangeEvent@@QEAAAEAV0@AEBV0@@Z
       1882  759 0001E730 ??4QWindowSurface@@QEAAAEAV0@AEBV0@@Z
       1883  75A 0068BC80 ??4QWindowsMime@@QEAAAEAV0@AEBV0@@Z
       1884  75B 00188070 ??4QWingedEdge@@QEAAAEAV0@AEBV0@@Z
       1885  75C 0001E740 ??4Scanner@QCss@@QEAAAEAV01@AEBV01@@Z
       1886  75D 0001E750 ??4Selector@QCss@@QEAAAEAU01@AEBU01@@Z
       1887  75E 0001E7B0 ??4StyleSelector@QCss@@QEAAAEAV01@AEBV01@@Z
       1888  75F 0001E7F0 ??4Symbol@QCss@@QEAAAEAU01@AEBU01@@Z
       1889  760 0068BC90 ??4Tab@QTextOption@@QEAAAEAU01@AEBU01@@Z
       1890  761 0003DFE0 ??4TouchPoint@QTouchEvent@@QEAAAEAV01@AEBV01@@Z
       1891  762 0001E830 ??4Value@QCss@@QEAAAEAU01@AEBU01@@Z
       1892  763 0001E860 ??4ValueExtractor@QCss@@QEAAAEAU01@AEBU01@@Z
       1893  764 00068530 ??4iterator@QTextBlock@@QEAAAEAV01@AEBV01@@Z
       1894  765 002910A0 ??4iterator@QTextFrame@@QEAAAEAV01@AEBV01@@Z
       1895  766 00148B10 ??5@YAAEAVQDataStream@@AEAV0@AEAVQBrush@@@Z
       1896  767 0014C460 ??5@YAAEAVQDataStream@@AEAV0@AEAVQColor@@@Z
       1897  768 00038D90 ??5@YAAEAVQDataStream@@AEAV0@AEAVQCursor@@@Z
       1898  769 0023DA50 ??5@YAAEAVQDataStream@@AEAV0@AEAVQFont@@@Z
       1899  76A 000BE570 ??5@YAAEAVQDataStream@@AEAV0@AEAVQIcon@@@Z
       1900  76B 000D5200 ??5@YAAEAVQDataStream@@AEAV0@AEAVQImage@@@Z
       1901  76C 0004CF20 ??5@YAAEAVQDataStream@@AEAV0@AEAVQKeySequence@@@Z
       1902  76D 00576B00 ??5@YAAEAVQDataStream@@AEAV0@AEAVQListWidgetItem@@@Z
       1903  76E 006717C0 ??5@YAAEAVQDataStream@@AEAV0@AEAVQMatrix4x4@@@Z
       1904  76F 0015E650 ??5@YAAEAVQDataStream@@AEAV0@AEAVQMatrix@@@Z
       1905  770 001E52F0 ??5@YAAEAVQDataStream@@AEAV0@AEAVQPaintBuffer@@@Z
       1906  771 00188140 ??5@YAAEAVQDataStream@@AEAV0@AEAVQPainterPath@@@Z
       1907  772 00057360 ??5@YAAEAVQDataStream@@AEAV0@AEAVQPalette@@@Z
       1908  773 001A94A0 ??5@YAAEAVQDataStream@@AEAV0@AEAVQPen@@@Z
       1909  774 000EF960 ??5@YAAEAVQDataStream@@AEAV0@AEAVQPicture@@@Z
       1910  775 000F50B0 ??5@YAAEAVQDataStream@@AEAV0@AEAVQPixmap@@@Z
       1911  776 001AB400 ??5@YAAEAVQDataStream@@AEAV0@AEAVQPolygon@@@Z
       1912  777 001AB410 ??5@YAAEAVQDataStream@@AEAV0@AEAVQPolygonF@@@Z
       1913  778 006757B0 ??5@YAAEAVQDataStream@@AEAV0@AEAVQQuaternion@@@Z
       1914  779 001C2AC0 ??5@YAAEAVQDataStream@@AEAV0@AEAVQRegion@@@Z
       1915  77A 0004FE80 ??5@YAAEAVQDataStream@@AEAV0@AEAVQSizePolicy@@@Z
       1916  77B 005B2340 ??5@YAAEAVQDataStream@@AEAV0@AEAVQStandardItem@@@Z
       1917  77C 0057F410 ??5@YAAEAVQDataStream@@AEAV0@AEAVQTableWidgetItem@@@Z
       1918  77D 0028AF90 ??5@YAAEAVQDataStream@@AEAV0@AEAVQTextFormat@@@Z
       1919  77E 0028B0B0 ??5@YAAEAVQDataStream@@AEAV0@AEAVQTextLength@@@Z
       1920  77F 001DABE0 ??5@YAAEAVQDataStream@@AEAV0@AEAVQTransform@@@Z
       1921  780 0058CE80 ??5@YAAEAVQDataStream@@AEAV0@AEAVQTreeWidgetItem@@@Z
       1922  781 00676520 ??5@YAAEAVQDataStream@@AEAV0@AEAVQVector2D@@@Z
       1923  782 006769B0 ??5@YAAEAVQDataStream@@AEAV0@AEAVQVector3D@@@Z
       1924  783 00677480 ??5@YAAEAVQDataStream@@AEAV0@AEAVQVector4D@@@Z
       1925  784 00461180 ??5@YAAEAVQTextStream@@AEAV0@AEAVQSplitter@@@Z
       1926  785 003333C0 ??6?$QList@VQItemSelectionRange@@@@QEAAAEAV0@AEBV0@@Z
       1927  786 003333E0 ??6?$QList@VQItemSelectionRange@@@@QEAAAEAV0@AEBVQItemSelectionRange@@@Z
       1928  787 00149330 ??6@YA?AVQDebug@@V0@AEBVQBrush@@@Z
       1929  788 0014C5E0 ??6@YA?AVQDebug@@V0@AEBVQColor@@@Z
       1930  789 0023DD00 ??6@YA?AVQDebug@@V0@AEBVQFont@@@Z
       1931  78A 00565900 ??6@YA?AVQDebug@@V0@AEBVQItemSelectionRange@@@Z
       1932  78B 0004D020 ??6@YA?AVQDebug@@V0@AEBVQKeySequence@@@Z
       1933  78C 00671860 ??6@YA?AVQDebug@@V0@AEBVQMatrix4x4@@@Z
       1934  78D 0015E7A0 ??6@YA?AVQDebug@@V0@AEBVQMatrix@@@Z
       1935  78E 00188300 ??6@YA?AVQDebug@@V0@AEBVQPainterPath@@@Z
       1936  78F 001A9710 ??6@YA?AVQDebug@@V0@AEBVQPen@@@Z
       1937  790 001AB4A0 ??6@YA?AVQDebug@@V0@AEBVQPolygon@@@Z
       1938  791 001AB5A0 ??6@YA?AVQDebug@@V0@AEBVQPolygonF@@@Z
       1939  792 00675830 ??6@YA?AVQDebug@@V0@AEBVQQuaternion@@@Z
       1940  793 001C2B60 ??6@YA?AVQDebug@@V0@AEBVQRegion@@@Z
       1941  794 0030CAE0 ??6@YA?AVQDebug@@V0@AEBVQStyleOption@@@Z
       1942  795 001DACF0 ??6@YA?AVQDebug@@V0@AEBVQTransform@@@Z
       1943  796 00676580 ??6@YA?AVQDebug@@V0@AEBVQVector2D@@@Z
       1944  797 00676A30 ??6@YA?AVQDebug@@V0@AEBVQVector3D@@@Z
       1945  798 00677510 ??6@YA?AVQDebug@@V0@AEBVQVector4D@@@Z
       1946  799 0030CB30 ??6@YA?AVQDebug@@V0@AEBW4OptionType@QStyleOption@@@Z
       1947  79A 005D5580 ??6@YA?AVQDebug@@V0@PEAVQGraphicsItem@@@Z
       1948  79B 005D5770 ??6@YA?AVQDebug@@V0@PEAVQGraphicsObject@@@Z
       1949  79C 0003E030 ??6@YA?AVQDebug@@V0@PEBVQEvent@@@Z
       1950  79D 005D59C0 ??6@YA?AVQDebug@@V0@V?$QFlags@W4GraphicsItemFlag@QGraphicsItem@@@@@Z
       1951  79E 00307250 ??6@YA?AVQDebug@@V0@V?$QFlags@W4StateFlag@QStyle@@@@@Z
       1952  79F 005D5AA0 ??6@YA?AVQDebug@@V0@W4GraphicsItemChange@QGraphicsItem@@@Z
       1953  7A0 005D5D20 ??6@YA?AVQDebug@@V0@W4GraphicsItemFlag@QGraphicsItem@@@Z
       1954  7A1 00149410 ??6@YAAEAVQDataStream@@AEAV0@AEBVQBrush@@@Z
       1955  7A2 0014CA70 ??6@YAAEAVQDataStream@@AEAV0@AEBVQColor@@@Z
       1956  7A3 00038F60 ??6@YAAEAVQDataStream@@AEAV0@AEBVQCursor@@@Z
       1957  7A4 0023DDA0 ??6@YAAEAVQDataStream@@AEAV0@AEBVQFont@@@Z
       1958  7A5 000BE900 ??6@YAAEAVQDataStream@@AEAV0@AEBVQIcon@@@Z
       1959  7A6 000D5370 ??6@YAAEAVQDataStream@@AEAV0@AEBVQImage@@@Z
       1960  7A7 0004D0E0 ??6@YAAEAVQDataStream@@AEAV0@AEBVQKeySequence@@@Z
       1961  7A8 00576B90 ??6@YAAEAVQDataStream@@AEAV0@AEBVQListWidgetItem@@@Z
       1962  7A9 00671B80 ??6@YAAEAVQDataStream@@AEAV0@AEBVQMatrix4x4@@@Z
       1963  7AA 0015E940 ??6@YAAEAVQDataStream@@AEAV0@AEBVQMatrix@@@Z
       1964  7AB 001E58A0 ??6@YAAEAVQDataStream@@AEAV0@AEBVQPaintBuffer@@@Z
       1965  7AC 001884A0 ??6@YAAEAVQDataStream@@AEAV0@AEBVQPainterPath@@@Z
       1966  7AD 00057710 ??6@YAAEAVQDataStream@@AEAV0@AEBVQPalette@@@Z
       1967  7AE 001A99B0 ??6@YAAEAVQDataStream@@AEAV0@AEBVQPen@@@Z
       1968  7AF 000EFA40 ??6@YAAEAVQDataStream@@AEAV0@AEBVQPicture@@@Z
       1969  7B0 000F5260 ??6@YAAEAVQDataStream@@AEAV0@AEBVQPixmap@@@Z
       1970  7B1 001AB6A0 ??6@YAAEAVQDataStream@@AEAV0@AEBVQPolygon@@@Z
       1971  7B2 001AB6B0 ??6@YAAEAVQDataStream@@AEAV0@AEBVQPolygonF@@@Z
       1972  7B3 00675960 ??6@YAAEAVQDataStream@@AEAV0@AEBVQQuaternion@@@Z
       1973  7B4 001C2D20 ??6@YAAEAVQDataStream@@AEAV0@AEBVQRegion@@@Z
       1974  7B5 0004FE90 ??6@YAAEAVQDataStream@@AEAV0@AEBVQSizePolicy@@@Z
       1975  7B6 005B23A0 ??6@YAAEAVQDataStream@@AEAV0@AEBVQStandardItem@@@Z
       1976  7B7 0057F460 ??6@YAAEAVQDataStream@@AEAV0@AEBVQTableWidgetItem@@@Z
       1977  7B8 0028B100 ??6@YAAEAVQDataStream@@AEAV0@AEBVQTextFormat@@@Z
       1978  7B9 0028B1B0 ??6@YAAEAVQDataStream@@AEAV0@AEBVQTextLength@@@Z
       1979  7BA 001DAF50 ??6@YAAEAVQDataStream@@AEAV0@AEBVQTransform@@@Z
       1980  7BB 0058CED0 ??6@YAAEAVQDataStream@@AEAV0@AEBVQTreeWidgetItem@@@Z
       1981  7BC 00676660 ??6@YAAEAVQDataStream@@AEAV0@AEBVQVector2D@@@Z
       1982  7BD 00676B40 ??6@YAAEAVQDataStream@@AEAV0@AEBVQVector3D@@@Z
       1983  7BE 00677650 ??6@YAAEAVQDataStream@@AEAV0@AEBVQVector4D@@@Z
       1984  7BF 0016EA40 ??6@YAAEAVQDebug@@AEAV0@AEBVQVectorPath@@@Z
       1985  7C0 00461280 ??6@YAAEAVQTextStream@@AEAV0@AEBVQSplitter@@@Z
       1986  7C1 00411D00 ??7QPixmap@@QEBA_NXZ
       1987  7C2 00333440 ??8?$QList@VQItemSelectionRange@@@@QEBA_NAEBV0@@Z
       1988  7C3 000F80D0 ??8Key@QPixmapCache@@QEBA_NAEBV01@@Z
       1989  7C4 001497B0 ??8QBrush@@QEBA_NAEBV0@@Z
       1990  7C5 0014CB90 ??8QColor@@QEBA_NAEBV0@@Z
       1991  7C6 0023E0A0 ??8QFont@@QEBA_NAEBV0@@Z
       1992  7C7 00255010 ??8QFontMetrics@@QEAA_NAEBV0@@Z
       1993  7C8 00255020 ??8QFontMetrics@@QEBA_NAEBV0@@Z
       1994  7C9 00255030 ??8QFontMetricsF@@QEAA_NAEBV0@@Z
       1995  7CA 00255040 ??8QFontMetricsF@@QEBA_NAEBV0@@Z
       1996  7CB 002FD6D0 ??8QGlyphRun@@QEBA_NAEBV0@@Z
       1997  7CC 001498C0 ??8QGradient@@QEAA_NAEBV0@@Z
       1998  7CD 001498D0 ??8QGradient@@QEBA_NAEBV0@@Z
       1999  7CE 000D5430 ??8QImage@@QEBA_NAEBV0@@Z
       2000  7CF 0068BCB0 ??8QImageTextKeyLang@@QEBA_NAEBV0@@Z
       2001  7D0 00333540 ??8QItemSelectionRange@@QEBA_NAEBV0@@Z
       2002  7D1 0004D230 ??8QKeySequence@@QEBA_NAEBV0@@Z
       2003  7D2 0000AA60 ??8QMatrix4x4@@QEBA_NAEBV0@@Z
       2004  7D3 0015EA70 ??8QMatrix@@QEBA_NAEBV0@@Z
       2005  7D4 001885E0 ??8QPainterPath@@QEBA_NAEBV0@@Z
       2006  7D5 00057810 ??8QPalette@@QEBA_NAEBV0@@Z
       2007  7D6 001A9C10 ??8QPen@@QEBA_NAEBV0@@Z
       2008  7D7 002FBF30 ??8QRawFont@@QEBA_NAEBV0@@Z
       2009  7D8 001C2EF0 ??8QRegion@@QEBA_NAEBV0@@Z
       2010  7D9 000EA4D0 ??8QScriptAnalysis@@QEBA_NAEBU0@@Z
       2011  7DA 00064FE0 ??8QSizePolicy@@QEBA_NAEBV0@@Z
       2012  7DB 002F9490 ??8QStaticText@@QEBA_NAEBV0@@Z
       2013  7DC 00068550 ??8QTextBlock@@QEBA_NAEBV0@@Z
       2014  7DD 002C3030 ??8QTextCursor@@QEBA_NAEBV0@@Z
       2015  7DE 0028B2D0 ??8QTextFormat@@QEBA_NAEBV0@@Z
       2016  7DF 00068570 ??8QTextFragment@@QEBA_NAEBV0@@Z
       2017  7E0 00064FF0 ??8QTextLength@@QEBA_NAEBV0@@Z
       2018  7E1 002651B0 ??8QTextTableCell@@QEBA_NAEBV0@@Z
       2019  7E2 001DB060 ??8QTransform@@QEBA_NAEBV0@@Z
       2020  7E3 0068BD00 ??8Tab@QTextOption@@QEBA_NAEBU01@@Z
       2021  7E4 00068590 ??8iterator@QTextBlock@@QEBA_NAEBV01@@Z
       2022  7E5 000685B0 ??8iterator@QTextFrame@@QEBA_NAEBV01@@Z
       2023  7E6 003335A0 ??9?$QList@VQItemSelectionRange@@@@QEBA_NAEBV0@@Z
       2024  7E7 0000ABD0 ??9Key@QPixmapCache@@QEBA_NAEBV01@@Z
       2025  7E8 000578C0 ??9QBrush@@QEBA_NAEBV0@@Z
       2026  7E9 0014CCF0 ??9QColor@@QEBA_NAEBV0@@Z
       2027  7EA 0023E290 ??9QFont@@QEBA_NAEBV0@@Z
       2028  7EB 0068BE00 ??9QFontMetrics@@QEAA_NAEBV0@@Z
       2029  7EC 0068BE20 ??9QFontMetrics@@QEBA_NAEBV0@@Z
       2030  7ED 0068BE40 ??9QFontMetricsF@@QEAA_NAEBV0@@Z
       2031  7EE 0068BE60 ??9QFontMetricsF@@QEBA_NAEBV0@@Z
       2032  7EF 000685D0 ??9QGlyphRun@@QEBA_NAEBV0@@Z
       2033  7F0 0068BE80 ??9QGradient@@QEBA_NAEBV0@@Z
       2034  7F1 000D5730 ??9QImage@@QEBA_NAEBV0@@Z
       2035  7F2 0068BEA0 ??9QImageTextKeyLang@@QEBA_NAEBV0@@Z
       2036  7F3 003335D0 ??9QItemSelectionRange@@QEBA_NAEBV0@@Z
       2037  7F4 0005A250 ??9QKeySequence@@QEBA_NAEBV0@@Z
       2038  7F5 0000ABF0 ??9QMatrix4x4@@QEBA_NAEBV0@@Z
       2039  7F6 0015EAD0 ??9QMatrix@@QEBA_NAEBV0@@Z
       2040  7F7 00188830 ??9QPainterPath@@QEBA_NAEBV0@@Z
       2041  7F8 0041BD10 ??9QPalette@@QEBA_NAEBV0@@Z
       2042  7F9 0068BEF0 ??9QPen@@QEBA_NAEBV0@@Z
       2043  7FA 000685F0 ??9QRawFont@@QEBA_NAEBV0@@Z
       2044  7FB 0068BF10 ??9QRegion@@QEBA_NAEBV0@@Z
       2045  7FC 00411D10 ??9QSizePolicy@@QEBA_NAEBV0@@Z
       2046  7FD 002F9510 ??9QStaticText@@QEBA_NAEBV0@@Z
       2047  7FE 00068610 ??9QTextBlock@@QEBA_NAEBV0@@Z
       2048  7FF 002C3070 ??9QTextCursor@@QEBA_NAEBV0@@Z
       2049  800 00065070 ??9QTextFormat@@QEBA_NAEBV0@@Z
       2050  801 00068630 ??9QTextFragment@@QEBA_NAEBV0@@Z
       2051  802 00065090 ??9QTextLength@@QEBA_NAEBV0@@Z
       2052  803 002651E0 ??9QTextTableCell@@QEBA_NAEBV0@@Z
       2053  804 001DB0F0 ??9QTransform@@QEBA_NAEBV0@@Z
       2054  805 0068BF30 ??9Tab@QTextOption@@QEBA_NAEBU01@@Z
       2055  806 00068650 ??9iterator@QTextBlock@@QEBA_NAEBV01@@Z
       2056  807 00068670 ??9iterator@QTextFrame@@QEBA_NAEBV01@@Z
       2057  808 00334270 ??A?$QList@VQItemSelectionRange@@@@QEAAAEAVQItemSelectionRange@@H@Z
       2058  809 003342C0 ??A?$QList@VQItemSelectionRange@@@@QEBAAEBVQItemSelectionRange@@H@Z
       2059  80A 0004D260 ??AQKeySequence@@QEBAHI@Z
       2060  80B 000BCD70 ??BQBitmap@@QEBA?AVQVariant@@XZ
       2061  80C 00149B20 ??BQBrush@@QEBA?AVQVariant@@XZ
       2062  80D 0014CD10 ??BQColor@@QEBA?AVQVariant@@XZ
       2063  80E 000390B0 ??BQCursor@@QEBA?AVQVariant@@XZ
       2064  80F 0023E4A0 ??BQFont@@QEBA?AVQVariant@@XZ
       2065  810 000BEBF0 ??BQIcon@@QEBA?AVQVariant@@XZ
       2066  811 000D57D0 ??BQImage@@QEBA?AVQVariant@@XZ
       2067  812 0004D280 ??BQKeySequence@@QEBA?AVQString@@XZ
       2068  813 0004D2B0 ??BQKeySequence@@QEBA?AVQVariant@@XZ
       2069  814 0004D2E0 ??BQKeySequence@@QEBAHXZ
       2070  815 00671C00 ??BQMatrix4x4@@QEBA?AVQVariant@@XZ
       2071  816 0015EB40 ??BQMatrix@@QEBA?AVQVariant@@XZ
       2072  817 000578E0 ??BQPalette@@QEBA?AVQVariant@@XZ
       2073  818 001A9CD0 ??BQPen@@QEBA?AVQVariant@@XZ
       2074  819 000F5300 ??BQPixmap@@QEBA?AVQVariant@@XZ
       2075  81A 001AB730 ??BQPolygon@@QEBA?AVQVariant@@XZ
       2076  81B 006759E0 ??BQQuaternion@@QEBA?AVQVariant@@XZ
       2077  81C 001C2F70 ??BQRegion@@QEBA?AVQVariant@@XZ
       2078  81D 00054CA0 ??BQSizePolicy@@QEBA?AVQVariant@@XZ
       2079  81E 0028B4C0 ??BQTextFormat@@QEBA?AVQVariant@@XZ
       2080  81F 0028B4F0 ??BQTextLength@@QEBA?AVQVariant@@XZ
       2081  820 001DB110 ??BQTransform@@QEBA?AVQVariant@@XZ
       2082  821 006766A0 ??BQVector2D@@QEBA?AVQVariant@@XZ
       2083  822 00676BA0 ??BQVector3D@@QEBA?AVQVariant@@XZ
       2084  823 006776D0 ??BQVector4D@@QEBA?AVQVariant@@XZ
       2085  824 0000ADC0 ??BQWidgetBackingStoreTracker@@QEBA_NXZ
       2086  825 0000AE10 ??CQWidgetBackingStoreTracker@@QEAAPEAVQWidgetBackingStore@@XZ
       2087  826 0068BF50 ??D@YA?AVQLine@@AEBV0@AEBVQMatrix@@@Z
       2088  827 0068BF80 ??D@YA?AVQLine@@AEBV0@AEBVQTransform@@@Z
       2089  828 0068BFB0 ??D@YA?AVQLineF@@AEBV0@AEBVQMatrix@@@Z
       2090  829 0068BFE0 ??D@YA?AVQLineF@@AEBV0@AEBVQTransform@@@Z
       2091  82A 0015EB80 ??D@YA?AVQPainterPath@@AEBV0@AEBVQMatrix@@@Z
       2092  82B 0016B3B0 ??D@YA?AVQPainterPath@@AEBV0@AEBVQTransform@@@Z
       2093  82C 0068C010 ??D@YA?AVQPoint@@AEBV0@AEBVQMatrix@@@Z
       2094  82D 0068C040 ??D@YA?AVQPoint@@AEBV0@AEBVQTransform@@@Z
       2095  82E 0068C070 ??D@YA?AVQPointF@@AEBV0@AEBVQMatrix@@@Z
       2096  82F 001548F0 ??D@YA?AVQPointF@@AEBV0@AEBVQTransform@@@Z
       2097  830 0068C0A0 ??D@YA?AVQPolygon@@AEBV0@AEBVQMatrix@@@Z
       2098  831 0068C0D0 ??D@YA?AVQPolygon@@AEBV0@AEBVQTransform@@@Z
       2099  832 0068C100 ??D@YA?AVQPolygonF@@AEBV0@AEBVQMatrix@@@Z
       2100  833 0016B3E0 ??D@YA?AVQPolygonF@@AEBV0@AEBVQTransform@@@Z
       2101  834 0068C130 ??D@YA?AVQRegion@@AEBV0@AEBVQMatrix@@@Z
       2102  835 00175040 ??D@YA?AVQRegion@@AEBV0@AEBVQTransform@@@Z
       2103  836 0068C160 ??D@YA?AVQTransform@@AEBV0@N@Z
       2104  837 0015EBB0 ??DQMatrix@@QEBA?AV0@AEBV0@@Z
       2105  838 001DB140 ??DQTransform@@QEBA?AV0@AEBV0@@Z
       2106  839 0058D010 ??DQTreeWidgetItemIterator@@QEBAPEAVQTreeWidgetItem@@XZ
       2107  83A 0000BA60 ??DQWidgetBackingStoreTracker@@QEAAAEAVQWidgetBackingStore@@XZ
       2108  83B 0058D040 ??EQTreeWidgetItemIterator@@QEAA?BV0@H@Z
       2109  83C 005BDEA0 ??EQTreeWidgetItemIterator@@QEAAAEAV0@XZ
       2110  83D 00068690 ??Eiterator@QTextBlock@@QEAA?AV01@H@Z
       2111  83E 00291110 ??Eiterator@QTextBlock@@QEAAAEAV01@XZ
       2112  83F 000686C0 ??Eiterator@QTextFrame@@QEAA?AV01@H@Z
       2113  840 002911D0 ??Eiterator@QTextFrame@@QEAAAEAV01@XZ
       2114  841 0058D0A0 ??FQTreeWidgetItemIterator@@QEAA?BV0@H@Z
       2115  842 005BDEE0 ??FQTreeWidgetItemIterator@@QEAAAEAV0@XZ
       2116  843 00068700 ??Fiterator@QTextBlock@@QEAA?AV01@H@Z
       2117  844 00291420 ??Fiterator@QTextBlock@@QEAAAEAV01@XZ
       2118  845 00068730 ??Fiterator@QTextFrame@@QEAA?AV01@H@Z
       2119  846 002914C0 ??Fiterator@QTextFrame@@QEAAAEAV01@XZ
       2120  847 0068C1E0 ??G@YA?AVQTransform@@AEBV0@N@Z
       2121  848 00188910 ??GQPainterPath@@QEBA?AV0@AEBV0@@Z
       2122  849 001C2FB0 ??GQRegion@@QEBA?BV0@AEBV0@@Z
       2123  84A 003348D0 ??H?$QList@VQItemSelectionRange@@@@QEBA?AV0@AEBV0@@Z
       2124  84B 0068C260 ??H@YA?AVQTransform@@AEBV0@N@Z
       2125  84C 00188930 ??HQPainterPath@@QEBA?AV0@AEBV0@@Z
       2126  84D 001C2FD0 ??HQRegion@@QEBA?BV0@AEBV0@@Z
       2127  84E 001C2FF0 ??HQRegion@@QEBA?BV0@AEBVQRect@@@Z
       2128  84F 00188950 ??IQPainterPath@@QEBA?AV0@AEBV0@@Z
       2129  850 001C3010 ??IQRegion@@QEBA?BV0@AEBV0@@Z
       2130  851 001C3030 ??IQRegion@@QEBA?BV0@AEBVQRect@@@Z
       2131  852 00671C30 ??K@YA?AVQMatrix4x4@@AEBV0@N@Z
       2132  853 001DB5D0 ??K@YA?AVQTransform@@AEBV0@N@Z
       2133  854 0023E5F0 ??MQFont@@QEBA_NAEBV0@@Z
       2134  855 0068C2E0 ??MQImageTextKeyLang@@QEBA_NAEBV0@@Z
       2135  856 00334970 ??MQItemSelectionRange@@QEBA_NAEBV0@@Z
       2136  857 0004D2F0 ??MQKeySequence@@QEBA_NAEBV0@@Z
       2137  858 00576DC0 ??MQListWidgetItem@@UEBA_NAEBV0@@Z
       2138  859 005B2670 ??MQStandardItem@@UEBA_NAEBV0@@Z
       2139  85A 0057F560 ??MQTableWidgetItem@@UEBA_NAEBV0@@Z
       2140  85B 00068770 ??MQTextBlock@@QEBA_NAEBV0@@Z
       2141  85C 002C30D0 ??MQTextCursor@@QEBA_NAEBV0@@Z
       2142  85D 000687A0 ??MQTextFragment@@QEBA_NAEBV0@@Z
       2143  85E 0058D120 ??MQTreeWidgetItem@@UEBA_NAEBV0@@Z
       2144  85F 0068C340 ??NQKeySequence@@QEBA_NAEBV0@@Z
       2145  860 002C3100 ??NQTextCursor@@QEBA_NAEBV0@@Z
       2146  861 0068C360 ??OQKeySequence@@QEBA_NAEBV0@@Z
       2147  862 002C3130 ??OQTextCursor@@QEBA_NAEBV0@@Z
       2148  863 0068C370 ??PQKeySequence@@QEBA_NAEBV0@@Z
       2149  864 002C3160 ??PQTextCursor@@QEBA_NAEBV0@@Z
       2150  865 0000BBE0 ??RQMatrix4x4@@QEAAAEANHH@Z
       2151  866 0000BC00 ??RQMatrix4x4@@QEBAAEBNHH@Z
       2152  867 001C3050 ??TQRegion@@QEBA?BV0@AEBV0@@Z
       2153  868 00188970 ??UQPainterPath@@QEBA?AV0@AEBV0@@Z
       2154  869 001C3070 ??UQRegion@@QEBA?BV0@AEBV0@@Z
       2155  86A 0000BC10 ??XQMatrix4x4@@QEAAAEAV0@AEBV0@@Z
       2156  86B 0000BD60 ??XQMatrix4x4@@QEAAAEAV0@N@Z
       2157  86C 0015EC70 ??XQMatrix@@QEAAAEAV0@AEBV0@@Z
       2158  86D 000020C0 ??XQQuaternion@@QEAAAEAV0@AEBV0@@Z
       2159  86E 00002100 ??XQQuaternion@@QEAAAEAV0@N@Z
       2160  86F 001DB660 ??XQTransform@@QEAAAEAV0@AEBV0@@Z
       2161  870 001DBAC0 ??XQTransform@@QEAAAEAV0@N@Z
       2162  871 00002140 ??XQVector2D@@QEAAAEAV0@AEBV0@@Z
       2163  872 00002160 ??XQVector2D@@QEAAAEAV0@N@Z
       2164  873 00002190 ??XQVector3D@@QEAAAEAV0@AEBV0@@Z
       2165  874 000021C0 ??XQVector3D@@QEAAAEAV0@N@Z
       2166  875 00002210 ??XQVector4D@@QEAAAEAV0@AEBV0@@Z
       2167  876 00002250 ??XQVector4D@@QEAAAEAV0@N@Z
       2168  877 00334B30 ??Y?$QList@VQItemSelectionRange@@@@QEAAAEAV0@AEBV0@@Z
       2169  878 00334C00 ??Y?$QList@VQItemSelectionRange@@@@QEAAAEAV0@AEBVQItemSelectionRange@@@Z
       2170  879 0000BF10 ??YQMatrix4x4@@QEAAAEAV0@AEBV0@@Z
       2171  87A 00188A90 ??YQPainterPath@@QEAAAEAV0@AEBV0@@Z
       2172  87B 000022B0 ??YQQuaternion@@QEAAAEAV0@AEBV0@@Z
       2173  87C 001C3090 ??YQRegion@@QEAAAEAV0@AEBV0@@Z
       2174  87D 001C3240 ??YQRegion@@QEAAAEAV0@AEBVQRect@@@Z
       2175  87E 000EA610 ??YQScriptLine@@QEAAXAEBU0@@Z
       2176  87F 0068C390 ??YQTransform@@QEAAAEAV0@N@Z
       2177  880 0058D200 ??YQTreeWidgetItemIterator@@QEAAAEAV0@H@Z
       2178  881 000022F0 ??YQVector2D@@QEAAAEAV0@AEBV0@@Z
       2179  882 00002310 ??YQVector3D@@QEAAAEAV0@AEBV0@@Z
       2180  883 00002340 ??YQVector4D@@QEAAAEAV0@AEBV0@@Z
       2181  884 0000C010 ??ZQMatrix4x4@@QEAAAEAV0@AEBV0@@Z
       2182  885 00188AF0 ??ZQPainterPath@@QEAAAEAV0@AEBV0@@Z
       2183  886 00002380 ??ZQQuaternion@@QEAAAEAV0@AEBV0@@Z
       2184  887 001C3480 ??ZQRegion@@QEAAAEAV0@AEBV0@@Z
       2185  888 0068C420 ??ZQTransform@@QEAAAEAV0@N@Z
       2186  889 0058D260 ??ZQTreeWidgetItemIterator@@QEAAAEAV0@H@Z
       2187  88A 000023C0 ??ZQVector2D@@QEAAAEAV0@AEBV0@@Z
       2188  88B 000023E0 ??ZQVector3D@@QEAAAEAV0@AEBV0@@Z
       2189  88C 00002410 ??ZQVector4D@@QEAAAEAV0@AEBV0@@Z
       2190  88D 00671D20 ??_0QMatrix4x4@@QEAAAEAV0@N@Z
       2191  88E 00002450 ??_0QQuaternion@@QEAAAEAV0@N@Z
       2192  88F 001DBB60 ??_0QTransform@@QEAAAEAV0@N@Z
       2193  890 00002490 ??_0QVector2D@@QEAAAEAV0@N@Z
       2194  891 000024C0 ??_0QVector3D@@QEAAAEAV0@N@Z
       2195  892 00002510 ??_0QVector4D@@QEAAAEAV0@N@Z
       2196  893 00188B50 ??_4QPainterPath@@QEAAAEAV0@AEBV0@@Z
       2197  894 001C3500 ??_4QRegion@@QEAAAEAV0@AEBV0@@Z
       2198  895 001C3580 ??_4QRegion@@QEAAAEAV0@AEBVQRect@@@Z
       2199  896 00188BB0 ??_5QPainterPath@@QEAAAEAV0@AEBV0@@Z
       2200  897 001C3600 ??_5QRegion@@QEAAAEAV0@AEBV0@@Z
       2201  898 001C3680 ??_6QRegion@@QEAAAEAV0@AEBV0@@Z
       2202  899 00773AC8 ??_7QAbstractButton@@6BQObject@@@
       2203  89A 00773C78 ??_7QAbstractButton@@6BQPaintDevice@@@
       2204  89B 007C7B38 ??_7QAbstractGraphicsShapeItem@@6B@
       2205  89C 007B5208 ??_7QAbstractItemDelegate@@6B@
       2206  89D 007AE468 ??_7QAbstractItemView@@6BQObject@@@
       2207  89E 007AE740 ??_7QAbstractItemView@@6BQPaintDevice@@@
       2208  89F 007AE778 ??_7QAbstractItemViewPrivate@@6B@
       2209  8A0 0079A498 ??_7QAbstractPageSetupDialog@@6BQObject@@@
       2210  8A1 0079A650 ??_7QAbstractPageSetupDialog@@6BQPaintDevice@@@
       2211  8A2 0079A1B8 ??_7QAbstractPrintDialog@@6BQObject@@@
       2212  8A3 0079A370 ??_7QAbstractPrintDialog@@6BQPaintDevice@@@
       2213  8A4 007BE548 ??_7QAbstractProxyModel@@6B@
       2214  8A5 00793978 ??_7QAbstractScrollArea@@6BQObject@@@
       2215  8A6 00793B20 ??_7QAbstractScrollArea@@6BQPaintDevice@@@
       2216  8A7 00793B58 ??_7QAbstractScrollAreaPrivate@@6B@
       2217  8A8 00773DE8 ??_7QAbstractSlider@@6BQObject@@@
       2218  8A9 00773F88 ??_7QAbstractSlider@@6BQPaintDevice@@@
       2219  8AA 00774BD8 ??_7QAbstractSpinBox@@6BQObject@@@
       2220  8AB 00774D98 ??_7QAbstractSpinBox@@6BQPaintDevice@@@
       2221  8AC 0075B478 ??_7QAbstractTextDocumentLayout@@6B@
       2222  8AD 00722340 ??_7QAbstractUndoItem@@6B@
       2223  8AE 007AABC8 ??_7QAccessible2Interface@@6B@
       2224  8AF 007AAFE8 ??_7QAccessibleActionInterface@@6B@
       2225  8B0 007AB808 ??_7QAccessibleApplication@@6B@
       2226  8B1 007AAC68 ??_7QAccessibleEditableTextInterface@@6B@
       2227  8B2 0071AFC8 ??_7QAccessibleEvent@@6B@
       2228  8B3 007AA9D8 ??_7QAccessibleFactoryInterface@@6B@
       2229  8B4 007AB028 ??_7QAccessibleImageInterface@@6B@
       2230  8B5 0071AE98 ??_7QAccessibleInterface@@6B@
       2231  8B6 0071AF28 ??_7QAccessibleInterfaceEx@@6B@
       2232  8B7 007AB6D8 ??_7QAccessibleObject@@6B@
       2233  8B8 007AB768 ??_7QAccessibleObjectEx@@6B@
       2234  8B9 007ABF18 ??_7QAccessiblePlugin@@6BQAccessibleFactoryInterface@@@
       2235  8BA 007ABEB8 ??_7QAccessiblePlugin@@6BQObject@@@
       2236  8BB 007AACB8 ??_7QAccessibleSimpleEditableTextInterface@@6B@
       2237  8BC 007AAE18 ??_7QAccessibleTable2CellInterface@@6B@
       2238  8BD 007AAEF8 ??_7QAccessibleTable2Interface@@6B@
       2239  8BE 007AAD38 ??_7QAccessibleTableInterface@@6B@
       2240  8BF 007AABD8 ??_7QAccessibleTextInterface@@6B@
       2241  8C0 007AAD00 ??_7QAccessibleValueInterface@@6B@
       2242  8C1 007ABD08 ??_7QAccessibleWidget@@6B@
       2243  8C2 007ABD98 ??_7QAccessibleWidgetEx@@6B@
       2244  8C3 00716FA8 ??_7QAction@@6B@
       2245  8C4 0071D640 ??_7QActionEvent@@6B@
       2246  8C5 00717678 ??_7QActionGroup@@6B@
       2247  8C6 007170C8 ??_7QActionPrivate@@6B@
       2248  8C7 0071ADE8 ??_7QApplication@@6B@
       2249  8C8 0071B390 ??_7QApplicationPrivate@@6B@
       2250  8C9 007D30B8 ??_7QBalloonTip@@6BQObject@@@
       2251  8CA 007D3258 ??_7QBalloonTip@@6BQPaintDevice@@@
       2252  8CB 007D6A18 ??_7QBasicKeyEventTransition@@6B@
       2253  8CC 007D6B68 ??_7QBasicMouseEventTransition@@6B@
       2254  8CD 00723EB0 ??_7QBitmap@@6B@
       2255  8CE 007344B8 ??_7QBlittable@@6B@
       2256  8CF 007343F8 ??_7QBlittablePixmapData@@6B@
       2257  8D0 0074C8B8 ??_7QBlitterPaintEngine@@6B@
       2258  8D1 0071BC38 ??_7QBoxLayout@@6BQLayoutItem@@@
       2259  8D2 0071BBA8 ??_7QBoxLayout@@6BQObject@@@
       2260  8D3 00773CB8 ??_7QButtonGroup@@6B@
       2261  8D4 0076B998 ??_7QCDEStyle@@6B@
       2262  8D5 00776738 ??_7QCalendarWidget@@6BQObject@@@
       2263  8D6 007768D8 ??_7QCalendarWidget@@6BQPaintDevice@@@
       2264  8D7 007776B8 ??_7QCheckBox@@6BQObject@@@
       2265  8D8 00777868 ??_7QCheckBox@@6BQPaintDevice@@@
       2266  8D9 0076FE58 ??_7QCleanlooksStyle@@6B@
       2267  8DA 0071C3B8 ??_7QClipboard@@6B@
       2268  8DB 0071D680 ??_7QClipboardEvent@@6B@
       2269  8DC 0071D4E8 ??_7QCloseEvent@@6B@
       2270  8DD 0079B4C8 ??_7QColorDialog@@6BQObject@@@
       2271  8DE 0079B678 ??_7QColorDialog@@6BQPaintDevice@@@
       2272  8DF 007C38A8 ??_7QColumnView@@6BQObject@@@
       2273  8E0 007C3B88 ??_7QColumnView@@6BQPaintDevice@@@
       2274  8E1 007C40E8 ??_7QColumnViewGrip@@6BQObject@@@
       2275  8E2 007C4280 ??_7QColumnViewGrip@@6BQPaintDevice@@@
       2276  8E3 007C3ED8 ??_7QColumnViewPrivate@@6B@
       2277  8E4 00779718 ??_7QComboBox@@6BQObject@@@
       2278  8E5 007798C0 ??_7QComboBox@@6BQPaintDevice@@@
       2279  8E6 0077A100 ??_7QComboBoxPrivate@@6B@
       2280  8E7 00779DD8 ??_7QComboBoxPrivateContainer@@6BQObject@@@
       2281  8E8 00779F70 ??_7QComboBoxPrivateContainer@@6BQPaintDevice@@@
       2282  8E9 00779C08 ??_7QComboBoxPrivateScroller@@6BQObject@@@
       2283  8EA 00779DA0 ??_7QComboBoxPrivateScroller@@6BQPaintDevice@@@
       2284  8EB 0077A8F8 ??_7QCommandLinkButton@@6BQObject@@@
       2285  8EC 0077AAA8 ??_7QCommandLinkButton@@6BQPaintDevice@@@
       2286  8ED 00765428 ??_7QCommonStyle@@6B@
       2287  8EE 007D40D8 ??_7QCompleter@@6B@
       2288  8EF 0071D528 ??_7QContextMenuEvent@@6B@
       2289  8F0 0071B1C0 ??_7QDashStroker@@6B@
       2290  8F1 007C2F28 ??_7QDataWidgetMapper@@6B@
       2291  8F2 0077C228 ??_7QDateEdit@@6BQObject@@@
       2292  8F3 0077C3F8 ??_7QDateEdit@@6BQPaintDevice@@@
       2293  8F4 0077BE08 ??_7QDateTimeEdit@@6BQObject@@@
       2294  8F5 0077BFD8 ??_7QDateTimeEdit@@6BQPaintDevice@@@
       2295  8F6 0072B178 ??_7QDesktopWidget@@6BQObject@@@
       2296  8F7 0072B310 ??_7QDesktopWidget@@6BQPaintDevice@@@
       2297  8F8 0077C9A8 ??_7QDial@@6BQObject@@@
       2298  8F9 0077CB48 ??_7QDial@@6BQPaintDevice@@@
       2299  8FA 0079CA48 ??_7QDialog@@6BQObject@@@
       2300  8FB 0079CBF8 ??_7QDialog@@6BQPaintDevice@@@
       2301  8FC 0077D4F8 ??_7QDialogButtonBox@@6BQObject@@@
       2302  8FD 0077D690 ??_7QDialogButtonBox@@6BQPaintDevice@@@
       2303  8FE 007B7618 ??_7QDirModel@@6B@
       2304  8FF 0077E308 ??_7QDockWidget@@6BQObject@@@
       2305  900 0077E4A0 ??_7QDockWidget@@6BQPaintDevice@@@
       2306  901 0077E588 ??_7QDockWidgetLayout@@6BQLayoutItem@@@
       2307  902 0077E4F8 ??_7QDockWidgetLayout@@6BQObject@@@
       2308  903 0078BA08 ??_7QDoubleSpinBox@@6BQObject@@@
       2309  904 0078BBD8 ??_7QDoubleSpinBox@@6BQPaintDevice@@@
       2310  905 00793318 ??_7QDoubleValidator@@6B@
       2311  906 0071C658 ??_7QDrag@@6B@
       2312  907 0071D5B8 ??_7QDragEnterEvent@@6BQEvent@@@
       2313  908 0071D5C8 ??_7QDragEnterEvent@@6BQMimeSource@@@
       2314  909 0071D600 ??_7QDragLeaveEvent@@6B@
       2315  90A 0071D580 ??_7QDragMoveEvent@@6BQEvent@@@
       2316  90B 0071D590 ??_7QDragMoveEvent@@6BQMimeSource@@@
       2317  90C 0071D5F0 ??_7QDragResponseEvent@@6B@
       2318  90D 0071D548 ??_7QDropEvent@@6BQEvent@@@
       2319  90E 0071D558 ??_7QDropEvent@@6BQMimeSource@@@
       2320  90F 0079D0C8 ??_7QErrorMessage@@6BQObject@@@
       2321  910 0079D278 ??_7QErrorMessage@@6BQPaintDevice@@@
       2322  911 0079F138 ??_7QFileDialog@@6BQObject@@@
       2323  912 0079F2E8 ??_7QFileDialog@@6BQPaintDevice@@@
       2324  913 0079F398 ??_7QFileDialogPrivate@@6B@
       2325  914 007C3118 ??_7QFileIconProvider@@6B@
       2326  915 007A7058 ??_7QFileInfoGatherer@@6B@
       2327  916 0071D650 ??_7QFileOpenEvent@@6B@
       2328  917 007A67B8 ??_7QFileSystemModel@@6B@
       2329  918 00799200 ??_7QFileSystemModelPrivate@@6B@
       2330  919 0071D498 ??_7QFocusEvent@@6B@
       2331  91A 00794108 ??_7QFocusFrame@@6BQObject@@@
       2332  91B 007942A0 ??_7QFocusFrame@@6BQPaintDevice@@@
       2333  91C 007800B8 ??_7QFontComboBox@@6BQObject@@@
       2334  91D 00780260 ??_7QFontComboBox@@6BQPaintDevice@@@
       2335  91E 007A0F48 ??_7QFontDialog@@6BQObject@@@
       2336  91F 007A10F8 ??_7QFontDialog@@6BQPaintDevice@@@
       2337  920 0074F2D8 ??_7QFontEngine@@6B@
       2338  921 0071DF88 ??_7QFormLayout@@6BQLayoutItem@@@
       2339  922 0071DEF8 ??_7QFormLayout@@6BQObject@@@
       2340  923 00780538 ??_7QFrame@@6BQObject@@@
       2341  924 007806D0 ??_7QFrame@@6BQPaintDevice@@@
       2342  925 00728438 ??_7QGesture@@6B@
       2343  926 0071D6B0 ??_7QGestureEvent@@6B@
       2344  927 0071B3B0 ??_7QGestureRecognizer@@6B@
       2345  928 007D2CB8 ??_7QGraphicsAnchor@@6B@
       2346  929 007D2D18 ??_7QGraphicsAnchorLayout@@6B@
       2347  92A 007D2A10 ??_7QGraphicsAnchorLayoutPrivate@@6B@
       2348  92B 007D7278 ??_7QGraphicsBlurEffect@@6B@
       2349  92C 007D71F8 ??_7QGraphicsColorizeEffect@@6B@
       2350  92D 007D72F8 ??_7QGraphicsDropShadowEffect@@6B@
       2351  92E 007D7178 ??_7QGraphicsEffect@@6B@
       2352  92F 00717008 ??_7QGraphicsEffectPrivate@@6B@
       2353  930 007D73F8 ??_7QGraphicsEffectSource@@6B@
       2354  931 007C7EC8 ??_7QGraphicsEllipseItem@@6B@
       2355  932 007C4F08 ??_7QGraphicsGridLayout@@6B@
       2356  933 007C7858 ??_7QGraphicsItem@@6B@
       2357  934 007C9E08 ??_7QGraphicsItemAnimation@@6B@
       2358  935 007C8648 ??_7QGraphicsItemGroup@@6B@
       2359  936 00717038 ??_7QGraphicsItemPrivate@@6B@
       2360  937 007CA208 ??_7QGraphicsLayout@@6B@
       2361  938 007CA368 ??_7QGraphicsLayoutItem@@6B@
       2362  939 007C4EE8 ??_7QGraphicsLayoutItemPrivate@@6B@
       2363  93A 007C4EF8 ??_7QGraphicsLayoutPrivate@@6B@
       2364  93B 007C8128 ??_7QGraphicsLineItem@@6B@
       2365  93C 007CA588 ??_7QGraphicsLinearLayout@@6B@
       2366  93D 007C7A08 ??_7QGraphicsObject@@6BQGraphicsItem@@@
       2367  93E 007C79A8 ??_7QGraphicsObject@@6BQObject@@@
       2368  93F 007D7378 ??_7QGraphicsOpacityEffect@@6B@
       2369  940 007C7C68 ??_7QGraphicsPathItem@@6B@
       2370  941 007C8258 ??_7QGraphicsPixmapItem@@6B@
       2371  942 007C7FF8 ??_7QGraphicsPolygonItem@@6B@
       2372  943 007CAF40 ??_7QGraphicsProxyWidget@@6B@
       2373  944 007CAE18 ??_7QGraphicsProxyWidget@@6BQGraphicsItem@@@
       2374  945 007CAD28 ??_7QGraphicsProxyWidget@@6BQObject@@@
       2375  946 007C7D98 ??_7QGraphicsRectItem@@6B@
       2376  947 007CEF98 ??_7QGraphicsRotation@@6B@
       2377  948 007CEF28 ??_7QGraphicsScale@@6B@
       2378  949 007CCC88 ??_7QGraphicsScene@@6B@
       2379  94A 007CD968 ??_7QGraphicsSceneBspTreeIndex@@6B@
       2380  94B 007CE1F0 ??_7QGraphicsSceneContextMenuEvent@@6B@
       2381  94C 007CE220 ??_7QGraphicsSceneDragDropEvent@@6B@
       2382  94D 007CE1C0 ??_7QGraphicsSceneEvent@@6B@
       2383  94E 007CE210 ??_7QGraphicsSceneHelpEvent@@6B@
       2384  94F 007CE200 ??_7QGraphicsSceneHoverEvent@@6B@
       2385  950 007CE778 ??_7QGraphicsSceneIndex@@6B@
       2386  951 007CCDA8 ??_7QGraphicsSceneLinearIndex@@6B@
       2387  952 007CE1D0 ??_7QGraphicsSceneMouseEvent@@6B@
       2388  953 007CE240 ??_7QGraphicsSceneMoveEvent@@6B@
       2389  954 007C8848 ??_7QGraphicsScenePrivate@@6B@
       2390  955 007CE230 ??_7QGraphicsSceneResizeEvent@@6B@
       2391  956 007CE1E0 ??_7QGraphicsSceneWheelEvent@@6B@
       2392  957 007C8518 ??_7QGraphicsSimpleTextItem@@6B@
       2393  958 0071B2C0 ??_7QGraphicsSystem@@6B@
       2394  959 0074DEA8 ??_7QGraphicsSystemPlugin@@6BQGraphicsSystemFactoryInterface@@@
       2395  95A 0074DE48 ??_7QGraphicsSystemPlugin@@6BQObject@@@
       2396  95B 007C83E8 ??_7QGraphicsTextItem@@6BQGraphicsItem@@@
       2397  95C 007C8388 ??_7QGraphicsTextItem@@6BQObject@@@
       2398  95D 007CEEB8 ??_7QGraphicsTransform@@6B@
       2399  95E 007CFFB8 ??_7QGraphicsView@@6BQObject@@@
       2400  95F 007D0178 ??_7QGraphicsView@@6BQPaintDevice@@@
       2401  960 007D01B0 ??_7QGraphicsViewPrivate@@6B@
       2402  961 007D0A00 ??_7QGraphicsWidget@@6B@
       2403  962 007D08D8 ??_7QGraphicsWidget@@6BQGraphicsItem@@@
       2404  963 007D07E8 ??_7QGraphicsWidget@@6BQObject@@@
       2405  964 0071E428 ??_7QGridLayout@@6BQLayoutItem@@@
       2406  965 0071E398 ??_7QGridLayout@@6BQObject@@@
       2407  966 00780C28 ??_7QGroupBox@@6BQObject@@@
       2408  967 00780DC0 ??_7QGroupBox@@6BQPaintDevice@@@
       2409  968 00729948 ??_7QGuiPlatformPlugin@@6BQGuiPlatformPluginInterface@@@
       2410  969 00729848 ??_7QGuiPlatformPlugin@@6BQObject@@@
       2411  96A 0071B370 ??_7QGuiPlatformPluginInterface@@6B@
       2412  96B 0071BD48 ??_7QHBoxLayout@@6BQLayoutItem@@@
       2413  96C 0071BCB8 ??_7QHBoxLayout@@6BQObject@@@
       2414  96D 007AF968 ??_7QHeaderView@@6BQObject@@@
       2415  96E 007AFC50 ??_7QHeaderView@@6BQPaintDevice@@@
       2416  96F 0071D610 ??_7QHelpEvent@@6B@
       2417  970 0071D518 ??_7QHideEvent@@6B@
       2418  971 0071D458 ??_7QHoverEvent@@6B@
       2419  972 0071D4F8 ??_7QIconDragEvent@@6B@
       2420  973 0072DD80 ??_7QIconEngine@@6B@
       2421  974 0072DE78 ??_7QIconEngineFactoryInterface@@6B@
       2422  975 0072DEC8 ??_7QIconEngineFactoryInterfaceV2@@6B@
       2423  976 007339F8 ??_7QIconEnginePlugin@@6BQIconEngineFactoryInterface@@@
       2424  977 00733998 ??_7QIconEnginePlugin@@6BQObject@@@
       2425  978 00733A78 ??_7QIconEnginePluginV2@@6BQIconEngineFactoryInterfaceV2@@@
       2426  979 00733A18 ??_7QIconEnginePluginV2@@6BQObject@@@
       2427  97A 0072DDB8 ??_7QIconEngineV2@@6B@
       2428  97B 007B08D8 ??_7QIdentityProxyModel@@6B@
       2429  97C 0072FF50 ??_7QImage@@6B@
       2430  97D 007303C8 ??_7QImageIOHandler@@6B@
       2431  97E 0071CA88 ??_7QImageIOHandlerFactoryInterface@@6B@
       2432  97F 007304B0 ??_7QImageIOPlugin@@6BQImageIOHandlerFactoryInterface@@@
       2433  980 00730448 ??_7QImageIOPlugin@@6BQObject@@@
       2434  981 0071B278 ??_7QImageTextureGlyphCache@@6B@
       2435  982 007C48D8 ??_7QInputContext@@6B@
       2436  983 007C46F8 ??_7QInputContextFactoryInterface@@6B@
       2437  984 007C47F8 ??_7QInputContextPlugin@@6BQInputContextFactoryInterface@@@
       2438  985 007C4798 ??_7QInputContextPlugin@@6BQObject@@@
       2439  986 007A1E98 ??_7QInputDialog@@6BQObject@@@
       2440  987 007A2048 ??_7QInputDialog@@6BQPaintDevice@@@
       2441  988 0071D438 ??_7QInputEvent@@6B@
       2442  989 0071D538 ??_7QInputMethodEvent@@6B@
       2443  98A 00793298 ??_7QIntValidator@@6B@
       2444  98B 0071C908 ??_7QInternalMimeData@@6B@
       2445  98C 007B57D8 ??_7QItemDelegate@@6B@
       2446  98D 007B5890 ??_7QItemEditorCreatorBase@@6B@
       2447  98E 007B58B0 ??_7QItemEditorFactory@@6B@
       2448  98F 007B6858 ??_7QItemSelectionModel@@6B@
       2449  990 0071D488 ??_7QKeyEvent@@6B@
       2450  991 007D67C8 ??_7QKeyEventTransition@@6B@
       2451  992 00781C08 ??_7QLCDNumber@@6BQObject@@@
       2452  993 00781DA0 ??_7QLCDNumber@@6BQPaintDevice@@@
       2453  994 00781748 ??_7QLabel@@6BQObject@@@
       2454  995 007818E0 ??_7QLabel@@6BQPaintDevice@@@
       2455  996 00720FC8 ??_7QLayout@@6BQLayoutItem@@@
       2456  997 00720F38 ??_7QLayout@@6BQObject@@@
       2457  998 00720E38 ??_7QLayoutItem@@6B@
       2458  999 0071BED8 ??_7QLayoutPrivate@@6B@
       2459  99A 00774EC8 ??_7QLineControl@@6B@
       2460  99B 00782B78 ??_7QLineEdit@@6BQObject@@@
       2461  99C 00782D10 ??_7QLineEdit@@6BQPaintDevice@@@
       2462  99D 007B8D98 ??_7QListModel@@6B@
       2463  99E 007B1A68 ??_7QListView@@6BQObject@@@
       2464  99F 007B1D40 ??_7QListView@@6BQPaintDevice@@@
       2465  9A0 007B8A68 ??_7QListWidget@@6BQObject@@@
       2466  9A1 007B8D60 ??_7QListWidget@@6BQPaintDevice@@@
       2467  9A2 007B8A18 ??_7QListWidgetItem@@6B@
       2468  9A3 007834F8 ??_7QMainWindow@@6BQObject@@@
       2469  9A4 00783698 ??_7QMainWindow@@6BQPaintDevice@@@
       2470  9A5 00784168 ??_7QMainWindowLayout@@6BQLayoutItem@@@
       2471  9A6 007840D8 ??_7QMainWindowLayout@@6BQObject@@@
       2472  9A7 00785648 ??_7QMdiArea@@6BQObject@@@
       2473  9A8 007857F0 ??_7QMdiArea@@6BQPaintDevice@@@
       2474  9A9 00787208 ??_7QMdiSubWindow@@6BQObject@@@
       2475  9AA 007873A0 ??_7QMdiSubWindow@@6BQPaintDevice@@@
       2476  9AB 00788A58 ??_7QMenu@@6BQObject@@@
       2477  9AC 00788BF0 ??_7QMenu@@6BQPaintDevice@@@
       2478  9AD 007894A8 ??_7QMenuBar@@6BQObject@@@
       2479  9AE 00789648 ??_7QMenuBar@@6BQPaintDevice@@@
       2480  9AF 007A3138 ??_7QMessageBox@@6BQObject@@@
       2481  9B0 007A32E8 ??_7QMessageBox@@6BQPaintDevice@@@
       2482  9B1 0071C390 ??_7QMimeSource@@6B@
       2483  9B2 007734F8 ??_7QMotifStyle@@6B@
       2484  9B3 0071D448 ??_7QMouseEvent@@6B@
       2485  9B4 007D6918 ??_7QMouseEventTransition@@6B@
       2486  9B5 0071D4C8 ??_7QMoveEvent@@6B@
       2487  9B6 00734068 ??_7QMovie@@6B@
       2488  9B7 00799468 ??_7QPageSetupDialog@@6BQObject@@@
       2489  9B8 00799620 ??_7QPageSetupDialog@@6BQPaintDevice@@@
       2490  9B9 0074A6F8 ??_7QPaintBuffer@@6B@
       2491  9BA 0074A988 ??_7QPaintBufferResource@@6B@
       2492  9BB 0074A928 ??_7QPaintBufferSignalProxy@@6B@
       2493  9BC 0073FC80 ??_7QPaintDevice@@6B@
       2494  9BD 0073FFE8 ??_7QPaintEngine@@6B@
       2495  9BE 00740C78 ??_7QPaintEngineEx@@6B@
       2496  9BF 0071B1F8 ??_7QPaintEngineExPrivate@@6B@
       2497  9C0 0074A748 ??_7QPaintEngineExReplayer@@6B@
       2498  9C1 0071D4A8 ??_7QPaintEvent@@6B@
       2499  9C2 0074A730 ??_7QPainterReplayer@@6B@
       2500  9C3 0071B1E8 ??_7QPainterState@@6B@
       2501  9C4 00728498 ??_7QPanGesture@@6B@
       2502  9C5 00731D18 ??_7QPicture@@6B@
       2503  9C6 00731FD0 ??_7QPictureFormatInterface@@6B@
       2504  9C7 00732088 ??_7QPictureFormatPlugin@@6BQObject@@@
       2505  9C8 007320E8 ??_7QPictureFormatPlugin@@6BQPictureFormatInterface@@@
       2506  9C9 007284F8 ??_7QPinchGesture@@6B@
       2507  9CA 00732698 ??_7QPixmap@@6B@
       2508  9CB 00733728 ??_7QPixmapBlurFilter@@6B@
       2509  9CC 00733798 ??_7QPixmapColorizeFilter@@6B@
       2510  9CD 007336B8 ??_7QPixmapConvolutionFilter@@6B@
       2511  9CE 0071B038 ??_7QPixmapData@@6B@
       2512  9CF 00733808 ??_7QPixmapDropShadowFilter@@6B@
       2513  9D0 00733648 ??_7QPixmapFilter@@6B@
       2514  9D1 00797898 ??_7QPlainTextDocumentLayout@@6B@
       2515  9D2 00797698 ??_7QPlainTextEdit@@6BQObject@@@
       2516  9D3 00797860 ??_7QPlainTextEdit@@6BQPaintDevice@@@
       2517  9D4 0076E688 ??_7QPlastiqueStyle@@6B@
       2518  9D5 00799978 ??_7QPrintDialog@@6BQObject@@@
       2519  9D6 00799B30 ??_7QPrintDialog@@6BQPaintDevice@@@
       2520  9D7 00740578 ??_7QPrintEngine@@6B@
       2521  9D8 007A9E98 ??_7QPrintPreviewDialog@@6BQObject@@@
       2522  9D9 007AA048 ??_7QPrintPreviewDialog@@6BQPaintDevice@@@
       2523  9DA 007982F8 ??_7QPrintPreviewWidget@@6BQObject@@@
       2524  9DB 00798490 ??_7QPrintPreviewWidget@@6BQPaintDevice@@@
       2525  9DC 00748B00 ??_7QPrinter@@6B@
       2526  9DD 00789B08 ??_7QProgressBar@@6BQObject@@@
       2527  9DE 00789CA8 ??_7QProgressBar@@6BQPaintDevice@@@
       2528  9DF 007A4578 ??_7QProgressDialog@@6BQObject@@@
       2529  9E0 007A4728 ??_7QProgressDialog@@6BQPaintDevice@@@
       2530  9E1 007BDD78 ??_7QProxyModel@@6B@
       2531  9E2 007676C8 ??_7QProxyStyle@@6B@
       2532  9E3 00789FD8 ??_7QPushButton@@6BQObject@@@
       2533  9E4 0078A188 ??_7QPushButton@@6BQPaintDevice@@@
       2534  9E5 0078A2B8 ??_7QRadioButton@@6BQObject@@@
       2535  9E6 0078A468 ??_7QRadioButton@@6BQPaintDevice@@@
       2536  9E7 007326D8 ??_7QRasterPixmapData@@6B@
       2537  9E8 0074DF68 ??_7QRasterWindowSurface@@6B@
       2538  9E9 00793398 ??_7QRegExpValidator@@6B@
       2539  9EA 0071D4D8 ??_7QResizeEvent@@6B@
       2540  9EB 0078A5B8 ??_7QRubberBand@@6BQObject@@@
       2541  9EC 0078A750 ??_7QRubberBand@@6BQPaintDevice@@@
       2542  9ED 0074DB28 ??_7QRuntimePixmapData@@6B@
       2543  9EE 00794438 ??_7QScrollArea@@6BQObject@@@
       2544  9EF 007945E0 ??_7QScrollArea@@6BQPaintDevice@@@
       2545  9F0 0078A988 ??_7QScrollBar@@6BQObject@@@
       2546  9F1 0078AB28 ??_7QScrollBar@@6BQPaintDevice@@@
       2547  9F2 0071AFD8 ??_7QSessionManager@@6B@
       2548  9F3 00721718 ??_7QShortcut@@6B@
       2549  9F4 0071D670 ??_7QShortcutEvent@@6B@
       2550  9F5 0071D508 ??_7QShowEvent@@6B@
       2551  9F6 007A4F68 ??_7QSidebar@@6BQObject@@@
       2552  9F7 007A5240 ??_7QSidebar@@6BQPaintDevice@@@
       2553  9F8 0078AE08 ??_7QSizeGrip@@6BQObject@@@
       2554  9F9 0078AFA0 ??_7QSizeGrip@@6BQPaintDevice@@@
       2555  9FA 0078B208 ??_7QSlider@@6BQObject@@@
       2556  9FB 0078B3A8 ??_7QSlider@@6BQPaintDevice@@@
       2557  9FC 00729648 ??_7QSoftKeyManager@@6B@
       2558  9FD 007C0458 ??_7QSortFilterProxyModel@@6B@
       2559  9FE 0072D3D8 ??_7QSound@@6B@
       2560  9FF 00720EB8 ??_7QSpacerItem@@6B@
       2561  A00 0078B7F8 ??_7QSpinBox@@6BQObject@@@
       2562  A01 0078B9C8 ??_7QSpinBox@@6BQPaintDevice@@@
       2563  A02 0078BE68 ??_7QSplashScreen@@6BQObject@@@
       2564  A03 0078C008 ??_7QSplashScreen@@6BQPaintDevice@@@
       2565  A04 0078C478 ??_7QSplitter@@6BQObject@@@
       2566  A05 0078C618 ??_7QSplitter@@6BQPaintDevice@@@
       2567  A06 0078C658 ??_7QSplitterHandle@@6BQObject@@@
       2568  A07 0078C7F0 ??_7QSplitterHandle@@6BQPaintDevice@@@
       2569  A08 00721EB8 ??_7QStackedLayout@@6BQLayoutItem@@@
       2570  A09 00721E28 ??_7QStackedLayout@@6BQObject@@@
       2571  A0A 0078C908 ??_7QStackedWidget@@6BQObject@@@
       2572  A0B 0078CAA0 ??_7QStackedWidget@@6BQPaintDevice@@@
       2573  A0C 007C1CF8 ??_7QStandardItem@@6B@
       2574  A0D 007C1D48 ??_7QStandardItemModel@@6B@
       2575  A0E 007D66E8 ??_7QStatePrivate@@6B@
       2576  A0F 0078CED8 ??_7QStatusBar@@6BQObject@@@
       2577  A10 0078D070 ??_7QStatusBar@@6BQPaintDevice@@@
       2578  A11 0071D620 ??_7QStatusTipEvent@@6B@
       2579  A12 007C23E8 ??_7QStringListModel@@6B@
       2580  A13 0071B198 ??_7QStroker@@6B@
       2581  A14 0071B170 ??_7QStrokerOps@@6B@
       2582  A15 00763768 ??_7QStyle@@6B@
       2583  A16 007639D8 ??_7QStyleFactoryInterface@@6B@
       2584  A17 007646D8 ??_7QStylePlugin@@6BQObject@@@
       2585  A18 00764738 ??_7QStylePlugin@@6BQStyleFactoryInterface@@@
       2586  A19 0076B1F8 ??_7QStyleSheetStyle@@6B@
       2587  A1A 007C4578 ??_7QStyledItemDelegate@@6B@
       2588  A1B 00728558 ??_7QSwipeGesture@@6B@
       2589  A1C 0075D858 ??_7QSyntaxHighlighter@@6B@
       2590  A1D 007D3048 ??_7QSystemTrayIcon@@6B@
       2591  A1E 0078DC88 ??_7QTabBar@@6BQObject@@@
       2592  A1F 0078DE40 ??_7QTabBar@@6BQPaintDevice@@@
       2593  A20 0078E698 ??_7QTabWidget@@6BQObject@@@
       2594  A21 0078E840 ??_7QTabWidget@@6BQPaintDevice@@@
       2595  A22 007B2F58 ??_7QTableView@@6BQObject@@@
       2596  A23 007B3230 ??_7QTableView@@6BQPaintDevice@@@
       2597  A24 007BAC68 ??_7QTableWidget@@6BQObject@@@
       2598  A25 007BAF60 ??_7QTableWidget@@6BQPaintDevice@@@
       2599  A26 007BAC28 ??_7QTableWidgetItem@@6B@
       2600  A27 0071D478 ??_7QTabletEvent@@6B@
       2601  A28 00728618 ??_7QTapAndHoldGesture@@6B@
       2602  A29 007285B8 ??_7QTapGesture@@6B@
       2603  A2A 007498A8 ??_7QTessellator@@6B@
       2604  A2B 00757098 ??_7QTextBlockGroup@@6B@
       2605  A2C 007246D0 ??_7QTextBlockUserData@@6B@
       2606  A2D 00790768 ??_7QTextBrowser@@6BQObject@@@
       2607  A2E 00790958 ??_7QTextBrowser@@6BQPaintDevice@@@
       2608  A2F 00754F78 ??_7QTextControl@@6B@
       2609  A30 00757C48 ??_7QTextDocument@@6B@
       2610  A31 0075BF98 ??_7QTextDocumentLayout@@6B@
       2611  A32 00758BF8 ??_7QTextDocumentPrivate@@6B@
       2612  A33 0078F9B8 ??_7QTextEdit@@6BQObject@@@
       2613  A34 0078FB80 ??_7QTextEdit@@6BQPaintDevice@@@
       2614  A35 00757118 ??_7QTextFrame@@6B@
       2615  A36 007246C0 ??_7QTextFrameLayoutData@@6B@
       2616  A37 0075D078 ??_7QTextList@@6B@
       2617  A38 00757038 ??_7QTextObject@@6B@
       2618  A39 007246A0 ??_7QTextObjectInterface@@6B@
       2619  A3A 0075CF08 ??_7QTextTable@@6B@
       2620  A3B 0071B228 ??_7QTextureGlyphCache@@6B@
       2621  A3C 0077C018 ??_7QTimeEdit@@6BQObject@@@
       2622  A3D 0077C1E8 ??_7QTimeEdit@@6BQPaintDevice@@@
       2623  A3E 007912E8 ??_7QToolBar@@6BQObject@@@
       2624  A3F 00791480 ??_7QToolBar@@6BQPaintDevice@@@
       2625  A40 0071D660 ??_7QToolBarChangeEvent@@6B@
       2626  A41 00791A28 ??_7QToolBarExtension@@6BQObject@@@
       2627  A42 00791BD8 ??_7QToolBarExtension@@6BQPaintDevice@@@
       2628  A43 00792458 ??_7QToolBox@@6BQObject@@@
       2629  A44 00792600 ??_7QToolBox@@6BQPaintDevice@@@
       2630  A45 00792DA8 ??_7QToolButton@@6BQObject@@@
       2631  A46 00792F58 ??_7QToolButton@@6BQPaintDevice@@@
       2632  A47 0071D6A0 ??_7QTouchEvent@@6B@
       2633  A48 007B4CD8 ??_7QTreeView@@6BQObject@@@
       2634  A49 007B4FC0 ??_7QTreeView@@6BQPaintDevice@@@
       2635  A4A 007B5088 ??_7QTreeViewPrivate@@6B@
       2636  A4B 007BD088 ??_7QTreeWidget@@6BQObject@@@
       2637  A4C 007BD390 ??_7QTreeWidget@@6BQPaintDevice@@@
       2638  A4D 007BD048 ??_7QTreeWidgetItem@@6B@
       2639  A4E 007D5300 ??_7QUndoCommand@@6B@
       2640  A4F 007D4D38 ??_7QUndoGroup@@6B@
       2641  A50 007D5338 ??_7QUndoStack@@6B@
       2642  A51 007D5A68 ??_7QUndoView@@6BQObject@@@
       2643  A52 007D5D40 ??_7QUndoView@@6BQPaintDevice@@@
       2644  A53 007A4E28 ??_7QUrlModel@@6B@
       2645  A54 0071BE58 ??_7QVBoxLayout@@6BQLayoutItem@@@
       2646  A55 0071BDC8 ??_7QVBoxLayout@@6BQObject@@@
       2647  A56 00793228 ??_7QValidator@@6B@
       2648  A57 0071D630 ??_7QWhatsThisClickedEvent@@6B@
       2649  A58 0071D468 ??_7QWheelEvent@@6B@
       2650  A59 00726D88 ??_7QWidget@@6BQObject@@@
       2651  A5A 00726F20 ??_7QWidget@@6BQPaintDevice@@@
       2652  A5B 007278E8 ??_7QWidgetAction@@6B@
       2653  A5C 007211C8 ??_7QWidgetItem@@6B@
       2654  A5D 00721248 ??_7QWidgetItemV2@@6B@
       2655  A5E 00717018 ??_7QWidgetPrivate@@6B@
       2656  A5F 00794028 ??_7QWidgetResizeHandler@@6B@
       2657  A60 0071D690 ??_7QWindowStateChangeEvent@@6B@
       2658  A61 0071B0F8 ??_7QWindowSurface@@6B@
       2659  A62 0072BFA8 ??_7QWindowsMime@@6B@
       2660  A63 00772468 ??_7QWindowsStyle@@6B@
       2661  A64 0076C0D8 ??_7QWindowsVistaStyle@@6B@
       2662  A65 0076C9D8 ??_7QWindowsXPStyle@@6B@
       2663  A66 007A87E8 ??_7QWizard@@6BQObject@@@
       2664  A67 007A89B8 ??_7QWizard@@6BQPaintDevice@@@
       2665  A68 007A89F8 ??_7QWizardPage@@6BQObject@@@
       2666  A69 007A8BB8 ??_7QWizardPage@@6BQPaintDevice@@@
       2667  A6A 00795788 ??_7QWorkspace@@6BQObject@@@
       2668  A6B 00795920 ??_7QWorkspace@@6BQPaintDevice@@@
       2669  A6C 0071B2F8 ??_7StyleSelector@QCss@@6B@
       2670  A6D 00068950 ??_FQAbstractButton@@QEAAXXZ
       2671  A6E 0000C3A0 ??_FQAbstractGraphicsShapeItem@@QEAAXXZ
       2672  A6F 00334DE0 ??_FQAbstractItemDelegate@@QEAAXXZ
       2673  A70 00334DF0 ??_FQAbstractItemView@@QEAAXXZ
       2674  A71 004AE580 ??_FQAbstractProxyModel@@QEAAXXZ
       2675  A72 0000C3B0 ??_FQAbstractScrollArea@@QEAAXXZ
       2676  A73 0000C3C0 ??_FQAbstractSlider@@QEAAXXZ
       2677  A74 0000C3D0 ??_FQAbstractSpinBox@@QEAAXXZ
       2678  A75 00505F00 ??_FQAccessiblePlugin@@QEAAXXZ
       2679  A76 00670150 ??_FQBasicKeyEventTransition@@QEAAXXZ
       2680  A77 006707F0 ??_FQBasicMouseEventTransition@@QEAAXXZ
       2681  A78 003C6A40 ??_FQButtonGroup@@QEAAXXZ
       2682  A79 003088F0 ??_FQCDEStyle@@QEAAXXZ
       2683  A7A 003D4170 ??_FQCalendarWidget@@QEAAXXZ
       2684  A7B 00334E00 ??_FQCheckBox@@QEAAXXZ
       2685  A7C 004B92A0 ??_FQColorDialog@@QEAAXXZ
       2686  A7D 005C2E80 ??_FQColumnView@@QEAAXXZ
       2687  A7E 005C2E90 ??_FQColumnViewGrip@@QEAAXXZ
       2688  A7F 00334E10 ??_FQComboBox@@QEAAXXZ
       2689  A80 0035DB00 ??_FQCommandLinkButton@@QEAAXXZ
       2690  A81 003CC590 ??_FQCompleter@@QEAAXXZ
       2691  A82 005BF1E0 ??_FQDataWidgetMapper@@QEAAXXZ
       2692  A83 003CC5A0 ??_FQDateEdit@@QEAAXXZ
       2693  A84 003CC5B0 ??_FQDateTimeEdit@@QEAAXXZ
       2694  A85 003F39D0 ??_FQDial@@QEAAXXZ
       2695  A86 0001FD20 ??_FQDialog@@QEAAXXZ
       2696  A87 0030FE50 ??_FQDialogButtonBox@@QEAAXXZ
       2697  A88 0056DE60 ??_FQDirModel@@QEAAXXZ
       2698  A89 0030FE60 ??_FQDockWidget@@QEAAXXZ
       2699  A8A 003F8C30 ??_FQDockWidgetLayout@@QEAAXXZ
       2700  A8B 0035DB10 ??_FQDoubleSpinBox@@QEAAXXZ
       2701  A8C 0000C3E0 ??_FQDoubleValidator@@QEAAXXZ
       2702  A8D 004C1A80 ??_FQErrorMessage@@QEAAXXZ
       2703  A8E 004AE590 ??_FQFileDialog@@QEAAXXZ
       2704  A8F 004AE610 ??_FQFileInfoGatherer@@QEAAXXZ
       2705  A90 004AE6A0 ??_FQFileSystemModel@@QEAAXXZ
       2706  A91 0035BAE0 ??_FQFocusFrame@@QEAAXXZ
       2707  A92 0040D490 ??_FQFontComboBox@@QEAAXXZ
       2708  A93 004D3580 ??_FQFontDialog@@QEAAXXZ
       2709  A94 00041D90 ??_FQFormLayout@@QEAAXXZ
       2710  A95 0000C3F0 ??_FQFrame@@QEAAXXZ
       2711  A96 0000C410 ??_FQGesture@@QEAAXXZ
       2712  A97 00648EC0 ??_FQGraphicsAnchorLayout@@QEAAXXZ
       2713  A98 0000C420 ??_FQGraphicsBlurEffect@@QEAAXXZ
       2714  A99 0000C430 ??_FQGraphicsColorizeEffect@@QEAAXXZ
       2715  A9A 0000C440 ??_FQGraphicsDropShadowEffect@@QEAAXXZ
       2716  A9B 0000C450 ??_FQGraphicsEffect@@QEAAXXZ
       2717  A9C 0000C460 ??_FQGraphicsEllipseItem@@QEAAXXZ
       2718  A9D 005CD960 ??_FQGraphicsGridLayout@@QEAAXXZ
       2719  A9E 0000C470 ??_FQGraphicsItem@@QEAAXXZ
       2720  A9F 005F1E00 ??_FQGraphicsItemAnimation@@QEAAXXZ
       2721  AA0 0000C480 ??_FQGraphicsItemGroup@@QEAAXXZ
       2722  AA1 005CD9B0 ??_FQGraphicsLayout@@QEAAXXZ
       2723  AA2 0000C490 ??_FQGraphicsLayoutItem@@QEAAXXZ
       2724  AA3 0000C4A0 ??_FQGraphicsLineItem@@QEAAXXZ
       2725  AA4 005F6C20 ??_FQGraphicsLinearLayout@@QEAAXXZ
       2726  AA5 0000C4B0 ??_FQGraphicsObject@@QEAAXXZ
       2727  AA6 0000C4C0 ??_FQGraphicsOpacityEffect@@QEAAXXZ
       2728  AA7 0000C4D0 ??_FQGraphicsPathItem@@QEAAXXZ
       2729  AA8 0000C4E0 ??_FQGraphicsPixmapItem@@QEAAXXZ
       2730  AA9 0000C4F0 ??_FQGraphicsPolygonItem@@QEAAXXZ
       2731  AAA 0000C500 ??_FQGraphicsProxyWidget@@QEAAXXZ
       2732  AAB 0000C520 ??_FQGraphicsRectItem@@QEAAXXZ
       2733  AAC 0000C530 ??_FQGraphicsRotation@@QEAAXXZ
       2734  AAD 0000C540 ??_FQGraphicsScale@@QEAAXXZ
       2735  AAE 0000C550 ??_FQGraphicsScene@@QEAAXXZ
       2736  AAF 005D6B80 ??_FQGraphicsSceneBspTreeIndex@@QEAAXXZ
       2737  AB0 0000C560 ??_FQGraphicsSceneContextMenuEvent@@QEAAXXZ
       2738  AB1 0000C570 ??_FQGraphicsSceneDragDropEvent@@QEAAXXZ
       2739  AB2 0000C580 ??_FQGraphicsSceneHelpEvent@@QEAAXXZ
       2740  AB3 0000C590 ??_FQGraphicsSceneHoverEvent@@QEAAXXZ
       2741  AB4 005D6B90 ??_FQGraphicsSceneIndex@@QEAAXXZ
       2742  AB5 005FEC60 ??_FQGraphicsSceneLinearIndex@@QEAAXXZ
       2743  AB6 0000C5A0 ??_FQGraphicsSceneMouseEvent@@QEAAXXZ
       2744  AB7 0000C5B0 ??_FQGraphicsSceneWheelEvent@@QEAAXXZ
       2745  AB8 0000C5C0 ??_FQGraphicsSimpleTextItem@@QEAAXXZ
       2746  AB9 00236A00 ??_FQGraphicsSystemPlugin@@QEAAXXZ
       2747  ABA 0000C5D0 ??_FQGraphicsTextItem@@QEAAXXZ
       2748  ABB 0000C5E0 ??_FQGraphicsTransform@@QEAAXXZ
       2749  ABC 0000C5F0 ??_FQGraphicsView@@QEAAXXZ
       2750  ABD 0000C600 ??_FQGraphicsWidget@@QEAAXXZ
       2751  ABE 0030FE80 ??_FQGroupBox@@QEAAXXZ
       2752  ABF 0001FD40 ??_FQGuiPlatformPlugin@@QEAAXXZ
       2753  AC0 000BEE50 ??_FQIconEnginePlugin@@QEAAXXZ
       2754  AC1 000BEE60 ??_FQIconEnginePluginV2@@QEAAXXZ
       2755  AC2 0052D830 ??_FQIdentityProxyModel@@QEAAXXZ
       2756  AC3 0003A3A0 ??_FQImageIOPlugin@@QEAAXXZ
       2757  AC4 0001FD50 ??_FQInputContext@@QEAAXXZ
       2758  AC5 005C9A10 ??_FQInputContextPlugin@@QEAAXXZ
       2759  AC6 0035DB20 ??_FQInputDialog@@QEAAXXZ
       2760  AC7 0000C620 ??_FQIntValidator@@QEAAXXZ
       2761  AC8 003D4180 ??_FQItemDelegate@@QEAAXXZ
       2762  AC9 00670160 ??_FQKeyEventTransition@@QEAAXXZ
       2763  ACA 00415C50 ??_FQLCDNumber@@QEAAXXZ
       2764  ACB 00041DF0 ??_FQLabel@@QEAAXXZ
       2765  ACC 0068C4C0 ??_FQLayoutItem@@QEAAXXZ
       2766  ACD 003CC5C0 ??_FQLineControl@@QEAAXXZ
       2767  ACE 00265480 ??_FQLineEdit@@QEAAXXZ
       2768  ACF 0035BAF0 ??_FQListView@@QEAAXXZ
       2769  AD0 004AE6B0 ??_FQListWidget@@QEAAXXZ
       2770  AD1 004AE6C0 ??_FQListWidgetItem@@QEAAXXZ
       2771  AD2 00334E20 ??_FQMainWindow@@QEAAXXZ
       2772  AD3 00430510 ??_FQMdiArea@@QEAAXXZ
       2773  AD4 00334E40 ??_FQMdiSubWindow@@QEAAXXZ
       2774  AD5 0000C630 ??_FQMenu@@QEAAXXZ
       2775  AD6 0000C640 ??_FQMenuBar@@QEAAXXZ
       2776  AD7 0001FD60 ??_FQMessageBox@@QEAAXXZ
       2777  AD8 00308900 ??_FQMotifStyle@@QEAAXXZ
       2778  AD9 00670800 ??_FQMouseEventTransition@@QEAAXXZ
       2779  ADA 00101790 ??_FQMovie@@QEAAXXZ
       2780  ADB 001B7670 ??_FQPageSetupDialog@@QEAAXXZ
       2781  ADC 0001FD70 ??_FQPaintEngine@@QEAAXXZ
       2782  ADD 0000C650 ??_FQPanGesture@@QEAAXXZ
       2783  ADE 000EA6B0 ??_FQPicture@@QEAAXXZ
       2784  ADF 000EFC50 ??_FQPictureFormatPlugin@@QEAAXXZ
       2785  AE0 0000C660 ??_FQPinchGesture@@QEAAXXZ
       2786  AE1 0000C670 ??_FQPixmapBlurFilter@@QEAAXXZ
       2787  AE2 0000C680 ??_FQPixmapColorizeFilter@@QEAAXXZ
       2788  AE3 0000C690 ??_FQPixmapConvolutionFilter@@QEAAXXZ
       2789  AE4 0000C6A0 ??_FQPixmapDropShadowFilter@@QEAAXXZ
       2790  AE5 004A3570 ??_FQPlainTextEdit@@QEAAXXZ
       2791  AE6 001B7680 ??_FQPrintDialog@@QEAAXXZ
       2792  AE7 00503240 ??_FQPrintPreviewDialog@@QEAAXXZ
       2793  AE8 004AB6B0 ??_FQPrintPreviewWidget@@QEAAXXZ
       2794  AE9 0016D6E0 ??_FQPrinter@@QEAAXXZ
       2795  AEA 00334E60 ??_FQProgressBar@@QEAAXXZ
       2796  AEB 004DECD0 ??_FQProgressDialog@@QEAAXXZ
       2797  AEC 005994D0 ??_FQProxyModel@@QEAAXXZ
       2798  AED 0032BE20 ??_FQProxyStyle@@QEAAXXZ
       2799  AEE 0035BB00 ??_FQPushButton@@QEAAXXZ
       2800  AEF 00334E70 ??_FQRadioButton@@QEAAXXZ
       2801  AF0 0000C6B0 ??_FQRegExpValidator@@QEAAXXZ
       2802  AF1 0000C6C0 ??_FQScrollArea@@QEAAXXZ
       2803  AF2 00099850 ??_FQScrollBar@@QEAAXXZ
       2804  AF3 004AE6D0 ??_FQSidebar@@QEAAXXZ
       2805  AF4 0000C6D0 ??_FQSlider@@QEAAXXZ
       2806  AF5 005A3040 ??_FQSortFilterProxyModel@@QEAAXXZ
       2807  AF6 0035DB40 ??_FQSpinBox@@QEAAXXZ
       2808  AF7 00460350 ??_FQSplashScreen@@QEAAXXZ
       2809  AF8 0035BB10 ??_FQSplitter@@QEAAXXZ
       2810  AF9 00368F10 ??_FQStackedWidget@@QEAAXXZ
       2811  AFA 003DEC90 ??_FQStandardItemModel@@QEAAXXZ
       2812  AFB 00334E80 ??_FQStatusBar@@QEAAXXZ
       2813  AFC 0040D4A0 ??_FQStringListModel@@QEAAXXZ
       2814  AFD 0000C6E0 ??_FQStyleHintReturn@@QEAAXXZ
       2815  AFE 0000C6F0 ??_FQStyleOption@@QEAAXXZ
       2816  AFF 0000C700 ??_FQStyleOptionComplex@@QEAAXXZ
       2817  B00 00308910 ??_FQStylePlugin@@QEAAXXZ
       2818  B01 004AE6E0 ??_FQStyledItemDelegate@@QEAAXXZ
       2819  B02 0000C710 ??_FQSwipeGesture@@QEAAXXZ
       2820  B03 0065C210 ??_FQSystemTrayIcon@@QEAAXXZ
       2821  B04 0000C720 ??_FQTabBar@@QEAAXXZ
       2822  B05 0000C730 ??_FQTabWidget@@QEAAXXZ
       2823  B06 0035DB50 ??_FQTableView@@QEAAXXZ
       2824  B07 0057F7E0 ??_FQTableWidget@@QEAAXXZ
       2825  B08 0057F7F0 ??_FQTableWidgetItem@@QEAAXXZ
       2826  B09 0000C740 ??_FQTapAndHoldGesture@@QEAAXXZ
       2827  B0A 0000C750 ??_FQTapGesture@@QEAAXXZ
       2828  B0B 002CFCD0 ??_FQTextBrowser@@QEAAXXZ
       2829  B0C 00265490 ??_FQTextControl@@QEAAXXZ
       2830  B0D 0005E980 ??_FQTextDocument@@QEAAXXZ
       2831  B0E 002654A0 ??_FQTextEdit@@QEAAXXZ
       2832  B0F 003CC600 ??_FQTimeEdit@@QEAAXXZ
       2833  B10 00050090 ??_FQToolBar@@QEAAXXZ
       2834  B11 003783F0 ??_FQToolBox@@QEAAXXZ
       2835  B12 00068960 ??_FQToolButton@@QEAAXXZ
       2836  B13 0035DB60 ??_FQTreeView@@QEAAXXZ
       2837  B14 0058D410 ??_FQTreeWidget@@QEAAXXZ
       2838  B15 0058D420 ??_FQTreeWidgetItem@@QEAAXXZ
       2839  B16 00667D50 ??_FQUndoCommand@@QEAAXXZ
       2840  B17 00667D60 ??_FQUndoGroup@@QEAAXXZ
       2841  B18 00667DB0 ??_FQUndoStack@@QEAAXXZ
       2842  B19 0066BDA0 ??_FQUndoView@@QEAAXXZ
       2843  B1A 004AE6F0 ??_FQUrlModel@@QEAAXXZ
       2844  B1B 0000C760 ??_FQValidator@@QEAAXXZ
       2845  B1C 0068C4E0 ??_FQWidget@@QEAAXXZ
       2846  B1D 0000C770 ??_FQWidgetPrivate@@QEAAXXZ
       2847  B1E 0030FE90 ??_FQWizard@@QEAAXXZ
       2848  B1F 0030FEB0 ??_FQWizardPage@@QEAAXXZ
       2849  B20 00378410 ??_FQWorkspace@@QEAAXXZ
       2850  B21 0068C500 ??_FTouchPoint@QTouchEvent@@QEAAXXZ
       2851  B22 00AACDA8 ?CloseTouchInputHandle@QApplicationPrivate@@2P6AHPEAX@ZEA
       2852  B23 00AACDA0 ?GetTouchInputInfo@QApplicationPrivate@@2P6AHPEAXI0H@ZEA
       2853  B24 00AACD81 ?HasTouchSupport@QApplicationPrivate@@2_NA
       2854  B25 00AACD98 ?RegisterTouchWindow@QApplicationPrivate@@2P6AHPEAUHWND__@@K@ZEA
       2855  B26 004C4D50 ?_q_autoCompleteFileName@QFileDialogPrivate@@QEAAXAEBVQString@@@Z
       2856  B27 005C2F90 ?_q_changeCurrentColumn@QColumnViewPrivate@@QEAAXXZ
       2857  B28 005C33D0 ?_q_clicked@QColumnViewPrivate@@QEAAXAEBVQModelIndex@@@Z
       2858  B29 004201F0 ?_q_clipboardChanged@QLineControl@@AEAAXXZ
       2859  B2A 00513020 ?_q_columnsAboutToBeRemoved@QAbstractItemViewPrivate@@UEAAXAEBVQModelIndex@@HH@Z
       2860  B2B 0054FD20 ?_q_columnsAboutToBeRemoved@QTreeViewPrivate@@UEAAXAEBVQModelIndex@@HH@Z
       2861  B2C 005134B0 ?_q_columnsInserted@QAbstractItemViewPrivate@@UEAAXAEBVQModelIndex@@HH@Z
       2862  B2D 005C3510 ?_q_columnsInserted@QColumnViewPrivate@@UEAAXAEBVQModelIndex@@HH@Z
       2863  B2E 005134D0 ?_q_columnsRemoved@QAbstractItemViewPrivate@@UEAAXAEBVQModelIndex@@HH@Z
       2864  B2F 0054FD80 ?_q_columnsRemoved@QTreeViewPrivate@@UEAAXAEBVQModelIndex@@HH@Z
       2865  B30 004C50F0 ?_q_copyCurrent@QFileDialogPrivate@@QEAAXXZ
       2866  B31 004C51F0 ?_q_createDirectory@QFileDialogPrivate@@QEAAXXZ
       2867  B32 004C54F0 ?_q_currentChanged@QFileDialogPrivate@@QEAAXAEBVQModelIndex@@@Z
       2868  B33 003DEEC0 ?_q_dataChanged@QComboBoxPrivate@@QEAAXAEBVQModelIndex@@0@Z
       2869  B34 004C5580 ?_q_deleteCurrent@QFileDialogPrivate@@QEAAXXZ
       2870  B35 00420200 ?_q_deleteSelected@QLineControl@@AEAAXXZ
       2871  B36 004E8D70 ?_q_directoryChanged@QFileSystemModelPrivate@@QEAAXAEBVQString@@AEBVQStringList@@@Z
       2872  B37 003DF040 ?_q_editingFinished@QComboBoxPrivate@@QEAAXXZ
       2873  B38 003DF210 ?_q_emitCurrentIndexChanged@QComboBoxPrivate@@QEAAXAEBVQModelIndex@@@Z
       2874  B39 003DF2D0 ?_q_emitHighlighted@QComboBoxPrivate@@QEAAXAEBVQModelIndex@@@Z
       2875  B3A 005FEE20 ?_q_emitUpdated@QGraphicsScenePrivate@@QEAAXXZ
       2876  B3B 0054FDE0 ?_q_endAnimatedOperation@QTreeViewPrivate@@QEAAXXZ
       2877  B3C 004C5A80 ?_q_enterDirectory@QFileDialogPrivate@@QEAAXAEBVQModelIndex@@@Z
       2878  B3D 004C5C70 ?_q_fileRenamed@QFileDialogPrivate@@QEAAXAEBVQString@@V2@1@Z
       2879  B3E 004E90E0 ?_q_fileSystemChanged@QFileSystemModelPrivate@@QEAAXAEBVQString@@AEBV?$QList@U?$QPair@VQString@@VQFileInfo@@@@@@@Z
       2880  B3F 004C5D80 ?_q_goHome@QFileDialogPrivate@@QEAAXXZ
       2881  B40 004C5DC0 ?_q_goToDirectory@QFileDialogPrivate@@QEAAXAEBVQString@@@Z
       2882  B41 004C6140 ?_q_goToUrl@QFileDialogPrivate@@QEAAXAEBVQUrl@@@Z
       2883  B42 005C3540 ?_q_gripMoved@QColumnViewPrivate@@QEAAXH@Z
       2884  B43 00513510 ?_q_headerDataChanged@QAbstractItemViewPrivate@@QEAAXXZ
       2885  B44 00488250 ?_q_hslide@QAbstractScrollAreaPrivate@@QEAAXH@Z
       2886  B45 003DF380 ?_q_itemSelected@QComboBoxPrivate@@QEAAXAEBVQModelIndex@@@Z
       2887  B46 00513540 ?_q_layoutChanged@QAbstractItemViewPrivate@@UEAAXXZ
       2888  B47 0054FE30 ?_q_modelAboutToBeReset@QTreeViewPrivate@@QEAAXXZ
       2889  B48 00513570 ?_q_modelDestroyed@QAbstractItemViewPrivate@@UEAAXXZ
       2890  B49 003DF460 ?_q_modelDestroyed@QComboBoxPrivate@@QEAAXXZ
       2891  B4A 0054FE40 ?_q_modelDestroyed@QTreeViewPrivate@@UEAAXXZ
       2892  B4B 003DF480 ?_q_modelReset@QComboBoxPrivate@@QEAAXXZ
       2893  B4C 004C61C0 ?_q_navigateBackward@QFileDialogPrivate@@QEAAXXZ
       2894  B4D 004C6250 ?_q_navigateForward@QFileDialogPrivate@@QEAAXXZ
       2895  B4E 004C62F0 ?_q_navigateToParent@QFileDialogPrivate@@QEAAXXZ
       2896  B4F 004C6420 ?_q_pasteFromClipboard@QFileDialogPrivate@@QEAAXXZ
       2897  B50 004C67C0 ?_q_pathChanged@QFileDialogPrivate@@QEAAXAEBVQString@@@Z
       2898  B51 004E99A0 ?_q_performDelayedSort@QFileSystemModelPrivate@@QEAAXXZ
       2899  B52 005FF820 ?_q_polishItems@QGraphicsScenePrivate@@QEAAXXZ
       2900  B53 005FFB10 ?_q_processDirtyItems@QGraphicsScenePrivate@@QEAAXXZ
       2901  B54 004C6A60 ?_q_renameCurrent@QFileDialogPrivate@@QEAAXXZ
       2902  B55 003DF520 ?_q_resetButton@QComboBoxPrivate@@QEAAXXZ
       2903  B56 004E99C0 ?_q_resolvedName@QFileSystemModelPrivate@@QEAAXAEBVQString@@0@Z
       2904  B57 003DF530 ?_q_returnPressed@QComboBoxPrivate@@QEAAXXZ
       2905  B58 005135C0 ?_q_rowsInserted@QAbstractItemViewPrivate@@UEAAXAEBVQModelIndex@@HH@Z
       2906  B59 003DF8B0 ?_q_rowsInserted@QComboBoxPrivate@@QEAAXAEBVQModelIndex@@HH@Z
       2907  B5A 004C6B30 ?_q_rowsInserted@QFileDialogPrivate@@QEAAXAEBVQModelIndex@@@Z
       2908  B5B 005135D0 ?_q_rowsRemoved@QAbstractItemViewPrivate@@UEAAXAEBVQModelIndex@@HH@Z
       2909  B5C 003DF9C0 ?_q_rowsRemoved@QComboBoxPrivate@@QEAAXAEBVQModelIndex@@HH@Z
       2910  B5D 004C6C10 ?_q_selectionChanged@QFileDialogPrivate@@QEAAXXZ
       2911  B5E 00623EE0 ?_q_setViewportCursor@QGraphicsViewPrivate@@QEAAXAEBVQCursor@@@Z
       2912  B5F 004C6F90 ?_q_showContextMenu@QFileDialogPrivate@@QEAAXAEBVQPoint@@@Z
       2913  B60 004C7230 ?_q_showDetailsView@QFileDialogPrivate@@QEAAXXZ
       2914  B61 004C72D0 ?_q_showHeader@QFileDialogPrivate@@QEAAXPEAVQAction@@@Z
       2915  B62 004C73E0 ?_q_showHidden@QFileDialogPrivate@@QEAAXXZ
       2916  B63 0006D510 ?_q_showIfNotHidden@QWidgetPrivate@@QEAAXXZ
       2917  B64 004C7450 ?_q_showListView@QFileDialogPrivate@@QEAAXXZ
       2918  B65 00488280 ?_q_showOrHideScrollBars@QAbstractScrollAreaPrivate@@QEAAXXZ
       2919  B66 0054FE70 ?_q_sortIndicatorChanged@QTreeViewPrivate@@QEAAXHW4SortOrder@Qt@@@Z
       2920  B67 00623F50 ?_q_unsetViewportCursor@QGraphicsViewPrivate@@QEAAXXZ
       2921  B68 003DFB60 ?_q_updateIndexBeforeChange@QComboBoxPrivate@@QEAAXXZ
       2922  B69 004C74F0 ?_q_updateOkButton@QFileDialogPrivate@@QEAAXXZ
       2923  B6A 005FFD50 ?_q_updateScenePosDescendants@QGraphicsScenePrivate@@QEAAXXZ
       2924  B6B 004C7C80 ?_q_useNameFilter@QFileDialogPrivate@@QEAAXH@Z
       2925  B6C 004882C0 ?_q_vslide@QAbstractScrollAreaPrivate@@QEAAXH@Z
       2926  B6D 001B7730 ?abort@QPrinter@@QEAA_NXZ
       2927  B6E 004DA920 ?about@QMessageBox@@SAXPEAVQWidget@@AEBVQString@@1@Z
       2928  B6F 00020CF0 ?aboutQt@QApplication@@SAXXZ
       2929  B70 004DAA70 ?aboutQt@QMessageBox@@SAXPEAVQWidget@@AEBVQString@@@Z
       2930  B71 0043C680 ?aboutToActivate@QMdiSubWindow@@IEAAXXZ
       2931  B72 0067F5F0 ?aboutToDestroy@QPaintBufferSignalProxy@@IEAAXPEBVQPaintBufferPrivate@@@Z
       2932  B73 0000C990 ?aboutToDestroy@QWidgetPrivate@@UEAAXXZ
       2933  B74 004479B0 ?aboutToHide@QMenu@@IEAAXXZ
       2934  B75 002A0CE0 ?aboutToRemoveCell@QTextDocumentPrivate@@QEAAXHH@Z
       2935  B76 004479D0 ?aboutToShow@QMenu@@IEAAXXZ
       2936  B77 0054FE90 ?above@QTreeViewPrivate@@QEBAHH@Z
       2937  B78 00086BB0 ?acceleration@QPanGesture@@QEBANXZ
       2938  B79 004BF090 ?accept@QDialog@@UEAAXXZ
       2939  B7A 0068CEB0 ?accept@QDragMoveEvent@@QEAAXAEBVQRect@@@Z
       2940  B7B 000A9360 ?accept@QDragMoveEvent@@QEAAXXZ
       2941  B7C 004C8080 ?accept@QFileDialog@@MEAAXXZ
       2942  B7D 0003FD80 ?accept@QGestureEvent@@QEAAXPEAVQGesture@@@Z
       2943  B7E 0003FDC0 ?accept@QGestureEvent@@QEAAXW4GestureType@Qt@@@Z
       2944  B7F 005D79F0 ?acceptDrops@QGraphicsItem@@QEBA_NXZ
       2945  B80 0006D540 ?acceptDrops@QWidget@@QEBA_NXZ
       2946  B81 005D7A10 ?acceptHoverEvents@QGraphicsItem@@QEBA_NXZ
       2947  B82 004C8AA0 ?acceptMode@QFileDialog@@QEBA?AW4AcceptMode@1@XZ
       2948  B83 002659A0 ?acceptProposedAction@QDropEvent@@QEAAXXZ
       2949  B84 0061E770 ?acceptProposedAction@QGraphicsSceneDragDropEvent@@QEAAXXZ
       2950  B85 002659B0 ?acceptRichText@QTextControl@@QEBA_NXZ
       2951  B86 004744C0 ?acceptRichText@QTextEdit@@QEBA_NXZ
       2952  B87 005D7A30 ?acceptTouchEvents@QGraphicsItem@@QEBA_NXZ
       2953  B88 004BF0A0 ?accepted@QDialog@@IEAAXXZ
       2954  B89 003F4F40 ?accepted@QDialogButtonBox@@IEAAXXZ
       2955  B8A 00684000 ?accepted@QLineControl@@IEAAXXZ
       2956  B8B 004B4100 ?accepted@QPrintDialog@@IEAAXPEAVQPrinter@@@Z
       2957  B8C 005D7A50 ?acceptedMouseButtons@QGraphicsItem@@QEBA?AV?$QFlags@W4MouseButton@Qt@@@@XZ
       2958  B8D 005D7A90 ?acceptsHoverEvents@QGraphicsItem@@QEBA_NXZ
       2959  B8E 003DFB90 ?accessibleDescription@QStandardItem@@QEBA?AVQString@@XZ
       2960  B8F 0006D550 ?accessibleDescription@QWidget@@QEBA?AVQString@@XZ
       2961  B90 0006D580 ?accessibleName@QWidget@@QEBA?AVQString@@XZ
       2962  B91 0054FF60 ?accessibleTable2Index@QTreeViewPrivate@@QEBAHAEBVQModelIndex@@@Z
       2963  B92 003DFBF0 ?accessibleText@QStandardItem@@QEBA?AVQString@@XZ
       2964  B93 006491D0 ?acquireGraphicsAnchor@QGraphicsAnchorLayoutPrivate@@QEAAPEAVQGraphicsAnchor@@PEAUAnchorData@@@Z
       2965  B94 004479F0 ?action@QActionEvent@@QEBAPEAVQAction@@XZ
       2966  B95 00447A00 ?actionAt@QMenu@@QEBAPEAVQAction@@AEBVQPoint@@@Z
       2967  B96 00451AD0 ?actionAt@QMenuBar@@QEBAPEAVQAction@@AEBVQPoint@@@Z
       2968  B97 0047C1F0 ?actionAt@QToolBar@@QEBAPEAVQAction@@AEBVQPoint@@@Z
       2969  B98 000500D0 ?actionAt@QToolBar@@QEBAPEAVQAction@@HH@Z
       2970  B99 0067DBC0 ?actionChanged@QDrag@@IEAAXW4DropAction@Qt@@@Z
       2971  B9A 00447B00 ?actionEvent@QMenu@@MEAAXPEAVQActionEvent@@@Z
       2972  B9B 00451C10 ?actionEvent@QMenuBar@@MEAAXPEAVQActionEvent@@@Z
       2973  B9C 0047C240 ?actionEvent@QToolBar@@MEAAXPEAVQActionEvent@@@Z
       2974  B9D 00484C20 ?actionEvent@QToolButton@@MEAAXPEAVQActionEvent@@@Z
       2975  B9E 0006D5B0 ?actionEvent@QWidget@@MEAAXPEAVQActionEvent@@@Z
       2976  B9F 00447D60 ?actionGeometry@QMenu@@QEBA?AVQRect@@PEAVQAction@@@Z
       2977  BA0 00451CE0 ?actionGeometry@QMenuBar@@QEBA?AVQRect@@PEAVQAction@@@Z
       2978  BA1 0047C360 ?actionGeometry@QToolBar@@QEBA?AVQRect@@PEAVQAction@@@Z
       2979  BA2 0000C9A0 ?actionGroup@QAction@@QEBAPEAVQActionGroup@@XZ
       2980  BA3 00020D30 ?actionInterface@QAccessibleInterface@@QEAAPEAVQAccessibleActionInterface@@XZ
       2981  BA4 00508670 ?actionText@QAccessibleApplication@@UEBA?AVQString@@HW4Text@QAccessible@@H@Z
       2982  BA5 00508740 ?actionText@QAccessibleObject@@UEBA?AVQString@@HW4Text@QAccessible@@H@Z
       2983  BA6 005087B0 ?actionText@QAccessibleObjectEx@@UEBA?AVQString@@HW4Text@QAccessible@@H@Z
       2984  BA7 00509920 ?actionText@QAccessibleWidget@@UEBA?AVQString@@HW4Text@QAccessible@@H@Z
       2985  BA8 00509A80 ?actionText@QAccessibleWidgetEx@@UEBA?AVQString@@HW4Text@QAccessible@@H@Z
       2986  BA9 00669A40 ?actionText@QUndoCommand@@QEBA?AVQString@@XZ
       2987  BAA 006824E0 ?actionTriggered@QAbstractSlider@@IEAAXH@Z
       2988  BAB 0047C3E0 ?actionTriggered@QToolBar@@IEAAXPEAVQAction@@@Z
       2989  BAC 00017030 ?actions@QActionGroup@@QEBA?AV?$QList@PEAVQAction@@@@XZ
       2990  BAD 0062E700 ?actions@QGraphicsWidget@@QEBA?AV?$QList@PEAVQAction@@@@XZ
       2991  BAE 005CA5B0 ?actions@QInputContext@@UEAA?AV?$QList@PEAVQAction@@@@XZ
       2992  BAF 0006D5C0 ?actions@QWidget@@QEBA?AV?$QList@PEAVQAction@@@@XZ
       2993  BB0 0000C9B0 ?activate@QAction@@QEAAXW4ActionEvent@1@@Z
       2994  BB1 005F4700 ?activate@QGraphicsLayout@@QEAAXXZ
       2995  BB2 00050100 ?activate@QLayout@@QEAA_NXZ
       2996  BB3 00686890 ?activate@QWidgetResizeHandler@@IEAAXXZ
       2997  BB4 0006D610 ?activateChildLayoutsRecursively@QWidgetPrivate@@QEAAXXZ
       2998  BB5 00430DB0 ?activateNextSubWindow@QMdiArea@@QEAAXXZ
       2999  BB6 00490200 ?activateNextWindow@QWorkspace@@QEAAXXZ
       3000  BB7 00430E10 ?activatePreviousSubWindow@QMdiArea@@QEAAXXZ
       3001  BB8 00490360 ?activatePreviousWindow@QWorkspace@@QEAAXXZ
       3002  BB9 005F4BF0 ?activateRecursive@QGraphicsLayoutPrivate@@QEAAXPEAVQGraphicsLayoutItem@@@Z
       3003  BBA 00050470 ?activateRecursiveHelper@QLayout@@CAXPEAVQLayoutItem@@@Z
       3004  BBB 000B3180 ?activateWindow@QWidget@@QEAAXXZ
       3005  BBC 00513610 ?activated@QAbstractItemView@@IEAAXAEBVQModelIndex@@@Z
       3006  BBD 003D4970 ?activated@QCalendarWidget@@IEAAXAEBVQDate@@@Z
       3007  BBE 003DFC50 ?activated@QComboBox@@IEAAXAEBVQString@@@Z
       3008  BBF 003DFC80 ?activated@QComboBox@@IEAAXH@Z
       3009  BC0 0065F350 ?activated@QCompleter@@IEAAXAEBVQModelIndex@@@Z
       3010  BC1 0065F380 ?activated@QCompleter@@IEAAXAEBVQString@@@Z
       3011  BC2 0067E490 ?activated@QShortcut@@IEAAXXZ
       3012  BC3 00688B60 ?activated@QSystemTrayIcon@@IEAAXW4ActivationReason@1@@Z
       3013  BC4 0067E4B0 ?activatedAmbiguously@QShortcut@@IEAAXXZ
       3014  BC5 00430F50 ?activationOrder@QMdiArea@@QEBA?AW4WindowOrder@1@XZ
       3015  BC6 00448300 ?activeAction@QMenu@@QEBAPEAVQAction@@XZ
       3016  BC7 00451E50 ?activeAction@QMenuBar@@QEBAPEAVQAction@@XZ
       3017  BC8 0003FDF0 ?activeGestures@QGestureEvent@@QEBA?AV?$QList@PEAVQGesture@@@@XZ
       3018  BC9 00020D40 ?activeModalWidget@QApplication@@SAPEAVQWidget@@XZ
       3019  BCA 005FFE30 ?activePanel@QGraphicsScene@@QEBAPEAVQGraphicsItem@@XZ
       3020  BCB 00020DB0 ?activePopupWidget@QApplication@@SAPEAVQWidget@@XZ
       3021  BCC 00667E60 ?activeStack@QUndoGroup@@QEBAPEAVQUndoStack@@XZ
       3022  BCD 00689150 ?activeStackChanged@QUndoGroup@@IEAAXPEAVQUndoStack@@@Z
       3023  BCE 00430F60 ?activeSubWindow@QMdiArea@@QEBAPEAVQMdiSubWindow@@XZ
       3024  BCF 00020E20 ?activeWindow@QApplication@@SAPEAVQWidget@@XZ
       3025  BD0 005FFE40 ?activeWindow@QGraphicsScene@@QEBAPEAVQGraphicsWidget@@XZ
       3026  BD1 00490720 ?activeWindow@QWorkspace@@QEBAPEAVQWidget@@XZ
       3027  BD2 00AACA10 ?active_window@QApplicationPrivate@@2PEAVQWidget@@EA
       3028  BD3 001B7740 ?actualNumCopies@QPrinter@@QEBAHXZ
       3029  BD4 000BF160 ?actualSize@QIcon@@QEBA?AVQSize@@AEBV2@W4Mode@1@W4State@1@@Z
       3030  BD5 00100790 ?actualSize@QIconEngine@@UEAA?AVQSize@@AEBV2@W4Mode@QIcon@@W4State@4@@Z
       3031  BD6 002D62C0 ?add@QTextList@@QEAAXAEBVQTextBlock@@@Z
       3032  BD7 00017080 ?addAction@QActionGroup@@QEAAPEAVQAction@@AEBVQIcon@@AEBVQString@@@Z
       3033  BD8 000170E0 ?addAction@QActionGroup@@QEAAPEAVQAction@@AEBVQString@@@Z
       3034  BD9 00017130 ?addAction@QActionGroup@@QEAAPEAVQAction@@PEAV2@@Z
       3035  BDA 0062E750 ?addAction@QGraphicsWidget@@QEAAXPEAVQAction@@@Z
       3036  BDB 00448310 ?addAction@QMenu@@QEAAPEAVQAction@@AEBVQIcon@@AEBVQString@@@Z
       3037  BDC 00448380 ?addAction@QMenu@@QEAAPEAVQAction@@AEBVQIcon@@AEBVQString@@PEBVQObject@@PEBDAEBVQKeySequence@@@Z
       3038  BDD 00448430 ?addAction@QMenu@@QEAAPEAVQAction@@AEBVQString@@@Z
       3039  BDE 00448490 ?addAction@QMenu@@QEAAPEAVQAction@@AEBVQString@@PEBVQObject@@PEBDAEBVQKeySequence@@@Z
       3040  BDF 00451E60 ?addAction@QMenuBar@@QEAAPEAVQAction@@AEBVQString@@@Z
       3041  BE0 00451EC0 ?addAction@QMenuBar@@QEAAPEAVQAction@@AEBVQString@@PEBVQObject@@PEBD@Z
       3042  BE1 0047C420 ?addAction@QToolBar@@QEAAPEAVQAction@@AEBVQIcon@@AEBVQString@@@Z
       3043  BE2 0047C490 ?addAction@QToolBar@@QEAAPEAVQAction@@AEBVQIcon@@AEBVQString@@PEBVQObject@@PEBD@Z
       3044  BE3 0047C530 ?addAction@QToolBar@@QEAAPEAVQAction@@AEBVQString@@@Z
       3045  BE4 0047C590 ?addAction@QToolBar@@QEAAPEAVQAction@@AEBVQString@@PEBVQObject@@PEBD@Z
       3046  BE5 0006D710 ?addAction@QWidget@@QEAAXPEAVQAction@@@Z
       3047  BE6 0062E760 ?addActions@QGraphicsWidget@@QEAAXV?$QList@PEAVQAction@@@@@Z
       3048  BE7 0006D720 ?addActions@QWidget@@QEAAXV?$QList@PEAVQAction@@@@@Z
       3049  BE8 0065AFF0 ?addAnchor@QGraphicsAnchorLayout@@QEAAPEAVQGraphicsAnchor@@PEAVQGraphicsLayoutItem@@W4AnchorPoint@Qt@@01@Z
       3050  BE9 00649240 ?addAnchor@QGraphicsAnchorLayoutPrivate@@QEAAPEAVQGraphicsAnchor@@PEAVQGraphicsLayoutItem@@W4AnchorPoint@Qt@@01PEAN@Z
       3051  BEA 00649510 ?addAnchorMaybeParallel@QGraphicsAnchorLayoutPrivate@@QEAAPEAUAnchorData@@PEAU2@PEA_N@Z
       3052  BEB 00649930 ?addAnchor_helper@QGraphicsAnchorLayoutPrivate@@QEAAXPEAVQGraphicsLayoutItem@@W4AnchorPoint@Qt@@01PEAUAnchorData@@@Z
       3053  BEC 0065B040 ?addAnchors@QGraphicsAnchorLayout@@QEAAXPEAVQGraphicsLayoutItem@@0V?$QFlags@W4Orientation@Qt@@@@@Z
       3054  BED 00259DB0 ?addApplicationFont@QFontDatabase@@SAHAEBVQString@@@Z
       3055  BEE 00259EC0 ?addApplicationFontFromData@QFontDatabase@@SAHAEBVQByteArray@@@Z
       3056  BEF 00245CD0 ?addBitmapFontToPath@QFontEngine@@QEAAXNNAEBUQGlyphLayout@@PEAVQPainterPath@@V?$QFlags@W4RenderFlag@QTextItem@@@@@Z
       3057  BF0 003C6B50 ?addButton@QButtonGroup@@QEAAXPEAVQAbstractButton@@@Z
       3058  BF1 003C6B60 ?addButton@QButtonGroup@@QEAAXPEAVQAbstractButton@@H@Z
       3059  BF2 003F4F60 ?addButton@QDialogButtonBox@@QEAAPEAVQPushButton@@AEBVQString@@W4ButtonRole@1@@Z
       3060  BF3 003F5000 ?addButton@QDialogButtonBox@@QEAAPEAVQPushButton@@W4StandardButton@1@@Z
       3061  BF4 003F5010 ?addButton@QDialogButtonBox@@QEAAXPEAVQAbstractButton@@W4ButtonRole@1@@Z
       3062  BF5 004DADC0 ?addButton@QMessageBox@@QEAAPEAVQPushButton@@AEBVQString@@W4ButtonRole@1@@Z
       3063  BF6 004DAE50 ?addButton@QMessageBox@@QEAAPEAVQPushButton@@W4StandardButton@1@@Z
       3064  BF7 004DAE80 ?addButton@QMessageBox@@QEAAXPEAVQAbstractButton@@W4ButtonRole@1@@Z
       3065  BF8 0016ECE0 ?addCacheData@QVectorPath@@QEBAPEAUCacheEntry@1@PEAVQPaintEngineEx@@PEAXP6AX01@Z@Z
       3066  BF9 005D7AB0 ?addChild@QGraphicsItemPrivate@@QEAAXPEAVQGraphicsItem@@@Z
       3067  BFA 0058DFA0 ?addChild@QTreeWidgetItem@@QEAAXPEAV1@@Z
       3068  BFB 000504E0 ?addChildLayout@QLayout@@IEAAXPEAV1@@Z
       3069  BFC 005F47A0 ?addChildLayoutItem@QGraphicsLayout@@IEAAXPEAVQGraphicsLayoutItem@@@Z
       3070  BFD 005F4C80 ?addChildLayoutItem@QGraphicsLayoutPrivate@@QEAAXPEAVQGraphicsLayoutItem@@@Z
       3071  BFE 00050590 ?addChildWidget@QLayout@@IEAAXPEAVQWidget@@@Z
       3072  BFF 0058E000 ?addChildren@QTreeWidgetItem@@QEAAXAEBV?$QList@PEAVQTreeWidgetItem@@@@@Z
       3073  C00 00420260 ?addCommand@QLineControl@@AEAAXAEBUCommand@1@@Z
       3074  C01 00509AB0 ?addControllingSignal@QAccessibleWidget@@IEAAXAEBVQString@@@Z
       3075  C02 00509BC0 ?addControllingSignal@QAccessibleWidgetEx@@IEAAXAEBVQString@@@Z
       3076  C03 0065B150 ?addCornerAnchors@QGraphicsAnchorLayout@@QEAAXPEAVQGraphicsLayoutItem@@W4Corner@Qt@@01@Z
       3077  C04 000EA790 ?addCursor@QTextDocumentPrivate@@QEAAXPEAVQTextCursorPrivate@@@Z
       3078  C05 004C8AB0 ?addDefaultSuffixToFiles@QFileDialogPrivate@@QEBA?AVQStringList@@V2@@Z
       3079  C06 002EF310 ?addDirectory@QZipWriter@@QEAAXAEBVQString@@@Z
       3080  C07 0006D7A0 ?addDirtyWidget@QWidgetBackingStore@@AEAAXPEAVQWidget@@AEBVQRegion@@@Z
       3081  C08 003FEA20 ?addDockWidget@QDockAreaLayout@@QEAAXW4DockPosition@QInternal@@PEAVQDockWidget@@W4Orientation@Qt@@@Z
       3082  C09 00425BA0 ?addDockWidget@QMainWindow@@QEAAXW4DockWidgetArea@Qt@@PEAVQDockWidget@@@Z
       3083  C0A 00425C70 ?addDockWidget@QMainWindow@@QEAAXW4DockWidgetArea@Qt@@PEAVQDockWidget@@W4Orientation@3@@Z
       3084  C0B 00429150 ?addDockWidget@QMainWindowLayout@@QEAAXW4DockWidgetArea@Qt@@PEAVQDockWidget@@W4Orientation@3@@Z
       3085  C0C 00199400 ?addEdge@QWingedEdge@@QEAAHAEBVQPointF@@0@Z
       3086  C0D 001994A0 ?addEdge@QWingedEdge@@QEAAHHH@Z
       3087  C0E 00513640 ?addEditor@QAbstractItemViewPrivate@@QEAAXAEBVQModelIndex@@PEAVQWidget@@_N@Z
       3088  C0F 005FFE80 ?addEllipse@QGraphicsScene@@QEAAPEAVQGraphicsEllipseItem@@AEBVQRectF@@AEBVQPen@@AEBVQBrush@@@Z
       3089  C10 0000CAD0 ?addEllipse@QGraphicsScene@@QEAAPEAVQGraphicsEllipseItem@@NNNNAEBVQPen@@AEBVQBrush@@@Z
       3090  C11 0068CEF0 ?addEllipse@QPainterPath@@QEAAXAEBVQPointF@@NN@Z
       3091  C12 00188E40 ?addEllipse@QPainterPath@@QEAAXAEBVQRectF@@@Z
       3092  C13 001C53C0 ?addEllipse@QPainterPath@@QEAAXNNNN@Z
       3093  C14 004B7310 ?addEnabledOption@QAbstractPrintDialog@@QEAAXW4PrintDialogOption@1@@Z
       3094  C15 004F6530 ?addEnabledOption@QPageSetupDialog@@QEAAXW4PageSetupDialogOption@1@@Z
       3095  C16 000BF270 ?addFile@QIcon@@QEAAXAEBVQString@@AEBVQSize@@W4Mode@1@W4State@1@@Z
       3096  C17 001007A0 ?addFile@QIconEngine@@UEAAXAEBVQString@@AEBVQSize@@W4Mode@QIcon@@W4State@5@@Z
       3097  C18 002EF980 ?addFile@QZipWriter@@QEAAXAEBVQString@@AEBVQByteArray@@@Z
       3098  C19 002EF9D0 ?addFile@QZipWriter@@QEAAXAEBVQString@@PEAVQIODevice@@@Z
       3099  C1A 00245FA0 ?addGlyphsToPath@QFontEngine@@UEAAXPEAIPEAUQFixedPoint@@HPEAVQPainterPath@@V?$QFlags@W4RenderFlag@QTextItem@@@@@Z
       3100  C1B 0012F710 ?addIfClose@QBezier@@QEBAXPEANN@Z
       3101  C1C 00105ED0 ?addImageHook@QImagePixmapCleanupHooks@@QEAAXP6AX_J@Z@Z
       3102  C1D 00649A40 ?addInternalVertex@QGraphicsAnchorLayoutPrivate@@QEAAPEAUAnchorVertex@@PEAVQGraphicsLayoutItem@@W4AnchorPoint@Qt@@@Z
       3103  C1E 00033FC0 ?addItem@QBoxLayout@@UEAAXPEAVQLayoutItem@@@Z
       3104  C1F 003356E0 ?addItem@QComboBox@@QEAAXAEBVQIcon@@AEBVQString@@AEBVQVariant@@@Z
       3105  C20 00335730 ?addItem@QComboBox@@QEAAXAEBVQString@@AEBVQVariant@@@Z
       3106  C21 003F8DF0 ?addItem@QDockWidgetLayout@@UEAAXPEAVQLayoutItem@@@Z
       3107  C22 00041EB0 ?addItem@QFormLayout@@UEAAXPEAVQLayoutItem@@@Z
       3108  C23 005CDAA0 ?addItem@QGraphicsGridLayout@@QEAAXPEAVQGraphicsLayoutItem@@HHHHV?$QFlags@W4AlignmentFlag@Qt@@@@@Z
       3109  C24 005CDBF0 ?addItem@QGraphicsGridLayout@@QEAAXPEAVQGraphicsLayoutItem@@HHV?$QFlags@W4AlignmentFlag@Qt@@@@@Z
       3110  C25 005F6D00 ?addItem@QGraphicsLinearLayout@@QEAAXPEAVQGraphicsLayoutItem@@@Z
       3111  C26 005FFF10 ?addItem@QGraphicsScene@@QEAAXPEAVQGraphicsItem@@@Z
       3112  C27 0061B620 ?addItem@QGraphicsSceneBspTreeIndex@@MEAAXPEAVQGraphicsItem@@@Z
       3113  C28 00600A30 ?addItem@QGraphicsSceneLinearIndex@@MEAAXPEAVQGraphicsItem@@@Z
       3114  C29 00047D50 ?addItem@QGridLayout@@MEAAXPEAVQLayoutItem@@@Z
       3115  C2A 00047DF0 ?addItem@QGridLayout@@QEAAXPEAVQLayoutItem@@HHHHV?$QFlags@W4AlignmentFlag@Qt@@@@@Z
       3116  C2B 004AE8D0 ?addItem@QListWidget@@QEAAXAEBVQString@@@Z
       3117  C2C 004AE900 ?addItem@QListWidget@@QEAAXPEAVQListWidgetItem@@@Z
       3118  C2D 00429210 ?addItem@QMainWindowLayout@@UEAAXPEAVQLayoutItem@@@Z
       3119  C2E 0005D4F0 ?addItem@QStackedLayout@@UEAAXPEAVQLayoutItem@@@Z
       3120  C2F 003784D0 ?addItem@QToolBox@@QEAAHPEAVQWidget@@AEBVQIcon@@AEBVQString@@@Z
       3121  C30 003784F0 ?addItem@QToolBox@@QEAAHPEAVQWidget@@AEBVQString@@@Z
       3122  C31 003357A0 ?addItems@QComboBox@@QEAAXAEBVQStringList@@@Z
       3123  C32 004AE930 ?addItems@QListWidget@@QEAAXAEBVQStringList@@@Z
       3124  C33 00034030 ?addLayout@QBoxLayout@@QEAAXPEAVQLayout@@H@Z
       3125  C34 00047EC0 ?addLayout@QGridLayout@@QEAAXPEAVQLayout@@HHHHV?$QFlags@W4AlignmentFlag@Qt@@@@@Z
       3126  C35 00047F80 ?addLayout@QGridLayout@@QEAAXPEAVQLayout@@HHV?$QFlags@W4AlignmentFlag@Qt@@@@@Z
       3127  C36 00600A50 ?addLine@QGraphicsScene@@QEAAPEAVQGraphicsLineItem@@AEBVQLineF@@AEBVQPen@@@Z
       3128  C37 0000CB20 ?addLine@QGraphicsScene@@QEAAPEAVQGraphicsLineItem@@NNNNAEBVQPen@@@Z
       3129  C38 005BF4F0 ?addMapping@QDataWidgetMapper@@QEAAXPEAVQWidget@@H@Z
       3130  C39 005BF5F0 ?addMapping@QDataWidgetMapper@@QEAAXPEAVQWidget@@HAEBVQByteArray@@@Z
       3131  C3A 00448540 ?addMenu@QMenu@@QEAAPEAV1@AEBVQIcon@@AEBVQString@@@Z
       3132  C3B 004485D0 ?addMenu@QMenu@@QEAAPEAV1@AEBVQString@@@Z
       3133  C3C 00448640 ?addMenu@QMenu@@QEAAPEAVQAction@@PEAV1@@Z
       3134  C3D 00451F60 ?addMenu@QMenuBar@@QEAAPEAVQAction@@PEAVQMenu@@@Z
       3135  C3E 00451FA0 ?addMenu@QMenuBar@@QEAAPEAVQMenu@@AEBVQIcon@@AEBVQString@@@Z
       3136  C3F 00452020 ?addMenu@QMenuBar@@QEAAPEAVQMenu@@AEBVQString@@@Z
       3137  C40 004E99F0 ?addNode@QFileSystemModelPrivate@@QEAAPEAVQFileSystemNode@1@PEAV21@AEBVQString@@AEBVQFileInfo@@@Z
       3138  C41 00246130 ?addOutlineToPath@QFontEngine@@UEAAXNNAEBUQGlyphLayout@@PEAVQPainterPath@@V?$QFlags@W4RenderFlag@QTextItem@@@@@Z
       3139  C42 004F91C0 ?addPage@QWizard@@QEAAHPEAVQWizardPage@@@Z
       3140  C43 00600AD0 ?addPath@QGraphicsScene@@QEAAPEAVQGraphicsPathItem@@AEBVQPainterPath@@AEBVQPen@@AEBVQBrush@@@Z
       3141  C44 00189060 ?addPath@QPainterPath@@QEAAXAEBV1@@Z
       3142  C45 004665E0 ?addPermanentWidget@QStatusBar@@QEAAXPEAVQWidget@@H@Z
       3143  C46 00600B60 ?addPixmap@QGraphicsScene@@QEAAPEAVQGraphicsPixmapItem@@AEBVQPixmap@@@Z
       3144  C47 000BF7E0 ?addPixmap@QIcon@@QEAAXAEBVQPixmap@@W4Mode@1@W4State@1@@Z
       3145  C48 001007B0 ?addPixmap@QIconEngine@@UEAAXAEBVQPixmap@@W4Mode@QIcon@@W4State@4@@Z
       3146  C49 00105EF0 ?addPixmapDataDestructionHook@QImagePixmapCleanupHooks@@QEAAXP6AXPEAVQPixmapData@@@Z@Z
       3147  C4A 00105F10 ?addPixmapDataModificationHook@QImagePixmapCleanupHooks@@QEAAXP6AXPEAVQPixmapData@@@Z@Z
       3148  C4B 00600BC0 ?addPolygon@QGraphicsScene@@QEAAPEAVQGraphicsPolygonItem@@AEBVQPolygonF@@AEBVQPen@@AEBVQBrush@@@Z
       3149  C4C 001891C0 ?addPolygon@QPainterPath@@QEAAXAEBVQPolygonF@@@Z
       3150  C4D 00600C50 ?addPopup@QGraphicsScenePrivate@@QEAAXPEAVQGraphicsWidget@@@Z
       3151  C4E 00600D40 ?addRect@QGraphicsScene@@QEAAPEAVQGraphicsRectItem@@AEBVQRectF@@AEBVQPen@@AEBVQBrush@@@Z
       3152  C4F 0000CB60 ?addRect@QGraphicsScene@@QEAAPEAVQGraphicsRectItem@@NNNNAEBVQPen@@AEBVQBrush@@@Z
       3153  C50 00189300 ?addRect@QPainterPath@@QEAAXAEBVQRectF@@@Z
       3154  C51 00189580 ?addRect@QPainterPath@@QEAAXNNNN@Z
       3155  C52 001895C0 ?addRegion@QPainterPath@@QEAAXAEBVQRegion@@@Z
       3156  C53 00273430 ?addRequiredBoundaries@QTextEngine@@AEBAXXZ
       3157  C54 00296820 ?addResource@QTextDocument@@QEAAXHAEBVQUrl@@AEBVQVariant@@@Z
       3158  C55 0068CFB0 ?addRoundRect@QPainterPath@@QEAAXAEBVQRectF@@H@Z
       3159  C56 001896C0 ?addRoundRect@QPainterPath@@QEAAXAEBVQRectF@@HH@Z
       3160  C57 0068D070 ?addRoundRect@QPainterPath@@QEAAXNNNNH@Z
       3161  C58 0068D0B0 ?addRoundRect@QPainterPath@@QEAAXNNNNHH@Z
       3162  C59 001899A0 ?addRoundedRect@QPainterPath@@QEAAXAEBVQRectF@@NNW4SizeMode@Qt@@@Z
       3163  C5A 0068D100 ?addRoundedRect@QPainterPath@@QEAAXNNNNNNW4SizeMode@Qt@@@Z
       3164  C5B 00041FE0 ?addRow@QFormLayout@@QEAAXAEBVQString@@PEAVQLayout@@@Z
       3165  C5C 00041FF0 ?addRow@QFormLayout@@QEAAXAEBVQString@@PEAVQWidget@@@Z
       3166  C5D 00042000 ?addRow@QFormLayout@@QEAAXPEAVQLayout@@@Z
       3167  C5E 00042010 ?addRow@QFormLayout@@QEAAXPEAVQWidget@@0@Z
       3168  C5F 00042020 ?addRow@QFormLayout@@QEAAXPEAVQWidget@@@Z
       3169  C60 00042030 ?addRow@QFormLayout@@QEAAXPEAVQWidget@@PEAVQLayout@@@Z
       3170  C61 004882F0 ?addScrollBarWidget@QAbstractScrollArea@@QEAAXPEAVQWidget@@V?$QFlags@W4AlignmentFlag@Qt@@@@@Z
       3171  C62 00448670 ?addSeparator@QMenu@@QEAAPEAVQAction@@XZ
       3172  C63 00452090 ?addSeparator@QMenuBar@@QEAAPEAVQAction@@XZ
       3173  C64 0047C630 ?addSeparator@QToolBar@@QEAAPEAVQAction@@XZ
       3174  C65 00600DD0 ?addSimpleText@QGraphicsScene@@QEAAPEAVQGraphicsSimpleTextItem@@AEBVQString@@AEBVQFont@@@Z
       3175  C66 00034040 ?addSpacerItem@QBoxLayout@@QEAAXPEAVQSpacerItem@@@Z
       3176  C67 000340D0 ?addSpacing@QBoxLayout@@QEAAXH@Z
       3177  C68 005418A0 ?addSpan@QSpanCollection@@QEAAXPEAUSpan@1@@Z
       3178  C69 00667E70 ?addStack@QUndoGroup@@QEAAXPEAVQUndoStack@@@Z
       3179  C6A 0006D870 ?addStaticWidget@QWidgetBackingStore@@AEAAXPEAVQWidget@@@Z
       3180  C6B 000340E0 ?addStretch@QBoxLayout@@QEAAXH@Z
       3181  C6C 005F6D10 ?addStretch@QGraphicsLinearLayout@@QEAAXH@Z
       3182  C6D 000340F0 ?addStrut@QBoxLayout@@QEAAXH@Z
       3183  C6E 00430F70 ?addSubWindow@QMdiArea@@QEAAPEAVQMdiSubWindow@@PEAVQWidget@@V?$QFlags@W4WindowType@Qt@@@@@Z
       3184  C6F 002EFAB0 ?addSymLink@QZipWriter@@QEAAXAEBVQString@@0@Z
       3185  C70 00468F40 ?addTab@QTabBar@@QEAAHAEBVQIcon@@AEBVQString@@@Z
       3186  C71 00468F50 ?addTab@QTabBar@@QEAAHAEBVQString@@@Z
       3187  C72 00471180 ?addTab@QTabWidget@@QEAAHPEAVQWidget@@AEBVQIcon@@AEBVQString@@@Z
       3188  C73 004711A0 ?addTab@QTabWidget@@QEAAHPEAVQWidget@@AEBVQString@@@Z
       3189  C74 00600E50 ?addText@QGraphicsScene@@QEAAPEAVQGraphicsTextItem@@AEBVQString@@AEBVQFont@@@Z
       3190  C75 00189D60 ?addText@QPainterPath@@QEAAXAEBVQPointF@@AEBVQFont@@AEBVQString@@@Z
       3191  C76 0068D160 ?addText@QPainterPath@@QEAAXNNAEBVQFont@@AEBVQString@@@Z
       3192  C77 005D7B50 ?addToGroup@QGraphicsItemGroup@@QEAAXPEAVQGraphicsItem@@@Z
       3193  C78 005D7FD0 ?addToIndex@QGraphicsItem@@IEAAXXZ
       3194  C79 0012F9C0 ?addToPolygon@QBezier@@QEBAXPEAVQPolygonF@@N@Z
       3195  C7A 00425CB0 ?addToolBar@QMainWindow@@QEAAPEAVQToolBar@@AEBVQString@@@Z
       3196  C7B 00425D30 ?addToolBar@QMainWindow@@QEAAXPEAVQToolBar@@@Z
       3197  C7C 00425D40 ?addToolBar@QMainWindow@@QEAAXW4ToolBarArea@Qt@@PEAVQToolBar@@@Z
       3198  C7D 00429220 ?addToolBar@QMainWindowLayout@@QEAAXW4ToolBarArea@Qt@@PEAVQToolBar@@_N@Z
       3199  C7E 00425ED0 ?addToolBarBreak@QMainWindow@@QEAAXW4ToolBarArea@Qt@@@Z
       3200  C7F 00429320 ?addToolBarBreak@QMainWindowLayout@@QEAAXW4ToolBarArea@Qt@@@Z
       3201  C80 0058E040 ?addTopLevelItem@QTreeWidget@@QEAAXPEAVQTreeWidgetItem@@@Z
       3202  C81 0058E0C0 ?addTopLevelItems@QTreeWidget@@QEAAXAEBV?$QList@PEAVQTreeWidgetItem@@@@@Z
       3203  C82 004AE960 ?addUrls@QSidebar@@QEAAXAEBV?$QList@VQUrl@@@@H@Z
       3204  C83 004E0EE0 ?addUrls@QUrlModel@@QEAAXAEBV?$QList@VQUrl@@@@H_N@Z
       3205  C84 0018A340 ?addVertex@QWingedEdge@@QEAAHAEBVQPointF@@@Z
       3206  C85 00600EE0 ?addView@QGraphicsScenePrivate@@QEAAXPEAVQGraphicsView@@@Z
       3207  C86 004E9BD0 ?addVisibleFiles@QFileSystemModelPrivate@@QEAAXPEAVQFileSystemNode@1@AEBVQStringList@@@Z
       3208  C87 00034190 ?addWidget@QBoxLayout@@QEAAXPEAVQWidget@@HV?$QFlags@W4AlignmentFlag@Qt@@@@@Z
       3209  C88 00601230 ?addWidget@QGraphicsScene@@QEAAPEAVQGraphicsProxyWidget@@PEAVQWidget@@V?$QFlags@W4WindowType@Qt@@@@@Z
       3210  C89 0068D1A0 ?addWidget@QGridLayout@@QEAAXPEAVQWidget@@@Z
       3211  C8A 00048010 ?addWidget@QGridLayout@@QEAAXPEAVQWidget@@HHHHV?$QFlags@W4AlignmentFlag@Qt@@@@@Z
       3212  C8B 00048110 ?addWidget@QGridLayout@@QEAAXPEAVQWidget@@HHV?$QFlags@W4AlignmentFlag@Qt@@@@@Z
       3213  C8C 000507E0 ?addWidget@QLayout@@QEAAXPEAVQWidget@@@Z
       3214  C8D 00461670 ?addWidget@QSplitter@@QEAAXPEAVQWidget@@@Z
       3215  C8E 0005D570 ?addWidget@QStackedLayout@@QEAAHPEAVQWidget@@@Z
       3216  C8F 00465E80 ?addWidget@QStackedWidget@@QEAAHPEAVQWidget@@@Z
       3217  C90 00466630 ?addWidget@QStatusBar@@QEAAXPEAVQWidget@@H@Z
       3218  C91 0047C690 ?addWidget@QToolBar@@QEAAPEAVQAction@@PEAVQWidget@@@Z
       3219  C92 00490740 ?addWindow@QWorkspace@@QEAAPEAVQWidget@@PEAV2@V?$QFlags@W4WindowType@Qt@@@@@Z
       3220  C93 0027EF60 ?additionalFormats@QTextLayout@@QEBA?AV?$QList@UFormatRange@QTextLayout@@@@XZ
       3221  C94 001DBB90 ?adjoint@QTransform@@QEBA?AV1@XZ
       3222  C95 003DFCC0 ?adjustComboBoxSize@QComboBoxPrivate@@QEAAXXZ
       3223  C96 002A0DA0 ?adjustDocumentChangesAndCursors@QTextDocumentPrivate@@AEAAXHHW4Operation@QTextUndoCommand@@@Z
       3224  C97 0006D900 ?adjustFlags@QWidgetPrivate@@SAXAEAV?$QFlags@W4WindowType@Qt@@@@PEAVQWidget@@@Z
       3225  C98 004BF0C0 ?adjustPosition@QDialog@@IEAAXPEAVQWidget@@@Z
       3226  C99 0006D9D0 ?adjustQuitOnCloseAttribute@QWidgetPrivate@@QEAAXXZ
       3227  C9A 005D8000 ?adjustSize@QGraphicsTextItem@@QEAAXXZ
       3228  C9B 0062E7E0 ?adjustSize@QGraphicsWidget@@QEAAXXZ
       3229  C9C 00265DC0 ?adjustSize@QTextControl@@QEAAXXZ
       3230  C9D 002968C0 ?adjustSize@QTextDocument@@QEAAXXZ
       3231  C9E 0006DA20 ?adjustSize@QWidget@@QEAAXXZ
       3232  C9F 00513730 ?adjustViewOptionsForIndex@QAbstractItemViewPrivate@@UEBAXPEAVQStyleOptionViewItemV4@@AEBVQModelIndex@@@Z
       3233  CA0 0054FFF0 ?adjustViewOptionsForIndex@QTreeViewPrivate@@UEBAXPEAVQStyleOptionViewItemV4@@AEBVQModelIndex@@@Z
       3234  CA1 0006DA80 ?adjustedSize@QWidgetPrivate@@QEBA?AVQSize@@XZ
       3235  CA2 00050860 ?adoptLayout@QLayout@@IEAA_NPEAV1@@Z
       3236  CA3 005D8020 ?advance@QGraphicsItem@@UEAAXH@Z
       3237  CA4 006013A0 ?advance@QGraphicsScene@@QEAAXXZ
       3238  CA5 00420450 ?advanceToEnabledItem@QLineControl@@AEAA_NH@Z
       3239  CA6 002FBF90 ?advancesForGlyphIndexes@QRawFont@@QEBA?AV?$QVector@VQPointF@@@@AEBV?$QVector@I@@@Z
       3240  CA7 002FC100 ?advancesForGlyphIndexes@QRawFont@@QEBA_NPEBIPEAVQPointF@@H@Z
       3241  CA8 005F1F00 ?afterAnimationStep@QGraphicsItemAnimation@@MEAAXN@Z
       3242  CA9 00099B80 ?alert@QApplication@@SAXPEAVQWidget@@H@Z
       3243  CAA 002735A0 ?alignLine@QTextEngine@@QEAA?AUQFixed@@AEBUQScriptLine@@@Z
       3244  CAB 003074A0 ?alignedRect@QStyle@@SA?AVQRect@@W4LayoutDirection@Qt@@V?$QFlags@W4AlignmentFlag@Qt@@@@AEBVQSize@@AEBV2@@Z
       3245  CAC 003CCB80 ?alignment@QAbstractSpinBox@@QEBA?AV?$QFlags@W4AlignmentFlag@Qt@@@@XZ
       3246  CAD 005CDC80 ?alignment@QGraphicsGridLayout@@QEBA?AV?$QFlags@W4AlignmentFlag@Qt@@@@PEAVQGraphicsLayoutItem@@@Z
       3247  CAE 005F6D20 ?alignment@QGraphicsLinearLayout@@QEBA?AV?$QFlags@W4AlignmentFlag@Qt@@@@PEAVQGraphicsLayoutItem@@@Z
       3248  CAF 006241D0 ?alignment@QGraphicsView@@QEBA?AV?$QFlags@W4AlignmentFlag@Qt@@@@XZ
       3249  CB0 00410140 ?alignment@QGroupBox@@QEBA?AV?$QFlags@W4AlignmentFlag@Qt@@@@XZ
       3250  CB1 00412280 ?alignment@QLabel@@QEBA?AV?$QFlags@W4AlignmentFlag@Qt@@@@XZ
       3251  CB2 000341D0 ?alignment@QLayoutItem@@QEBA?AV?$QFlags@W4AlignmentFlag@Qt@@@@XZ
       3252  CB3 0041BEB0 ?alignment@QLineEdit@@QEBA?AV?$QFlags@W4AlignmentFlag@Qt@@@@XZ
       3253  CB4 00456790 ?alignment@QProgressBar@@QEBA?AV?$QFlags@W4AlignmentFlag@Qt@@@@XZ
       3254  CB5 0048CF70 ?alignment@QScrollArea@@QEBA?AV?$QFlags@W4AlignmentFlag@Qt@@@@XZ
       3255  CB6 00065610 ?alignment@QTextBlockFormat@@QEBA?AV?$QFlags@W4AlignmentFlag@Qt@@@@XZ
       3256  CB7 004744D0 ?alignment@QTextEdit@@QEBA?AV?$QFlags@W4AlignmentFlag@Qt@@@@XZ
       3257  CB8 001752C0 ?alignment@QTextOption@@QEBA?AV?$QFlags@W4AlignmentFlag@Qt@@@@XZ
       3258  CB9 00065660 ?alignment@QTextTableFormat@@QEBA?AV?$QFlags@W4AlignmentFlag@Qt@@@@XZ
       3259  CBA 000508B0 ?alignmentRect@QLayout@@IEBA?AVQRect@@AEBV2@@Z
       3260  CBB 002DBAA0 ?alignmentValue@Declaration@QCss@@QEBA?AV?$QFlags@W4AlignmentFlag@Qt@@@@XZ
       3261  CBC 005501D0 ?allColumnsShowFocus@QTreeView@@QEBA_NXZ
       3262  CBD 00296B10 ?allFormats@QTextDocument@@QEBA?AV?$QVector@VQTextFormat@@@@XZ
       3263  CBE 000AC860 ?allFormatsForMime@QWindowsMime@@CA?AV?$QVector@UtagFORMATETC@@@@PEBVQMimeData@@@Z
       3264  CBF 000D5E90 ?allGray@QImage@@QEBA_NXZ
       3265  CC0 000ACA40 ?allMimesForFormats@QWindowsMime@@CA?AVQStringList@@PEAUIDataObject@@@Z
       3266  CC1 000F84C0 ?allPixmaps@QPixmapCache@@SA?AV?$QList@U?$QPair@VQString@@VQPixmap@@@@@@XZ
       3267  CC2 003CCBB0 ?allSelected@QLineControl@@QEBA_NXZ
       3268  CC3 000210B0 ?allWidgets@QApplication@@SA?AV?$QList@PEAVQWidget@@@@XZ
       3269  CC4 00AACC58 ?allWidgets@QWidgetPrivate@@2PEAV?$QSet@PEAVQWidget@@@@EA
       3270  CC5 006241E0 ?allocStyleOptionsArray@QGraphicsViewPrivate@@QEAAPEAVQStyleOptionGraphicsItem@@H@Z
       3271  CC6 003F8E40 ?allowedAreas@QDockWidget@@QEBA?AV?$QFlags@W4DockWidgetArea@Qt@@@@XZ
       3272  CC7 0047C710 ?allowedAreas@QToolBar@@QEBA?AV?$QFlags@W4ToolBarArea@Qt@@@@XZ
       3273  CC8 003F8E50 ?allowedAreasChanged@QDockWidget@@IEAAXV?$QFlags@W4DockWidgetArea@Qt@@@@@Z
       3274  CC9 0047C720 ?allowedAreasChanged@QToolBar@@IEAAXV?$QFlags@W4ToolBarArea@Qt@@@@@Z
       3275  CCA 00099D60 ?allowsErrorInteraction@QSessionManager@@QEAA_NXZ
       3276  CCB 00099D70 ?allowsInteraction@QSessionManager@@QEAA_NXZ
       3277  CCC 0014CD40 ?alpha@QColor@@QEBAHXZ
       3278  CCD 000D6100 ?alphaChannel@QImage@@QEBA?AV1@XZ
       3279  CCE 000F5550 ?alphaChannel@QPixmap@@QEBA?AV1@XZ
       3280  CCF 000FB620 ?alphaChannel@QPixmapData@@UEBA?AVQPixmap@@XZ
       3281  CD0 00235530 ?alphaChannel@QRuntimePixmapData@@UEBA?AVQPixmap@@XZ
       3282  CD1 0014CD50 ?alphaF@QColor@@QEBANXZ
       3283  CD2 00104FF0 ?alphaFillRect@QBlittable@@UEAAXAEBVQRectF@@AEBVQColor@@W4CompositionMode@QPainter@@@Z
       3284  CD3 00169010 ?alphaMapBoundingBox@QFontEngine@@UEAA?AUglyph_metrics_t@@IUQFixed@@AEBVQTransform@@W4GlyphFormat@1@@Z
       3285  CD4 002468C0 ?alphaMapForGlyph@QFontEngine@@UEAA?AVQImage@@I@Z
       3286  CD5 00246C90 ?alphaMapForGlyph@QFontEngine@@UEAA?AVQImage@@IAEBVQTransform@@@Z
       3287  CD6 00246D40 ?alphaMapForGlyph@QFontEngine@@UEAA?AVQImage@@IUQFixed@@@Z
       3288  CD7 00246D70 ?alphaMapForGlyph@QFontEngine@@UEAA?AVQImage@@IUQFixed@@AEBVQTransform@@@Z
       3289  CD8 002FC2E0 ?alphaMapForGlyph@QRawFont@@QEBA?AVQImage@@IW4AntialiasingType@1@AEBVQTransform@@@Z
       3290  CD9 002470D0 ?alphaRGBMapForGlyph@QFontEngine@@UEAA?AVQImage@@IUQFixed@@HAEBVQTransform@@@Z
       3291  CDA 0023EBC0 ?alterCharForCapitalization@QFontPrivate@@QEBAXAEAVQChar@@@Z
       3292  CDB 00335B90 ?alternateBase@QPalette@@QEBAAEBVQBrush@@XZ
       3293  CDC 00513790 ?alternatingRowColors@QAbstractItemView@@QEBA_NXZ
       3294  CDD 0065B210 ?anchor@QGraphicsAnchorLayout@@QEAAPEAVQGraphicsAnchor@@PEAVQGraphicsLayoutItem@@W4AnchorPoint@Qt@@01@Z
       3295  CDE 002C3880 ?anchor@QTextCursor@@QEBAHXZ
       3296  CDF 002B1DE0 ?anchorAt@QAbstractTextDocumentLayout@@QEBA?AVQString@@AEBVQPointF@@@Z
       3297  CE0 004A3D70 ?anchorAt@QPlainTextEdit@@QEBA?AVQString@@AEBVQPoint@@@Z
       3298  CE1 00265E10 ?anchorAt@QTextControl@@QEBA?AVQString@@AEBVQPointF@@@Z
       3299  CE2 00474560 ?anchorAt@QTextEdit@@QEBA?AVQString@@AEBVQPoint@@@Z
       3300  CE3 00265E60 ?anchorAtCursor@QTextControl@@QEBA?AVQString@@XZ
       3301  CE4 00479110 ?anchorClicked@QTextBrowser@@IEAAXAEBVQUrl@@@Z
       3302  CE5 000656A0 ?anchorHref@QTextCharFormat@@QEBA?AVQString@@XZ
       3303  CE6 0028B6D0 ?anchorName@QTextCharFormat@@QEBA?AVQString@@XZ
       3304  CE7 0028B7E0 ?anchorNames@QTextCharFormat@@QEBA?AVQStringList@@XZ
       3305  CE8 00265FB0 ?anchorPosition@QTextControl@@QEBA?AVQPointF@@AEBVQString@@@Z
       3306  CE9 00149C70 ?angle@QConicalGradient@@QEBANXZ
       3307  CEA 00621DA0 ?angle@QGraphicsRotation@@QEBANXZ
       3308  CEB 0018A410 ?angleAtPercent@QPainterPath@@QEBANN@Z
       3309  CEC 00621DB0 ?angleChanged@QGraphicsRotation@@IEAAXXZ
       3310  CED 003C6D10 ?animateClick@QAbstractButton@@QEAAXH@Z
       3311  CEE 00AAC9DB ?animate_combo@QApplicationPrivate@@2_NA
       3312  CEF 00AAC9D9 ?animate_menu@QApplicationPrivate@@2_NA
       3313  CF0 00AACA22 ?animate_toolbox@QApplicationPrivate@@2_NA
       3314  CF1 00AAC9DA ?animate_tooltip@QApplicationPrivate@@2_NA
       3315  CF2 00A9F1D9 ?animate_ui@QApplicationPrivate@@2_NA
       3316  CF3 004293F0 ?animationFinished@QMainWindowLayout@@QEAAXPEAVQWidget@@@Z
       3317  CF4 000A93D0 ?answerRect@QDragMoveEvent@@QEBA?AVQRect@@XZ
       3318  CF5 00099D80 ?appName@QApplicationPrivate@@UEBA?AVQString@@XZ
       3319  CF6 00AAC994 ?app_cspec@QApplicationPrivate@@2HA
       3320  CF7 00AAC9E0 ?app_font@QApplicationPrivate@@0PEAVQFont@@EA
       3321  CF8 00AACA18 ?app_icon@QApplicationPrivate@@2PEAVQIcon@@EA
       3322  CF9 00AAC9B8 ?app_pal@QApplicationPrivate@@2PEAVQPalette@@EA
       3323  CFA 00AACA60 ?app_strut@QApplicationPrivate@@2VQSize@@A
       3324  CFB 00AAC9B0 ?app_style@QApplicationPrivate@@2PEAVQStyle@@EA
       3325  CFC 00335C90 ?append@?$QList@VQItemSelectionRange@@@@QEAAXAEBV1@@Z
       3326  CFD 00335CA0 ?append@?$QList@VQItemSelectionRange@@@@QEAAXAEBVQItemSelectionRange@@@Z
       3327  CFE 00266560 ?append@QTextControl@@QEAAXAEBVQString@@@Z
       3328  CFF 00474640 ?append@QTextEdit@@QEAAXAEBVQString@@@Z
       3329  D00 003DFE80 ?appendColumn@QStandardItem@@QEAAXAEBV?$QList@PEAVQStandardItem@@@@@Z
       3330  D01 005B3090 ?appendColumn@QStandardItemModel@@QEAAXAEBV?$QList@PEAVQStandardItem@@@@@Z
       3331  D02 002D14E0 ?appendColumns@QTextTable@@QEAAXH@Z
       3332  D03 0006DEB0 ?appendDirtyOnScreenWidget@QWidgetBackingStore@@AEAAXPEAVQWidget@@@Z
       3333  D04 005D8320 ?appendGraphicsTransform@QGraphicsItemPrivate@@QEAAXPEAVQGraphicsTransform@@@Z
       3334  D05 004A4330 ?appendHtml@QPlainTextEdit@@QEAAXAEBVQString@@@Z
       3335  D06 002666D0 ?appendHtml@QTextControl@@QEAAXAEBVQString@@@Z
       3336  D07 004A4340 ?appendPlainText@QPlainTextEdit@@QEAAXAEBVQString@@@Z
       3337  D08 002666E0 ?appendPlainText@QTextControl@@QEAAXAEBVQString@@@Z
       3338  D09 003DFEB0 ?appendRow@QStandardItem@@QEAAXAEBV?$QList@PEAVQStandardItem@@@@@Z
       3339  D0A 003DFEE0 ?appendRow@QStandardItem@@QEAAXPEAV1@@Z
       3340  D0B 005B30B0 ?appendRow@QStandardItemModel@@QEAAXAEBV?$QList@PEAVQStandardItem@@@@@Z
       3341  D0C 003DFF10 ?appendRow@QStandardItemModel@@QEAAXPEAVQStandardItem@@@Z
       3342  D0D 003DFF80 ?appendRows@QStandardItem@@QEAAXAEBV?$QList@PEAVQStandardItem@@@@@Z
       3343  D0E 002D1530 ?appendRows@QTextTable@@QEAAXH@Z
       3344  D0F 00097410 ?appendSoftkeys@QSoftKeyManager@@AEAA_NAEBVQWidget@@H@Z
       3345  D10 00296B60 ?appendUndoItem@QTextDocument@@QEAAXPEAVQAbstractUndoItem@@@Z
       3346  D11 002A1210 ?appendUndoItem@QTextDocumentPrivate@@AEAAXAEBVQTextUndoCommand@@@Z
       3347  D12 002A1390 ?appendUndoItem@QTextDocumentPrivate@@QEAAXPEAVQAbstractUndoItem@@@Z
       3348  D13 0025AA50 ?applicationFontFamilies@QFontDatabase@@SA?AVQStringList@@H@Z
       3349  D14 003FEDE0 ?apply@QDockAreaLayout@@QEAAX_N@Z
       3350  D15 003FEEA0 ?apply@QDockAreaLayoutInfo@@QEAAX_N@Z
       3351  D16 004297F0 ?applyState@QMainWindowLayout@@QEAAXAEAVQMainWindowLayoutState@@_N@Z
       3352  D17 00621DD0 ?applyTo@QGraphicsRotation@@UEBAXPEAVQMatrix4x4@@@Z
       3353  D18 00621EF0 ?applyTo@QGraphicsScale@@UEBAXPEAVQMatrix4x4@@@Z
       3354  D19 0018A870 ?arcMoveTo@QPainterPath@@QEAAXAEBVQRectF@@N@Z
       3355  D1A 0018A8E0 ?arcMoveTo@QPainterPath@@QEAAXNNNNN@Z
       3356  D1B 0018A960 ?arcTo@QPainterPath@@QEAAXAEBVQRectF@@NN@Z
       3357  D1C 001755C0 ?arcTo@QPainterPath@@QEAAXNNNNNN@Z
       3358  D1D 00490CA0 ?arrangeIcons@QWorkspace@@QEAAXXZ
       3359  D1E 00484CF0 ?arrowType@QToolButton@@QEBA?AW4ArrowType@Qt@@XZ
       3360  D1F 00255050 ?ascent@QFontMetrics@@QEBAHXZ
       3361  D20 00255080 ?ascent@QFontMetricsF@@QEBANXZ
       3362  D21 003CCC00 ?ascent@QLineControl@@QEBAHXZ
       3363  D22 002FC350 ?ascent@QRawFont@@QEBANXZ
       3364  D23 0027F7E0 ?ascent@QTextInlineObject@@QEBANXZ
       3365  D24 00169030 ?ascent@QTextItem@@QEBANXZ
       3366  D25 0027F850 ?ascent@QTextLine@@QEBANXZ
       3367  D26 0004D6A0 ?assign@QKeySequence@@AEAAHAEBVQString@@@Z
       3368  D27 0004D6B0 ?assign@QKeySequence@@AEAAHAEBVQString@@W4SequenceFormat@1@@Z
       3369  D28 0006DFA0 ?assignedInputContext@QWidgetPrivate@@QEBAPEAVQInputContext@@XZ
       3370  D29 0000CD70 ?associatedGraphicsWidgets@QAction@@QEBA?AV?$QList@PEAVQGraphicsWidget@@@@XZ
       3371  D2A 0000CDC0 ?associatedWidgets@QAction@@QEBA?AV?$QList@PEAVQWidget@@@@XZ
       3372  D2B 00335D30 ?at@?$QList@VQItemSelectionRange@@@@QEBAAEBVQItemSelectionRange@@H@Z
       3373  D2C 005779A0 ?at@QListModel@@QEBAPEAVQListWidgetItem@@H@Z
       3374  D2D 002C38A0 ?atBlockEnd@QTextCursor@@QEBA_NXZ
       3375  D2E 002C3930 ?atBlockStart@QTextCursor@@QEBA_NXZ
       3376  D2F 002C3990 ?atEnd@QTextCursor@@QEBA_NXZ
       3377  D30 00068B30 ?atEnd@iterator@QTextBlock@@QEBA_NXZ
       3378  D31 00068B40 ?atEnd@iterator@QTextFrame@@QEBA_NXZ
       3379  D32 00273960 ?atSpace@QTextEngine@@QEBA_NH@Z
       3380  D33 002C39D0 ?atStart@QTextCursor@@QEBA_NXZ
       3381  D34 00273AA0 ?atWordSeparator@QTextEngine@@QEBA_NH@Z
       3382  D35 002DC9C0 ?attachmentValue@Declaration@QCss@@QEBA?AW4Attachment@2@XZ
       3383  D36 00266750 ?attributes@QInputMethodEvent@@QEBAAEBV?$QList@VAttribute@QInputMethodEvent@@@@XZ
       3384  D37 00273B70 ?attributes@QTextEngine@@QEBAPEBUHB_CharAttributes@@XZ
       3385  D38 004DEE00 ?autoClose@QProgressDialog@@QEBA_NXZ
       3386  D39 003DFFB0 ?autoCompletion@QComboBox@@QEBA_NXZ
       3387  D3A 003DFFC0 ?autoCompletionCaseSensitivity@QComboBox@@QEBA?AW4CaseSensitivity@Qt@@XZ
       3388  D3B 00457DC0 ?autoDefault@QPushButton@@QEBA_NXZ
       3389  D3C 00021630 ?autoDestruct@QPaintEngine@@AEBA_NXZ
       3390  D3D 000E4540 ?autoDetectImageFormat@QImageReader@@QEBA_NXZ
       3391  D3E 003C6E40 ?autoExclusive@QAbstractButton@@QEBA_NXZ
       3392  D3F 00550500 ?autoExpandDelay@QTreeView@@QEBAHXZ
       3393  D40 0062E990 ?autoFillBackground@QGraphicsWidget@@QEBA_NXZ
       3394  D41 0006E010 ?autoFillBackground@QWidget@@QEBA_NXZ
       3395  D42 00474710 ?autoFormatting@QTextEdit@@QEBA?AV?$QFlags@W4AutoFormattingFlag@QTextEdit@@@@XZ
       3396  D43 00484D00 ?autoRaise@QToolButton@@QEBA_NXZ
       3397  D44 003C6E60 ?autoRepeat@QAbstractButton@@QEBA_NXZ
       3398  D45 0000CEA0 ?autoRepeat@QAction@@QEBA_NXZ
       3399  D46 00059200 ?autoRepeat@QShortcut@@QEBA_NXZ
       3400  D47 003C6E80 ?autoRepeatDelay@QAbstractButton@@QEBAHXZ
       3401  D48 003C6E90 ?autoRepeatInterval@QAbstractButton@@QEBAHXZ
       3402  D49 004DEE10 ?autoReset@QProgressDialog@@QEBA_NXZ
       3403  D4A 00513840 ?autoScrollMargin@QAbstractItemView@@QEBAHXZ
       3404  D4B 00021640 ?autoSipEnabled@QApplication@@QEBA_NXZ
       3405  D4C 00A9F1F4 ?autoSipEnabled@QApplicationPrivate@@2_NA
       3406  D4D 003ECDE0 ?availableGeometry@QDesktopWidget@@QEBA?BVQRect@@AEBVQPoint@@@Z
       3407  D4E 000A6ED0 ?availableGeometry@QDesktopWidget@@QEBA?BVQRect@@H@Z
       3408  D4F 00098910 ?availableGeometry@QDesktopWidget@@QEBA?BVQRect@@PEBVQWidget@@@Z
       3409  D50 000EAB10 ?availableGlyphs@QTextEngine@@QEBA?AUQGlyphLayout@@PEBUQScriptItem@@@Z
       3410  D51 00234240 ?availablePrinters@QPrinterInfo@@SA?AV?$QList@VQPrinterInfo@@@@XZ
       3411  D52 00296B70 ?availableRedoSteps@QTextDocument@@QEBAHXZ
       3412  D53 000EAB90 ?availableRedoSteps@QTextDocumentPrivate@@QEBAHXZ
       3413  D54 000BFC80 ?availableSizes@QIcon@@QEBA?AV?$QList@VQSize@@@@W4Mode@1@W4State@1@@Z
       3414  D55 001007C0 ?availableSizes@QIconEngineV2@@QEAA?AV?$QList@VQSize@@@@W4Mode@QIcon@@W4State@4@@Z
       3415  D56 00296BB0 ?availableUndoSteps@QTextDocument@@QEBAHXZ
       3416  D57 000EABD0 ?availableUndoSteps@QTextDocumentPrivate@@QEBAHXZ
       3417  D58 00247330 ?averageCharWidth@QFontEngine@@UEBA?AUQFixed@@XZ
       3418  D59 002550C0 ?averageCharWidth@QFontMetrics@@QEBAHXZ
       3419  D5A 002550F0 ?averageCharWidth@QFontMetricsF@@QEBANXZ
       3420  D5B 002FC390 ?averageCharWidth@QRawFont@@QEBANXZ
       3421  D5C 00621F90 ?axis@QGraphicsRotation@@QEBA?AVQVector3D@@XZ
       3422  D5D 00621FC0 ?axisChanged@QGraphicsRotation@@IEAAXXZ
       3423  D5E 00336150 ?back@?$QList@VQItemSelectionRange@@@@QEAAAEAVQItemSelectionRange@@XZ
       3424  D5F 00336190 ?back@?$QList@VQItemSelectionRange@@@@QEBAAEBVQItemSelectionRange@@XZ
       3425  D60 004F9590 ?back@QWizard@@QEAAXXZ
       3426  D61 004AE970 ?background@QListWidgetItem@@QEBA?AVQBrush@@XZ
       3427  D62 004316D0 ?background@QMdiArea@@QEBA?AVQBrush@@XZ
       3428  D63 00175A90 ?background@QPainter@@QEBAAEBVQBrush@@XZ
       3429  D64 00099E30 ?background@QPalette@@QEBAAEBVQBrush@@XZ
       3430  D65 003DFFD0 ?background@QStandardItem@@QEBA?AVQBrush@@XZ
       3431  D66 00580590 ?background@QTableWidgetItem@@QEBA?AVQBrush@@XZ
       3432  D67 000656D0 ?background@QTextFormat@@QEBA?AVQBrush@@XZ
       3433  D68 0058E380 ?background@QTreeWidgetItem@@QEBA?AVQBrush@@H@Z
       3434  D69 00490E30 ?background@QWorkspace@@QEBA?AVQBrush@@XZ
       3435  D6A 00601810 ?backgroundBrush@QGraphicsScene@@QEBA?AVQBrush@@XZ
       3436  D6B 006242D0 ?backgroundBrush@QGraphicsView@@QEBA?AVQBrush@@XZ
       3437  D6C 00175AD0 ?backgroundBrush@QPaintEngineState@@QEBA?AVQBrush@@XZ
       3438  D6D 00021650 ?backgroundColor@QAccessibleInterface@@QEAA?AVQColor@@XZ
       3439  D6E 000E4550 ?backgroundColor@QImageReader@@QEBA?AVQColor@@XZ
       3440  D6F 004AE9D0 ?backgroundColor@QListWidgetItem@@QEBA?AVQColor@@XZ
       3441  D70 00101B30 ?backgroundColor@QMovie@@QEBA?AVQColor@@XZ
       3442  D71 005805F0 ?backgroundColor@QTableWidgetItem@@QEBA?AVQColor@@XZ
       3443  D72 0058E3E0 ?backgroundColor@QTreeWidgetItem@@QEBA?AVQColor@@H@Z
       3444  D73 00175B00 ?backgroundMode@QPaintEngineState@@QEBA?AW4BGMode@Qt@@XZ
       3445  D74 00175B20 ?backgroundMode@QPainter@@QEBA?AW4BGMode@Qt@@XZ
       3446  D75 0006E030 ?backgroundRole@QWidget@@QEBA?AW4ColorRole@QPalette@@XZ
       3447  D76 004A4350 ?backgroundVisible@QPlainTextEdit@@QEBA_NXZ
       3448  D77 00420530 ?backspace@QLineControl@@QEAAXXZ
       3449  D78 0041BEF0 ?backspace@QLineEdit@@QEAAXXZ
       3450  D79 00479290 ?backward@QTextBrowser@@UEAAXXZ
       3451  D7A 00479410 ?backwardAvailable@QTextBrowser@@IEAAX_N@Z
       3452  D7B 00479450 ?backwardHistoryCount@QTextBrowser@@QEBAHXZ
       3453  D7C 0065C3A0 ?balloon@QBalloonTip@@EEAAXAEBVQPoint@@H_N@Z
       3454  D7D 00099E40 ?base@QPalette@@QEBAAEBVQBrush@@XZ
       3455  D7E 000EABF0 ?base@QScriptLine@@QEBA?AUQFixed@@XZ
       3456  D7F 0006E080 ?baseSize@QWidget@@QEBA?AVQSize@@XZ
       3457  D80 0032BF10 ?baseStyle@QProxyStyle@@QEBAPEAVQStyle@@XZ
       3458  D81 003361D0 ?baseStyle@QStyleSheetStyle@@QEBAPEAVQStyle@@XZ
       3459  D82 004AEA20 ?basename@QFileDialogPrivate@@QEBA?AVQString@@AEBV2@@Z
       3460  D83 002DCB10 ?basicSelectorMatches@StyleSelector@QCss@@AEAA_NAEBUBasicSelector@2@TNodePtr@12@@Z
       3461  D84 00530F50 ?batchSize@QListView@@QEBAHXZ
       3462  D85 00099E50 ?beep@QApplication@@SAXXZ
       3463  D86 004487B0 ?before@QActionEvent@@QEBAPEAVQAction@@XZ
       3464  D87 005F2160 ?beforeAnimationStep@QGraphicsItemAnimation@@MEAAXN@Z
       3465  D88 003362F0 ?begin@?$QList@VQItemSelectionRange@@@@QEAA?AViterator@1@XZ
       3466  D89 00336340 ?begin@?$QList@VQItemSelectionRange@@@@QEBA?AVconst_iterator@1@XZ
       3467  D8A 0022A2A0 ?begin@QBlitterPaintEngine@@UEAA_NPEAVQPaintDevice@@@Z
       3468  D8B 00021800 ?begin@QDashStroker@@UEAAXPEAX@Z
       3469  D8C 00175B60 ?begin@QPainter@@QEAA_NPEAVQPaintDevice@@@Z
       3470  D8D 001CDF50 ?begin@QStrokerOps@@UEAAXPEAX@Z
       3471  D8E 00291BB0 ?begin@QTextBlock@@QEBA?AViterator@1@XZ
       3472  D8F 00296C00 ?begin@QTextDocument@@QEBA?AVQTextBlock@@XZ
       3473  D90 000EAE20 ?begin@QTextDocumentPrivate@@QEBA?AVConstIterator@?$QFragmentMap@VQTextFragmentData@@@@XZ
       3474  D91 00291CD0 ?begin@QTextFrame@@QEBA?AViterator@1@XZ
       3475  D92 002D15E0 ?begin@QTextTableCell@@QEBA?AViterator@QTextFrame@@XZ
       3476  D93 005505B0 ?beginAnimatedOperation@QTreeViewPrivate@@QEAAXXZ
       3477  D94 00107490 ?beginDataAccess@QVolatileImage@@QEBAXXZ
       3478  D95 002C39F0 ?beginEditBlock@QTextCursor@@QEAAXXZ
       3479  D96 000EAE60 ?beginEditBlock@QTextDocumentPrivate@@QEAAXXZ
       3480  D97 0027F980 ?beginLayout@QTextLayout@@QEAAXXZ
       3481  D98 00669B60 ?beginMacro@QUndoStack@@QEAAXAEBVQString@@@Z
       3482  D99 00021840 ?beginNativePainting@QPaintEngineEx@@UEAAXXZ
       3483  D9A 00176260 ?beginNativePainting@QPainter@@QEAAXXZ
       3484  D9B 001E7520 ?beginNewFrame@QPaintBuffer@@QEAAXXZ
       3485  D9C 00237260 ?beginPaint@QRasterWindowSurface@@UEAAXAEBVQRegion@@@Z
       3486  D9D 00238110 ?beginPaint@QWidgetBackingStore@@AEAAXAEAVQRegion@@PEAVQWidget@@PEAVQWindowSurface@@PEAUBeginPaintInfo@@_N@Z
       3487  D9E 001E1B00 ?beginPaint@QWindowSurface@@UEAAXAEBVQRegion@@@Z
       3488  D9F 00273E90 ?beginningOfLine@QTextEngine@@AEAAHH@Z
       3489  DA0 005507A0 ?below@QTreeViewPrivate@@QEBAHH@Z
       3490  DA1 0012FBE0 ?bezierOnInterval@QBezier@@QEBA?AV1@NN@Z
       3491  DA2 00274A80 ?bidiReorder@QTextEngine@@SAXHPEBEPEAH@Z
       3492  DA3 000D6700 ?bitPlaneCount@QImage@@QEBAHXZ
       3493  DA4 00039130 ?bitmap@QCursor@@QEBAPEBVQBitmap@@XZ
       3494  DA5 000D67C0 ?bits@QImage@@QEAAPEAEXZ
       3495  DA6 000D67F0 ?bits@QImage@@QEBAPEBEXZ
       3496  DA7 001074A0 ?bits@QVolatileImage@@QEAAPEAEXZ
       3497  DA8 0014CD70 ?black@QColor@@QEBAHXZ
       3498  DA9 0014CDD0 ?blackF@QColor@@QEBANXZ
       3499  DAA 00105000 ?blittable@QBlittablePixmapData@@QEBAPEAVQBlittable@@XZ
       3500  DAB 002C3B00 ?block@QTextCursor@@QEBA?AVQTextBlock@@XZ
       3501  DAC 000EAE80 ?block@QTextDocumentPrivate@@SAPEBVQTextBlockData@@AEBVQTextBlock@@@Z
       3502  DAD 004A4360 ?blockBoundingGeometry@QPlainTextEdit@@IEBA?AVQRectF@@AEBVQTextBlock@@@Z
       3503  DAE 004A4390 ?blockBoundingRect@QPlainTextDocumentLayout@@UEBA?AVQRectF@@AEBVQTextBlock@@@Z
       3504  DAF 004A45A0 ?blockBoundingRect@QPlainTextEdit@@IEBA?AVQRectF@@AEBVQTextBlock@@@Z
       3505  DB0 002667B0 ?blockBoundingRect@QTextControl@@UEBA?AVQRectF@@AEBVQTextBlock@@@Z
       3506  DB1 002B40F0 ?blockBoundingRect@QTextDocumentLayout@@UEBA?AVQRectF@@AEBVQTextBlock@@@Z
       3507  DB2 002C3BA0 ?blockCharFormat@QTextCursor@@QEBA?AVQTextCharFormat@@XZ
       3508  DB3 002A1560 ?blockCharFormatIndex@QTextDocumentPrivate@@QEBAHH@Z
       3509  DB4 004A49E0 ?blockCount@QPlainTextEdit@@QEBAHXZ
       3510  DB5 00296C40 ?blockCount@QTextDocument@@QEBAHXZ
       3511  DB6 004A4A00 ?blockCountChanged@QPlainTextEdit@@IEAAXH@Z
       3512  DB7 00266800 ?blockCountChanged@QTextControl@@IEAAXH@Z
       3513  DB8 0067FE30 ?blockCountChanged@QTextDocument@@IEAAXH@Z
       3514  DB9 00291D60 ?blockFormat@QTextBlock@@QEBA?AVQTextBlockFormat@@XZ
       3515  DBA 002C3C10 ?blockFormat@QTextCursor@@QEBA?AVQTextBlockFormat@@XZ
       3516  DBB 000EAEA0 ?blockFormat@QTextFormatCollection@@QEBA?AVQTextBlockFormat@@H@Z
       3517  DBC 00291DE0 ?blockFormatChanged@QTextBlockGroup@@MEAAXAEBVQTextBlock@@@Z
       3518  DBD 00291DF0 ?blockFormatIndex@QTextBlock@@QEBAHXZ
       3519  DBE 00291E20 ?blockInserted@QTextBlockGroup@@MEAAXAEBVQTextBlock@@@Z
       3520  DBF 00291F20 ?blockList@QTextBlockGroup@@IEBA?AV?$QList@VQTextBlock@@@@XZ
       3521  DC0 000EAEF0 ?blockMap@QTextDocumentPrivate@@QEAAAEAV?$QFragmentMap@VQTextBlockData@@@@XZ
       3522  DC1 000EAF00 ?blockMap@QTextDocumentPrivate@@QEBAAEBV?$QFragmentMap@VQTextBlockData@@@@XZ
       3523  DC2 00291F70 ?blockNumber@QTextBlock@@QEBAHXZ
       3524  DC3 002C3CF0 ?blockNumber@QTextCursor@@QEBAHXZ
       3525  DC4 00291FD0 ?blockRemoved@QTextBlockGroup@@MEAAXAEBVQTextBlock@@@Z
       3526  DC5 004A4A40 ?blockWidth@QPlainTextDocumentLayout@@AEAANAEBVQTextBlock@@@Z
       3527  DC6 000EAF10 ?blocksBegin@QTextDocumentPrivate@@QEBA?AVQTextBlock@@XZ
       3528  DC7 000EAF40 ?blocksEnd@QTextDocumentPrivate@@QEBA?AVQTextBlock@@XZ
       3529  DC8 000EAF50 ?blocksFind@QTextDocumentPrivate@@QEBA?AVQTextBlock@@H@Z
       3530  DC9 00238140 ?bltRect@QWidgetBackingStore@@AEAA_NAEBVQRect@@HHPEAVQWidget@@@Z
       3531  DCA 0014CE40 ?blue@QColor@@QEBAHXZ
       3532  DCB 0014CEA0 ?blueF@QColor@@QEBANXZ
       3533  DCC 00678950 ?blurHints@QGraphicsBlurEffect@@QEBA?AV?$QFlags@W4BlurHint@QGraphicsBlurEffect@@@@XZ
       3534  DCD 000FDD20 ?blurHints@QPixmapBlurFilter@@QEBA?AV?$QFlags@W4BlurHint@QGraphicsBlurEffect@@@@XZ
       3535  DCE 0068A250 ?blurHintsChanged@QGraphicsBlurEffect@@IEAAXV?$QFlags@W4BlurHint@QGraphicsBlurEffect@@@@@Z
       3536  DCF 00678980 ?blurRadius@QGraphicsBlurEffect@@QEBANXZ
       3537  DD0 00678990 ?blurRadius@QGraphicsDropShadowEffect@@QEBANXZ
       3538  DD1 000FDD30 ?blurRadius@QPixmapDropShadowFilter@@QEBANXZ
       3539  DD2 0068A280 ?blurRadiusChanged@QGraphicsBlurEffect@@IEAAXN@Z
       3540  DD3 0068A2C0 ?blurRadiusChanged@QGraphicsDropShadowEffect@@IEAAXN@Z
       3541  DD4 0068D4A0 ?bold@QFont@@QEBA_NXZ
       3542  DD5 0025B0C0 ?bold@QFontDatabase@@QEBA_NAEBVQString@@0@Z
       3543  DD6 0068D4C0 ?bold@QFontInfo@@QEBA_NXZ
       3544  DD7 0028BC70 ?boolProperty@QTextFormat@@QEBA_NH@Z
       3545  DD8 00065700 ?border@QTextFrameFormat@@QEBANXZ
       3546  DD9 00065710 ?borderBrush@QTextFrameFormat@@QEBA?AVQBrush@@XZ
       3547  DDA 002DCDF0 ?borderImageValue@Declaration@QCss@@QEBAXPEAVQString@@PEAHPEAW4TileMode@2@2@Z
       3548  DDB 00065740 ?borderStyle@QTextFrameFormat@@QEBA?AW4BorderStyle@1@XZ
       3549  DDC 002DD220 ?borderValue@ValueExtractor@QCss@@AEAAXAEBUDeclaration@2@PEAHPEAW4BorderStyle@2@PEAVQBrush@@@Z
       3550  DDD 0000CF50 ?bottom@QDoubleValidator@@QEBANXZ
       3551  DDE 0000CF60 ?bottom@QIntValidator@@QEBAHXZ
       3552  DDF 003369E0 ?bottom@QItemSelectionRange@@QEBAHXZ
       3553  DE0 00065750 ?bottomMargin@QTextBlockFormat@@QEBANXZ
       3554  DE1 0028BCD0 ?bottomMargin@QTextFrameFormat@@QEBANXZ
       3555  DE2 00065760 ?bottomPadding@QTextTableCellFormat@@QEBANXZ
       3556  DE3 003369F0 ?bottomRight@QItemSelectionRange@@QEBA?AVQModelIndex@@XZ
       3557  DE4 00580710 ?bottomRow@QTableWidgetSelectionRange@@QEBAHXZ
       3558  DE5 00247490 ?boundingBox@QFontEngine@@UEAA?AUglyph_metrics_t@@IAEBVQTransform@@@Z
       3559  DE6 00274C40 ?boundingBox@QTextEngine@@QEBA?AUglyph_metrics_t@@HH@Z
       3560  DE7 00255130 ?boundingRect@QFontMetrics@@QEBA?AVQRect@@AEBV2@HAEBVQString@@HPEAH@Z
       3561  DE8 00255230 ?boundingRect@QFontMetrics@@QEBA?AVQRect@@AEBVQString@@@Z
       3562  DE9 00068B60 ?boundingRect@QFontMetrics@@QEBA?AVQRect@@HHHHHAEBVQString@@HPEAH@Z
       3563  DEA 00255350 ?boundingRect@QFontMetrics@@QEBA?AVQRect@@VQChar@@@Z
       3564  DEB 002554E0 ?boundingRect@QFontMetricsF@@QEBA?AVQRectF@@AEBV2@HAEBVQString@@HPEAH@Z
       3565  DEC 002555B0 ?boundingRect@QFontMetricsF@@QEBA?AVQRectF@@AEBVQString@@@Z
       3566  DED 002556E0 ?boundingRect@QFontMetricsF@@QEBA?AVQRectF@@VQChar@@@Z
       3567  DEE 006789A0 ?boundingRect@QGraphicsEffect@@QEBA?AVQRectF@@XZ
       3568  DEF 00678A10 ?boundingRect@QGraphicsEffectSource@@QEBA?AVQRectF@@W4CoordinateSystem@Qt@@@Z
       3569  DF0 005D8550 ?boundingRect@QGraphicsEllipseItem@@UEBA?AVQRectF@@XZ
       3570  DF1 005D87A0 ?boundingRect@QGraphicsItemGroup@@UEBA?AVQRectF@@XZ
       3571  DF2 005D87E0 ?boundingRect@QGraphicsLineItem@@UEBA?AVQRectF@@XZ
       3572  DF3 005D8990 ?boundingRect@QGraphicsPathItem@@UEBA?AVQRectF@@XZ
       3573  DF4 005D8AC0 ?boundingRect@QGraphicsPixmapItem@@UEBA?AVQRectF@@XZ
       3574  DF5 005D8BA0 ?boundingRect@QGraphicsPolygonItem@@UEBA?AVQRectF@@XZ
       3575  DF6 005D8CD0 ?boundingRect@QGraphicsRectItem@@UEBA?AVQRectF@@XZ
       3576  DF7 005D8DD0 ?boundingRect@QGraphicsSimpleTextItem@@UEBA?AVQRectF@@XZ
       3577  DF8 005D8E10 ?boundingRect@QGraphicsTextItem@@UEBA?AVQRectF@@XZ
       3578  DF9 0062E9B0 ?boundingRect@QGraphicsWidget@@UEBA?AVQRectF@@XZ
       3579  DFA 001E7550 ?boundingRect@QPaintBuffer@@QEBA?AVQRectF@@XZ
       3580  DFB 001762A0 ?boundingRect@QPainter@@QEAA?AVQRect@@AEBV2@HAEBVQString@@@Z
       3581  DFC 0068D4E0 ?boundingRect@QPainter@@QEAA?AVQRect@@HHHHHAEBVQString@@@Z
       3582  DFD 00176370 ?boundingRect@QPainter@@QEAA?AVQRectF@@AEBV2@AEBVQString@@AEBVQTextOption@@@Z
       3583  DFE 00176480 ?boundingRect@QPainter@@QEAA?AVQRectF@@AEBV2@HAEBVQString@@@Z
       3584  DFF 0018B2E0 ?boundingRect@QPainterPath@@QEBA?AVQRectF@@XZ
       3585  E00 000EFEE0 ?boundingRect@QPicture@@QEBA?AVQRect@@XZ
       3586  E01 001AB760 ?boundingRect@QPolygon@@QEBA?AVQRect@@XZ
       3587  E02 001AB8D0 ?boundingRect@QPolygonF@@QEBA?AVQRectF@@XZ
       3588  E03 001C5A60 ?boundingRect@QRegion@@QEBA?AVQRect@@XZ
       3589  E04 0027F9C0 ?boundingRect@QTextLayout@@QEBA?AVQRectF@@XZ
       3590  E05 00678A30 ?boundingRectFor@QGraphicsBlurEffect@@UEBA?AVQRectF@@AEBV2@@Z
       3591  E06 00678A60 ?boundingRectFor@QGraphicsDropShadowEffect@@UEBA?AVQRectF@@AEBV2@@Z
       3592  E07 00678A90 ?boundingRectFor@QGraphicsEffect@@UEBA?AVQRectF@@AEBV2@@Z
       3593  E08 000FDD40 ?boundingRectFor@QPixmapBlurFilter@@UEBA?AVQRectF@@AEBV2@@Z
       3594  E09 000FDDA0 ?boundingRectFor@QPixmapConvolutionFilter@@UEBA?AVQRectF@@AEBV2@@Z
       3595  E0A 000FDE20 ?boundingRectFor@QPixmapDropShadowFilter@@UEBA?AVQRectF@@AEBV2@@Z
       3596  E0B 000FDEC0 ?boundingRectFor@QPixmapFilter@@UEBA?AVQRectF@@AEBV2@@Z
       3597  E0C 005D8E40 ?boundingRegion@QGraphicsItem@@QEBA?AVQRegion@@AEBVQTransform@@@Z
       3598  E0D 005D94D0 ?boundingRegionGranularity@QGraphicsItem@@QEBANXZ
       3599  E0E 0012FD00 ?bounds@QBezier@@QEBA?AVQRectF@@XZ
       3600  E0F 00099E60 ?brightText@QPalette@@QEBAAEBVQBrush@@XZ
       3601  E10 005D9590 ?brush@QAbstractGraphicsShapeItem@@QEBA?AVQBrush@@XZ
       3602  E11 00176560 ?brush@QPaintEngineState@@QEBA?AVQBrush@@XZ
       3603  E12 00176590 ?brush@QPainter@@QEBAAEBVQBrush@@XZ
       3604  E13 00057970 ?brush@QPalette@@QEBAAEBVQBrush@@W4ColorGroup@1@W4ColorRole@1@@Z
       3605  E14 00068BF0 ?brush@QPalette@@QEBAAEBVQBrush@@W4ColorRole@1@@Z
       3606  E15 001A9DA0 ?brush@QPen@@QEBA?AVQBrush@@XZ
       3607  E16 0022A2B0 ?brushChanged@QBlitterPaintEngine@@UEAAXXZ
       3608  E17 001765D0 ?brushNeedsResolving@QPaintEngineState@@QEBA_NXZ
       3609  E18 00176610 ?brushOrigin@QPaintEngineState@@QEBA?AVQPointF@@XZ
       3610  E19 00176640 ?brushOrigin@QPainter@@QEBA?AVQPoint@@XZ
       3611  E1A 0028BD20 ?brushProperty@QTextFormat@@QEBA?AVQBrush@@H@Z
       3612  E1B 002DD5A0 ?brushValue@Declaration@QCss@@QEBA?AVQBrush@@AEBVQPalette@@@Z
       3613  E1C 002DD750 ?brushValues@Declaration@QCss@@QEBAXPEAVQBrush@@AEBVQPalette@@@Z
       3614  E1D 00601A50 ?bspTreeDepth@QGraphicsScene@@QEBAHXZ
       3615  E1E 0061B7E0 ?bspTreeDepth@QGraphicsSceneBspTreeIndex@@QEAAHXZ
       3616  E1F 0059A850 ?buddy@QAbstractProxyModel@@UEBA?AVQModelIndex@@AEBV2@@Z
       3617  E20 004122C0 ?buddy@QLabel@@QEBAPEAVQWidget@@XZ
       3618  E21 005A4C60 ?buddy@QSortFilterProxyModel@@UEBA?AVQModelIndex@@AEBV2@@Z
       3619  E22 00105080 ?buffer@QBlittablePixmapData@@UEAAPEAVQImage@@XZ
       3620  E23 000FB6A0 ?buffer@QPixmapData@@UEAAPEAVQImage@@XZ
       3621  E24 001037B0 ?buffer@QRasterPixmapData@@UEAAPEAVQImage@@XZ
       3622  E25 00235670 ?buffer@QRuntimePixmapData@@UEAAPEAVQImage@@XZ
       3623  E26 000EAF90 ?buffer@QTextDocumentPrivate@@QEBA?AVQString@@XZ
       3624  E27 001E1B10 ?buffer@QWindowSurface@@UEAAPEAVQImage@@PEBVQWidget@@@Z
       3625  E28 006713A0 ?button@QBasicMouseEventTransition@@QEBA?AW4MouseButton@Qt@@XZ
       3626  E29 003C6EB0 ?button@QButtonGroup@@QEBAPEAVQAbstractButton@@H@Z
       3627  E2A 003F5350 ?button@QDialogButtonBox@@QEBAPEAVQPushButton@@W4StandardButton@1@@Z
       3628  E2B 0061E780 ?button@QGraphicsSceneMouseEvent@@QEBA?AW4MouseButton@Qt@@XZ
       3629  E2C 004DB0C0 ?button@QMessageBox@@QEBAPEAVQAbstractButton@@W4StandardButton@1@@Z
       3630  E2D 00021850 ?button@QMouseEvent@@QEBA?AW4MouseButton@Qt@@XZ
       3631  E2E 006708B0 ?button@QMouseEventTransition@@QEBA?AW4MouseButton@Qt@@XZ
       3632  E2F 00099E70 ?button@QPalette@@QEBAAEBVQBrush@@XZ
       3633  E30 004F96D0 ?button@QWizard@@QEBAPEAVQAbstractButton@@W4WizardButton@1@@Z
       3634  E31 00681C70 ?buttonClicked@QButtonGroup@@IEAAXH@Z
       3635  E32 00681CB0 ?buttonClicked@QButtonGroup@@IEAAXPEAVQAbstractButton@@@Z
       3636  E33 004DB0D0 ?buttonClicked@QMessageBox@@IEAAXPEAVQAbstractButton@@@Z
       3637  E34 0061E790 ?buttonDownPos@QGraphicsSceneMouseEvent@@QEBA?AVQPointF@@W4MouseButton@Qt@@@Z
       3638  E35 0061E820 ?buttonDownScenePos@QGraphicsSceneMouseEvent@@QEBA?AVQPointF@@W4MouseButton@Qt@@@Z
       3639  E36 0061E8B0 ?buttonDownScreenPos@QGraphicsSceneMouseEvent@@QEBA?AVQPoint@@W4MouseButton@Qt@@@Z
       3640  E37 00681CF0 ?buttonPressed@QButtonGroup@@IEAAXH@Z
       3641  E38 00681D30 ?buttonPressed@QButtonGroup@@IEAAXPEAVQAbstractButton@@@Z
       3642  E39 00681D70 ?buttonReleased@QButtonGroup@@IEAAXH@Z
       3643  E3A 00681DB0 ?buttonReleased@QButtonGroup@@IEAAXPEAVQAbstractButton@@@Z
       3644  E3B 003F53B0 ?buttonRole@QDialogButtonBox@@QEBA?AW4ButtonRole@1@PEAVQAbstractButton@@@Z
       3645  E3C 004DB110 ?buttonRole@QMessageBox@@QEBA?AW4ButtonRole@1@PEAVQAbstractButton@@@Z
       3646  E3D 003CCDF0 ?buttonSymbols@QAbstractSpinBox@@QEBA?AW4ButtonSymbols@1@XZ
       3647  E3E 004DB120 ?buttonText@QMessageBox@@QEBA?AVQString@@H@Z
       3648  E3F 0030FFB0 ?buttonText@QPalette@@QEBAAEBVQBrush@@XZ
       3649  E40 004F9A70 ?buttonText@QWizard@@QEBA?AVQString@@W4WizardButton@1@@Z
       3650  E41 004F9B90 ?buttonText@QWizardPage@@QEBA?AVQString@@W4WizardButton@QWizard@@@Z
       3651  E42 003C6EE0 ?buttons@QButtonGroup@@QEBA?AV?$QList@PEAVQAbstractButton@@@@XZ
       3652  E43 003F5450 ?buttons@QDialogButtonBox@@QEBA?AV?$QList@PEAVQAbstractButton@@@@XZ
       3653  E44 0061E930 ?buttons@QGraphicsSceneDragDropEvent@@QEBA?AV?$QFlags@W4MouseButton@Qt@@@@XZ
       3654  E45 0061E940 ?buttons@QGraphicsSceneMouseEvent@@QEBA?AV?$QFlags@W4MouseButton@Qt@@@@XZ
       3655  E46 0061E950 ?buttons@QGraphicsSceneWheelEvent@@QEBA?AV?$QFlags@W4MouseButton@Qt@@@@XZ
       3656  E47 004DB1F0 ?buttons@QMessageBox@@QEBA?AV?$QList@PEAVQAbstractButton@@@@XZ
       3657  E48 00021860 ?buttons@QMouseEvent@@QEBA?AV?$QFlags@W4MouseButton@Qt@@@@XZ
       3658  E49 00021870 ?buttons@QWheelEvent@@QEBA?AV?$QFlags@W4MouseButton@Qt@@@@XZ
       3659  E4A 000D6800 ?byteCount@QImage@@QEBAHXZ
       3660  E4B 001074E0 ?byteCount@QVolatileImage@@QEBAHXZ
       3661  E4C 000D6810 ?bytesPerLine@QImage@@QEBAHXZ
       3662  E4D 001074F0 ?bytesPerLine@QVolatileImage@@QEBAHXZ
       3663  E4E 0027FC30 ?cacheEnabled@QTextLayout@@QEBA_NXZ
       3664  E4F 000C0170 ?cacheKey@QIcon@@QEBA_JXZ
       3665  E50 000D6830 ?cacheKey@QImage@@QEBA_JXZ
       3666  E51 000579D0 ?cacheKey@QPalette@@QEBA_JXZ
       3667  E52 000F5700 ?cacheKey@QPixmap@@QEBA_JXZ
       3668  E53 000218C0 ?cacheKey@QPixmapData@@QEBA_JXZ
       3669  E54 000F86E0 ?cacheLimit@QPixmapCache@@SAHXZ
       3670  E55 005D9600 ?cacheMode@QGraphicsItem@@QEBA?AW4CacheMode@1@XZ
       3671  E56 00624360 ?cacheMode@QGraphicsView@@QEBA?AV?$QFlags@W4CacheModeFlag@QGraphicsView@@@@XZ
       3672  E57 00101B60 ?cacheMode@QMovie@@QEAA?AW4CacheMode@1@XZ
       3673  E58 00101B70 ?cacheMode@QMovie@@QEBA?AW4CacheMode@1@XZ
       3674  E59 0023ECC0 ?cacheStatistics@QFont@@SAXXZ
       3675  E5A 0000CFB0 ?calcEffectiveOpacity@QGraphicsItemPrivate@@QEBANXZ
       3676  E5B 005508B0 ?calcLogicalIndices@QTreeViewPrivate@@QEBAXPEAV?$QVector@H@@PEAV?$QVector@W4ViewItemPosition@QStyleOptionViewItemV4@@@@HH@Z
       3677  E5C 0064A7A0 ?calculateGraphs@QGraphicsAnchorLayoutPrivate@@QEAAXW4Orientation@1@@Z
       3678  E5D 0064AC80 ?calculateGraphs@QGraphicsAnchorLayoutPrivate@@QEAAXXZ
       3679  E5E 0064ACC0 ?calculateNonTrunk@QGraphicsAnchorLayoutPrivate@@QEAA_NAEBV?$QList@PEAUQSimplexConstraint@@@@AEBV?$QList@PEAUAnchorData@@@@@Z
       3680  E5F 001D8EC0 ?calculateSubPixelPositionCount@QTextureGlyphCache@@IEBAHI@Z
       3681  E60 00275000 ?calculateTabWidth@QTextEngine@@QEBA?AUQFixed@@HU2@@Z
       3682  E61 0064B150 ?calculateTrunk@QGraphicsAnchorLayoutPrivate@@QEAA_NW4Orientation@1@AEBVGraphPath@@AEBV?$QList@PEAUQSimplexConstraint@@@@AEBV?$QList@PEAUAnchorData@@@@@Z
       3683  E62 0064B4A0 ?calculateVertexPositions@QGraphicsAnchorLayoutPrivate@@QEAAXW4Orientation@1@@Z
       3684  E63 003ECE60 ?calendarPopup@QDateTimeEdit@@QEBA_NXZ
       3685  E64 003ECEA0 ?calendarWidget@QDateTimeEdit@@QEBAPEAVQCalendarWidget@@XZ
       3686  E65 004C8F20 ?canBeNativeDialog@QFileDialogPrivate@@QEAA_NXZ
       3687  E66 00513960 ?canDecode@QAbstractItemViewPrivate@@QEBA_NPEAVQDropEvent@@@Z
       3688  E67 004E1540 ?canDrop@QUrlModel@@QEAA_NPEAVQDragEnterEvent@@@Z
       3689  E68 0059A8D0 ?canFetchMore@QAbstractProxyModel@@UEBA_NAEBVQModelIndex@@@Z
       3690  E69 004EA1A0 ?canFetchMore@QFileSystemModel@@UEBA_NAEBVQModelIndex@@@Z
       3691  E6A 005A4E60 ?canFetchMore@QSortFilterProxyModel@@UEBA_NAEBVQModelIndex@@@Z
       3692  E6B 004A4B50 ?canInsertFromMimeData@QPlainTextEdit@@MEBA_NPEBVQMimeData@@@Z
       3693  E6C 00266A60 ?canInsertFromMimeData@QTextControl@@UEBA_NPEBVQMimeData@@@Z
       3694  E6D 00474760 ?canInsertFromMimeData@QTextEdit@@MEBA_NPEBVQMimeData@@@Z
       3695  E6E 004A4BC0 ?canPaste@QPlainTextEdit@@QEBA_NXZ
       3696  E6F 00266BE0 ?canPaste@QTextControl@@QEBA_NXZ
       3697  E70 004747D0 ?canPaste@QTextEdit@@QEBA_NXZ
       3698  E71 000E4630 ?canRead@QImageReader@@QEBA_NXZ
       3699  E72 0003A4E0 ?canReadData@QInternalMimeData@@SA_NAEBVQString@@@Z
       3700  E73 00668020 ?canRedo@QUndoGroup@@QEBA_NXZ
       3701  E74 00669DB0 ?canRedo@QUndoStack@@QEBA_NXZ
       3702  E75 00689190 ?canRedoChanged@QUndoGroup@@IEAAX_N@Z
       3703  E76 006894A0 ?canRedoChanged@QUndoStack@@IEAAX_N@Z
       3704  E77 00668050 ?canUndo@QUndoGroup@@QEBA_NXZ
       3705  E78 00669DF0 ?canUndo@QUndoStack@@QEBA_NXZ
       3706  E79 006891D0 ?canUndoChanged@QUndoGroup@@IEAAX_N@Z
       3707  E7A 006894E0 ?canUndoChanged@QUndoStack@@IEAAX_N@Z
       3708  E7B 000E8050 ?canWrite@QImageWriter@@QEBA_NXZ
       3709  E7C 004DEE60 ?cancel@QProgressDialog@@QEAAXXZ
       3710  E7D 00099EC0 ?cancel@QSessionManager@@QEAAXXZ
       3711  E7E 004D6FD0 ?cancelButtonText@QInputDialog@@QEBA?AVQString@@XZ
       3712  E7F 00601AD0 ?cancelGesturesForChildren@QGraphicsScenePrivate@@QEAAXPEAVQGesture@@@Z
       3713  E80 003CCE40 ?cancelPasswordEchoTimer@QLineControl@@AEAAXXZ
       3714  E81 003CCE50 ?cancelText@QLineControl@@QEBA?AVQString@@XZ
       3715  E82 004DEE90 ?canceled@QProgressDialog@@IEAAXXZ
       3716  E83 0003FED0 ?canceledGestures@QGestureEvent@@QEBA?AV?$QList@PEAVQGesture@@@@XZ
       3717  E84 001CDF60 ?capForJoinMode@QStroker@@KA?AW4PenCapStyle@Qt@@W4LineJoinMode@1@@Z
       3718  E85 0018B350 ?capStyle@QPainterPathStroker@@QEBA?AW4PenCapStyle@Qt@@XZ
       3719  E86 001A9DD0 ?capStyle@QPen@@QEBA?AW4PenCapStyle@Qt@@XZ
       3720  E87 000218F0 ?capStyle@QStroker@@QEBA?AW4PenCapStyle@Qt@@XZ
       3721  E88 00021900 ?capStyleMode@QStroker@@QEBA?AW4LineJoinMode@1@XZ
       3722  E89 0022CD00 ?capabilities@QBlittable@@QEBA?AV?$QFlags@W4Capability@QBlittable@@@@XZ
       3723  E8A 0023ECD0 ?capitalization@QFont@@QEBA?AW4Capitalization@1@XZ
       3724  E8B 00491020 ?cascade@QWorkspace@@QEAAXXZ
       3725  E8C 00431810 ?cascadeSubWindows@QMdiArea@@QEAAXXZ
       3726  E8D 00522D50 ?cascadingSectionResizes@QHeaderView@@QEBA_NXZ
       3727  E8E 004AEB50 ?caseInsensitiveLessThan@QFileSystemModelPrivate@@SA_NAEBVQString@@0@Z
       3728  E8F 0065F6B0 ?caseSensitivity@QCompleter@@QEBA?AW4CaseSensitivity@Qt@@XZ
       3729  E90 00506010 ?cast_helper@QAccessibleInterface@@AEAAPEAVQAccessible2Interface@@W4InterfaceType@QAccessible2@@@Z
       3730  E91 00580760 ?cellActivated@QTableWidget@@IEAAXHH@Z
       3731  E92 002D16B0 ?cellAt@QTextTable@@QEBA?AVQTextTableCell@@AEBVQTextCursor@@@Z
       3732  E93 002D16F0 ?cellAt@QTextTable@@QEBA?AVQTextTableCell@@H@Z
       3733  E94 002D1850 ?cellAt@QTextTable@@QEBA?AVQTextTableCell@@HH@Z
       3734  E95 005807B0 ?cellChanged@QTableWidget@@IEAAXHH@Z
       3735  E96 00580800 ?cellClicked@QTableWidget@@IEAAXHH@Z
       3736  E97 00580850 ?cellDoubleClicked@QTableWidget@@IEAAXHH@Z
       3737  E98 005808A0 ?cellEntered@QTableWidget@@IEAAXHH@Z
       3738  E99 00065770 ?cellPadding@QTextTableFormat@@QEBANXZ
       3739  E9A 005808F0 ?cellPressed@QTableWidget@@IEAAXHH@Z
       3740  E9B 000483B0 ?cellRect@QGridLayout@@QEBA?AVQRect@@HH@Z
       3741  E9C 00065780 ?cellSpacing@QTextTableFormat@@QEBANXZ
       3742  E9D 00580940 ?cellWidget@QTableWidget@@QEBAPEAVQWidget@@HH@Z
       3743  E9E 00149E10 ?center@QConicalGradient@@QEBA?AVQPointF@@XZ
       3744  E9F 00149E40 ?center@QRadialGradient@@QEBA?AVQPointF@@XZ
       3745  EA0 003F5550 ?centerButtons@QDialogButtonBox@@QEBA_NXZ
       3746  EA1 004A4BD0 ?centerCursor@QPlainTextEdit@@QEAAXXZ
       3747  EA2 00624380 ?centerOn@QGraphicsView@@QEAAXAEBVQPointF@@@Z
       3748  EA3 0000D000 ?centerOn@QGraphicsView@@QEAAXNN@Z
       3749  EA4 00624520 ?centerOn@QGraphicsView@@QEAAXPEBVQGraphicsItem@@@Z
       3750  EA5 004A4C20 ?centerOnScroll@QPlainTextEdit@@QEBA_NXZ
       3751  EA6 00086BC0 ?centerPoint@QPinchGesture@@QEBA?AVQPointF@@XZ
       3752  EA7 00149E70 ?centerRadius@QRadialGradient@@QEBANXZ
       3753  EA8 00624560 ?centerView@QGraphicsViewPrivate@@QEAAXW4ViewportAnchor@QGraphicsView@@@Z
       3754  EA9 00426280 ?centralWidget@QMainWindow@@QEBAPEAVQWidget@@XZ
       3755  EAA 00429BF0 ?centralWidget@QMainWindowLayout@@QEBAPEAVQWidget@@XZ
       3756  EAB 003C6F70 ?changeEvent@QAbstractButton@@MEAAXPEAVQEvent@@@Z
       3757  EAC 003C9DF0 ?changeEvent@QAbstractSlider@@MEAAXPEAVQEvent@@@Z
       3758  EAD 003CCE80 ?changeEvent@QAbstractSpinBox@@MEAAXPEAVQEvent@@@Z
       3759  EAE 004B9960 ?changeEvent@QColorDialog@@MEAAXPEAVQEvent@@@Z
       3760  EAF 003E00C0 ?changeEvent@QComboBox@@MEAAXPEAVQEvent@@@Z
       3761  EB0 003E01E0 ?changeEvent@QComboBoxPrivateContainer@@MEAAXPEAVQEvent@@@Z
       3762  EB1 003F5560 ?changeEvent@QDialogButtonBox@@MEAAXPEAVQEvent@@@Z
       3763  EB2 003F8F50 ?changeEvent@QDockWidget@@MEAAXPEAVQEvent@@@Z
       3764  EB3 004C1CE0 ?changeEvent@QErrorMessage@@MEAAXPEAVQEvent@@@Z
       3765  EB4 004C8FE0 ?changeEvent@QFileDialog@@MEAAXPEAVQEvent@@@Z
       3766  EB5 004D3C40 ?changeEvent@QFontDialog@@MEAAXPEAVQEvent@@@Z
       3767  EB6 0040F140 ?changeEvent@QFrame@@MEAAXPEAVQEvent@@@Z
       3768  EB7 0062EA10 ?changeEvent@QGraphicsWidget@@MEAAXPEAVQEvent@@@Z
       3769  EB8 00410320 ?changeEvent@QGroupBox@@MEAAXPEAVQEvent@@@Z
       3770  EB9 00412310 ?changeEvent@QLabel@@MEAAXPEAVQEvent@@@Z
       3771  EBA 0041BF40 ?changeEvent@QLineEdit@@MEAAXPEAVQEvent@@@Z
       3772  EBB 0043C8D0 ?changeEvent@QMdiSubWindow@@MEAAXPEAVQEvent@@@Z
       3773  EBC 00448980 ?changeEvent@QMenu@@MEAAXPEAVQEvent@@@Z
       3774  EBD 00452720 ?changeEvent@QMenuBar@@MEAAXPEAVQEvent@@@Z
       3775  EBE 004DB260 ?changeEvent@QMessageBox@@MEAAXPEAVQEvent@@@Z
       3776  EBF 004A4C40 ?changeEvent@QPlainTextEdit@@MEAAXPEAVQEvent@@@Z
       3777  EC0 004DEEB0 ?changeEvent@QProgressDialog@@MEAAXPEAVQEvent@@@Z
       3778  EC1 00459980 ?changeEvent@QRubberBand@@MEAAXPEAVQEvent@@@Z
       3779  EC2 00461840 ?changeEvent@QSplitter@@MEAAXPEAVQEvent@@@Z
       3780  EC3 004691E0 ?changeEvent@QTabBar@@MEAAXPEAVQEvent@@@Z
       3781  EC4 00471430 ?changeEvent@QTabWidget@@MEAAXPEAVQEvent@@@Z
       3782  EC5 004747E0 ?changeEvent@QTextEdit@@MEAAXPEAVQEvent@@@Z
       3783  EC6 0047C790 ?changeEvent@QToolBar@@MEAAXPEAVQEvent@@@Z
       3784  EC7 00482680 ?changeEvent@QToolBox@@MEAAXPEAVQEvent@@@Z
       3785  EC8 00484D60 ?changeEvent@QToolButton@@MEAAXPEAVQEvent@@@Z
       3786  EC9 0006E2D0 ?changeEvent@QWidget@@MEAAXPEAVQEvent@@@Z
       3787  ECA 00491570 ?changeEvent@QWorkspace@@MEAAXPEAVQEvent@@@Z
       3788  ECB 00086BE0 ?changeFlags@QPinchGesture@@QEBA?AV?$QFlags@W4ChangeFlag@QPinchGesture@@@@XZ
       3789  ECC 0064BA80 ?changeLayoutVertex@QGraphicsAnchorLayoutPrivate@@QEAAXW4Orientation@1@PEAUAnchorVertex@@1@Z
       3790  ECD 002A1630 ?changeObjectFormat@QTextDocumentPrivate@@QEAAXPEAVQTextObject@@H@Z
       3791  ECE 00021910 ?changeOverrideCursor@QApplication@@SAXAEBVQCursor@@@Z
       3792  ECF 00054EF0 ?changeSize@QSpacerItem@@QEAAXHHW4Policy@QSizePolicy@@0@Z
       3793  ED0 0000D030 ?changed@QAction@@IEAAXXZ
       3794  ED1 0067D770 ?changed@QClipboard@@IEAAXW4Mode@1@@Z
       3795  ED2 00602370 ?changed@QGraphicsScene@@IEAAXAEBV?$QList@VQRectF@@@@@Z
       3796  ED3 004E17C0 ?changed@QUrlModel@@AEAAXAEBVQString@@@Z
       3797  ED4 00292040 ?charFormat@QTextBlock@@QEBA?AVQTextCharFormat@@XZ
       3798  ED5 002C3E10 ?charFormat@QTextCursor@@QEBA?AVQTextCharFormat@@XZ
       3799  ED6 000EAFD0 ?charFormat@QTextFormatCollection@@QEBA?AVQTextCharFormat@@H@Z
       3800  ED7 002920C0 ?charFormat@QTextFragment@@QEBA?AVQTextCharFormat@@XZ
       3801  ED8 00292120 ?charFormatIndex@QTextBlock@@QEBAHXZ
       3802  ED9 00292140 ?charFormatIndex@QTextFragment@@QEBAHXZ
       3803  EDA 00255880 ?charWidth@QFontMetrics@@QEBAHAEBVQString@@H@Z
       3804  EDB 00296C90 ?characterAt@QTextDocument@@QEBA?AVQChar@@H@Z
       3805  EDC 00296DC0 ?characterCount@QTextDocument@@QEBAHXZ
       3806  EDD 0055F0C0 ?check@QItemDelegate@@IEBA?AVQRect@@AEBVQStyleOptionViewItem@@AEBV2@AEBVQVariant@@@Z
       3807  EDE 005C3810 ?checkColumnCreation@QColumnViewPrivate@@QEAAXAEBVQModelIndex@@@Z
       3808  EDF 005420E0 ?checkConsistency@QSpanCollection@@QEBA_NXZ
       3809  EE0 000D6850 ?checkForAlphaPixels@QImageData@@QEBA_NXZ
       3810  EE1 00513A80 ?checkMouseMove@QAbstractItemViewPrivate@@QEAAXAEBVQPersistentModelIndex@@@Z
       3811  EE2 00513C60 ?checkMouseMove@QAbstractItemViewPrivate@@QEAAXAEBVQPoint@@@Z
       3812  EE3 00415DA0 ?checkOverflow@QLCDNumber@@QEBA_NH@Z
       3813  EE4 00415DF0 ?checkOverflow@QLCDNumber@@QEBA_NN@Z
       3814  EE5 00513CC0 ?checkPersistentEditorFocus@QAbstractItemViewPrivate@@QEAAXXZ
       3815  EE6 003DCDF0 ?checkState@QCheckBox@@QEBA?AW4CheckState@Qt@@XZ
       3816  EE7 004AEB70 ?checkState@QListWidgetItem@@QEBA?AW4CheckState@Qt@@XZ
       3817  EE8 003E0320 ?checkState@QStandardItem@@QEBA?AW4CheckState@Qt@@XZ
       3818  EE9 005809D0 ?checkState@QTableWidgetItem@@QEBA?AW4CheckState@Qt@@XZ
       3819  EEA 0058E750 ?checkState@QTreeWidgetItem@@QEBA?AW4CheckState@Qt@@H@Z
       3820  EEB 003C6FF0 ?checkStateSet@QAbstractButton@@MEAAXXZ
       3821  EEC 003DCE20 ?checkStateSet@QCheckBox@@MEAAXXZ
       3822  EED 000173D0 ?checkedAction@QActionGroup@@QEBAPEAVQAction@@XZ
       3823  EEE 003C7000 ?checkedButton@QButtonGroup@@QEBAPEAVQAbstractButton@@XZ
       3824  EEF 003C7010 ?checkedId@QButtonGroup@@QEBAHXZ
       3825  EF0 00021960 ?child@QAccessibleEvent@@QEBAHXZ
       3826  EF1 005B3250 ?child@QStandardItem@@QEBAPEAV1@HH@Z
       3827  EF2 0058E7A0 ?child@QTreeWidgetItem@@QEBAPEAV1@H@Z
       3828  EF3 00669F30 ?child@QUndoCommand@@QEBAPEBV1@H@Z
       3829  EF4 005087E0 ?childAt@QAccessibleApplication@@UEBAHHH@Z
       3830  EF5 00509DA0 ?childAt@QAccessibleWidget@@UEBAHHH@Z
       3831  EF6 00509FD0 ?childAt@QAccessibleWidgetEx@@UEBAHHH@Z
       3832  EF7 0006E370 ?childAt@QWidget@@QEBAPEAV1@AEBVQPoint@@@Z
       3833  EF8 0068D570 ?childAt@QWidget@@QEBAPEAV1@HH@Z
       3834  EF9 0006E3D0 ?childAtRecursiveHelper@QWidgetPrivate@@QEBAPEAVQWidget@@AEBVQPoint@@_N1@Z
       3835  EFA 0006E4E0 ?childAt_helper@QWidgetPrivate@@QEBAPEAVQWidget@@AEBVQPoint@@_N@Z
       3836  EFB 005088A0 ?childCount@QAccessibleApplication@@UEBAHXZ
       3837  EFC 00509FE0 ?childCount@QAccessibleWidget@@UEBAHXZ
       3838  EFD 0050A050 ?childCount@QAccessibleWidgetEx@@UEBAHXZ
       3839  EFE 0058E830 ?childCount@QTreeWidgetItem@@QEBAHXZ
       3840  EFF 00669F80 ?childCount@QUndoCommand@@QEBAHXZ
       3841  F00 004103C0 ?childEvent@QGroupBox@@MEAAXPEAVQChildEvent@@@Z
       3842  F01 00050BA0 ?childEvent@QLayout@@MEAAXPEAVQChildEvent@@@Z
       3843  F02 00431860 ?childEvent@QMdiArea@@MEAAXPEAVQChildEvent@@@Z
       3844  F03 0043CB30 ?childEvent@QMdiSubWindow@@MEAAXPEAVQChildEvent@@@Z
       3845  F04 004618A0 ?childEvent@QSplitter@@MEAAXPEAVQChildEvent@@@Z
       3846  F05 0047C860 ?childEvent@QToolBar@@MEAAXPEAVQChildEvent@@@Z
       3847  F06 00491740 ?childEvent@QWorkspace@@MEAAXPEAVQChildEvent@@@Z
       3848  F07 00292170 ?childFrames@QTextFrame@@QEBA?AV?$QList@PEAVQTextFrame@@@@XZ
       3849  F08 0058E840 ?childIndicatorPolicy@QTreeWidgetItem@@QEBA?AW4ChildIndicatorPolicy@1@XZ
       3850  F09 005D9620 ?childItems@QGraphicsItem@@QEBA?AV?$QList@PEAVQGraphicsItem@@@@XZ
       3851  F0A 005D9680 ?children@QGraphicsItem@@QEBA?AV?$QList@PEAVQGraphicsItem@@@@XZ
       3852  F0B 005D96A0 ?childrenBoundingRect@QGraphicsItem@@QEBA?AVQRectF@@XZ
       3853  F0C 005D9780 ?childrenBoundingRectHelper@QGraphicsItemPrivate@@QEAAXPEAVQTransform@@PEAVQRectF@@PEAVQGraphicsItem@@@Z
       3854  F0D 005D9A20 ?childrenChanged@QGraphicsObject@@IEAAXXZ
       3855  F0E 0058E850 ?childrenCheckState@QTreeWidgetItem@@AEBA?AVQVariant@@H@Z
       3856  F0F 0000D050 ?childrenClippedToShape@QGraphicsItemPrivate@@QEBA_NXZ
       3857  F10 00461A90 ?childrenCollapsible@QSplitter@@QEBA_NXZ
       3858  F11 0000D080 ?childrenCombineOpacity@QGraphicsItemPrivate@@QEBA_NXZ
       3859  F12 005D9A40 ?childrenList@QGraphicsItemPrivate@@QEAA?AV?$QDeclarativeListProperty@VQGraphicsObject@@@@XZ
       3860  F13 0006E550 ?childrenRect@QWidget@@QEBA?AVQRect@@XZ
       3861  F14 0006E600 ?childrenRegion@QWidget@@QEBA?AVQRegion@@XZ
       3862  F15 005D9AD0 ?children_append@QGraphicsItemPrivate@@SAXPEAV?$QDeclarativeListProperty@VQGraphicsObject@@@@PEAVQGraphicsObject@@@Z
       3863  F16 005D9B30 ?children_at@QGraphicsItemPrivate@@SAPEAVQGraphicsObject@@PEAV?$QDeclarativeListProperty@VQGraphicsObject@@@@H@Z
       3864  F17 005D9BC0 ?children_clear@QGraphicsItemPrivate@@SAXPEAV?$QDeclarativeListProperty@VQGraphicsObject@@@@@Z
       3865  F18 005D9C60 ?children_count@QGraphicsItemPrivate@@SAHPEAV?$QDeclarativeListProperty@VQGraphicsObject@@@@@Z
       3866  F19 00021970 ?classId@QPixmapData@@QEBA?AW4ClassId@1@XZ
       3867  F1A 00689210 ?cleanChanged@QUndoGroup@@IEAAX_N@Z
       3868  F1B 00689520 ?cleanChanged@QUndoStack@@IEAAX_N@Z
       3869  F1C 0066BF20 ?cleanIcon@QUndoView@@QEBA?AVQIcon@@XZ
       3870  F1D 00669F90 ?cleanIndex@QUndoStack@@QEBAHXZ
       3871  F1E 005423D0 ?cleanSpanSubIndex@QSpanCollection@@AEAA_NAEAV?$QMap@HPEAUSpan@QSpanCollection@@@@H_N@Z
       3872  F1F 0045E360 ?cleanText@QDoubleSpinBox@@QEBA?AVQString@@XZ
       3873  F20 0045E3D0 ?cleanText@QSpinBox@@QEBA?AVQString@@XZ
       3874  F21 00149E80 ?cleanUp@QBrush@@AEAAXPEAUQBrushData@@@Z
       3875  F22 002FC3D0 ?cleanUp@QRawFontPrivate@@QEAAXXZ
       3876  F23 001C5DE0 ?cleanUp@QRegion@@CAXPEAUQRegionData@1@@Z
       3877  F24 0050F780 ?cleanup@QAccessible@@SAXXZ
       3878  F25 0022D0C0 ?cleanup@QColormap@@SAXXZ
       3879  F26 002FE260 ?cleanup@QFont@@SAXXZ
       3880  F27 00097760 ?cleanupHash@QSoftKeyManager@@AEAAXPEAVQObject@@@Z
       3881  F28 00021980 ?cleanupMultitouch@QApplicationPrivate@@QEAAXXZ
       3882  F29 00099ED0 ?cleanupMultitouch_sys@QApplicationPrivate@@QEAAXXZ
       3883  F2A 004F9D30 ?cleanupPage@QWizard@@MEAAXH@Z
       3884  F2B 004F9DA0 ?cleanupPage@QWizardPage@@UEAAXXZ
       3885  F2C 00336D20 ?clear@?$QList@VQItemSelectionRange@@@@QEAAXXZ
       3886  F2D 003CD020 ?clear@QAbstractSpinBox@@UEAAXXZ
       3887  F2E 0068D5A0 ?clear@QBitmap@@QEAAXXZ
       3888  F2F 000A53D0 ?clear@QClipboard@@QEAAXW4Mode@1@@Z
       3889  F30 003E0490 ?clear@QComboBox@@QEAAXXZ
       3890  F31 003ECEF0 ?clear@QDateTimeEdit@@UEAAXXZ
       3891  F32 003F56C0 ?clear@QDialogButtonBox@@QEAAXXZ
       3892  F33 003FF3E0 ?clear@QDockAreaLayout@@QEAAXXZ
       3893  F34 003FF520 ?clear@QDockAreaLayoutInfo@@QEAAXXZ
       3894  F35 004F42A0 ?clear@QFileInfoGatherer@@QEAAXXZ
       3895  F36 002FD8B0 ?clear@QGlyphRun@@QEAAXXZ
       3896  F37 005F2240 ?clear@QGraphicsItemAnimation@@QEAAXXZ
       3897  F38 00602700 ?clear@QGraphicsScene@@QEAAXXZ
       3898  F39 0061B830 ?clear@QGraphicsSceneBspTreeIndex@@MEAAXXZ
       3899  F3A 0061F9B0 ?clear@QGraphicsSceneIndex@@MEAAXXZ
       3900  F3B 006027A0 ?clear@QGraphicsSceneLinearIndex@@MEAAXXZ
       3901  F3C 00567C30 ?clear@QItemSelectionModel@@UEAAXXZ
       3902  F3D 004123E0 ?clear@QLabel@@QEAAXXZ
       3903  F3E 00420660 ?clear@QLineControl@@QEAAXXZ
       3904  F3F 0041C080 ?clear@QLineEdit@@QEAAXXZ
       3905  F40 00577C20 ?clear@QListModel@@QEAAXXZ
       3906  F41 00577D10 ?clear@QListWidget@@QEAAXXZ
       3907  F42 00448B40 ?clear@QMenu@@QEAAXXZ
       3908  F43 00452860 ?clear@QMenuBar@@QEAAXXZ
       3909  F44 000F8900 ?clear@QPixmapCache@@SAXXZ
       3910  F45 004A4D80 ?clear@QPlainTextEdit@@QEAAXXZ
       3911  F46 005A5120 ?clear@QSortFilterProxyModel@@QEAAXXZ
       3912  F47 00542760 ?clear@QSpanCollection@@QEAAXXZ
       3913  F48 005B3500 ?clear@QStandardItemModel@@QEAAXXZ
       3914  F49 00471470 ?clear@QTabWidget@@QEAAXXZ
       3915  F4A 00580B50 ?clear@QTableWidget@@QEAAXXZ
       3916  F4B 00266D50 ?clear@QTextControl@@QEAAXXZ
       3917  F4C 00296E90 ?clear@QTextDocument@@UEAAXXZ
       3918  F4D 002A1AB0 ?clear@QTextDocumentPrivate@@QEAAXXZ
       3919  F4E 00474940 ?clear@QTextEdit@@QEAAXXZ
       3920  F4F 0047C870 ?clear@QToolBar@@QEAAXXZ
       3921  F50 0058EC20 ?clear@QTreeWidget@@QEAAXXZ
       3922  F51 00669FF0 ?clear@QUndoStack@@QEAAXXZ
       3923  F52 0027FDD0 ?clearAdditionalFormats@QTextLayout@@QEAAXXZ
       3924  F53 00065790 ?clearBackground@QTextFormat@@QEAAXXZ
       3925  F54 000657A0 ?clearColumnWidthConstraints@QTextTableFormat@@QEAAXXZ
       3926  F55 00580C50 ?clearContents@QTableWidget@@QEAAXXZ
       3927  F56 00021C40 ?clearDirty@QPaintEngine@@QEAAXV?$QFlags@W4DirtyFlag@QPaintEngine@@@@@Z
       3928  F57 003E0520 ?clearEditText@QComboBox@@QEAAXXZ
       3929  F58 005D9E90 ?clearFocus@QGraphicsItem@@QEAAXXZ
       3930  F59 006027F0 ?clearFocus@QGraphicsScene@@QEAAXXZ
       3931  F5A 0006E8F0 ?clearFocus@QWidget@@QEAAXXZ
       3932  F5B 005D9EA0 ?clearFocusHelper@QGraphicsItemPrivate@@QEAAX_N@Z
       3933  F5C 000657B0 ?clearForeground@QTextFormat@@QEAAXXZ
       3934  F5D 002A20A0 ?clearFrame@QTextDocumentPrivate@@CAXPEAVQTextFrame@@@Z
       3935  F5E 004795C0 ?clearHistory@QTextBrowser@@QEAAXXZ
       3936  F5F 00602830 ?clearKeyboardGrabber@QGraphicsScenePrivate@@QEAAXXZ
       3937  F60 00292210 ?clearLayout@QTextBlock@@QEAAXXZ
       3938  F61 0027FE80 ?clearLayout@QTextLayout@@QEAAXXZ
       3939  F62 00275A00 ?clearLineData@QTextEngine@@QEAAXXZ
       3940  F63 005BF7D0 ?clearMapping@QDataWidgetMapper@@QEAAXXZ
       3941  F64 0006E9C0 ?clearMask@QWidget@@QEAAXXZ
       3942  F65 003ECF20 ?clearMaximumDate@QDateTimeEdit@@QEAAXXZ
       3943  F66 003ECF60 ?clearMaximumDateTime@QDateTimeEdit@@QEAAXXZ
       3944  F67 003ECFF0 ?clearMaximumTime@QDateTimeEdit@@QEAAXXZ
       3945  F68 00460490 ?clearMessage@QSplashScreen@@QEAAXXZ
       3946  F69 00466770 ?clearMessage@QStatusBar@@QEAAXXZ
       3947  F6A 003ED030 ?clearMinimumDate@QDateTimeEdit@@QEAAXXZ
       3948  F6B 003ED070 ?clearMinimumDateTime@QDateTimeEdit@@QEAAXXZ
       3949  F6C 003ED100 ?clearMinimumTime@QDateTimeEdit@@QEAAXXZ
       3950  F6D 006028A0 ?clearMouseGrabber@QGraphicsScenePrivate@@QEAAXXZ
       3951  F6E 00513E70 ?clearOrRemove@QAbstractItemViewPrivate@@QEAAXXZ
       3952  F6F 0028BE30 ?clearProperty@QTextFormat@@QEAAXH@Z
       3953  F70 005312D0 ?clearPropertyFlags@QListView@@QEAAXXZ
       3954  F71 005141B0 ?clearSelection@QAbstractItemView@@QEAAXXZ
       3955  F72 00602920 ?clearSelection@QGraphicsScene@@QEAAXXZ
       3956  F73 00567D80 ?clearSelection@QItemSelectionModel@@QEAAXXZ
       3957  F74 002C40D0 ?clearSelection@QTextCursor@@QEAAXXZ
       3958  F75 005427C0 ?clearSpans@QTableView@@QEAAXXZ
       3959  F76 004206C0 ?clearString@QLineControl@@AEBA?AVQString@@II@Z
       3960  F77 005DA0A0 ?clearSubFocus@QGraphicsItemPrivate@@QEAAXPEAVQGraphicsItem@@0@Z
       3961  F78 003CD0F0 ?clearUndo@QLineControl@@QEAAXXZ
       3962  F79 00296EC0 ?clearUndoRedoStacks@QTextDocument@@QEAAXW4Stacks@1@@Z
       3963  F7A 002A2160 ?clearUndoRedoStacks@QTextDocumentPrivate@@QEAAXW4Stacks@QTextDocument@@_N@Z
       3964  F7B 00336E60 ?clearWidgetFont@QStyleSheetStyle@@QEBAXPEAVQWidget@@@Z
       3965  F7C 003C7090 ?click@QAbstractButton@@QEAAXXZ
       3966  F7D 00682000 ?clicked@QAbstractButton@@IEAAX_N@Z
       3967  F7E 005141D0 ?clicked@QAbstractItemView@@IEAAXAEBVQModelIndex@@@Z
       3968  F7F 003D5150 ?clicked@QCalendarWidget@@IEAAXAEBVQDate@@@Z
       3969  F80 003F57D0 ?clicked@QDialogButtonBox@@IEAAXPEAVQAbstractButton@@@Z
       3970  F81 00410510 ?clicked@QGroupBox@@IEAAX_N@Z
       3971  F82 004E1A30 ?clicked@QSidebar@@AEAAXAEBVQModelIndex@@@Z
       3972  F83 004DB3D0 ?clickedButton@QMessageBox@@QEBAPEAVQAbstractButton@@XZ
       3973  F84 0016ED70 ?clip@QPaintEngineEx@@UEAAXAEBVQPainterPath@@W4ClipOperation@Qt@@@Z
       3974  F85 0016EE90 ?clip@QPaintEngineEx@@UEAAXAEBVQRect@@W4ClipOperation@Qt@@@Z
       3975  F86 0016F060 ?clip@QPaintEngineEx@@UEAAXAEBVQRegion@@W4ClipOperation@Qt@@@Z
       3976  F87 0019B2E0 ?clip@QPathClipper@@QEAA?AVQPainterPath@@W4Operation@1@@Z
       3977  F88 00176990 ?clipBoundingRect@QPainter@@QEBA?AVQRectF@@XZ
       3978  F89 0022A890 ?clipEnabledChanged@QBlitterPaintEngine@@UEAAXXZ
       3979  F8A 00176BE0 ?clipOperation@QPaintEngineState@@QEBA?AW4ClipOperation@Qt@@XZ
       3980  F8B 005DA220 ?clipPath@QGraphicsItem@@QEBA?AVQPainterPath@@XZ
       3981  F8C 00176BF0 ?clipPath@QPaintEngineState@@QEBA?AVQPainterPath@@XZ
       3982  F8D 00176C20 ?clipPath@QPainter@@QEBA?AVQPainterPath@@XZ
       3983  F8E 000E46F0 ?clipRect@QImageReader@@QEBA?AVQRect@@XZ
       3984  F8F 00021C50 ?clipRect@QStrokerOps@@QEBA?AVQRectF@@XZ
       3985  F90 0006EA00 ?clipRect@QWidgetPrivate@@QEBA?AVQRect@@XZ
       3986  F91 00176E60 ?clipRegion@QPaintEngineState@@QEBA?AVQRegion@@XZ
       3987  F92 00176E90 ?clipRegion@QPainter@@QEBA?AVQRegion@@XZ
       3988  F93 0006EC40 ?clipRegion@QWidgetPrivate@@QEBA?AVQRegion@@XZ
       3989  F94 0006EF80 ?clipToEffectiveMask@QWidgetPrivate@@QEBAXAEAVQRegion@@@Z
       3990  F95 00021C80 ?clipboard@QApplication@@SAPEAVQClipboard@@XZ
       3991  F96 00100880 ?clone@QIconEngineV2@@UEBAPEAV1@XZ
       3992  F97 00577D50 ?clone@QListWidgetItem@@UEBAPEAV1@XZ
       3993  F98 005B3650 ?clone@QStandardItem@@UEBAPEAV1@XZ
       3994  F99 00580C90 ?clone@QTableWidgetItem@@UEBAPEAV1@XZ
       3995  F9A 00296ED0 ?clone@QTextDocument@@QEBAPEAV1@PEAVQObject@@@Z
       3996  F9B 0058EC60 ?clone@QTreeWidgetItem@@UEBAPEAV1@XZ
       3997  F9C 00602A60 ?cloneDragDropEvent@QGraphicsScenePrivate@@QEAAXPEAVQGraphicsSceneDragDropEvent@@0@Z
       3998  F9D 00169070 ?cloneWithSize@QFontEngine@@UEBAPEAV1@N@Z
       3999  F9E 0062EAE0 ?close@QGraphicsWidget@@QEAA_NXZ
       4000  F9F 0006F0E0 ?close@QWidget@@QEAA_NXZ
       4001  FA0 002EFCD0 ?close@QZipReader@@QEAAXXZ
       4002  FA1 002EFCE0 ?close@QZipWriter@@QEAAXXZ
       4003  FA2 00431AE0 ?closeActiveSubWindow@QMdiArea@@QEAAXXZ
       4004  FA3 00491890 ?closeActiveWindow@QWorkspace@@QEAAXXZ
       4005  FA4 00431B00 ?closeAllSubWindows@QMdiArea@@QEAAXXZ
       4006  FA5 00021CE0 ?closeAllWindows@QApplication@@SAXXZ
       4007  FA6 004918E0 ?closeAllWindows@QWorkspace@@QEAAXXZ
       4008  FA7 005C3940 ?closeColumns@QColumnViewPrivate@@QEAAXAEBVQModelIndex@@_N@Z
       4009  FA8 00687B70 ?closeEditor@QAbstractItemDelegate@@IEAAXPEAVQWidget@@W4EndEditHint@1@@Z
       4010  FA9 00514200 ?closeEditor@QAbstractItemView@@MEAAXPEAVQWidget@@W4EndEditHint@QAbstractItemDelegate@@@Z
       4011  FAA 003CD120 ?closeEvent@QAbstractSpinBox@@MEAAXPEAVQCloseEvent@@@Z
       4012  FAB 0065CD80 ?closeEvent@QBalloonTip@@MEAAXPEAVQCloseEvent@@@Z
       4013  FAC 004BF570 ?closeEvent@QDialog@@MEAAXPEAVQCloseEvent@@@Z
       4014  FAD 003F9080 ?closeEvent@QDockWidget@@MEAAXPEAVQCloseEvent@@@Z
       4015  FAE 0062EB70 ?closeEvent@QGraphicsWidget@@MEAAXPEAVQCloseEvent@@@Z
       4016  FAF 0043CB90 ?closeEvent@QMdiSubWindow@@MEAAXPEAVQCloseEvent@@@Z
       4017  FB0 004DB3E0 ?closeEvent@QMessageBox@@MEAAXPEAVQCloseEvent@@@Z
       4018  FB1 004DEF20 ?closeEvent@QProgressDialog@@MEAAXPEAVQCloseEvent@@@Z
       4019  FB2 0006F0F0 ?closeEvent@QWidget@@MEAAXPEAVQCloseEvent@@@Z
       4020  FB3 00514540 ?closePersistentEditor@QAbstractItemView@@QEAAXAEBVQModelIndex@@@Z
       4021  FB4 00577D90 ?closePersistentEditor@QListWidget@@QEAAXPEAVQListWidgetItem@@@Z
       4022  FB5 00580CD0 ?closePersistentEditor@QTableWidget@@QEAAXPEAVQTableWidgetItem@@@Z
       4023  FB6 0058F070 ?closePersistentEditor@QTreeWidget@@QEAAXPEAVQTreeWidgetItem@@H@Z
       4024  FB7 00099FF0 ?closePopup@QApplicationPrivate@@QEAAXPEAVQWidget@@@Z
       4025  FB8 0018B6B0 ?closeSubpath@QPainterPath@@QEAAXXZ
       4026  FB9 0006F100 ?close_helper@QWidgetPrivate@@QEAA_NW4CloseMode@1@@Z
       4027  FBA 00050C50 ?closestAcceptableSize@QLayout@@SA?AVQSize@@PEBVQWidget@@AEBV2@@Z
       4028  FBB 00461AA0 ?closestLegalPosition@QSplitter@@IEAAHHH@Z
       4029  FBC 00461B80 ?closestLegalPosition@QSplitterHandle@@IEAAHH@Z
       4030  FBD 002D7180 ?codec@QTextDocumentWriter@@QEBAPEAVQTextCodec@@XZ
       4031  FBE 002970C0 ?codecForHtml@Qt@@YAPEAVQTextCodec@@AEBVQByteArray@@@Z
       4032  FBF 0012FDD0 ?coefficients@QBezier@@SAXNAEAN000@Z
       4033  FC0 00550CF0 ?collapse@QTreeView@@QEAAXAEBVQModelIndex@@@Z
       4034  FC1 00550E90 ?collapse@QTreeViewPrivate@@QEAAXH_N@Z
       4035  FC2 00551170 ?collapseAll@QTreeView@@QEAAXXZ
       4036  FC3 0058F0B0 ?collapseItem@QTreeWidget@@QEAAXPEBVQTreeWidgetItem@@@Z
       4037  FC4 005511F0 ?collapsed@QTreeView@@IEAAXAEBVQModelIndex@@@Z
       4038  FC5 001B7990 ?collateCopies@QPrinter@@QEBA_NXZ
       4039  FC6 005DA490 ?collidesWithItem@QGraphicsItem@@UEBA_NPEBV1@W4ItemSelectionMode@Qt@@@Z
       4040  FC7 005DA710 ?collidesWithPath@QGraphicsItem@@UEBA_NAEBVQPainterPath@@W4ItemSelectionMode@Qt@@@Z
       4041  FC8 005DA9B0 ?collidingItems@QGraphicsItem@@QEBA?AV?$QList@PEAVQGraphicsItem@@@@W4ItemSelectionMode@Qt@@@Z
       4042  FC9 00602B70 ?collidingItems@QGraphicsScene@@QEBA?AV?$QList@PEAVQGraphicsItem@@@@PEBVQGraphicsItem@@W4ItemSelectionMode@Qt@@@Z
       4043  FCA 000579F0 ?color@QBrush@@QEBAAEBVQColor@@XZ
       4044  FCB 004ADA40 ?color@QColorDialog@@AEBA?AVQColor@@XZ
       4045  FCC 00678B00 ?color@QGraphicsColorizeEffect@@QEBA?AVQColor@@XZ
       4046  FCD 00678B30 ?color@QGraphicsDropShadowEffect@@QEBA?AVQColor@@XZ
       4047  FCE 000D6C40 ?color@QImage@@QEBAIH@Z
       4048  FCF 0009A210 ?color@QPalette@@QEBAAEBVQColor@@W4ColorGroup@1@W4ColorRole@1@@Z
       4049  FD0 00159780 ?color@QPalette@@QEBAAEBVQColor@@W4ColorRole@1@@Z
       4050  FD1 001A9DE0 ?color@QPen@@QEBA?AVQColor@@XZ
       4051  FD2 000FDEF0 ?color@QPixmapColorizeFilter@@QEBA?AVQColor@@XZ
       4052  FD3 000FDF20 ?color@QPixmapDropShadowFilter@@QEBA?AVQColor@@XZ
       4053  FD4 0022D130 ?colorAt@QColormap@@QEBA?BVQColor@@I@Z
       4054  FD5 0068A300 ?colorChanged@QGraphicsColorizeEffect@@IEAAXAEBVQColor@@@Z
       4055  FD6 0068A330 ?colorChanged@QGraphicsDropShadowEffect@@IEAAXAEBVQColor@@@Z
       4056  FD7 000D6C60 ?colorCount@QImage@@QEBAHXZ
       4057  FD8 0068D5F0 ?colorCount@QPaintDevice@@QEBAHXZ
       4058  FD9 00021E40 ?colorCount@QPixmapData@@QEBAHXZ
       4059  FDA 00021E50 ?colorDialogDelete@QGuiPlatformPlugin@@UEAAXPEAVQColorDialog@@@Z
       4060  FDB 00021E60 ?colorDialogSetCurrentColor@QGuiPlatformPlugin@@UEAAXPEAVQColorDialog@@AEBVQColor@@@Z
       4061  FDC 00021E70 ?colorDialogSetVisible@QGuiPlatformPlugin@@UEAA_NPEAVQColorDialog@@_N@Z
       4062  FDD 001B79E0 ?colorMode@QPrinter@@QEBA?AW4ColorMode@1@XZ
       4063  FDE 0014CF10 ?colorNames@QColor@@SA?AVQStringList@@XZ
       4064  FDF 0028BFA0 ?colorProperty@QTextFormat@@QEBA?AVQColor@@H@Z
       4065  FE0 004B9AA0 ?colorSelected@QColorDialog@@IEAAXAEBVQColor@@@Z
       4066  FE1 00021E80 ?colorSpec@QApplication@@SAHXZ
       4067  FE2 000D6C80 ?colorTable@QImage@@QEBA?AV?$QVector@I@@XZ
       4068  FE3 002DE5B0 ?colorValue@Declaration@QCss@@QEBA?AVQColor@@AEBVQPalette@@@Z
       4069  FE4 002DE740 ?colorValues@Declaration@QCss@@QEBAXPEAVQColor@@AEBVQPalette@@@Z
       4070  FE5 0022D1C0 ?colormap@QColormap@@QEBA?BV?$QVector@VQColor@@@@XZ
       4071  FE6 0000D180 ?column@QMatrix4x4@@QEBA?AVQVector4D@@H@Z
       4072  FE7 005B3690 ?column@QStandardItem@@QEBAHXZ
       4073  FE8 00580D40 ?column@QTableWidget@@QEBAHPEBVQTableWidgetItem@@@Z
       4074  FE9 00580D80 ?column@QTableWidgetItem@@QEBAHXZ
       4075  FEA 002D18F0 ?column@QTextTableCell@@QEBAHXZ
       4076  FEB 005CDCD0 ?columnAlignment@QGraphicsGridLayout@@QEBA?AV?$QFlags@W4AlignmentFlag@Qt@@@@H@Z
       4077  FEC 00542830 ?columnAt@QTableView@@QEBAHH@Z
       4078  FED 00551220 ?columnAt@QTreeView@@QEBAHH@Z
       4079  FEE 00551230 ?columnAt@QTreeViewPrivate@@QEBAHH@Z
       4080  FEF 0056EC70 ?columnCount@QDirModel@@UEBAHAEBVQModelIndex@@@Z
       4081  FF0 004EA3F0 ?columnCount@QFileSystemModel@@UEBAHAEBVQModelIndex@@@Z
       4082  FF1 005CDD00 ?columnCount@QGraphicsGridLayout@@QEBAHXZ
       4083  FF2 00048520 ?columnCount@QGridLayout@@QEBAHXZ
       4084  FF3 0052E2A0 ?columnCount@QIdentityProxyModel@@UEBAHAEBVQModelIndex@@@Z
       4085  FF4 00448CD0 ?columnCount@QMenu@@IEBAHXZ
       4086  FF5 005997E0 ?columnCount@QProxyModel@@UEBAHAEBVQModelIndex@@@Z
       4087  FF6 005A5160 ?columnCount@QSortFilterProxyModel@@UEBAHAEBVQModelIndex@@@Z
       4088  FF7 005B36D0 ?columnCount@QStandardItem@@QEBAHXZ
       4089  FF8 005B36E0 ?columnCount@QStandardItemModel@@UEBAHAEBVQModelIndex@@@Z
       4090  FF9 00580DF0 ?columnCount@QTableWidget@@QEBAHXZ
       4091  FFA 00580E30 ?columnCount@QTableWidgetSelectionRange@@QEBAHXZ
       4092  FFB 0058F170 ?columnCount@QTreeWidget@@QEBAHXZ
       4093  FFC 0058F1B0 ?columnCount@QTreeWidgetItem@@QEBAHXZ
       4094  FFD 00542840 ?columnCountChanged@QTableView@@IEAAXHH@Z
       4095  FFE 00551240 ?columnCountChanged@QTreeView@@IEAAXHH@Z
       4096  FFF 00567E80 ?columnIntersectsSelection@QItemSelectionModel@@QEBA_NHAEBVQModelIndex@@@Z
       4097 1000 005CDD20 ?columnMaximumWidth@QGraphicsGridLayout@@QEBANH@Z
       4098 1001 005CDD40 ?columnMinimumWidth@QGraphicsGridLayout@@QEBANH@Z
       4099 1002 00048530 ?columnMinimumWidth@QGridLayout@@QEBAHH@Z
       4100 1003 005428C0 ?columnMoved@QTableView@@IEAAXHHH@Z
       4101 1004 00551290 ?columnMoved@QTreeView@@IEAAXXZ
       4102 1005 002C4190 ?columnNumber@QTextCursor@@QEBAHXZ
       4103 1006 005CDD60 ?columnPreferredWidth@QGraphicsGridLayout@@QEBANH@Z
       4104 1007 005512C0 ?columnRanges@QTreeViewPrivate@@QEBA?AV?$QList@U?$QPair@HH@@@@AEBVQModelIndex@@0@Z
       4105 1008 00542A10 ?columnResized@QTableView@@IEAAXHHH@Z
       4106 1009 00551540 ?columnResized@QTreeView@@IEAAXHHH@Z
       4107 100A 005CDD80 ?columnSpacing@QGraphicsGridLayout@@QEBANH@Z
       4108 100B 00542A60 ?columnSpan@QTableView@@QEBAHHH@Z
       4109 100C 002D1960 ?columnSpan@QTextTableCell@@QEBAHXZ
       4110 100D 00048550 ?columnStretch@QGridLayout@@QEBAHH@Z
       4111 100E 005CDDA0 ?columnStretchFactor@QGraphicsGridLayout@@QEBAHH@Z
       4112 100F 00542BB0 ?columnViewportPosition@QTableView@@QEBAHH@Z
       4113 1010 00551590 ?columnViewportPosition@QTreeView@@QEBAHH@Z
       4114 1011 00542BC0 ?columnWidth@QTableView@@QEBAHH@Z
       4115 1012 005515A0 ?columnWidth@QTreeView@@QEBAHH@Z
       4116 1013 000657C0 ?columnWidthConstraints@QTextTableFormat@@QEBA?AV?$QVector@VQTextLength@@@@XZ
       4117 1014 005C3DA0 ?columnWidths@QColumnView@@QEBA?AV?$QList@H@@XZ
       4118 1015 000FDF50 ?columns@QPixmapConvolutionFilter@@AEBAHXZ
       4119 1016 002D19B0 ?columns@QTextTable@@QEBAHXZ
       4120 1017 000657F0 ?columns@QTextTableFormat@@QEBAHXZ
       4121 1018 0000D1D0 ?combineOpacityFromParent@QGraphicsItemPrivate@@QEBANN@Z
       4122 1019 005DAA10 ?combineTransformFromParent@QGraphicsItemPrivate@@QEBAXPEAVQTransform@@PEBV2@@Z
       4123 101A 005DAAD0 ?combineTransformToParent@QGraphicsItemPrivate@@QEBAXPEAVQTransform@@PEBV2@@Z
       4124 101B 003075F0 ?combinedLayoutSpacing@QStyle@@QEBAHV?$QFlags@W4ControlType@QSizePolicy@@@@0W4Orientation@Qt@@PEAVQStyleOption@@PEAVQWidget@@@Z
       4125 101C 00177780 ?combinedMatrix@QPainter@@QEBA?AVQMatrix@@XZ
       4126 101D 00177810 ?combinedTransform@QPainter@@QEBA?AVQTransform@@XZ
       4127 101E 004D7100 ?comboBoxItems@QInputDialog@@QEBA?AVQStringList@@XZ
       4128 101F 003E0560 ?comboStyleOption@QComboBoxPrivateContainer@@IEBA?AVQStyleOptionComboBox@@XZ
       4129 1020 0066A1A0 ?command@QUndoStack@@QEBAPEBVQUndoCommand@@H@Z
       4130 1021 001E7C00 ?commandDescription@QPaintBuffer@@QEBA?AVQString@@H@Z
       4131 1022 00687BC0 ?commitData@QAbstractItemDelegate@@IEAAXPEAVQWidget@@@Z
       4132 1023 00514660 ?commitData@QAbstractItemView@@MEAAXPEAVQWidget@@@Z
       4133 1024 00021E90 ?commitData@QApplication@@UEAAXAEAVQSessionManager@@@Z
       4134 1025 00022070 ?commitDataRequest@QApplication@@IEAAXAEAVQSessionManager@@@Z
       4135 1026 00266DE0 ?commitString@QInputMethodEvent@@QEBAAEBVQString@@XZ
       4136 1027 005DABB0 ?commonAncestorItem@QGraphicsItem@@QEBAPEAV1@PEBV1@@Z
       4137 1028 0065F7D0 ?complete@QCompleter@@QEAAXAEBVQRect@@@Z
       4138 1029 004207B0 ?complete@QLineControl@@QEAAXH@Z
       4139 102A 004FA170 ?completeChanged@QWizardPage@@IEAAXXZ
       4140 102B 003E05E0 ?completer@QComboBox@@QEBAPEAVQCompleter@@XZ
       4141 102C 003CD170 ?completer@QLineControl@@QEBAPEAVQCompleter@@XZ
       4142 102D 0041C0A0 ?completer@QLineEdit@@QEBAPEAVQCompleter@@XZ
       4143 102E 0065F960 ?completionColumn@QCompleter@@QEBAHXZ
       4144 102F 0065F970 ?completionCount@QCompleter@@QEBAHXZ
       4145 1030 0065FA20 ?completionMode@QCompleter@@QEBA?AW4CompletionMode@1@XZ
       4146 1031 0065FA30 ?completionModel@QCompleter@@QEBAPEAVQAbstractItemModel@@XZ
       4147 1032 0065FA40 ?completionPrefix@QCompleter@@QEBA?AVQString@@XZ
       4148 1033 0065FA70 ?completionRole@QCompleter@@QEBAHXZ
       4149 1034 003CD180 ?composeMode@QLineControl@@QEBA_NXZ
       4150 1035 00177880 ?compositionMode@QPaintEngineState@@QEBA?AW4CompositionMode@QPainter@@XZ
       4151 1036 001778A0 ?compositionMode@QPainter@@QEBA?AW4CompositionMode@1@XZ
       4152 1037 0022A8E0 ?compositionModeChanged@QBlitterPaintEngine@@UEAAXXZ
       4153 1038 000220A0 ?compressEvent@QApplication@@MEAA_NPEAVQEvent@@PEAVQObject@@PEAVQPostEventList@@@Z
       4154 1039 002A2500 ?compressPieceTable@QTextDocumentPrivate@@AEAAXXZ
       4155 103A 000E8120 ?compression@QImageWriter@@QEBAHXZ
       4156 103B 002EFED0 ?compressionPolicy@QZipWriter@@QEBA?AW4CompressionPolicy@1@XZ
       4157 103C 0018B740 ?computeBoundingRect@QPainterPath@@AEBAXXZ
       4158 103D 0018BA80 ?computeControlPointRect@QPainterPath@@AEBAXXZ
       4159 103E 003E0600 ?computeWidthHint@QComboBoxPrivate@@QEBAHXZ
       4160 103F 004C9110 ?confirmOverwrite@QFileDialog@@QEBA_NXZ
       4161 1040 00002570 ?conjugate@QQuaternion@@QEBA?AV1@XZ
       4162 1041 000A54B0 ?connectNotify@QClipboard@@MEAAXPEBD@Z
       4163 1042 0018BB80 ?connectPath@QPainterPath@@QEAAXAEBV1@@Z
       4164 1043 00599820 ?connectToModel@QProxyModel@@IEBAXPEBVQAbstractItemModel@@@Z
       4165 1044 00337BA0 ?constBegin@?$QList@VQItemSelectionRange@@@@QEBA?AVconst_iterator@1@XZ
       4166 1045 000D6E00 ?constBits@QImage@@QEBAPEBEXZ
       4167 1046 00107630 ?constBits@QVolatileImage@@QEBAPEBEXZ
       4168 1047 0000D230 ?constData@QMatrix4x4@@QEBAPEBNXZ
       4169 1048 00337C40 ?constEnd@?$QList@VQItemSelectionRange@@@@QEBA?AVconst_iterator@1@XZ
       4170 1049 00107640 ?constImageRef@QVolatileImage@@QEBAAEBVQImage@@XZ
       4171 104A 000D6E10 ?constScanLine@QImage@@QEBAPEBEH@Z
       4172 104B 0064C660 ?constraintsFromPaths@QGraphicsAnchorLayoutPrivate@@QEAAXW4Orientation@1@@Z
       4173 104C 0064C9A0 ?constraintsFromSizeHints@QGraphicsAnchorLayoutPrivate@@QEAA?AV?$QList@PEAUQSimplexConstraint@@@@AEBV?$QList@PEAUAnchorData@@@@@Z
       4174 104D 00022690 ?construct@QApplicationPrivate@@QEAAXXZ
       4175 104E 003380A0 ?contains@?$QList@VQItemSelectionRange@@@@QEBA?AVQBool@@AEBVQItemSelectionRange@@@Z
       4176 104F 005DB1E0 ?contains@QGraphicsEllipseItem@@UEBA_NAEBVQPointF@@@Z
       4177 1050 005DB1F0 ?contains@QGraphicsItem@@UEBA_NAEBVQPointF@@@Z
       4178 1051 005DB290 ?contains@QGraphicsLineItem@@UEBA_NAEBVQPointF@@@Z
       4179 1052 005DB2A0 ?contains@QGraphicsPathItem@@UEBA_NAEBVQPointF@@@Z
       4180 1053 005DB2B0 ?contains@QGraphicsPixmapItem@@UEBA_NAEBVQPointF@@@Z
       4181 1054 005DB2C0 ?contains@QGraphicsPolygonItem@@UEBA_NAEBVQPointF@@@Z
       4182 1055 005DB2D0 ?contains@QGraphicsRectItem@@UEBA_NAEBVQPointF@@@Z
       4183 1056 005DB2E0 ?contains@QGraphicsSimpleTextItem@@UEBA_NAEBVQPointF@@@Z
       4184 1057 005DB300 ?contains@QGraphicsTextItem@@UEBA_NAEBVQPointF@@@Z
       4185 1058 00568140 ?contains@QItemSelection@@QEBA_NAEBVQModelIndex@@@Z
       4186 1059 00338190 ?contains@QItemSelectionRange@@QEBA_NAEBVQModelIndex@@@Z
       4187 105A 00338270 ?contains@QItemSelectionRange@@QEBA_NHHAEBVQModelIndex@@@Z
       4188 105B 0018BE60 ?contains@QPainterPath@@QEBA_NAEBV1@@Z
       4189 105C 0018BF50 ?contains@QPainterPath@@QEBA_NAEBVQPointF@@@Z
       4190 105D 0018C2F0 ?contains@QPainterPath@@QEBA_NAEBVQRectF@@@Z
       4191 105E 0019BA30 ?contains@QPathClipper@@QEAA_NXZ
       4192 105F 001C5F40 ?contains@QRegion@@QEBA_NAEBVQPoint@@@Z
       4193 1060 001C5F90 ?contains@QRegion@@QEBA_NAEBVQRect@@@Z
       4194 1061 00292240 ?contains@QTextBlock@@QEBA_NH@Z
       4195 1062 002922F0 ?contains@QTextFragment@@QEBA_NH@Z
       4196 1063 001ABA60 ?containsPoint@QPolygon@@QEBA_NAEBVQPoint@@W4FillRule@Qt@@@Z
       4197 1064 001ABE90 ?containsPoint@QPolygonF@@QEBA_NAEBVQPointF@@W4FillRule@Qt@@@Z
       4198 1065 002B4A80 ?contentHasAlignment@QTextDocumentLayout@@QEBA_NXZ
       4199 1066 004A4DB0 ?contentOffset@QPlainTextEdit@@IEBA?AVQPointF@@XZ
       4200 1067 0067FE70 ?contentsChange@QTextDocument@@IEAAXHHH@Z
       4201 1068 0067FEC0 ?contentsChanged@QTextDocument@@IEAAXXZ
       4202 1069 002A2720 ?contentsChanged@QTextDocumentPrivate@@AEAAXXZ
       4203 106A 00050F20 ?contentsMargins@QLayout@@QEBA?AVQMargins@@XZ
       4204 106B 0006F510 ?contentsMargins@QWidget@@QEBA?AVQMargins@@XZ
       4205 106C 00514840 ?contentsOffset@QAbstractItemViewPrivate@@UEBA?AVQPoint@@XZ
       4206 106D 00488460 ?contentsOffset@QAbstractScrollAreaPrivate@@UEBA?AVQPoint@@XZ
       4207 106E 005F5460 ?contentsRect@QGraphicsLayoutItem@@QEBA?AVQRectF@@XZ
       4208 106F 000510A0 ?contentsRect@QLayout@@QEBA?AVQRect@@XZ
       4209 1070 0006F550 ?contentsRect@QWidget@@QEBA?AVQRect@@XZ
       4210 1071 00531870 ?contentsSize@QListView@@IEBA?AVQSize@@XZ
       4211 1072 00059250 ?context@QShortcut@@QEAA?AW4ShortcutContext@Qt@@XZ
       4212 1073 0065CDB0 ?contextMenu@QSystemTrayIcon@@QEBAPEAVQMenu@@XZ
       4213 1074 00488510 ?contextMenuEvent@QAbstractScrollArea@@MEAAXPEAVQContextMenuEvent@@@Z
       4214 1075 003CD1D0 ?contextMenuEvent@QAbstractSpinBox@@MEAAXPEAVQContextMenuEvent@@@Z
       4215 1076 003E0810 ?contextMenuEvent@QComboBox@@MEAAXPEAVQContextMenuEvent@@@Z
       4216 1077 004BF610 ?contextMenuEvent@QDialog@@MEAAXPEAVQContextMenuEvent@@@Z
       4217 1078 005DB310 ?contextMenuEvent@QGraphicsItem@@MEAAXPEAVQGraphicsSceneContextMenuEvent@@@Z
       4218 1079 005F7F40 ?contextMenuEvent@QGraphicsProxyWidget@@MEAAXPEAVQGraphicsSceneContextMenuEvent@@@Z
       4219 107A 00603040 ?contextMenuEvent@QGraphicsScene@@MEAAXPEAVQGraphicsSceneContextMenuEvent@@@Z
       4220 107B 005DB320 ?contextMenuEvent@QGraphicsTextItem@@MEAAXPEAVQGraphicsSceneContextMenuEvent@@@Z
       4221 107C 006247A0 ?contextMenuEvent@QGraphicsView@@MEAAXPEAVQContextMenuEvent@@@Z
       4222 107D 00412570 ?contextMenuEvent@QLabel@@MEAAXPEAVQContextMenuEvent@@@Z
       4223 107E 0041C0C0 ?contextMenuEvent@QLineEdit@@MEAAXPEAVQContextMenuEvent@@@Z
       4224 107F 004262F0 ?contextMenuEvent@QMainWindow@@MEAAXPEAVQContextMenuEvent@@@Z
       4225 1080 0043CD00 ?contextMenuEvent@QMdiSubWindow@@MEAAXPEAVQContextMenuEvent@@@Z
       4226 1081 004A4E60 ?contextMenuEvent@QPlainTextEdit@@MEAAXPEAVQContextMenuEvent@@@Z
       4227 1082 0045A080 ?contextMenuEvent@QScrollBar@@MEAAXPEAVQContextMenuEvent@@@Z
       4228 1083 00474950 ?contextMenuEvent@QTextEdit@@MEAAXPEAVQContextMenuEvent@@@Z
       4229 1084 0006F5F0 ?contextMenuEvent@QWidget@@MEAAXPEAVQContextMenuEvent@@@Z
       4230 1085 0006F600 ?contextMenuPolicy@QWidget@@QEBA?AW4ContextMenuPolicy@Qt@@XZ
       4231 1086 005148A0 ?contiguousSelectionCommand@QAbstractItemViewPrivate@@QEBA?AV?$QFlags@W4SelectionFlag@QItemSelectionModel@@@@AEBVQModelIndex@@PEBVQEvent@@@Z
       4232 1087 0018C610 ?controlPointRect@QPainterPath@@QEBA?AVQRectF@@XZ
       4233 1088 0016F620 ?controlPointRect@QVectorPath@@QEBA?AVQRectF@@XZ
       4234 1089 00051220 ?controlType@QSizePolicy@@QEBA?AW4ControlType@1@XZ
       4235 108A 00054F10 ?controlTypes@QLayoutItem@@QEBA?AV?$QFlags@W4ControlType@QSizePolicy@@@@XZ
       4236 108B 000F5740 ?convertFromImage@QPixmap@@QEAA_NAEBVQImage@@V?$QFlags@W4ImageConversionFlag@Qt@@@@@Z
       4237 108C 00297100 ?convertFromPlainText@Qt@@YA?AVQString@@AEBV2@W4WhiteSpaceMode@1@@Z
       4238 108D 000D6E30 ?convertInPlace@QImageData@@QEAA_NW4Format@QImage@@V?$QFlags@W4ImageConversionFlag@Qt@@@@@Z
       4239 108E 0014CF30 ?convertTo@QColor@@QEBA?AV1@W4Spec@1@@Z
       4240 108F 000D6EC0 ?convertToFormat@QImage@@QEBA?AV1@W4Format@1@AEBV?$QVector@I@@V?$QFlags@W4ImageConversionFlag@Qt@@@@@Z
       4241 1090 000D70B0 ?convertToFormat@QImage@@QEBA?AV1@W4Format@1@V?$QFlags@W4ImageConversionFlag@Qt@@@@@Z
       4242 1091 001550A0 ?convertToPainterPath@QVectorPath@@QEBA?BVQPainterPath@@XZ
       4243 1092 00247F70 ?convertToPostscriptFontFamilyName@QFontEngine@@SA?AVQByteArray@@AEBV2@@Z
       4244 1093 000AFC20 ?converterFromMime@QWindowsMime@@CAPEAV1@AEBUtagFORMATETC@@PEBVQMimeData@@@Z
       4245 1094 000AFCD0 ?converterToMime@QWindowsMime@@CAPEAV1@AEBVQString@@PEAUIDataObject@@@Z
       4246 1095 000FE760 ?convolutionKernel@QPixmapConvolutionFilter@@AEBAPEBNXZ
       4247 1096 005516B0 ?coordinateForItem@QTreeViewPrivate@@QEBAHH@Z
       4248 1097 0014A030 ?coordinateMode@QGradient@@QEBA?AW4CoordinateMode@1@XZ
       4249 1098 00169080 ?coordinateOffset@QPaintEngine@@UEBA?AVQPoint@@XZ
       4250 1099 000D7E80 ?copy@QImage@@QEBA?AV1@AEBVQRect@@@Z
       4251 109A 00110EA0 ?copy@QImage@@QEBA?AV1@HHHH@Z
       4252 109B 00420A40 ?copy@QLineControl@@QEBAXW4Mode@QClipboard@@@Z
       4253 109C 0041C110 ?copy@QLineEdit@@QEBAXXZ
       4254 109D 000F5830 ?copy@QPixmap@@QEBA?AV1@AEBVQRect@@@Z
       4255 109E 00177910 ?copy@QPixmap@@QEBA?AV1@HHHH@Z
       4256 109F 000FB6B0 ?copy@QPixmapData@@UEAAXPEBV1@AEBVQRect@@@Z
       4257 10A0 004A4E70 ?copy@QPlainTextEdit@@QEAAXXZ
       4258 10A1 00103800 ?copy@QRasterPixmapData@@UEAAXPEBVQPixmapData@@AEBVQRect@@@Z
       4259 10A2 001C60D0 ?copy@QRegion@@AEBA?AV1@XZ
       4260 10A3 002356F0 ?copy@QRuntimePixmapData@@UEAAXPEBVQPixmapData@@AEBVQRect@@@Z
       4261 10A4 00266EB0 ?copy@QTextControl@@QEAAXXZ
       4262 10A5 00474960 ?copy@QTextEdit@@QEAAXXZ
       4263 10A6 004A4E80 ?copyAvailable@QPlainTextEdit@@IEAAX_N@Z
       4264 10A7 00266F00 ?copyAvailable@QTextControl@@IEAAX_N@Z
       4265 10A8 00474970 ?copyAvailable@QTextEdit@@IEAAX_N@Z
       4266 10A9 001B7A30 ?copyCount@QPrinter@@QEBAHXZ
       4267 10AA 00671E10 ?copyDataTo@QMatrix4x4@@QEBAXPEAN@Z
       4268 10AB 00107660 ?copyFrom@QVolatileImage@@QEAAXPEAV1@AEBVQRect@@@Z
       4269 10AC 005075B0 ?copyText@QAccessibleSimpleEditableTextInterface@@UEAAXHH@Z
       4270 10AD 00426460 ?corner@QMainWindow@@QEBA?AW4DockWidgetArea@Qt@@W4Corner@3@@Z
       4271 10AE 00429FA0 ?corner@QMainWindowLayout@@QEBA?AW4DockWidgetArea@Qt@@W4Corner@3@@Z
       4272 10AF 00488520 ?cornerWidget@QAbstractScrollArea@@QEBAPEAVQWidget@@XZ
       4273 10B0 00452920 ?cornerWidget@QMenuBar@@QEBAPEAVQWidget@@W4Corner@Qt@@@Z
       4274 10B1 004714E0 ?cornerWidget@QTabWidget@@QEBAPEAVQWidget@@W4Corner@Qt@@@Z
       4275 10B2 0064D3A0 ?correctEdgeDirection@QGraphicsAnchorLayoutPrivate@@QEAAXAEAPEAVQGraphicsLayoutItem@@AEAW4AnchorPoint@Qt@@01@Z
       4276 10B3 003CD4A0 ?correctionMode@QAbstractSpinBox@@QEBA?AW4CorrectionMode@1@XZ
       4277 10B4 003384D0 ?count@?$QList@VQItemSelectionRange@@@@QEBAHAEBVQItemSelectionRange@@@Z
       4278 10B5 00338560 ?count@?$QList@VQItemSelectionRange@@@@QEBAHXZ
       4279 10B6 00034670 ?count@QBoxLayout@@UEBAHXZ
       4280 10B7 003E0880 ?count@QComboBox@@QEBAHXZ
       4281 10B8 003F90E0 ?count@QDockWidgetLayout@@UEBAHXZ
       4282 10B9 00042780 ?count@QFormLayout@@UEBAHXZ
       4283 10BA 0065B270 ?count@QGraphicsAnchorLayout@@UEBAHXZ
       4284 10BB 005CDDD0 ?count@QGraphicsGridLayout@@UEBAHXZ
       4285 10BC 005F6D60 ?count@QGraphicsLinearLayout@@UEBAHXZ
       4286 10BD 00048580 ?count@QGridLayout@@UEBAHXZ
       4287 10BE 005230D0 ?count@QHeaderView@@QEBAHXZ
       4288 10BF 0003FFB0 ?count@QKeyEvent@@QEBAHXZ
       4289 10C0 0004D970 ?count@QKeySequence@@QEBAIXZ
       4290 10C1 00577EA0 ?count@QListWidget@@QEBAHXZ
       4291 10C2 00429FB0 ?count@QMainWindowLayout@@UEBAHXZ
       4292 10C3 00461CE0 ?count@QSplitter@@QEBAHXZ
       4293 10C4 0005D5F0 ?count@QStackedLayout@@UEBAHXZ
       4294 10C5 00465ED0 ?count@QStackedWidget@@QEBAHXZ
       4295 10C6 004694D0 ?count@QTabBar@@QEBAHXZ
       4296 10C7 00471500 ?count@QTabWidget@@QEBAHXZ
       4297 10C8 002D6330 ?count@QTextList@@QEBAHXZ
       4298 10C9 00482720 ?count@QToolBox@@QEBAHXZ
       4299 10CA 0066A200 ?count@QUndoStack@@QEBAHXZ
       4300 10CB 002EFF40 ?count@QZipReader@@QEBAHXZ
       4301 10CC 00177970 ?create@PixmapFragment@QPainter@@SA?AV12@AEBVQPointF@@AEBVQRectF@@NNNN@Z
       4302 10CD 00089DA0 ?create@QGestureRecognizer@@UEAAPEAVQGesture@@PEAVQObject@@@Z
       4303 10CE 000D86E0 ?create@QImageData@@SAPEAU1@AEBVQSize@@W4Format@QImage@@H@Z
       4304 10CF 000D89E0 ?create@QImageData@@SAPEAU1@PEAEHHHW4Format@QImage@@_N@Z
       4305 10D0 005C9A50 ?create@QInputContextFactory@@SAPEAVQInputContext@@AEBVQString@@PEAVQObject@@@Z
       4306 10D1 000FB710 ?create@QPixmapData@@SAPEAV1@HHW4PixelType@1@@Z
       4307 10D2 00308950 ?create@QStyleFactory@@SAPEAVQStyle@@AEBVQString@@@Z
       4308 10D3 0006F620 ?create@QWidget@@IEAAXPEAUHWND__@@_N1@Z
       4309 10D4 0006F990 ?create@QWidgetBackingStoreTracker@@QEAAXPEAVQWidget@@@Z
       4310 10D5 00097830 ?createAction@QSoftKeyManager@@SAPEAVQAction@@W4StandardSoftKey@1@PEAVQWidget@@@Z
       4311 10D6 00068C00 ?createAction@QWhatsThis@@SAPEAVQAction@@PEAVQObject@@@Z
       4312 10D7 000D8B20 ?createAlphaMask@QImage@@QEBA?AV1@V?$QFlags@W4ImageConversionFlag@Qt@@@@@Z
       4313 10D8 002D7190 ?createArchive@QTextOdfWriter@@QEBA_NXZ
       4314 10D9 00022950 ?createCache@QTextureGlyphCache@@QEAAXHH@Z
       4315 10DA 0064D550 ?createCenterAnchors@QGraphicsAnchorLayoutPrivate@@QEAAXPEAVQGraphicsLayoutItem@@W4AnchorPoint@Qt@@@Z
       4316 10DB 005C3E80 ?createColumn@QColumnView@@MEAAPEAVQAbstractItemView@@AEBVQModelIndex@@@Z
       4317 10DC 005C3F40 ?createColumn@QColumnViewPrivate@@QEAAPEAVQAbstractItemView@@AEBVQModelIndex@@_N@Z
       4318 10DD 000FB770 ?createCompatiblePixmapData@QPixmapData@@UEBAPEAV1@XZ
       4319 10DE 001038A0 ?createCompatiblePixmapData@QRasterPixmapData@@UEBAPEAVQPixmapData@@XZ
       4320 10DF 00235790 ?createCompatiblePixmapData@QRuntimePixmapData@@UEBAPEAVQPixmapData@@XZ
       4321 10E0 0025B4A0 ?createDatabase@QFontDatabase@@CAXXZ
       4322 10E1 0015E450 ?createDefaultPixmapData@QGraphicsSystem@@SAPEAVQPixmapData@@W4PixelType@2@@Z
       4323 10E2 0006F9F0 ?createDefaultWindowSurface@QWidgetPrivate@@QEAAPEAVQWindowSurface@@XZ
       4324 10E3 000B3340 ?createDefaultWindowSurface_sys@QWidgetPrivate@@QEAAPEAVQWindowSurface@@XZ
       4325 10E4 0055E6E0 ?createEditor@QAbstractItemDelegate@@UEBAPEAVQWidget@@PEAV2@AEBVQStyleOptionViewItem@@AEBVQModelIndex@@@Z
       4326 10E5 0055F1C0 ?createEditor@QItemDelegate@@UEBAPEAVQWidget@@PEAV2@AEBVQStyleOptionViewItem@@AEBVQModelIndex@@@Z
       4327 10E6 005AD290 ?createEditor@QItemEditorFactory@@UEBAPEAVQWidget@@W4Type@QVariant@@PEAV2@@Z
       4328 10E7 005C7DD0 ?createEditor@QStyledItemDelegate@@UEBAPEAVQWidget@@PEAV2@AEBVQStyleOptionViewItem@@AEBVQModelIndex@@@Z
       4329 10E8 0009A380 ?createEventDispatcher@QApplicationPrivate@@UEAAXXZ
       4330 10E9 0003FFC0 ?createExtendedKeyEvent@QKeyEvent@@SAPEAV1@W4Type@QEvent@@HV?$QFlags@W4KeyboardModifier@Qt@@@@IIIAEBVQString@@_NG@Z
       4331 10EA 00040080 ?createExtendedMouseEvent@QMouseEvent@@SAPEAV1@W4Type@QEvent@@AEBVQPointF@@AEBVQPoint@@W4MouseButton@Qt@@V?$QFlags@W4MouseButton@Qt@@@@V?$QFlags@W4KeyboardModifier@Qt@@@@@Z
       4332 10EB 0006FAB0 ?createExtra@QWidgetPrivate@@QEAAXXZ
       4333 10EC 00461D00 ?createHandle@QSplitter@@MEAAPEAVQSplitterHandle@@XZ
       4334 10ED 000D8CC0 ?createHeuristicMask@QImage@@QEBA?AV1@_N@Z
       4335 10EE 000F5930 ?createHeuristicMask@QPixmap@@QEBA?AVQBitmap@@_N@Z
       4336 10EF 0064D980 ?createItemEdges@QGraphicsAnchorLayoutPrivate@@QEAAXPEAVQGraphicsLayoutItem@@@Z
       4337 10F0 00603280 ?createItemGroup@QGraphicsScene@@QEAAPEAVQGraphicsItemGroup@@AEBV?$QList@PEAVQGraphicsItem@@@@@Z
       4338 10F1 00097900 ?createKeyedAction@QSoftKeyManager@@SAPEAVQAction@@W4StandardSoftKey@1@W4Key@Qt@@PEAVQWidget@@@Z
       4339 10F2 0064DAD0 ?createLayoutEdges@QGraphicsAnchorLayoutPrivate@@QEAAXXZ
       4340 10F3 0027FFE0 ?createLine@QTextLayout@@QEAA?AVQTextLine@@XZ
       4341 10F4 002C4350 ?createList@QTextCursor@@QEAAPEAVQTextList@@AEBVQTextListFormat@@@Z
       4342 10F5 002C4460 ?createList@QTextCursor@@QEAAPEAVQTextList@@W4Style@QTextListFormat@@@Z
       4343 10F6 000D9350 ?createMaskFromColor@QImage@@QEBA?AV1@IW4MaskMode@Qt@@@Z
       4344 10F7 000F59C0 ?createMaskFromColor@QPixmap@@QEBA?AVQBitmap@@AEBVQColor@@@Z
       4345 10F8 000F59F0 ?createMaskFromColor@QPixmap@@QEBA?AVQBitmap@@AEBVQColor@@W4MaskMode@Qt@@@Z
       4346 10F9 004C9260 ?createMenuActions@QFileDialogPrivate@@QEAAXXZ
       4347 10FA 004A4EC0 ?createMimeDataFromSelection@QPlainTextEdit@@MEBAPEAVQMimeData@@XZ
       4348 10FB 00267070 ?createMimeDataFromSelection@QTextControl@@UEBAPEAVQMimeData@@XZ
       4349 10FC 00474AF0 ?createMimeDataFromSelection@QTextEdit@@MEBAPEAVQMimeData@@XZ
       4350 10FD 00297560 ?createObject@QTextDocument@@MEAAPEAVQTextObject@@AEBVQTextFormat@@@Z
       4351 10FE 002A2910 ?createObject@QTextDocumentPrivate@@QEAAPEAVQTextObject@@AEBVQTextFormat@@H@Z
       4352 10FF 0028C1F0 ?createObjectIndex@QTextFormatCollection@@QEAAHAEBVQTextFormat@@@Z
       4353 1100 0015E490 ?createPixmapData@QGraphicsSystem@@UEAAPEAVQPixmapData@@PEAV2@@Z
       4354 1101 00103910 ?createPixmapForImage@QRasterPixmapData@@IEAAXAEAVQImage@@V?$QFlags@W4ImageConversionFlag@Qt@@@@_N@Z
       4355 1102 00426470 ?createPopupMenu@QMainWindow@@UEAAPEAVQMenu@@XZ
       4356 1103 005F8130 ?createProxyForChildWidget@QGraphicsProxyWidget@@QEAAPEAV1@PEAVQWidget@@@Z
       4357 1104 0006FC50 ?createRecursively@QWidgetPrivate@@QEAAXXZ
       4358 1105 006680F0 ?createRedoAction@QUndoGroup@@QEBAPEAVQAction@@PEAVQObject@@AEBVQString@@@Z
       4359 1106 0066A220 ?createRedoAction@QUndoStack@@QEBAPEAVQAction@@PEAVQObject@@AEBVQString@@@Z
       4360 1107 00051230 ?createSpacerItem@QLayoutPrivate@@SAPEAVQSpacerItem@@PEBVQLayout@@HHW4Policy@QSizePolicy@@1@Z
       4361 1108 0041C130 ?createStandardContextMenu@QLineEdit@@QEAAPEAVQMenu@@XZ
       4362 1109 004A4F20 ?createStandardContextMenu@QPlainTextEdit@@QEAAPEAVQMenu@@XZ
       4363 110A 00267160 ?createStandardContextMenu@QTextControl@@QEAAPEAVQMenu@@AEBVQPointF@@PEAVQWidget@@@Z
       4364 110B 00474B50 ?createStandardContextMenu@QTextEdit@@QEAAPEAVQMenu@@AEBVQPoint@@@Z
       4365 110C 00474B90 ?createStandardContextMenu@QTextEdit@@QEAAPEAVQMenu@@XZ
       4366 110D 0016F770 ?createState@QPaintEngineEx@@UEBAPEAVQPainterState@@PEAV2@@Z
       4367 110E 0018C680 ?createStroke@QPainterPathStroker@@QEBA?AVQPainterPath@@AEBV2@@Z
       4368 110F 000B3380 ?createSysExtra@QWidgetPrivate@@QEAAXXZ
       4369 1110 0006FD00 ?createTLExtra@QWidgetPrivate@@QEAAXXZ
       4370 1111 000B3390 ?createTLSysExtra@QWidgetPrivate@@QEAAXXZ
       4371 1112 001D9260 ?createTextureData@QImageTextureGlyphCache@@UEAAXHH@Z
       4372 1113 004C9740 ?createToolButtons@QFileDialogPrivate@@QEAAXXZ
       4373 1114 00668270 ?createUndoAction@QUndoGroup@@QEBAPEAVQAction@@PEAVQObject@@AEBVQString@@@Z
       4374 1115 0066A3B0 ?createUndoAction@QUndoStack@@QEBAPEAVQAction@@PEAVQObject@@AEBVQString@@@Z
       4375 1116 00085320 ?createWidget@QWidgetAction@@MEAAPEAVQWidget@@PEAV2@@Z
       4376 1117 000512E0 ?createWidgetItem@QLayoutPrivate@@SAPEAVQWidgetItem@@PEBVQLayout@@PEAVQWidget@@@Z
       4377 1118 004C9B70 ?createWidgets@QFileDialogPrivate@@QEAAXXZ
       4378 1119 0006FE00 ?createWinId@QWidget@@QEAAXXZ
       4379 111A 0006FE10 ?createWinId@QWidgetPrivate@@QEAAXPEAUHWND__@@@Z
       4380 111B 000B33E0 ?create_sys@QWidgetPrivate@@QEAAXPEAUHWND__@@_N1@Z
       4381 111C 00085330 ?createdWidgets@QWidgetAction@@IEBA?AV?$QList@PEAVQWidget@@@@XZ
       4382 111D 002EFF70 ?creationPermissions@QZipWriter@@QEBA?AV?$QFlags@W4Permission@QFile@@@@XZ
       4383 111E 001B7B40 ?creator@QPrinter@@QEBA?AVQString@@XZ
       4384 111F 004DB480 ?critical@QMessageBox@@SA?AW4StandardButton@1@PEAVQWidget@@AEBVQString@@1V?$QFlags@W4StandardButton@QMessageBox@@@@W421@@Z
       4385 1120 004DB4C0 ?critical@QMessageBox@@SAHPEAVQWidget@@AEBVQString@@1111HH@Z
       4386 1121 004DB510 ?critical@QMessageBox@@SAHPEAVQWidget@@AEBVQString@@1HHH@Z
       4387 1122 00022BD0 ?critical@QMessageBox@@SAHPEAVQWidget@@AEBVQString@@1W4StandardButton@1@2@Z
       4388 1123 00676C70 ?crossProduct@QVector3D@@SA?AV1@AEBV1@0@Z
       4389 1124 0018C950 ?cubicTo@QPainterPath@@QEAAXAEBVQPointF@@00@Z
       4390 1125 0018CC40 ?cubicTo@QPainterPath@@QEAAXNNNNNN@Z
       4391 1126 00022BF0 ?cubicTo@QStrokerOps@@QEAAXNNNNNN@Z
       4392 1127 002D88C0 ?currentBlock@QSyntaxHighlighter@@IEBA?AVQTextBlock@@XZ
       4393 1128 00292370 ?currentBlock@iterator@QTextFrame@@QEBA?AVQTextBlock@@XZ
       4394 1129 002D88E0 ?currentBlockState@QSyntaxHighlighter@@IEBAHXZ
       4395 112A 002D8900 ?currentBlockUserData@QSyntaxHighlighter@@IEBAPEAVQTextBlockUserData@@XZ
       4396 112B 00581020 ?currentCellChanged@QTableWidget@@IEAAXHHHH@Z
       4397 112C 00514AA0 ?currentChanged@QAbstractItemView@@MEAAXAEBVQModelIndex@@0@Z
       4398 112D 005C4410 ?currentChanged@QColumnView@@MEAAXAEBVQModelIndex@@0@Z
       4399 112E 004CA6B0 ?currentChanged@QFileDialog@@IEAAXAEBVQString@@@Z
       4400 112F 00523900 ?currentChanged@QHeaderView@@MEAAXAEBVQModelIndex@@0@Z
       4401 1130 00568260 ?currentChanged@QItemSelectionModel@@IEAAXAEBVQModelIndex@@0@Z
       4402 1131 00531A10 ?currentChanged@QListView@@MEAAXAEBVQModelIndex@@0@Z
       4403 1132 0067E780 ?currentChanged@QStackedLayout@@IEAAXH@Z
       4404 1133 00685C00 ?currentChanged@QStackedWidget@@IEAAXH@Z
       4405 1134 004694F0 ?currentChanged@QTabBar@@IEAAXH@Z
       4406 1135 00471510 ?currentChanged@QTabWidget@@IEAAXH@Z
       4407 1136 00542D60 ?currentChanged@QTableView@@MEAAXAEBVQModelIndex@@0@Z
       4408 1137 00482740 ?currentChanged@QToolBox@@IEAAXH@Z
       4409 1138 00551810 ?currentChanged@QTreeView@@MEAAXAEBVQModelIndex@@0@Z
       4410 1139 004A4F60 ?currentCharFormat@QPlainTextEdit@@QEBA?AVQTextCharFormat@@XZ
       4411 113A 00267F00 ?currentCharFormat@QTextControl@@QEBA?AVQTextCharFormat@@XZ
       4412 113B 00474BD0 ?currentCharFormat@QTextEdit@@QEBA?AVQTextCharFormat@@XZ
       4413 113C 00267F30 ?currentCharFormatChanged@QTextControl@@IEAAXAEBVQTextCharFormat@@@Z
       4414 113D 00474C00 ?currentCharFormatChanged@QTextEdit@@IEAAXAEBVQTextCharFormat@@@Z
       4415 113E 004B9B80 ?currentColor@QColorDialog@@QEBA?AVQColor@@XZ
       4416 113F 004B9BC0 ?currentColorChanged@QColorDialog@@IEAAXAEBVQColor@@@Z
       4417 1140 00399550 ?currentColorGroup@QPalette@@QEBA?AW4ColorGroup@1@XZ
       4418 1141 00581080 ?currentColumn@QTableWidget@@QEBAHXZ
       4419 1142 0058F320 ?currentColumn@QTreeWidget@@QEBAHXZ
       4420 1143 005682A0 ?currentColumnChanged@QItemSelectionModel@@IEAAXAEBVQModelIndex@@0@Z
       4421 1144 0065FBF0 ?currentCompletion@QCompleter@@QEBA?AVQString@@XZ
       4422 1145 0040DB80 ?currentFont@QFontComboBox@@QEBA?AVQFont@@XZ
       4423 1146 004D3D80 ?currentFont@QFontDialog@@QEBA?AVQFont@@XZ
       4424 1147 00474C30 ?currentFont@QTextEdit@@QEBA?AVQFont@@XZ
       4425 1148 0040DBB0 ?currentFontChanged@QFontComboBox@@IEAAXAEBVQFont@@@Z
       4426 1149 004D3DC0 ?currentFontChanged@QFontDialog@@IEAAXAEBVQFont@@@Z
       4427 114A 002C44E0 ?currentFrame@QTextCursor@@QEBAPEAVQTextFrame@@XZ
       4428 114B 002923D0 ?currentFrame@iterator@QTextFrame@@QEBAPEAV2@XZ
       4429 114C 00101C40 ?currentFrameNumber@QMovie@@QEBAHXZ
       4430 114D 004FA410 ?currentId@QWizard@@QEBAHXZ
       4431 114E 004FA420 ?currentIdChanged@QWizard@@IEAAXH@Z
       4432 114F 00101C50 ?currentImage@QMovie@@QEBA?AVQImage@@XZ
       4433 1150 000E2C90 ?currentImageNumber@QImageIOHandler@@UEBAHXZ
       4434 1151 000E5320 ?currentImageNumber@QImageReader@@QEBAHXZ
       4435 1152 000E2CA0 ?currentImageRect@QImageIOHandler@@UEBA?AVQRect@@XZ
       4436 1153 000E5360 ?currentImageRect@QImageReader@@QEBA?AVQRect@@XZ
       4437 1154 00514CB0 ?currentIndex@QAbstractItemView@@QEBA?AVQModelIndex@@XZ
       4438 1155 003E08C0 ?currentIndex@QComboBox@@QEBAHXZ
       4439 1156 0065FC50 ?currentIndex@QCompleter@@QEBA?AVQModelIndex@@XZ
       4440 1157 005BF9A0 ?currentIndex@QDataWidgetMapper@@QEBAHXZ
       4441 1158 005682E0 ?currentIndex@QItemSelectionModel@@QEBA?AVQModelIndex@@XZ
       4442 1159 0005D610 ?currentIndex@QStackedLayout@@QEBAHXZ
       4443 115A 00465EF0 ?currentIndex@QStackedWidget@@QEBAHXZ
       4444 115B 00469530 ?currentIndex@QTabBar@@QEBAHXZ
       4445 115C 00471550 ?currentIndex@QTabWidget@@QEBAHXZ
       4446 115D 00482780 ?currentIndex@QToolBox@@QEBAHXZ
       4447 115E 003E08E0 ?currentIndexChanged@QComboBox@@IEAAXAEBVQString@@@Z
       4448 115F 003E0910 ?currentIndexChanged@QComboBox@@IEAAXH@Z
       4449 1160 005BF9D0 ?currentIndexChanged@QDataWidgetMapper@@IEAAXH@Z
       4450 1161 00577EE0 ?currentItem@QListWidget@@QEBAPEAVQListWidgetItem@@XZ
       4451 1162 005810A0 ?currentItem@QTableWidget@@QEBAPEAVQTableWidgetItem@@XZ
       4452 1163 0058F340 ?currentItem@QTreeWidget@@QEBAPEAVQTreeWidgetItem@@XZ
       4453 1164 00577F50 ?currentItemChanged@QListWidget@@IEAAXPEAVQListWidgetItem@@0@Z
       4454 1165 00581130 ?currentItemChanged@QTableWidget@@IEAAXPEAVQTableWidgetItem@@0@Z
       4455 1166 0058F3A0 ?currentItemChanged@QTreeWidget@@IEAAXPEAVQTreeWidgetItem@@0@Z
       4456 1167 002C4500 ?currentList@QTextCursor@@QEBAPEAVQTextList@@XZ
       4457 1168 004667E0 ?currentMessage@QStatusBar@@QEBA?AVQString@@XZ
       4458 1169 004AC0A0 ?currentPage@QPrintPreviewWidget@@QEBAHXZ
       4459 116A 004FA460 ?currentPage@QWizard@@QEBAPEAVQWizardPage@@XZ
       4460 116B 003D5CE0 ?currentPageChanged@QCalendarWidget@@IEAAXHH@Z
       4461 116C 00101C80 ?currentPixmap@QMovie@@QEBA?AVQPixmap@@XZ
       4462 116D 00022DD0 ?currentPlatform@QApplicationPrivate@@SAIXZ
       4463 116E 0018CCF0 ?currentPosition@QPainterPath@@QEBA?AVQPointF@@XZ
       4464 116F 00469580 ?currentReselected@QTabBar@@IEAAXXZ
       4465 1170 0065FD90 ?currentRow@QCompleter@@QEBAHXZ
       4466 1171 00577FA0 ?currentRow@QListWidget@@QEBAHXZ
       4467 1172 00581180 ?currentRow@QTableWidget@@QEBAHXZ
       4468 1173 00568330 ?currentRowChanged@QItemSelectionModel@@IEAAXAEBVQModelIndex@@0@Z
       4469 1174 00577FC0 ?currentRowChanged@QListWidget@@IEAAXH@Z
       4470 1175 003ED510 ?currentSection@QDateTimeEdit@@QEBA?AW4Section@1@XZ
       4471 1176 003ED540 ?currentSectionIndex@QDateTimeEdit@@QEBAHXZ
       4472 1177 00431F20 ?currentSubWindow@QMdiArea@@QEBAPEAVQMdiSubWindow@@XZ
       4473 1178 003FF800 ?currentTabId@QDockAreaLayoutInfo@@QEBA_KXZ
       4474 1179 002C4570 ?currentTable@QTextCursor@@QEBAPEAVQTextTable@@XZ
       4475 117A 003E0950 ?currentText@QComboBox@@QEBA?AVQString@@XZ
       4476 117B 00578000 ?currentTextChanged@QListWidget@@IEAAXAEBVQString@@@Z
       4477 117C 004CA6E0 ?currentView@QFileDialogPrivate@@QEBAPEAVQAbstractItemView@@XZ
       4478 117D 0005D620 ?currentWidget@QStackedLayout@@QEBAPEAVQWidget@@XZ
       4479 117E 00465F00 ?currentWidget@QStackedWidget@@QEBAPEAVQWidget@@XZ
       4480 117F 00471560 ?currentWidget@QTabWidget@@QEBAPEAVQWidget@@XZ
       4481 1180 004827A0 ?currentWidget@QToolBox@@QEBAPEAVQWidget@@XZ
       4482 1181 005DB460 ?cursor@QGraphicsItem@@QEBA?AVQCursor@@XZ
       4483 1182 003CD4B0 ?cursor@QLineControl@@QEBAHXZ
       4484 1183 0006FF90 ?cursor@QWidget@@QEBA?AVQCursor@@XZ
       4485 1184 0041CEF0 ?cursorBackward@QLineEdit@@QEAAX_NH@Z
       4486 1185 003CD4C0 ?cursorBlinkPeriod@QLineControl@@QEBAHXZ
       4487 1186 0009A5E0 ?cursorFlashTime@QApplication@@SAHXZ
       4488 1187 004A4F90 ?cursorForPosition@QPlainTextEdit@@QEBA?AVQTextCursor@@AEBVQPoint@@@Z
       4489 1188 00268010 ?cursorForPosition@QTextControl@@QEBA?AVQTextCursor@@AEBVQPointF@@@Z
       4490 1189 00474CB0 ?cursorForPosition@QTextEdit@@QEBA?AVQTextCursor@@AEBVQPoint@@@Z
       4491 118A 003CD4D0 ?cursorForward@QLineControl@@QEAAX_NH@Z
       4492 118B 0041CF10 ?cursorForward@QLineEdit@@QEAAX_NH@Z
       4493 118C 002680A0 ?cursorIsFocusIndicator@QTextControl@@QEBA_NXZ
       4494 118D 003CD5A0 ?cursorMoveStyle@QLineControl@@QEBA?AW4CursorMoveStyle@Qt@@XZ
       4495 118E 0041CF20 ?cursorMoveStyle@QLineEdit@@QEBA?AW4CursorMoveStyle@Qt@@XZ
       4496 118F 00280350 ?cursorMoveStyle@QTextLayout@@QEBA?AW4CursorMoveStyle@Qt@@XZ
       4497 1190 003CD5B0 ?cursorPosition@QLineControl@@QEBAHXZ
       4498 1191 0041CF40 ?cursorPosition@QLineEdit@@QEBAHXZ
       4499 1192 0041CF50 ?cursorPositionAt@QLineEdit@@QEAAHAEBVQPoint@@@Z
       4500 1193 00684060 ?cursorPositionChanged@QLineControl@@IEAAXHH@Z
       4501 1194 0041CF80 ?cursorPositionChanged@QLineEdit@@IEAAXHH@Z
       4502 1195 004A4FF0 ?cursorPositionChanged@QPlainTextEdit@@IEAAXXZ
       4503 1196 00268580 ?cursorPositionChanged@QTextControl@@IEAAXXZ
       4504 1197 0067FEE0 ?cursorPositionChanged@QTextDocument@@IEAAXAEBVQTextCursor@@@Z
       4505 1198 00474D90 ?cursorPositionChanged@QTextEdit@@IEAAXXZ
       4506 1199 00420AF0 ?cursorRect@QLineControl@@QEBA?AVQRect@@XZ
       4507 119A 0041CFD0 ?cursorRect@QLineEdit@@IEBA?AVQRect@@XZ
       4508 119B 004A5010 ?cursorRect@QPlainTextEdit@@QEBA?AVQRect@@AEBVQTextCursor@@@Z
       4509 119C 004A5160 ?cursorRect@QPlainTextEdit@@QEBA?AVQRect@@XZ
       4510 119D 002685A0 ?cursorRect@QTextControl@@QEBA?AVQRectF@@AEBVQTextCursor@@@Z
       4511 119E 00268610 ?cursorRect@QTextControl@@QEBA?AVQRectF@@XZ
       4512 119F 00474DB0 ?cursorRect@QTextEdit@@QEBA?AVQRect@@AEBVQTextCursor@@@Z
       4513 11A0 00474EA0 ?cursorRect@QTextEdit@@QEBA?AVQRect@@XZ
       4514 11A1 003CD5C0 ?cursorToX@QLineControl@@QEBANH@Z
       4515 11A2 003CD600 ?cursorToX@QLineControl@@QEBANXZ
       4516 11A3 00068C40 ?cursorToX@QTextLine@@QEBANHW4Edge@1@@Z
       4517 11A4 00280360 ?cursorToX@QTextLine@@QEBANPEAHW4Edge@1@@Z
       4518 11A5 003CD640 ?cursorWidth@QLineControl@@QEBAHXZ
       4519 11A6 004A5310 ?cursorWidth@QPlainTextDocumentLayout@@QEBAHXZ
       4520 11A7 004A5320 ?cursorWidth@QPlainTextEdit@@QEBAHXZ
       4521 11A8 00268720 ?cursorWidth@QTextControl@@QEBAHXZ
       4522 11A9 002B4C00 ?cursorWidth@QTextDocumentLayout@@QEBAHXZ
       4523 11AA 00474F50 ?cursorWidth@QTextEdit@@QEBAHXZ
       4524 11AB 003CD650 ?cursorWordBackward@QLineControl@@QEAAX_N@Z
       4525 11AC 0041CFF0 ?cursorWordBackward@QLineEdit@@QEAAX_N@Z
       4526 11AD 003CD690 ?cursorWordForward@QLineControl@@QEAAX_N@Z
       4527 11AE 0041D040 ?cursorWordForward@QLineEdit@@QEAAX_N@Z
       4528 11AF 00A9F1DC ?cursor_flash_time@QApplicationPrivate@@2HA
       4529 11B0 0018CDF0 ?curveThreshold@QPainterPathStroker@@QEBANXZ
       4530 11B1 00022DE0 ?curveThreshold@QStrokerOps@@QEBANXZ
       4531 11B2 004FA4E0 ?customButtonClicked@QWizard@@IEAAXH@Z
       4532 11B3 004B9C70 ?customColor@QColorDialog@@SAIH@Z
       4533 11B4 00070080 ?customContextMenuRequested@QWidget@@IEAAXAEBVQPoint@@@Z
       4534 11B5 004B9CA0 ?customCount@QColorDialog@@SAHXZ
       4535 11B6 00022DF0 ?customDpiOverride@QApplication@@QEBAHXZ
       4536 11B7 00A9F1F8 ?customDpiOverride@QApplicationPrivate@@2HA
       4537 11B8 0041D090 ?cut@QLineEdit@@QEAAXXZ
       4538 11B9 004A5330 ?cut@QPlainTextEdit@@QEAAXXZ
       4539 11BA 002687A0 ?cut@QTextControl@@QEAAXXZ
       4540 11BB 00474F60 ?cut@QTextEdit@@QEAAXXZ
       4541 11BC 00507600 ?cutText@QAccessibleSimpleEditableTextInterface@@UEAAXHH@Z
       4542 11BD 0014CFC0 ?cyan@QColor@@QEBAHXZ
       4543 11BE 0014D020 ?cyanF@QColor@@QEBANXZ
       4544 11BF 00068C60 ?d_func@QAbstractButton@@AEAAPEAVQAbstractButtonPrivate@@XZ
       4545 11C0 00068C70 ?d_func@QAbstractButton@@AEBAPEBVQAbstractButtonPrivate@@XZ
       4546 11C1 0000D260 ?d_func@QAbstractGraphicsShapeItem@@AEAAPEAVQAbstractGraphicsShapeItemPrivate@@XZ
       4547 11C2 0000D270 ?d_func@QAbstractGraphicsShapeItem@@AEBAPEBVQAbstractGraphicsShapeItemPrivate@@XZ
       4548 11C3 00338D80 ?d_func@QAbstractItemView@@AEAAPEAVQAbstractItemViewPrivate@@XZ
       4549 11C4 00338D90 ?d_func@QAbstractItemView@@AEBAPEBVQAbstractItemViewPrivate@@XZ
       4550 11C5 001B7BB0 ?d_func@QAbstractPageSetupDialog@@AEAAPEAVQAbstractPageSetupDialogPrivate@@XZ
       4551 11C6 001B7BC0 ?d_func@QAbstractPageSetupDialog@@AEBAPEBVQAbstractPageSetupDialogPrivate@@XZ
       4552 11C7 001B7BD0 ?d_func@QAbstractPrintDialog@@AEAAPEAVQAbstractPrintDialogPrivate@@XZ
       4553 11C8 001B7BE0 ?d_func@QAbstractPrintDialog@@AEBAPEBVQAbstractPrintDialogPrivate@@XZ
       4554 11C9 004AEC10 ?d_func@QAbstractProxyModel@@AEAAPEAVQAbstractProxyModelPrivate@@XZ
       4555 11CA 004AEC20 ?d_func@QAbstractProxyModel@@AEBAPEBVQAbstractProxyModelPrivate@@XZ
       4556 11CB 0000D280 ?d_func@QAbstractScrollArea@@AEAAPEAVQAbstractScrollAreaPrivate@@XZ
       4557 11CC 0000D290 ?d_func@QAbstractScrollArea@@AEBAPEBVQAbstractScrollAreaPrivate@@XZ
       4558 11CD 0000D2A0 ?d_func@QAbstractSlider@@AEAAPEAVQAbstractSliderPrivate@@XZ
       4559 11CE 0000D2B0 ?d_func@QAbstractSlider@@AEBAPEBVQAbstractSliderPrivate@@XZ
       4560 11CF 0000D2C0 ?d_func@QAbstractSpinBox@@AEAAPEAVQAbstractSpinBoxPrivate@@XZ
       4561 11D0 0000D2D0 ?d_func@QAbstractSpinBox@@AEBAPEBVQAbstractSpinBoxPrivate@@XZ
       4562 11D1 00068C80 ?d_func@QAbstractTextDocumentLayout@@AEAAPEAVQAbstractTextDocumentLayoutPrivate@@XZ
       4563 11D2 00068C90 ?d_func@QAbstractTextDocumentLayout@@AEBAPEBVQAbstractTextDocumentLayoutPrivate@@XZ
       4564 11D3 0000D2E0 ?d_func@QAction@@AEAAPEAVQActionPrivate@@XZ
       4565 11D4 0000D2F0 ?d_func@QAction@@AEBAPEBVQActionPrivate@@XZ
       4566 11D5 0000D300 ?d_func@QActionGroup@@AEAAPEAVQActionGroupPrivate@@XZ
       4567 11D6 0000D310 ?d_func@QActionGroup@@AEBAPEBVQActionGroupPrivate@@XZ
       4568 11D7 0000D320 ?d_func@QApplication@@AEAAPEAVQApplicationPrivate@@XZ
       4569 11D8 00022E00 ?d_func@QApplication@@AEBAPEBVQApplicationPrivate@@XZ
       4570 11D9 00670210 ?d_func@QBasicKeyEventTransition@@AEAAPEAVQBasicKeyEventTransitionPrivate@@XZ
       4571 11DA 00670220 ?d_func@QBasicKeyEventTransition@@AEBAPEBVQBasicKeyEventTransitionPrivate@@XZ
       4572 11DB 006708C0 ?d_func@QBasicMouseEventTransition@@AEAAPEAVQBasicMouseEventTransitionPrivate@@XZ
       4573 11DC 006708D0 ?d_func@QBasicMouseEventTransition@@AEBAPEBVQBasicMouseEventTransitionPrivate@@XZ
       4574 11DD 001050E0 ?d_func@QBlittable@@AEAAPEAVQBlittablePrivate@@XZ
       4575 11DE 001050F0 ?d_func@QBlittable@@AEBAPEBVQBlittablePrivate@@XZ
       4576 11DF 00022E10 ?d_func@QBlitterPaintEngine@@AEAAPEAVQBlitterPaintEnginePrivate@@XZ
       4577 11E0 00022E20 ?d_func@QBlitterPaintEngine@@AEBAPEBVQBlitterPaintEnginePrivate@@XZ
       4578 11E1 00034690 ?d_func@QBoxLayout@@AEAAPEAVQBoxLayoutPrivate@@XZ
       4579 11E2 000346A0 ?d_func@QBoxLayout@@AEBAPEBVQBoxLayoutPrivate@@XZ
       4580 11E3 003C72E0 ?d_func@QButtonGroup@@AEAAPEAVQButtonGroupPrivate@@XZ
       4581 11E4 003C72F0 ?d_func@QButtonGroup@@AEBAPEBVQButtonGroupPrivate@@XZ
       4582 11E5 003D5EB0 ?d_func@QCalendarWidget@@AEAAPEAVQCalendarWidgetPrivate@@XZ
       4583 11E6 003D5EC0 ?d_func@QCalendarWidget@@AEBAPEBVQCalendarWidgetPrivate@@XZ
       4584 11E7 00338DA0 ?d_func@QCheckBox@@AEAAPEAVQCheckBoxPrivate@@XZ
       4585 11E8 00338DB0 ?d_func@QCheckBox@@AEBAPEBVQCheckBoxPrivate@@XZ
       4586 11E9 00308BC0 ?d_func@QCleanlooksStyle@@AEAAPEAVQCleanlooksStylePrivate@@XZ
       4587 11EA 00308BD0 ?d_func@QCleanlooksStyle@@AEBAPEBVQCleanlooksStylePrivate@@XZ
       4588 11EB 00022E30 ?d_func@QClipboard@@AEAAPEAVQClipboardPrivate@@XZ
       4589 11EC 00022E40 ?d_func@QClipboard@@AEBAPEBVQClipboardPrivate@@XZ
       4590 11ED 004B9CB0 ?d_func@QColorDialog@@AEAAPEAVQColorDialogPrivate@@XZ
       4591 11EE 004B9CC0 ?d_func@QColorDialog@@AEBAPEBVQColorDialogPrivate@@XZ
       4592 11EF 005C46B0 ?d_func@QColumnView@@AEAAPEAVQColumnViewPrivate@@XZ
       4593 11F0 005C46C0 ?d_func@QColumnView@@AEBAPEBVQColumnViewPrivate@@XZ
       4594 11F1 005C46D0 ?d_func@QColumnViewGrip@@AEAAPEAVQColumnViewGripPrivate@@XZ
       4595 11F2 005C46E0 ?d_func@QColumnViewGrip@@AEBAPEBVQColumnViewGripPrivate@@XZ
       4596 11F3 00338DC0 ?d_func@QComboBox@@AEAAPEAVQComboBoxPrivate@@XZ
       4597 11F4 00338DD0 ?d_func@QComboBox@@AEBAPEBVQComboBoxPrivate@@XZ
       4598 11F5 0035E010 ?d_func@QCommandLinkButton@@AEAAPEAVQCommandLinkButtonPrivate@@XZ
       4599 11F6 0035E020 ?d_func@QCommandLinkButton@@AEBAPEBVQCommandLinkButtonPrivate@@XZ
       4600 11F7 00022E50 ?d_func@QCommonStyle@@AEAAPEAVQCommonStylePrivate@@XZ
       4601 11F8 00022E60 ?d_func@QCommonStyle@@AEBAPEBVQCommonStylePrivate@@XZ
       4602 11F9 003CD6D0 ?d_func@QCompleter@@AEAAPEAVQCompleterPrivate@@XZ
       4603 11FA 003CD6E0 ?d_func@QCompleter@@AEBAPEBVQCompleterPrivate@@XZ
       4604 11FB 005BFA10 ?d_func@QDataWidgetMapper@@AEAAPEAVQDataWidgetMapperPrivate@@XZ
       4605 11FC 005BFA20 ?d_func@QDataWidgetMapper@@AEBAPEBVQDataWidgetMapperPrivate@@XZ
       4606 11FD 003CD6F0 ?d_func@QDateTimeEdit@@AEAAPEAVQDateTimeEditPrivate@@XZ
       4607 11FE 003CD700 ?d_func@QDateTimeEdit@@AEBAPEBVQDateTimeEditPrivate@@XZ
       4608 11FF 000A7010 ?d_func@QDesktopWidget@@AEAAPEAVQDesktopWidgetPrivate@@XZ
       4609 1200 000A7020 ?d_func@QDesktopWidget@@AEBAPEBVQDesktopWidgetPrivate@@XZ
       4610 1201 003F3B10 ?d_func@QDial@@AEAAPEAVQDialPrivate@@XZ
       4611 1202 003F3B20 ?d_func@QDial@@AEBAPEBVQDialPrivate@@XZ
       4612 1203 00022E70 ?d_func@QDialog@@AEAAPEAVQDialogPrivate@@XZ
       4613 1204 00022E80 ?d_func@QDialog@@AEBAPEBVQDialogPrivate@@XZ
       4614 1205 003102E0 ?d_func@QDialogButtonBox@@AEAAPEAVQDialogButtonBoxPrivate@@XZ
       4615 1206 003102F0 ?d_func@QDialogButtonBox@@AEBAPEBVQDialogButtonBoxPrivate@@XZ
       4616 1207 0056ED60 ?d_func@QDirModel@@AEAAPEAVQDirModelPrivate@@XZ
       4617 1208 0056ED70 ?d_func@QDirModel@@AEBAPEBVQDirModelPrivate@@XZ
       4618 1209 00310300 ?d_func@QDockWidget@@AEAAPEAVQDockWidgetPrivate@@XZ
       4619 120A 00310310 ?d_func@QDockWidget@@AEBAPEBVQDockWidgetPrivate@@XZ
       4620 120B 0035E030 ?d_func@QDoubleSpinBox@@AEAAPEAVQDoubleSpinBoxPrivate@@XZ
       4621 120C 0035E040 ?d_func@QDoubleSpinBox@@AEBAPEBVQDoubleSpinBoxPrivate@@XZ
       4622 120D 0000D330 ?d_func@QDoubleValidator@@AEAAPEAVQDoubleValidatorPrivate@@XZ
       4623 120E 0000D340 ?d_func@QDoubleValidator@@AEBAPEBVQDoubleValidatorPrivate@@XZ
       4624 120F 00039990 ?d_func@QDrag@@AEAAPEAVQDragPrivate@@XZ
       4625 1210 000399A0 ?d_func@QDrag@@AEBAPEBVQDragPrivate@@XZ
       4626 1211 004C1E70 ?d_func@QErrorMessage@@AEAAPEAVQErrorMessagePrivate@@XZ
       4627 1212 004C1E80 ?d_func@QErrorMessage@@AEBAPEBVQErrorMessagePrivate@@XZ
       4628 1213 004AEC30 ?d_func@QFileDialog@@AEAAPEAVQFileDialogPrivate@@XZ
       4629 1214 004AEC40 ?d_func@QFileDialog@@AEBAPEBVQFileDialogPrivate@@XZ
       4630 1215 004AEC50 ?d_func@QFileIconProvider@@AEAAPEAVQFileIconProviderPrivate@@XZ
       4631 1216 004AEC60 ?d_func@QFileIconProvider@@AEBAPEBVQFileIconProviderPrivate@@XZ
       4632 1217 004AEC70 ?d_func@QFileSystemModel@@AEAAPEAVQFileSystemModelPrivate@@XZ
       4633 1218 004AEC80 ?d_func@QFileSystemModel@@AEBAPEBVQFileSystemModelPrivate@@XZ
       4634 1219 0035BB60 ?d_func@QFocusFrame@@AEAAPEAVQFocusFramePrivate@@XZ
       4635 121A 0035BB70 ?d_func@QFocusFrame@@AEBAPEBVQFocusFramePrivate@@XZ
       4636 121B 0040DBE0 ?d_func@QFontComboBox@@AEAAPEAVQFontComboBoxPrivate@@XZ
       4637 121C 0040DBF0 ?d_func@QFontComboBox@@AEBAPEBVQFontComboBoxPrivate@@XZ
       4638 121D 004D3F60 ?d_func@QFontDialog@@AEAAPEAVQFontDialogPrivate@@XZ
       4639 121E 004D3F70 ?d_func@QFontDialog@@AEBAPEBVQFontDialogPrivate@@XZ
       4640 121F 000427A0 ?d_func@QFormLayout@@AEAAPEAVQFormLayoutPrivate@@XZ
       4641 1220 000427B0 ?d_func@QFormLayout@@AEBAPEBVQFormLayoutPrivate@@XZ
       4642 1221 0000D350 ?d_func@QFrame@@AEAAPEAVQFramePrivate@@XZ
       4643 1222 0000D360 ?d_func@QFrame@@AEBAPEBVQFramePrivate@@XZ
       4644 1223 0000D370 ?d_func@QGesture@@AEAAPEAVQGesturePrivate@@XZ
       4645 1224 0000D380 ?d_func@QGesture@@AEBAPEBVQGesturePrivate@@XZ
       4646 1225 00040120 ?d_func@QGestureEvent@@AEAAPEAVQGestureEventPrivate@@XZ
       4647 1226 00040130 ?d_func@QGestureEvent@@AEBAPEBVQGestureEventPrivate@@XZ
       4648 1227 0064E540 ?d_func@QGraphicsAnchor@@AEAAPEAVQGraphicsAnchorPrivate@@XZ
       4649 1228 0064E550 ?d_func@QGraphicsAnchor@@AEBAPEBVQGraphicsAnchorPrivate@@XZ
       4650 1229 0064E560 ?d_func@QGraphicsAnchorLayout@@AEAAPEAVQGraphicsAnchorLayoutPrivate@@XZ
       4651 122A 0064E570 ?d_func@QGraphicsAnchorLayout@@AEBAPEBVQGraphicsAnchorLayoutPrivate@@XZ
       4652 122B 0000D390 ?d_func@QGraphicsBlurEffect@@AEAAPEAVQGraphicsBlurEffectPrivate@@XZ
       4653 122C 0000D3A0 ?d_func@QGraphicsBlurEffect@@AEBAPEBVQGraphicsBlurEffectPrivate@@XZ
       4654 122D 0000D3B0 ?d_func@QGraphicsColorizeEffect@@AEAAPEAVQGraphicsColorizeEffectPrivate@@XZ
       4655 122E 0000D3C0 ?d_func@QGraphicsColorizeEffect@@AEBAPEBVQGraphicsColorizeEffectPrivate@@XZ
       4656 122F 0000D3D0 ?d_func@QGraphicsDropShadowEffect@@AEAAPEAVQGraphicsDropShadowEffectPrivate@@XZ
       4657 1230 0000D3E0 ?d_func@QGraphicsDropShadowEffect@@AEBAPEBVQGraphicsDropShadowEffectPrivate@@XZ
       4658 1231 0000D3F0 ?d_func@QGraphicsEffect@@AEAAPEAVQGraphicsEffectPrivate@@XZ
       4659 1232 0000D400 ?d_func@QGraphicsEffect@@AEBAPEBVQGraphicsEffectPrivate@@XZ
       4660 1233 0000D410 ?d_func@QGraphicsEffectSource@@AEAAPEAVQGraphicsEffectSourcePrivate@@XZ
       4661 1234 0000D420 ?d_func@QGraphicsEffectSource@@AEBAPEBVQGraphicsEffectSourcePrivate@@XZ
       4662 1235 0000D430 ?d_func@QGraphicsEllipseItem@@AEAAPEAVQGraphicsEllipseItemPrivate@@XZ
       4663 1236 0000D440 ?d_func@QGraphicsEllipseItem@@AEBAPEBVQGraphicsEllipseItemPrivate@@XZ
       4664 1237 005CDDE0 ?d_func@QGraphicsGridLayout@@AEAAPEAVQGraphicsGridLayoutPrivate@@XZ
       4665 1238 005CDDF0 ?d_func@QGraphicsGridLayout@@AEBAPEBVQGraphicsGridLayoutPrivate@@XZ
       4666 1239 0000D450 ?d_func@QGraphicsItem@@AEAAPEAVQGraphicsItemPrivate@@XZ
       4667 123A 0000D460 ?d_func@QGraphicsItem@@AEBAPEBVQGraphicsItemPrivate@@XZ
       4668 123B 0000D470 ?d_func@QGraphicsItemGroup@@AEAAPEAVQGraphicsItemGroupPrivate@@XZ
       4669 123C 0000D480 ?d_func@QGraphicsItemGroup@@AEBAPEBVQGraphicsItemGroupPrivate@@XZ
       4670 123D 005CDE00 ?d_func@QGraphicsLayout@@AEAAPEAVQGraphicsLayoutPrivate@@XZ
       4671 123E 005CDE10 ?d_func@QGraphicsLayout@@AEBAPEBVQGraphicsLayoutPrivate@@XZ
       4672 123F 0000D490 ?d_func@QGraphicsLayoutItem@@AEAAPEAVQGraphicsLayoutItemPrivate@@XZ
       4673 1240 0000D4A0 ?d_func@QGraphicsLayoutItem@@AEBAPEBVQGraphicsLayoutItemPrivate@@XZ
       4674 1241 0000D4B0 ?d_func@QGraphicsLineItem@@AEAAPEAVQGraphicsLineItemPrivate@@XZ
       4675 1242 0000D4C0 ?d_func@QGraphicsLineItem@@AEBAPEBVQGraphicsLineItemPrivate@@XZ
       4676 1243 005F6D70 ?d_func@QGraphicsLinearLayout@@AEAAPEAVQGraphicsLinearLayoutPrivate@@XZ
       4677 1244 005F6D80 ?d_func@QGraphicsLinearLayout@@AEBAPEBVQGraphicsLinearLayoutPrivate@@XZ
       4678 1245 0000D4D0 ?d_func@QGraphicsOpacityEffect@@AEAAPEAVQGraphicsOpacityEffectPrivate@@XZ
       4679 1246 0000D4E0 ?d_func@QGraphicsOpacityEffect@@AEBAPEBVQGraphicsOpacityEffectPrivate@@XZ
       4680 1247 0000D4F0 ?d_func@QGraphicsPathItem@@AEAAPEAVQGraphicsPathItemPrivate@@XZ
       4681 1248 0000D500 ?d_func@QGraphicsPathItem@@AEBAPEBVQGraphicsPathItemPrivate@@XZ
       4682 1249 0000D510 ?d_func@QGraphicsPixmapItem@@AEAAPEAVQGraphicsPixmapItemPrivate@@XZ
       4683 124A 0000D520 ?d_func@QGraphicsPixmapItem@@AEBAPEBVQGraphicsPixmapItemPrivate@@XZ
       4684 124B 0000D530 ?d_func@QGraphicsPolygonItem@@AEAAPEAVQGraphicsPolygonItemPrivate@@XZ
       4685 124C 0000D540 ?d_func@QGraphicsPolygonItem@@AEBAPEBVQGraphicsPolygonItemPrivate@@XZ
       4686 124D 0000D550 ?d_func@QGraphicsProxyWidget@@AEAAPEAVQGraphicsProxyWidgetPrivate@@XZ
       4687 124E 0000D560 ?d_func@QGraphicsProxyWidget@@AEBAPEBVQGraphicsProxyWidgetPrivate@@XZ
       4688 124F 0000D570 ?d_func@QGraphicsRectItem@@AEAAPEAVQGraphicsRectItemPrivate@@XZ
       4689 1250 0000D580 ?d_func@QGraphicsRectItem@@AEBAPEBVQGraphicsRectItemPrivate@@XZ
       4690 1251 0000D590 ?d_func@QGraphicsRotation@@AEAAPEAVQGraphicsRotationPrivate@@XZ
       4691 1252 0000D5A0 ?d_func@QGraphicsRotation@@AEBAPEBVQGraphicsRotationPrivate@@XZ
       4692 1253 0000D5B0 ?d_func@QGraphicsScale@@AEAAPEAVQGraphicsScalePrivate@@XZ
       4693 1254 0000D5C0 ?d_func@QGraphicsScale@@AEBAPEBVQGraphicsScalePrivate@@XZ
       4694 1255 0000D5D0 ?d_func@QGraphicsScene@@AEAAPEAVQGraphicsScenePrivate@@XZ
       4695 1256 0000D5E0 ?d_func@QGraphicsScene@@AEBAPEBVQGraphicsScenePrivate@@XZ
       4696 1257 005DB4C0 ?d_func@QGraphicsSceneBspTreeIndex@@AEAAPEAVQGraphicsSceneBspTreeIndexPrivate@@XZ
       4697 1258 005DB4D0 ?d_func@QGraphicsSceneBspTreeIndex@@AEBAPEBVQGraphicsSceneBspTreeIndexPrivate@@XZ
       4698 1259 0000D5F0 ?d_func@QGraphicsSceneContextMenuEvent@@AEAAPEAVQGraphicsSceneContextMenuEventPrivate@@XZ
       4699 125A 0000D600 ?d_func@QGraphicsSceneContextMenuEvent@@AEBAPEBVQGraphicsSceneContextMenuEventPrivate@@XZ
       4700 125B 0000D610 ?d_func@QGraphicsSceneDragDropEvent@@AEAAPEAVQGraphicsSceneDragDropEventPrivate@@XZ
       4701 125C 0000D620 ?d_func@QGraphicsSceneDragDropEvent@@AEBAPEBVQGraphicsSceneDragDropEventPrivate@@XZ
       4702 125D 0000D630 ?d_func@QGraphicsSceneEvent@@IEAAPEAVQGraphicsSceneEventPrivate@@XZ
       4703 125E 0000D640 ?d_func@QGraphicsSceneEvent@@IEBAPEBVQGraphicsSceneEventPrivate@@XZ
       4704 125F 0000D650 ?d_func@QGraphicsSceneHelpEvent@@AEAAPEAVQGraphicsSceneHelpEventPrivate@@XZ
       4705 1260 0000D660 ?d_func@QGraphicsSceneHelpEvent@@AEBAPEBVQGraphicsSceneHelpEventPrivate@@XZ
       4706 1261 0000D670 ?d_func@QGraphicsSceneHoverEvent@@AEAAPEAVQGraphicsSceneHoverEventPrivate@@XZ
       4707 1262 0000D680 ?d_func@QGraphicsSceneHoverEvent@@AEBAPEBVQGraphicsSceneHoverEventPrivate@@XZ
       4708 1263 005DB4E0 ?d_func@QGraphicsSceneIndex@@AEAAPEAVQGraphicsSceneIndexPrivate@@XZ
       4709 1264 005DB4F0 ?d_func@QGraphicsSceneIndex@@AEBAPEBVQGraphicsSceneIndexPrivate@@XZ
       4710 1265 0000D690 ?d_func@QGraphicsSceneMouseEvent@@AEAAPEAVQGraphicsSceneMouseEventPrivate@@XZ
       4711 1266 0000D6A0 ?d_func@QGraphicsSceneMouseEvent@@AEBAPEBVQGraphicsSceneMouseEventPrivate@@XZ
       4712 1267 0000D6B0 ?d_func@QGraphicsSceneMoveEvent@@AEAAPEAVQGraphicsSceneMoveEventPrivate@@XZ
       4713 1268 0000D6C0 ?d_func@QGraphicsSceneMoveEvent@@AEBAPEBVQGraphicsSceneMoveEventPrivate@@XZ
       4714 1269 0000D6D0 ?d_func@QGraphicsSceneResizeEvent@@AEAAPEAVQGraphicsSceneResizeEventPrivate@@XZ
       4715 126A 0000D6E0 ?d_func@QGraphicsSceneResizeEvent@@AEBAPEBVQGraphicsSceneResizeEventPrivate@@XZ
       4716 126B 0000D6F0 ?d_func@QGraphicsSceneWheelEvent@@AEAAPEAVQGraphicsSceneWheelEventPrivate@@XZ
       4717 126C 0000D700 ?d_func@QGraphicsSceneWheelEvent@@AEBAPEBVQGraphicsSceneWheelEventPrivate@@XZ
       4718 126D 0000D710 ?d_func@QGraphicsSimpleTextItem@@AEAAPEAVQGraphicsSimpleTextItemPrivate@@XZ
       4719 126E 0000D720 ?d_func@QGraphicsSimpleTextItem@@AEBAPEBVQGraphicsSimpleTextItemPrivate@@XZ
       4720 126F 0000D730 ?d_func@QGraphicsTransform@@AEAAPEAVQGraphicsTransformPrivate@@XZ
       4721 1270 0000D740 ?d_func@QGraphicsTransform@@AEBAPEBVQGraphicsTransformPrivate@@XZ
       4722 1271 0000D750 ?d_func@QGraphicsView@@AEAAPEAVQGraphicsViewPrivate@@XZ
       4723 1272 0000D760 ?d_func@QGraphicsView@@AEBAPEBVQGraphicsViewPrivate@@XZ
       4724 1273 0000D770 ?d_func@QGraphicsWidget@@AEAAPEAVQGraphicsWidgetPrivate@@XZ
       4725 1274 0000D780 ?d_func@QGraphicsWidget@@AEBAPEBVQGraphicsWidgetPrivate@@XZ
       4726 1275 000485B0 ?d_func@QGridLayout@@AEAAPEAVQGridLayoutPrivate@@XZ
       4727 1276 000485C0 ?d_func@QGridLayout@@AEBAPEBVQGridLayoutPrivate@@XZ
       4728 1277 00310320 ?d_func@QGroupBox@@AEAAPEAVQGroupBoxPrivate@@XZ
       4729 1278 00310330 ?d_func@QGroupBox@@AEBAPEBVQGroupBoxPrivate@@XZ
       4730 1279 00338DE0 ?d_func@QHeaderView@@AEAAPEAVQHeaderViewPrivate@@XZ
       4731 127A 00338DF0 ?d_func@QHeaderView@@AEBAPEBVQHeaderViewPrivate@@XZ
       4732 127B 0052E340 ?d_func@QIdentityProxyModel@@AEAAPEAVQIdentityProxyModelPrivate@@XZ
       4733 127C 0052E350 ?d_func@QIdentityProxyModel@@AEBAPEBVQIdentityProxyModelPrivate@@XZ
       4734 127D 0003A5F0 ?d_func@QImageIOHandler@@AEAAPEAVQImageIOHandlerPrivate@@XZ
       4735 127E 0003A600 ?d_func@QImageIOHandler@@AEBAPEBVQImageIOHandlerPrivate@@XZ
       4736 127F 00022E90 ?d_func@QInputContext@@AEAAPEAVQInputContextPrivate@@XZ
       4737 1280 00022EA0 ?d_func@QInputContext@@AEBAPEBVQInputContextPrivate@@XZ
       4738 1281 0035E050 ?d_func@QInputDialog@@AEAAPEAVQInputDialogPrivate@@XZ
       4739 1282 0035E060 ?d_func@QInputDialog@@AEBAPEBVQInputDialogPrivate@@XZ
       4740 1283 003D5ED0 ?d_func@QItemDelegate@@AEAAPEAVQItemDelegatePrivate@@XZ
       4741 1284 003D5EE0 ?d_func@QItemDelegate@@AEBAPEBVQItemDelegatePrivate@@XZ
       4742 1285 00338E00 ?d_func@QItemSelectionModel@@AEAAPEAVQItemSelectionModelPrivate@@XZ
       4743 1286 00338E10 ?d_func@QItemSelectionModel@@AEBAPEBVQItemSelectionModelPrivate@@XZ
       4744 1287 00670230 ?d_func@QKeyEventTransition@@AEAAPEAVQKeyEventTransitionPrivate@@XZ
       4745 1288 00670240 ?d_func@QKeyEventTransition@@AEBAPEBVQKeyEventTransitionPrivate@@XZ
       4746 1289 00415E40 ?d_func@QLCDNumber@@AEAAPEAVQLCDNumberPrivate@@XZ
       4747 128A 00415E50 ?d_func@QLCDNumber@@AEBAPEBVQLCDNumberPrivate@@XZ
       4748 128B 000427C0 ?d_func@QLabel@@AEAAPEAVQLabelPrivate@@XZ
       4749 128C 000427D0 ?d_func@QLabel@@AEBAPEBVQLabelPrivate@@XZ
       4750 128D 00051330 ?d_func@QLayout@@AEAAPEAVQLayoutPrivate@@XZ
       4751 128E 00051340 ?d_func@QLayout@@AEBAPEBVQLayoutPrivate@@XZ
       4752 128F 00268820 ?d_func@QLineEdit@@AEAAPEAVQLineEditPrivate@@XZ
       4753 1290 00268830 ?d_func@QLineEdit@@AEBAPEBVQLineEditPrivate@@XZ
       4754 1291 0035BB80 ?d_func@QListView@@AEAAPEAVQListViewPrivate@@XZ
       4755 1292 0035BB90 ?d_func@QListView@@AEBAPEBVQListViewPrivate@@XZ
       4756 1293 004AEC90 ?d_func@QListWidget@@AEAAPEAVQListWidgetPrivate@@XZ
       4757 1294 004AECA0 ?d_func@QListWidget@@AEBAPEBVQListWidgetPrivate@@XZ
       4758 1295 00338E20 ?d_func@QMainWindow@@AEAAPEAVQMainWindowPrivate@@XZ
       4759 1296 00338E30 ?d_func@QMainWindow@@AEBAPEBVQMainWindowPrivate@@XZ
       4760 1297 00431FC0 ?d_func@QMdiArea@@AEAAPEAVQMdiAreaPrivate@@XZ
       4761 1298 00431FD0 ?d_func@QMdiArea@@AEBAPEBVQMdiAreaPrivate@@XZ
       4762 1299 00338E40 ?d_func@QMdiSubWindow@@AEAAPEAVQMdiSubWindowPrivate@@XZ
       4763 129A 00338E50 ?d_func@QMdiSubWindow@@AEBAPEBVQMdiSubWindowPrivate@@XZ
       4764 129B 0000D790 ?d_func@QMenu@@AEAAPEAVQMenuPrivate@@XZ
       4765 129C 0000D7A0 ?d_func@QMenu@@AEBAPEBVQMenuPrivate@@XZ
       4766 129D 0000D7B0 ?d_func@QMenuBar@@AEAAPEAVQMenuBarPrivate@@XZ
       4767 129E 0000D7C0 ?d_func@QMenuBar@@AEBAPEBVQMenuBarPrivate@@XZ
       4768 129F 00022EB0 ?d_func@QMessageBox@@AEAAPEAVQMessageBoxPrivate@@XZ
       4769 12A0 00022EC0 ?d_func@QMessageBox@@AEBAPEBVQMessageBoxPrivate@@XZ
       4770 12A1 00308BE0 ?d_func@QMotifStyle@@AEAAPEAVQMotifStylePrivate@@XZ
       4771 12A2 00308BF0 ?d_func@QMotifStyle@@AEBAPEBVQMotifStylePrivate@@XZ
       4772 12A3 006708E0 ?d_func@QMouseEventTransition@@AEAAPEAVQMouseEventTransitionPrivate@@XZ
       4773 12A4 006708F0 ?d_func@QMouseEventTransition@@AEBAPEBVQMouseEventTransitionPrivate@@XZ
       4774 12A5 00101CB0 ?d_func@QMovie@@AEAAPEAVQMoviePrivate@@XZ
       4775 12A6 00101CC0 ?d_func@QMovie@@AEBAPEBVQMoviePrivate@@XZ
       4776 12A7 001B7BF0 ?d_func@QPageSetupDialog@@AEAAPEAVQPageSetupDialogPrivate@@XZ
       4777 12A8 001B7C00 ?d_func@QPageSetupDialog@@AEBAPEBVQPageSetupDialogPrivate@@XZ
       4778 12A9 001E9160 ?d_func@QPaintBuffer@@AEAAPEAVQPaintBufferPrivate@@XZ
       4779 12AA 001E9170 ?d_func@QPaintBuffer@@AEBAPEBVQPaintBufferPrivate@@XZ
       4780 12AB 00022ED0 ?d_func@QPaintEngine@@AEAAPEAVQPaintEnginePrivate@@XZ
       4781 12AC 00022EE0 ?d_func@QPaintEngine@@AEBAPEBVQPaintEnginePrivate@@XZ
       4782 12AD 00022EF0 ?d_func@QPaintEngineEx@@AEAAPEAVQPaintEngineExPrivate@@XZ
       4783 12AE 00022F00 ?d_func@QPaintEngineEx@@AEBAPEBVQPaintEngineExPrivate@@XZ
       4784 12AF 0016DA60 ?d_func@QPainter@@AEAAPEAVQPainterPrivate@@XZ
       4785 12B0 00177A30 ?d_func@QPainter@@AEBAPEBVQPainterPrivate@@XZ
       4786 12B1 001552D0 ?d_func@QPainterPath@@AEBAPEAVQPainterPathData@@XZ
       4787 12B2 0018CE00 ?d_func@QPainterPathStroker@@AEAAPEAVQPainterPathStrokerPrivate@@XZ
       4788 12B3 0018CE10 ?d_func@QPainterPathStroker@@AEBAPEBVQPainterPathStrokerPrivate@@XZ
       4789 12B4 0000D7D0 ?d_func@QPanGesture@@AEAAPEAVQPanGesturePrivate@@XZ
       4790 12B5 0000D7E0 ?d_func@QPanGesture@@AEBAPEBVQPanGesturePrivate@@XZ
       4791 12B6 000EB040 ?d_func@QPicture@@AEAAPEAVQPicturePrivate@@XZ
       4792 12B7 000EB050 ?d_func@QPicture@@AEBAPEBVQPicturePrivate@@XZ
       4793 12B8 0000D7F0 ?d_func@QPinchGesture@@AEAAPEAVQPinchGesturePrivate@@XZ
       4794 12B9 0000D800 ?d_func@QPinchGesture@@AEBAPEBVQPinchGesturePrivate@@XZ
       4795 12BA 0000D810 ?d_func@QPixmapBlurFilter@@AEAAPEAVQPixmapBlurFilterPrivate@@XZ
       4796 12BB 0000D820 ?d_func@QPixmapBlurFilter@@AEBAPEBVQPixmapBlurFilterPrivate@@XZ
       4797 12BC 0000D830 ?d_func@QPixmapColorizeFilter@@AEAAPEAVQPixmapColorizeFilterPrivate@@XZ
       4798 12BD 0000D840 ?d_func@QPixmapColorizeFilter@@AEBAPEBVQPixmapColorizeFilterPrivate@@XZ
       4799 12BE 0000D850 ?d_func@QPixmapConvolutionFilter@@AEAAPEAVQPixmapConvolutionFilterPrivate@@XZ
       4800 12BF 0000D860 ?d_func@QPixmapConvolutionFilter@@AEBAPEBVQPixmapConvolutionFilterPrivate@@XZ
       4801 12C0 0000D870 ?d_func@QPixmapDropShadowFilter@@AEAAPEAVQPixmapDropShadowFilterPrivate@@XZ
       4802 12C1 0000D880 ?d_func@QPixmapDropShadowFilter@@AEBAPEBVQPixmapDropShadowFilterPrivate@@XZ
       4803 12C2 0000D890 ?d_func@QPixmapFilter@@AEAAPEAVQPixmapFilterPrivate@@XZ
       4804 12C3 0000D8A0 ?d_func@QPixmapFilter@@AEBAPEBVQPixmapFilterPrivate@@XZ
       4805 12C4 004A5340 ?d_func@QPlainTextDocumentLayout@@AEAAPEAVQPlainTextDocumentLayoutPrivate@@XZ
       4806 12C5 004A5350 ?d_func@QPlainTextDocumentLayout@@AEBAPEBVQPlainTextDocumentLayoutPrivate@@XZ
       4807 12C6 004A5360 ?d_func@QPlainTextEdit@@AEAAPEAVQPlainTextEditPrivate@@XZ
       4808 12C7 004A5370 ?d_func@QPlainTextEdit@@AEBAPEBVQPlainTextEditPrivate@@XZ
       4809 12C8 00308C00 ?d_func@QPlastiqueStyle@@AEAAPEAVQPlastiqueStylePrivate@@XZ
       4810 12C9 00308C10 ?d_func@QPlastiqueStyle@@AEBAPEBVQPlastiqueStylePrivate@@XZ
       4811 12CA 001B7C10 ?d_func@QPrintDialog@@AEAAPEAVQPrintDialogPrivate@@XZ
       4812 12CB 001B7C20 ?d_func@QPrintDialog@@AEBAPEBVQPrintDialogPrivate@@XZ
       4813 12CC 00503CF0 ?d_func@QPrintPreviewDialog@@AEAAPEAVQPrintPreviewDialogPrivate@@XZ
       4814 12CD 00503D00 ?d_func@QPrintPreviewDialog@@AEBAPEBVQPrintPreviewDialogPrivate@@XZ
       4815 12CE 004AC0B0 ?d_func@QPrintPreviewWidget@@AEAAPEAVQPrintPreviewWidgetPrivate@@XZ
       4816 12CF 004AC0C0 ?d_func@QPrintPreviewWidget@@AEBAPEBVQPrintPreviewWidgetPrivate@@XZ
       4817 12D0 0016DA90 ?d_func@QPrinter@@AEAAPEAVQPrinterPrivate@@XZ
       4818 12D1 0016DAA0 ?d_func@QPrinter@@AEBAPEBVQPrinterPrivate@@XZ
       4819 12D2 001A3720 ?d_func@QPrinterInfo@@AEAAPEAVQPrinterInfoPrivate@@XZ
       4820 12D3 001A3730 ?d_func@QPrinterInfo@@AEBAPEBVQPrinterInfoPrivate@@XZ
       4821 12D4 00338E60 ?d_func@QProgressBar@@AEAAPEAVQProgressBarPrivate@@XZ
       4822 12D5 00338E70 ?d_func@QProgressBar@@AEBAPEBVQProgressBarPrivate@@XZ
       4823 12D6 004DEF60 ?d_func@QProgressDialog@@AEAAPEAVQProgressDialogPrivate@@XZ
       4824 12D7 004DEF70 ?d_func@QProgressDialog@@AEBAPEBVQProgressDialogPrivate@@XZ
       4825 12D8 005999D0 ?d_func@QProxyModel@@AEAAPEAVQProxyModelPrivate@@XZ
       4826 12D9 005999E0 ?d_func@QProxyModel@@AEBAPEBVQProxyModelPrivate@@XZ
       4827 12DA 0032BF30 ?d_func@QProxyStyle@@AEAAPEAVQProxyStylePrivate@@XZ
       4828 12DB 0032BF40 ?d_func@QProxyStyle@@AEBAPEBVQProxyStylePrivate@@XZ
       4829 12DC 0035BBA0 ?d_func@QPushButton@@AEAAPEAVQPushButtonPrivate@@XZ
       4830 12DD 0035BBB0 ?d_func@QPushButton@@AEBAPEBVQPushButtonPrivate@@XZ
       4831 12DE 00338E80 ?d_func@QRadioButton@@AEAAPEAVQRadioButtonPrivate@@XZ
       4832 12DF 00338E90 ?d_func@QRadioButton@@AEBAPEBVQRadioButtonPrivate@@XZ
       4833 12E0 0009A610 ?d_func@QRasterWindowSurface@@AEAAPEAVQRasterWindowSurfacePrivate@@XZ
       4834 12E1 0009A620 ?d_func@QRasterWindowSurface@@AEBAPEBVQRasterWindowSurfacePrivate@@XZ
       4835 12E2 0000D8B0 ?d_func@QRubberBand@@AEAAPEAVQRubberBandPrivate@@XZ
       4836 12E3 0000D8C0 ?d_func@QRubberBand@@AEBAPEBVQRubberBandPrivate@@XZ
       4837 12E4 0000D8D0 ?d_func@QScrollArea@@AEAAPEAVQScrollAreaPrivate@@XZ
       4838 12E5 0000D8E0 ?d_func@QScrollArea@@AEBAPEBVQScrollAreaPrivate@@XZ
       4839 12E6 0009A630 ?d_func@QScrollBar@@AEAAPEAVQScrollBarPrivate@@XZ
       4840 12E7 0009A640 ?d_func@QScrollBar@@AEBAPEBVQScrollBarPrivate@@XZ
       4841 12E8 00022F10 ?d_func@QSessionManager@@AEAAPEAVQSessionManagerPrivate@@XZ
       4842 12E9 00022F20 ?d_func@QSessionManager@@AEBAPEBVQSessionManagerPrivate@@XZ
       4843 12EA 0004D9A0 ?d_func@QShortcut@@AEAAPEAVQShortcutPrivate@@XZ
       4844 12EB 0004D9B0 ?d_func@QShortcut@@AEBAPEBVQShortcutPrivate@@XZ
       4845 12EC 00051350 ?d_func@QSizeGrip@@AEAAPEAVQSizeGripPrivate@@XZ
       4846 12ED 00051360 ?d_func@QSizeGrip@@AEBAPEBVQSizeGripPrivate@@XZ
       4847 12EE 0000D8F0 ?d_func@QSlider@@AEAAPEAVQSliderPrivate@@XZ
       4848 12EF 0000D900 ?d_func@QSlider@@AEBAPEBVQSliderPrivate@@XZ
       4849 12F0 000700B0 ?d_func@QSoftKeyManager@@AEAAPEAVQSoftKeyManagerPrivate@@XZ
       4850 12F1 000700C0 ?d_func@QSoftKeyManager@@AEBAPEBVQSoftKeyManagerPrivate@@XZ
       4851 12F2 005A5890 ?d_func@QSortFilterProxyModel@@AEAAPEAVQSortFilterProxyModelPrivate@@XZ
       4852 12F3 005A58A0 ?d_func@QSortFilterProxyModel@@AEBAPEBVQSortFilterProxyModelPrivate@@XZ
       4853 12F4 000B2B70 ?d_func@QSound@@AEAAPEAVQSoundPrivate@@XZ
       4854 12F5 000B2B80 ?d_func@QSound@@AEBAPEBVQSoundPrivate@@XZ
       4855 12F6 0035E070 ?d_func@QSpinBox@@AEAAPEAVQSpinBoxPrivate@@XZ
       4856 12F7 0035E080 ?d_func@QSpinBox@@AEBAPEBVQSpinBoxPrivate@@XZ
       4857 12F8 004604E0 ?d_func@QSplashScreen@@AEAAPEAVQSplashScreenPrivate@@XZ
       4858 12F9 004604F0 ?d_func@QSplashScreen@@AEBAPEBVQSplashScreenPrivate@@XZ
       4859 12FA 0035BBC0 ?d_func@QSplitter@@AEAAPEAVQSplitterPrivate@@XZ
       4860 12FB 0035BBD0 ?d_func@QSplitter@@AEBAPEBVQSplitterPrivate@@XZ
       4861 12FC 0035BBE0 ?d_func@QSplitterHandle@@AEAAPEAVQSplitterHandlePrivate@@XZ
       4862 12FD 0035BBF0 ?d_func@QSplitterHandle@@AEBAPEBVQSplitterHandlePrivate@@XZ
       4863 12FE 0005D660 ?d_func@QStackedLayout@@AEAAPEAVQStackedLayoutPrivate@@XZ
       4864 12FF 0005D670 ?d_func@QStackedLayout@@AEBAPEBVQStackedLayoutPrivate@@XZ
       4865 1300 00369710 ?d_func@QStackedWidget@@AEAAPEAVQStackedWidgetPrivate@@XZ
       4866 1301 00369720 ?d_func@QStackedWidget@@AEBAPEBVQStackedWidgetPrivate@@XZ
       4867 1302 003E09F0 ?d_func@QStandardItem@@AEAAPEAVQStandardItemPrivate@@XZ
       4868 1303 003E0A00 ?d_func@QStandardItem@@AEBAPEBVQStandardItemPrivate@@XZ
       4869 1304 003E0A10 ?d_func@QStandardItemModel@@AEAAPEAVQStandardItemModelPrivate@@XZ
       4870 1305 003E0A20 ?d_func@QStandardItemModel@@AEBAPEBVQStandardItemModelPrivate@@XZ
       4871 1306 00338EA0 ?d_func@QStatusBar@@AEAAPEAVQStatusBarPrivate@@XZ
       4872 1307 00338EB0 ?d_func@QStatusBar@@AEBAPEBVQStatusBarPrivate@@XZ
       4873 1308 003077D0 ?d_func@QStyle@@AEAAPEAVQStylePrivate@@XZ
       4874 1309 003077E0 ?d_func@QStyle@@AEBAPEBVQStylePrivate@@XZ
       4875 130A 00022F30 ?d_func@QStyleSheetStyle@@AEAAPEAVQStyleSheetStylePrivate@@XZ
       4876 130B 00022F40 ?d_func@QStyleSheetStyle@@AEBAPEBVQStyleSheetStylePrivate@@XZ
       4877 130C 004AECB0 ?d_func@QStyledItemDelegate@@AEAAPEAVQStyledItemDelegatePrivate@@XZ
       4878 130D 004AECC0 ?d_func@QStyledItemDelegate@@AEBAPEBVQStyledItemDelegatePrivate@@XZ
       4879 130E 0000D910 ?d_func@QSwipeGesture@@AEAAPEAVQSwipeGesturePrivate@@XZ
       4880 130F 0000D920 ?d_func@QSwipeGesture@@AEBAPEBVQSwipeGesturePrivate@@XZ
       4881 1310 002D8920 ?d_func@QSyntaxHighlighter@@AEAAPEAVQSyntaxHighlighterPrivate@@XZ
       4882 1311 002D8930 ?d_func@QSyntaxHighlighter@@AEBAPEBVQSyntaxHighlighterPrivate@@XZ
       4883 1312 0065CDC0 ?d_func@QSystemTrayIcon@@AEAAPEAVQSystemTrayIconPrivate@@XZ
       4884 1313 0065CDD0 ?d_func@QSystemTrayIcon@@AEBAPEBVQSystemTrayIconPrivate@@XZ
       4885 1314 0000D930 ?d_func@QTabBar@@AEAAPEAVQTabBarPrivate@@XZ
       4886 1315 0000D940 ?d_func@QTabBar@@AEBAPEBVQTabBarPrivate@@XZ
       4887 1316 0000D950 ?d_func@QTabWidget@@AEAAPEAVQTabWidgetPrivate@@XZ
       4888 1317 0000D960 ?d_func@QTabWidget@@AEBAPEBVQTabWidgetPrivate@@XZ
       4889 1318 0035E090 ?d_func@QTableView@@AEAAPEAVQTableViewPrivate@@XZ
       4890 1319 0035E0A0 ?d_func@QTableView@@AEBAPEBVQTableViewPrivate@@XZ
       4891 131A 005811A0 ?d_func@QTableWidget@@AEAAPEAVQTableWidgetPrivate@@XZ
       4892 131B 005811B0 ?d_func@QTableWidget@@AEBAPEBVQTableWidgetPrivate@@XZ
       4893 131C 0000D970 ?d_func@QTapAndHoldGesture@@AEAAPEAVQTapAndHoldGesturePrivate@@XZ
       4894 131D 0000D980 ?d_func@QTapAndHoldGesture@@AEBAPEBVQTapAndHoldGesturePrivate@@XZ
       4895 131E 0000D990 ?d_func@QTapGesture@@AEAAPEAVQTapGesturePrivate@@XZ
       4896 131F 0000D9A0 ?d_func@QTapGesture@@AEBAPEBVQTapGesturePrivate@@XZ
       4897 1320 00068CA0 ?d_func@QTextBlockGroup@@AEAAPEAVQTextBlockGroupPrivate@@XZ
       4898 1321 00068CB0 ?d_func@QTextBlockGroup@@AEBAPEBVQTextBlockGroupPrivate@@XZ
       4899 1322 002CFD20 ?d_func@QTextBrowser@@AEAAPEAVQTextBrowserPrivate@@XZ
       4900 1323 002CFD30 ?d_func@QTextBrowser@@AEBAPEBVQTextBrowserPrivate@@XZ
       4901 1324 00268840 ?d_func@QTextControl@@AEAAPEAVQTextControlPrivate@@XZ
       4902 1325 00268850 ?d_func@QTextControl@@AEBAPEBVQTextControlPrivate@@XZ
       4903 1326 0005EA80 ?d_func@QTextDocument@@AEAAPEAVQTextDocumentPrivate@@XZ
       4904 1327 0005EA90 ?d_func@QTextDocument@@AEBAPEBVQTextDocumentPrivate@@XZ
       4905 1328 00068CC0 ?d_func@QTextDocumentLayout@@AEAAPEAVQTextDocumentLayoutPrivate@@XZ
       4906 1329 00068CD0 ?d_func@QTextDocumentLayout@@AEBAPEBVQTextDocumentLayoutPrivate@@XZ
       4907 132A 00268860 ?d_func@QTextEdit@@AEAAPEAVQTextEditPrivate@@XZ
       4908 132B 00268870 ?d_func@QTextEdit@@AEBAPEBVQTextEditPrivate@@XZ
       4909 132C 00068CE0 ?d_func@QTextFrame@@AEAAPEAVQTextFramePrivate@@XZ
       4910 132D 00068CF0 ?d_func@QTextFrame@@AEBAPEBVQTextFramePrivate@@XZ
       4911 132E 00268880 ?d_func@QTextList@@AEAAPEAVQTextListPrivate@@XZ
       4912 132F 00268890 ?d_func@QTextList@@AEBAPEBVQTextListPrivate@@XZ
       4913 1330 00068D00 ?d_func@QTextObject@@AEAAPEAVQTextObjectPrivate@@XZ
       4914 1331 00068D10 ?d_func@QTextObject@@AEBAPEBVQTextObjectPrivate@@XZ
       4915 1332 002688A0 ?d_func@QTextTable@@AEAAPEAVQTextTablePrivate@@XZ
       4916 1333 002688B0 ?d_func@QTextTable@@AEBAPEBVQTextTablePrivate@@XZ
       4917 1334 00051370 ?d_func@QToolBar@@AEAAPEAVQToolBarPrivate@@XZ
       4918 1335 00051380 ?d_func@QToolBar@@AEBAPEBVQToolBarPrivate@@XZ
       4919 1336 00378940 ?d_func@QToolBox@@AEAAPEAVQToolBoxPrivate@@XZ
       4920 1337 00378950 ?d_func@QToolBox@@AEBAPEBVQToolBoxPrivate@@XZ
       4921 1338 00068D20 ?d_func@QToolButton@@AEAAPEAVQToolButtonPrivate@@XZ
       4922 1339 00068D30 ?d_func@QToolButton@@AEBAPEBVQToolButtonPrivate@@XZ
       4923 133A 0035E0B0 ?d_func@QTreeView@@AEAAPEAVQTreeViewPrivate@@XZ
       4924 133B 0035E0C0 ?d_func@QTreeView@@AEBAPEBVQTreeViewPrivate@@XZ
       4925 133C 0058F400 ?d_func@QTreeWidget@@AEAAPEAVQTreeWidgetPrivate@@XZ
       4926 133D 0058F410 ?d_func@QTreeWidget@@AEBAPEBVQTreeWidgetPrivate@@XZ
       4927 133E 0058F420 ?d_func@QTreeWidgetItemIterator@@AEAAPEAVQTreeWidgetItemIteratorPrivate@@XZ
       4928 133F 0058F430 ?d_func@QTreeWidgetItemIterator@@AEBAPEBVQTreeWidgetItemIteratorPrivate@@XZ
       4929 1340 006683F0 ?d_func@QUndoGroup@@AEAAPEAVQUndoGroupPrivate@@XZ
       4930 1341 00668400 ?d_func@QUndoGroup@@AEBAPEBVQUndoGroupPrivate@@XZ
       4931 1342 00668410 ?d_func@QUndoStack@@AEAAPEAVQUndoStackPrivate@@XZ
       4932 1343 00668420 ?d_func@QUndoStack@@AEBAPEBVQUndoStackPrivate@@XZ
       4933 1344 0066BF60 ?d_func@QUndoView@@AEAAPEAVQUndoViewPrivate@@XZ
       4934 1345 0066BF70 ?d_func@QUndoView@@AEBAPEBVQUndoViewPrivate@@XZ
       4935 1346 0000D9B0 ?d_func@QValidator@@AEAAPEAVQValidatorPrivate@@XZ
       4936 1347 0000D9C0 ?d_func@QValidator@@AEBAPEBVQValidatorPrivate@@XZ
       4937 1348 0000D9D0 ?d_func@QWidget@@AEAAPEAVQWidgetPrivate@@XZ
       4938 1349 0000D9E0 ?d_func@QWidget@@AEBAPEBVQWidgetPrivate@@XZ
       4939 134A 00085380 ?d_func@QWidgetAction@@AEAAPEAVQWidgetActionPrivate@@XZ
       4940 134B 00085390 ?d_func@QWidgetAction@@AEBAPEBVQWidgetActionPrivate@@XZ
       4941 134C 00022F50 ?d_func@QWindowsStyle@@AEAAPEAVQWindowsStylePrivate@@XZ
       4942 134D 00022F60 ?d_func@QWindowsStyle@@AEBAPEBVQWindowsStylePrivate@@XZ
       4943 134E 00308C20 ?d_func@QWindowsVistaStyle@@AEAAPEAVQWindowsVistaStylePrivate@@XZ
       4944 134F 00308C30 ?d_func@QWindowsVistaStyle@@AEBAPEBVQWindowsVistaStylePrivate@@XZ
       4945 1350 00308C40 ?d_func@QWindowsXPStyle@@AEAAPEAVQWindowsXPStylePrivate@@XZ
       4946 1351 00308C50 ?d_func@QWindowsXPStyle@@AEBAPEBVQWindowsXPStylePrivate@@XZ
       4947 1352 00310340 ?d_func@QWizard@@AEAAPEAVQWizardPrivate@@XZ
       4948 1353 00310350 ?d_func@QWizard@@AEBAPEBVQWizardPrivate@@XZ
       4949 1354 00310360 ?d_func@QWizardPage@@AEAAPEAVQWizardPagePrivate@@XZ
       4950 1355 00310370 ?d_func@QWizardPage@@AEBAPEBVQWizardPagePrivate@@XZ
       4951 1356 00378960 ?d_func@QWorkspace@@AEAAPEAVQWorkspacePrivate@@XZ
       4952 1357 00378970 ?d_func@QWorkspace@@AEBAPEBVQWorkspacePrivate@@XZ
       4953 1358 0014D090 ?dark@QColor@@QEBA?AV1@H@Z
       4954 1359 0009A650 ?dark@QPalette@@QEBAAEBVQBrush@@XZ
       4955 135A 00057A00 ?darker@QColor@@QEBA?AV1@H@Z
       4956 135B 00022F70 ?dashOffset@QDashStroker@@QEBANXZ
       4957 135C 0018CE20 ?dashOffset@QPainterPathStroker@@QEBANXZ
       4958 135D 001A9E10 ?dashOffset@QPen@@QEBANXZ
       4959 135E 00022F80 ?dashPattern@QDashStroker@@QEBA?AV?$QVector@N@@XZ
       4960 135F 0018CE30 ?dashPattern@QPainterPathStroker@@QEBA?AV?$QVector@N@@XZ
       4961 1360 001A9E20 ?dashPattern@QPen@@QEBA?AV?$QVector@N@@XZ
       4962 1361 0059A910 ?data@QAbstractProxyModel@@UEBA?AVQVariant@@AEBVQModelIndex@@H@Z
       4963 1362 0000DA30 ?data@QAction@@QEBA?AVQVariant@@XZ
       4964 1363 000A5500 ?data@QClipboardEvent@@QEAAPEAVQEventPrivate@@XZ
       4965 1364 0056EE00 ?data@QDirModel@@UEBA?AVQVariant@@AEBVQModelIndex@@H@Z
       4966 1365 004EA9A0 ?data@QFileSystemModel@@UEBA?AVQVariant@@AEBVQModelIndex@@H@Z
       4967 1366 005DB540 ?data@QGraphicsItem@@QEBA?AVQVariant@@H@Z
       4968 1367 005780B0 ?data@QListModel@@UEBA?AVQVariant@@AEBVQModelIndex@@H@Z
       4969 1368 00578150 ?data@QListWidgetItem@@UEBA?AVQVariant@@H@Z
       4970 1369 0000DA60 ?data@QMatrix4x4@@QEAAPEANXZ
       4971 136A 0000DA70 ?data@QMatrix4x4@@QEBAPEBNXZ
       4972 136B 000F0400 ?data@QPicture@@QEBAPEBDXZ
       4973 136C 00599A20 ?data@QProxyModel@@UEBA?AVQVariant@@AEBVQModelIndex@@H@Z
       4974 136D 005A58B0 ?data@QSortFilterProxyModel@@UEBA?AVQVariant@@AEBVQModelIndex@@H@Z
       4975 136E 005B3C50 ?data@QStandardItem@@UEBA?AVQVariant@@H@Z
       4976 136F 005B3CC0 ?data@QStandardItemModel@@UEBA?AVQVariant@@AEBVQModelIndex@@H@Z
       4977 1370 005BC820 ?data@QStringListModel@@UEBA?AVQVariant@@AEBVQModelIndex@@H@Z
       4978 1371 005812C0 ?data@QTableWidgetItem@@UEBA?AVQVariant@@H@Z
       4979 1372 0058F5B0 ?data@QTreeWidgetItem@@UEBA?AVQVariant@@HH@Z
       4980 1373 0000DA80 ?data@QWidgetBackingStoreTracker@@QEAAPEAVQWidgetBackingStore@@XZ
       4981 1374 00514D20 ?dataChanged@QAbstractItemView@@MEAAXAEBVQModelIndex@@0@Z
       4982 1375 0067D7B0 ?dataChanged@QClipboard@@IEAAXXZ
       4983 1376 00523CC0 ?dataChanged@QHeaderView@@MEAAXAEBVQModelIndex@@0@Z
       4984 1377 00531CC0 ?dataChanged@QListView@@MEAAXAEBVQModelIndex@@0@Z
       4985 1378 00551A20 ?dataChanged@QTreeView@@UEAAXAEBVQModelIndex@@0@Z
       4986 1379 004E1B40 ?dataChanged@QUrlModel@@AEAAXAEBVQModelIndex@@0@Z
       4987 137A 0015D230 ?data_ptr@QBrush@@QEAAAEAV?$QScopedPointer@UQBrushData@@UQBrushDataPointerDeleter@@@@XZ
       4988 137B 0068D640 ?data_ptr@QIcon@@QEAAAEAPEAVQIconPrivate@@XZ
       4989 137C 00103AC0 ?data_ptr@QImage@@QEAAAEAPEAUQImageData@@XZ
       4990 137D 0068D650 ?data_ptr@QKeySequence@@QEAAAEAPEAVQKeySequencePrivate@@XZ
       4991 137E 0016F810 ?data_ptr@QPen@@QEAAAEAPEAVQPenPrivate@@XZ
       4992 137F 000EB0C0 ?data_ptr@QPicture@@QEAAAEAV?$QExplicitlySharedDataPointer@VQPicturePrivate@@@@XZ
       4993 1380 00103AD0 ?data_ptr@QPixmap@@QEAAAEAV?$QExplicitlySharedDataPointer@VQPixmapData@@@@XZ
       4994 1381 003ED5B0 ?date@QDateTimeEdit@@QEBA?AVQDate@@XZ
       4995 1382 003ED5E0 ?dateChanged@QDateTimeEdit@@IEAAXAEBVQDate@@@Z
       4996 1383 003D6210 ?dateEditAcceptDelay@QCalendarWidget@@QEBAHXZ
       4997 1384 003D6310 ?dateTextFormat@QCalendarWidget@@QEBA?AV?$QMap@VQDate@@VQTextCharFormat@@@@XZ
       4998 1385 003D6370 ?dateTextFormat@QCalendarWidget@@QEBA?AVQTextCharFormat@@AEBVQDate@@@Z
       4999 1386 003ED660 ?dateTime@QDateTimeEdit@@QEBA?AVQDateTime@@XZ
       5000 1387 003ED690 ?dateTimeChanged@QDateTimeEdit@@IEAAXAEBVQDateTime@@@Z
       5001 1388 003ED6C0 ?dateTimeFromText@QDateTimeEdit@@MEBA?AVQDateTime@@AEBVQString@@@Z
       5002 1389 00070120 ?deactivateWidgetCleanup@QWidgetPrivate@@QEAAXXZ
       5003 138A 000E53C0 ?decideFormatFromContent@QImageReader@@QEBA_NXZ
       5004 138B 0045E440 ?decimals@QDoubleSpinBox@@QEBAHXZ
       5005 138C 0000DA90 ?decimals@QDoubleValidator@@QEBAHXZ
       5006 138D 002DEEA0 ?declarationsForNode@StyleSelector@QCss@@QEAA?AV?$QVector@UDeclaration@QCss@@@@TNodePtr@12@PEBD@Z
       5007 138E 0004D9C0 ?decodeString@QKeySequence@@CAHAEBVQString@@@Z
       5008 138F 0004D9D0 ?decodeString@QKeySequencePrivate@@SAHAEBVQString@@W4SequenceFormat@QKeySequence@@@Z
       5009 1390 0055F260 ?decoration@QItemDelegate@@IEBA?AVQPixmap@@AEBVQStyleOptionViewItem@@AEBVQVariant@@@Z
       5010 1391 00448DE0 ?defaultAction@QMenu@@QEBAPEAVQAction@@XZ
       5011 1392 00484E20 ?defaultAction@QToolButton@@QEBAPEAVQAction@@XZ
       5012 1393 00523DA0 ?defaultAlignment@QHeaderView@@QEBA?AV?$QFlags@W4AlignmentFlag@Qt@@@@XZ
       5013 1394 004DB540 ?defaultButton@QMessageBox@@QEBAPEAVQPushButton@@XZ
       5014 1395 00297640 ?defaultCursorMoveStyle@QTextDocument@@QEBA?AW4CursorMoveStyle@Qt@@XZ
       5015 1396 000F5AD0 ?defaultDepth@QPixmap@@SAHXZ
       5016 1397 00514E50 ?defaultDropAction@QAbstractItemView@@QEBA?AW4DropAction@Qt@@XZ
       5017 1398 005AD440 ?defaultFactory@QItemEditorFactory@@SAPEBV1@XZ
       5018 1399 002FE270 ?defaultFamily@QFont@@QEBA?AVQString@@XZ
       5019 139A 00297650 ?defaultFont@QTextDocument@@QEBA?AVQFont@@XZ
       5020 139B 000EB0D0 ?defaultFont@QTextDocumentPrivate@@QEBA?AVQFont@@XZ
       5021 139C 000EB100 ?defaultFont@QTextFormatCollection@@QEBA?AVQFont@@XZ
       5022 139D 002343D0 ?defaultPrinter@QPrinterInfo@@SA?AV1@XZ
       5023 139E 00523DB0 ?defaultSectionSize@QHeaderView@@QEBAHXZ
       5024 139F 003391E0 ?defaultSize@QStyleSheetStyle@@AEBA?AVQSize@@PEBVQWidget@@V2@AEBVQRect@@H@Z
       5025 13A0 00297680 ?defaultStyleSheet@QTextDocument@@QEBA?AVQString@@XZ
       5026 13A1 004CA760 ?defaultSuffix@QFileDialog@@QEBA?AVQString@@XZ
       5027 13A2 005DB650 ?defaultTextColor@QGraphicsTextItem@@QEBA?AVQColor@@XZ
       5028 13A3 002976B0 ?defaultTextOption@QTextDocument@@QEBA?AVQTextOption@@XZ
       5029 13A4 000853A0 ?defaultWidget@QWidgetAction@@QEBAPEAVQWidget@@XZ
       5030 13A5 000F0420 ?defineIOHandler@QPictureIO@@SAXPEBD00P6AXPEAV1@@Z2@Z
       5031 13A6 00420C00 ?del@QLineControl@@QEAAXXZ
       5032 13A7 0041D100 ?del@QLineEdit@@QEAAXXZ
       5033 13A8 004AECE0 ?delayedSort@QFileSystemModelPrivate@@QEAAXXZ
       5034 13A9 00514E60 ?delegateForIndex@QAbstractItemViewPrivate@@QEBAPEAVQAbstractItemDelegate@@AEBVQModelIndex@@@Z
       5035 13AA 00514F30 ?delegateRefCount@QAbstractItemViewPrivate@@QEBAHPEBVQAbstractItemDelegate@@@Z
       5036 13AB 003FF8A0 ?deleteAllLayoutItems@QDockAreaLayout@@QEAAXXZ
       5037 13AC 003FF970 ?deleteAllLayoutItems@QDockAreaLayoutInfo@@QEAAXXZ
       5038 13AD 002C45E0 ?deleteChar@QTextCursor@@QEAAXXZ
       5039 13AE 00070160 ?deleteExtra@QWidgetPrivate@@QEAAXXZ
       5040 13AF 0061FA50 ?deleteItem@QGraphicsSceneIndex@@MEAAXPEAVQGraphicsItem@@@Z
       5041 13B0 0064E610 ?deleteLayoutEdges@QGraphicsAnchorLayoutPrivate@@QEAAXXZ
       5042 13B1 004AED20 ?deleteNativeDialog_sys@QFileDialogPrivate@@QEAAXXZ
       5043 13B2 002A29E0 ?deleteObject@QTextDocumentPrivate@@QEAAXPEAVQTextObject@@@Z
       5044 13B3 002C4730 ?deletePreviousChar@QTextCursor@@QEAAXXZ
       5045 13B4 000B40C0 ?deleteSysExtra@QWidgetPrivate@@QEAAXXZ
       5046 13B5 000B40D0 ?deleteTLSysExtra@QWidgetPrivate@@QEAAXXZ
       5047 13B6 00507680 ?deleteText@QAccessibleSimpleEditableTextInterface@@UEAAXHH@Z
       5048 13B7 000853B0 ?deleteWidget@QWidgetAction@@MEAAXPEAVQWidget@@@Z
       5049 13B8 0061E980 ?delta@QGraphicsSceneWheelEvent@@QEBAHXZ
       5050 13B9 00086BF0 ?delta@QPanGesture@@QEBA?AVQPointF@@XZ
       5051 13BA 00023120 ?delta@QWheelEvent@@QEBAHXZ
       5052 13BB 0019BE80 ?delta@QWingedEdge@@AEBANHHH@Z
       5053 13BC 0022D250 ?depth@QColormap@@QEBAHXZ
       5054 13BD 005DB740 ?depth@QGraphicsItemPrivate@@QEBAHXZ
       5055 13BE 000D9770 ?depth@QImage@@QEBAHXZ
       5056 13BF 001F4170 ?depth@QPaintDevice@@QEBAHXZ
       5057 13C0 000F5AE0 ?depth@QPixmap@@QEBAHXZ
       5058 13C1 00023130 ?depth@QPixmapData@@QEBAHXZ
       5059 13C2 00107870 ?depth@QVolatileImage@@QEBAHXZ
       5060 13C3 000F5AF0 ?deref@QPixmap@@AEAAXXZ
       5061 13C4 00023140 ?deref@QStyleSheetStyle@@QEAAXXZ
       5062 13C5 0012FE40 ?derivedAt@QBezier@@QEBA?AVQPointF@@N@Z
       5063 13C6 00255B20 ?descent@QFontMetrics@@QEBAHXZ
       5064 13C7 00255B50 ?descent@QFontMetricsF@@QEBANXZ
       5065 13C8 002FC4E0 ?descent@QRawFont@@QEBANXZ
       5066 13C9 00280CE0 ?descent@QTextInlineObject@@QEBANXZ
       5067 13CA 001690C0 ?descent@QTextItem@@QEBANXZ
       5068 13CB 00280D50 ?descent@QTextLine@@QEBANXZ
       5069 13CC 003EA000 ?description@QCommandLinkButton@@QEBA?AVQString@@XZ
       5070 13CD 000E8710 ?description@QImageWriter@@QEBA?AVQString@@XZ
       5071 13CE 005C9B20 ?description@QInputContextFactory@@SA?AVQString@@AEBV2@@Z
       5072 13CF 000F0520 ?description@QPictureIO@@QEBA?AVQString@@XZ
       5073 13D0 003CD710 ?deselect@QLineControl@@QEAAXXZ
       5074 13D1 0041D110 ?deselect@QLineEdit@@QEAAXXZ
       5075 13D2 00023160 ?desktop@QApplication@@SAPEAVQDesktopWidget@@XZ
       5076 13D3 000231B0 ?desktopSettingsAware@QApplication@@SA_NXZ
       5077 13D4 000231C0 ?desktopStyleKey@QApplicationPrivate@@SA?AVQString@@XZ
       5078 13D5 000B4120 ?destroy@QWidget@@IEAAX_N0@Z
       5079 13D6 000702D0 ?destroy@QWidgetBackingStoreTracker@@QEAAXXZ
       5080 13D7 006038B0 ?destroyItemGroup@QGraphicsScene@@QEAAXPEAVQGraphicsItemGroup@@@Z
       5081 13D8 0068D6D0 ?det@QMatrix@@QEBANXZ
       5082 13D9 0068D6F0 ?det@QTransform@@QEBANXZ
       5083 13DA 00339D30 ?detach@?$QList@VQItemSelectionRange@@@@QEAAXXZ
       5084 13DB 0014A170 ?detach@QBrush@@AEAAXW4BrushStyle@Qt@@@Z
       5085 13DC 0023F5B0 ?detach@QFont@@AEAAXXZ
       5086 13DD 002FDA90 ?detach@QGlyphRun@@AEAAXXZ
       5087 13DE 000C0780 ?detach@QIcon@@QEAAXXZ
       5088 13DF 000D9840 ?detach@QImage@@QEAAXXZ
       5089 13E0 0015EDA0 ?detach@QPainterPath@@AEAAXXZ
       5090 13E1 00057A20 ?detach@QPalette@@AEAAXXZ
       5091 13E2 001AA580 ?detach@QPen@@AEAAXXZ
       5092 13E3 000F0590 ?detach@QPicture@@QEAAXXZ
       5093 13E4 000F5B00 ?detach@QPixmap@@QEAAXXZ
       5094 13E5 001C61C0 ?detach@QRegion@@AEAAXXZ
       5095 13E6 002F9AF0 ?detach@QStaticText@@AEAAXXZ
       5096 13E7 00339F90 ?detachShared@?$QList@VQItemSelectionRange@@@@QEAAXXZ
       5097 13E8 0033A730 ?detach_helper@?$QList@VQItemSelectionRange@@@@AEAAXH@Z
       5098 13E9 0033A7E0 ?detach_helper@?$QList@VQItemSelectionRange@@@@AEAAXXZ
       5099 13EA 0018D000 ?detach_helper@QPainterPath@@AEAAXXZ
       5100 13EB 000F0660 ?detach_helper@QPicture@@AEAAXXZ
       5101 13EC 0033AD70 ?detach_helper_grow@?$QList@VQItemSelectionRange@@@@AEAAPEAUNode@1@HH@Z
       5102 13ED 004DB550 ?detailedText@QMessageBox@@QEBA?AVQString@@XZ
       5103 13EE 00671EA0 ?determinant@QMatrix4x4@@QEBANXZ
       5104 13EF 0015EDE0 ?determinant@QMatrix@@QEBANXZ
       5105 13F0 001DBED0 ?determinant@QTransform@@QEBANXZ
       5106 13F1 000D9DB0 ?devType@QImage@@UEBAHXZ
       5107 13F2 001E95B0 ?devType@QPaintBuffer@@UEBAHXZ
       5108 13F3 000F0750 ?devType@QPaintDevice@@UEBAHXZ
       5109 13F4 000F0760 ?devType@QPicture@@UEBAHXZ
       5110 13F5 000F5C10 ?devType@QPixmap@@UEBAHXZ
       5111 13F6 001B8110 ?devType@QPrinter@@UEBAHXZ
       5112 13F7 00070740 ?devType@QWidget@@UEBAHXZ
       5113 13F8 000E2CC0 ?device@QImageIOHandler@@QEBAPEAVQIODevice@@XZ
       5114 13F9 000E55A0 ?device@QImageReader@@QEBAPEAVQIODevice@@XZ
       5115 13FA 000E8740 ?device@QImageWriter@@QEBAPEAVQIODevice@@XZ
       5116 13FB 00101DF0 ?device@QMovie@@QEBAPEAVQIODevice@@XZ
       5117 13FC 00178180 ?device@QPainter@@QEBAPEAVQPaintDevice@@XZ
       5118 13FD 000244F0 ?device@QTabletEvent@@QEBA?AW4TabletDevice@1@XZ
       5119 13FE 002D71B0 ?device@QTextDocumentWriter@@QEBAPEAVQIODevice@@XZ
       5120 13FF 002F0320 ?device@QZipReader@@QEBAPEAVQIODevice@@XZ
       5121 1400 002F0330 ?device@QZipWriter@@QEBAPEAVQIODevice@@XZ
       5122 1401 001781C0 ?deviceMatrix@QPainter@@QEBAAEBVQMatrix@@XZ
       5123 1402 000D9DC0 ?devicePixelRatio@QImage@@QEBANXZ
       5124 1403 000F5C20 ?devicePixelRatio@QPixmap@@QEBANXZ
       5125 1404 005DC870 ?deviceTransform@QGraphicsItem@@QEBA?AVQTransform@@AEBV2@@Z
       5126 1405 00178210 ?deviceTransform@QPainter@@QEBAAEBVQTransform@@XZ
       5127 1406 000707F0 ?deviceType@QTouchEvent@@QEBA?AW4DeviceType@1@XZ
       5128 1407 004AEDB0 ?dialogResultCode_sys@QFileDialogPrivate@@QEAA?AW4DialogCode@QDialog@@XZ
       5129 1408 00415E60 ?digitCount@QLCDNumber@@QEBAHXZ
       5130 1409 000349D0 ?direction@QBoxLayout@@QEBA?AW4Direction@1@XZ
       5131 140A 004CAA50 ?directory@QFileDialog@@QEBA?AVQDir@@XZ
       5132 140B 004CAB00 ?directoryEntered@QFileDialog@@IEAAXAEBVQString@@@Z
       5133 140C 006873C0 ?directoryLoaded@QFileInfoGatherer@@IEAAXAEBVQString@@@Z
       5134 140D 004EB4C0 ?directoryLoaded@QFileSystemModel@@IEAAXAEBVQString@@@Z
       5135 140E 004AEDE0 ?directory_sys@QFileDialogPrivate@@QEBA?AVQString@@XZ
       5136 140F 00070800 ?dirtyOnScreenWidgetsRemoveAll@QWidgetBackingStore@@AEAAXPEAVQWidget@@@Z
       5137 1410 00238320 ?dirtyRegion@QWidgetBackingStore@@AEBA?AVQRegion@@PEAVQWidget@@@Z
       5138 1411 005154D0 ?dirtyRegionOffset@QAbstractItemView@@IEBA?AVQPoint@@XZ
       5139 1412 00070900 ?dirtyWidgetsRemoveAll@QWidgetBackingStore@@AEAAXPEAVQWidget@@@Z
       5140 1413 00024500 ?discardCommand@QSessionManager@@QEBA?AVQStringList@@XZ
       5141 1414 005DCBB0 ?discardUpdateRequest@QGraphicsItemPrivate@@QEBA_N_N00@Z
       5142 1415 00599A90 ?disconnectFromModel@QProxyModel@@IEBAXPEBVQAbstractItemModel@@@Z
       5143 1416 00024550 ?dispatchEnterLeave@QApplicationPrivate@@SAXPEAVQWidget@@0@Z
       5144 1417 006040D0 ?dispatchHoverEvent@QGraphicsScenePrivate@@QEAA_NPEAVQGraphicsSceneHoverEvent@@@Z
       5145 1418 0000E620 ?dispatchPendingUpdateRequests@QGraphicsViewPrivate@@QEAAXXZ
       5146 1419 00415E70 ?display@QLCDNumber@@QEAAXAEBVQString@@@Z
       5147 141A 00415ED0 ?display@QLCDNumber@@QEAAXH@Z
       5148 141B 00415F60 ?display@QLCDNumber@@QEAAXN@Z
       5149 141C 003ED770 ?displayFormat@QDateTimeEdit@@QEBA?AVQString@@XZ
       5150 141D 00666230 ?displayName@QDesktopServices@@SA?AVQString@@W4StandardLocation@1@@Z
       5151 141E 004EB4F0 ?displayName@QFileSystemModelPrivate@@QEBA?AVQString@@AEBVQModelIndex@@@Z
       5152 141F 005C9BE0 ?displayName@QInputContextFactory@@SA?AVQString@@AEBV2@@Z
       5153 1420 003CD770 ?displayText@QLineControl@@QEBA?AVQString@@XZ
       5154 1421 0041D160 ?displayText@QLineEdit@@QEBA?AVQString@@XZ
       5155 1422 005C7E70 ?displayText@QStyledItemDelegate@@UEBA?AVQString@@AEBVQVariant@@AEBVQLocale@@@Z
       5156 1423 006840A0 ?displayTextChanged@QLineControl@@IEAAXAEBVQString@@@Z
       5157 1424 003ED7F0 ?displayedSections@QDateTimeEdit@@QEBA?AV?$QFlags@W4Section@QDateTimeEdit@@@@XZ
       5158 1425 00676CD0 ?distanceToLine@QVector3D@@QEBANAEBV1@0@Z
       5159 1426 00676E90 ?distanceToPlane@QVector3D@@QEBANAEBV1@00@Z
       5160 1427 00676FC0 ?distanceToPlane@QVector3D@@QEBANAEBV1@0@Z
       5161 1428 00508960 ?doAction@QAccessibleApplication@@UEAA_NHHAEBV?$QList@VQVariant@@@@@Z
       5162 1429 005089D0 ?doAction@QAccessibleObject@@UEAA_NHHAEBV?$QList@VQVariant@@@@@Z
       5163 142A 005089E0 ?doAction@QAccessibleObjectEx@@UEAA_NHHAEBV?$QList@VQVariant@@@@@Z
       5164 142B 0050A360 ?doAction@QAccessibleWidget@@UEAA_NHHAEBV?$QList@VQVariant@@@@@Z
       5165 142C 0050A570 ?doAction@QAccessibleWidgetEx@@UEAA_NHHAEBV?$QList@VQVariant@@@@@Z
       5166 142D 005154F0 ?doAutoScroll@QAbstractItemView@@IEAAXXZ
       5167 142E 0019C170 ?doClip@QPathClipper@@AEAA_NAEAVQWingedEdge@@W4ClipperMode@1@@Z
       5168 142F 00515730 ?doDelayedItemsLayout@QAbstractItemViewPrivate@@QEAAXH@Z
       5169 1430 00515760 ?doDelayedReset@QAbstractItemViewPrivate@@QEAAXXZ
       5170 1431 000DA7D0 ?doImageIO@QImageData@@QEBA_NPEBVQImage@@PEAVQImageWriter@@H@Z
       5171 1432 000F5C40 ?doImageIO@QPixmap@@AEBA_NPEAVQImageWriter@@H@Z
       5172 1433 005157A0 ?doItemsLayout@QAbstractItemView@@UEAAXXZ
       5173 1434 00523E50 ?doItemsLayout@QHeaderView@@UEAAXXZ
       5174 1435 005327A0 ?doItemsLayout@QListView@@UEAAXXZ
       5175 1436 005433B0 ?doItemsLayout@QTableView@@UEAAXXZ
       5176 1437 00551F10 ?doItemsLayout@QTreeView@@UEAAXXZ
       5177 1438 00248260 ?doKerning@QFontEngine@@UEBAXPEAUQGlyphLayout@@V?$QFlags@W4ShaperFlag@QTextEngine@@@@@Z
       5178 1439 005C48B0 ?doLayout@QColumnViewPrivate@@QEAAXXZ
       5179 143A 0055F450 ?doLayout@QItemDelegate@@IEBAXAEBVQStyleOptionViewItem@@PEAVQRect@@11_N@Z
       5180 143B 002B4F10 ?doLayout@QTextDocumentLayout@@AEAA?AVQRectF@@HHH@Z
       5181 143C 0048A640 ?doMove@QWidgetResizeHandler@@QEAAXXZ
       5182 143D 00051390 ?doResize@QLayoutPrivate@@QEAAXAEBVQSize@@@Z
       5183 143E 0048A750 ?doResize@QWidgetResizeHandler@@QEAAXXZ
       5184 143F 00682E10 ?doScroll@QComboBoxPrivateScroller@@IEAAXH@Z
       5185 1440 00068D40 ?docHandle@QTextBlock@@QEBAPEAVQTextDocumentPrivate@@XZ
       5186 1441 00297810 ?docHandle@QTextDocument@@QEBAPEAVQTextDocumentPrivate@@XZ
       5187 1442 002926B0 ?docHandle@QTextObject@@QEBAPEAVQTextDocumentPrivate@@XZ
       5188 1443 000EB730 ?docLayout@QTextEngine@@QEBAPEAVQAbstractTextDocumentLayout@@XZ
       5189 1444 001B8120 ?docName@QPrinter@@QEBA?AVQString@@XZ
       5190 1445 003F9400 ?dockLocationChanged@QDockWidget@@IEAAXW4DockWidgetArea@Qt@@@Z
       5191 1446 004267D0 ?dockOptions@QMainWindow@@QEBA?AV?$QFlags@W4DockOption@QMainWindow@@@@XZ
       5192 1447 004267F0 ?dockWidgetArea@QMainWindow@@QEBA?AW4DockWidgetArea@Qt@@PEAVQDockWidget@@@Z
       5193 1448 0042A470 ?dockWidgetArea@QMainWindowLayout@@QEBA?AW4DockWidgetArea@Qt@@PEAVQDockWidget@@@Z
       5194 1449 002B2070 ?document@QAbstractTextDocumentLayout@@QEBAPEAVQTextDocument@@XZ
       5195 144A 005DCC20 ?document@QGraphicsTextItem@@QEBAPEAVQTextDocument@@XZ
       5196 144B 004A5380 ?document@QPlainTextEdit@@QEBAPEAVQTextDocument@@XZ
       5197 144C 002D89D0 ?document@QSyntaxHighlighter@@QEBAPEAVQTextDocument@@XZ
       5198 144D 002926D0 ?document@QTextBlock@@QEBAPEBVQTextDocument@@XZ
       5199 144E 00268E10 ?document@QTextControl@@QEBAPEAVQTextDocument@@XZ
       5200 144F 002C49E0 ?document@QTextCursor@@QEBAPEAVQTextDocument@@XZ
       5201 1450 000EB740 ?document@QTextDocumentPrivate@@QEAAPEAVQTextDocument@@XZ
       5202 1451 000EB750 ?document@QTextDocumentPrivate@@QEBAPEBVQTextDocument@@XZ
       5203 1452 00474F70 ?document@QTextEdit@@QEBAPEAVQTextDocument@@XZ
       5204 1453 002926E0 ?document@QTextObject@@QEBAPEAVQTextDocument@@XZ
       5205 1454 002A2CF0 ?documentChange@QTextDocumentPrivate@@QEAAXHH@Z
       5206 1455 004A5390 ?documentChanged@QPlainTextDocumentLayout@@MEAAXHHH@Z
       5207 1456 002B5070 ?documentChanged@QTextDocumentLayout@@MEAAXHHH@Z
       5208 1457 00297820 ?documentLayout@QTextDocument@@QEBAPEAVQAbstractTextDocumentLayout@@XZ
       5209 1458 0067FF10 ?documentLayoutChanged@QTextDocument@@IEAAXXZ
       5210 1459 00297890 ?documentMargin@QTextDocument@@QEBANXZ
       5211 145A 00426800 ?documentMode@QMainWindow@@QEBA_NXZ
       5212 145B 0042A530 ?documentMode@QMainWindowLayout@@QEBA_NXZ
       5213 145C 00432740 ?documentMode@QMdiArea@@QEBA_NXZ
       5214 145D 004697A0 ?documentMode@QTabBar@@QEBA_NXZ
       5215 145E 00471570 ?documentMode@QTabWidget@@QEBA_NXZ
       5216 145F 004A5680 ?documentSize@QPlainTextDocumentLayout@@UEBA?AVQSizeF@@XZ
       5217 1460 002B5450 ?documentSize@QTextDocumentLayout@@UEBA?AVQSizeF@@XZ
       5218 1461 002B2080 ?documentSizeChanged@QAbstractTextDocumentLayout@@IEAAXAEBVQSizeF@@@Z
       5219 1462 00268E20 ?documentSizeChanged@QTextControl@@IEAAXAEBVQSizeF@@@Z
       5220 1463 004A56D0 ?documentTitle@QPlainTextEdit@@QEBA?AVQString@@XZ
       5221 1464 00268E50 ?documentTitle@QTextEdit@@QEBA?AVQString@@XZ
       5222 1465 004B7AF0 ?done@QAbstractPageSetupDialog@@UEAAXH@Z
       5223 1466 004B9CD0 ?done@QColorDialog@@MEAAXH@Z
       5224 1467 004BF970 ?done@QDialog@@UEAAXH@Z
       5225 1468 004C21A0 ?done@QErrorMessage@@MEAAXH@Z
       5226 1469 004CAB30 ?done@QFileDialog@@MEAAXH@Z
       5227 146A 004D3F80 ?done@QFontDialog@@MEAAXH@Z
       5228 146B 004D71B0 ?done@QInputDialog@@UEAAXH@Z
       5229 146C 004B7360 ?done@QPrintDialog@@UEAAXH@Z
       5230 146D 00503D10 ?done@QPrintPreviewDialog@@UEAAXH@Z
       5231 146E 004FA910 ?done@QWizard@@MEAAXH@Z
       5232 146F 00676700 ?dotProduct@QVector2D@@SANAEBV1@0@Z
       5233 1470 00677000 ?dotProduct@QVector3D@@SANAEBV1@0@Z
       5234 1471 00677760 ?dotProduct@QVector4D@@SANAEBV1@0@Z
       5235 1472 000DA850 ?dotsPerMeterX@QImage@@QEBAHXZ
       5236 1473 000DA8A0 ?dotsPerMeterY@QImage@@QEBAHXZ
       5237 1474 0009ABE0 ?doubleClickInterval@QApplication@@SAHXZ
       5238 1475 005157F0 ?doubleClicked@QAbstractItemView@@IEAAXAEBVQModelIndex@@@Z
       5239 1476 004D7350 ?doubleDecimals@QInputDialog@@QEBAHXZ
       5240 1477 004D7370 ?doubleMaximum@QInputDialog@@QEBANXZ
       5241 1478 004D7390 ?doubleMinimum@QInputDialog@@QEBANXZ
       5242 1479 0028C630 ?doubleProperty@QTextFormat@@QEBANH@Z
       5243 147A 001B8190 ?doubleSidedPrinting@QPrinter@@QEBA_NXZ
       5244 147B 004D73B0 ?doubleValue@QInputDialog@@QEBANXZ
       5245 147C 004D73D0 ?doubleValueChanged@QInputDialog@@IEAAXN@Z
       5246 147D 004D7410 ?doubleValueSelected@QInputDialog@@IEAAXN@Z
       5247 147E 0068D770 ?dragAccepted@QDragResponseEvent@@QEBA_NXZ
       5248 147F 00515820 ?dragDropMode@QAbstractItemView@@QEBA?AW4DragDropMode@1@XZ
       5249 1480 005158E0 ?dragDropOverwriteMode@QAbstractItemView@@QEBA_NXZ
       5250 1481 005158F0 ?dragEnabled@QAbstractItemView@@QEBA_NXZ
       5251 1482 0041D190 ?dragEnabled@QLineEdit@@QEBA_NXZ
       5252 1483 00515900 ?dragEnterEvent@QAbstractItemView@@MEAAXPEAVQDragEnterEvent@@@Z
       5253 1484 00488540 ?dragEnterEvent@QAbstractScrollArea@@MEAAXPEAVQDragEnterEvent@@@Z
       5254 1485 005DCC40 ?dragEnterEvent@QGraphicsItem@@MEAAXPEAVQGraphicsSceneDragDropEvent@@@Z
       5255 1486 005F8390 ?dragEnterEvent@QGraphicsProxyWidget@@MEAAXPEAVQGraphicsSceneDragDropEvent@@@Z
       5256 1487 006045B0 ?dragEnterEvent@QGraphicsScene@@MEAAXPEAVQGraphicsSceneDragDropEvent@@@Z
       5257 1488 005DCC80 ?dragEnterEvent@QGraphicsTextItem@@MEAAXPEAVQGraphicsSceneDragDropEvent@@@Z
       5258 1489 006249A0 ?dragEnterEvent@QGraphicsView@@MEAAXPEAVQDragEnterEvent@@@Z
       5259 148A 0041D1B0 ?dragEnterEvent@QLineEdit@@MEAAXPEAVQDragEnterEvent@@@Z
       5260 148B 004A5710 ?dragEnterEvent@QPlainTextEdit@@MEAAXPEAVQDragEnterEvent@@@Z
       5261 148C 004E1E80 ?dragEnterEvent@QSidebar@@MEAAXPEAVQDragEnterEvent@@@Z
       5262 148D 00475060 ?dragEnterEvent@QTextEdit@@MEAAXPEAVQDragEnterEvent@@@Z
       5263 148E 000709D0 ?dragEnterEvent@QWidget@@MEAAXPEAVQDragEnterEvent@@@Z
       5264 148F 00515980 ?dragLeaveEvent@QAbstractItemView@@MEAAXPEAVQDragLeaveEvent@@@Z
       5265 1490 00488550 ?dragLeaveEvent@QAbstractScrollArea@@MEAAXPEAVQDragLeaveEvent@@@Z
       5266 1491 005DCCF0 ?dragLeaveEvent@QGraphicsItem@@MEAAXPEAVQGraphicsSceneDragDropEvent@@@Z
       5267 1492 005F84C0 ?dragLeaveEvent@QGraphicsProxyWidget@@MEAAXPEAVQGraphicsSceneDragDropEvent@@@Z
       5268 1493 006045D0 ?dragLeaveEvent@QGraphicsScene@@MEAAXPEAVQGraphicsSceneDragDropEvent@@@Z
       5269 1494 005DCD30 ?dragLeaveEvent@QGraphicsTextItem@@MEAAXPEAVQGraphicsSceneDragDropEvent@@@Z
       5270 1495 00624A70 ?dragLeaveEvent@QGraphicsView@@MEAAXPEAVQDragLeaveEvent@@@Z
       5271 1496 0041D1C0 ?dragLeaveEvent@QLineEdit@@MEAAXPEAVQDragLeaveEvent@@@Z
       5272 1497 005332A0 ?dragLeaveEvent@QListView@@MEAAXPEAVQDragLeaveEvent@@@Z
       5273 1498 004A5720 ?dragLeaveEvent@QPlainTextEdit@@MEAAXPEAVQDragLeaveEvent@@@Z
       5274 1499 00475070 ?dragLeaveEvent@QTextEdit@@MEAAXPEAVQDragLeaveEvent@@@Z
       5275 149A 000709E0 ?dragLeaveEvent@QWidget@@MEAAXPEAVQDragLeaveEvent@@@Z
       5276 149B 00624C50 ?dragMode@QGraphicsView@@QEBA?AW4DragMode@1@XZ
       5277 149C 00515A00 ?dragMoveEvent@QAbstractItemView@@MEAAXPEAVQDragMoveEvent@@@Z
       5278 149D 00488560 ?dragMoveEvent@QAbstractScrollArea@@MEAAXPEAVQDragMoveEvent@@@Z
       5279 149E 005DCDA0 ?dragMoveEvent@QGraphicsItem@@MEAAXPEAVQGraphicsSceneDragDropEvent@@@Z
       5280 149F 005F8520 ?dragMoveEvent@QGraphicsProxyWidget@@MEAAXPEAVQGraphicsSceneDragDropEvent@@@Z
       5281 14A0 00604610 ?dragMoveEvent@QGraphicsScene@@MEAAXPEAVQGraphicsSceneDragDropEvent@@@Z
       5282 14A1 005DCDE0 ?dragMoveEvent@QGraphicsTextItem@@MEAAXPEAVQGraphicsSceneDragDropEvent@@@Z
       5283 14A2 00624C60 ?dragMoveEvent@QGraphicsView@@MEAAXPEAVQDragMoveEvent@@@Z
       5284 14A3 0041D1E0 ?dragMoveEvent@QLineEdit@@MEAAXPEAVQDragMoveEvent@@@Z
       5285 14A4 00533860 ?dragMoveEvent@QListView@@MEAAXPEAVQDragMoveEvent@@@Z
       5286 14A5 004A5760 ?dragMoveEvent@QPlainTextEdit@@MEAAXPEAVQDragMoveEvent@@@Z
       5287 14A6 004750B0 ?dragMoveEvent@QTextEdit@@MEAAXPEAVQDragMoveEvent@@@Z
       5288 14A7 00552150 ?dragMoveEvent@QTreeView@@MEAAXPEAVQDragMoveEvent@@@Z
       5289 14A8 000709F0 ?dragMoveEvent@QWidget@@MEAAXPEAVQDragMoveEvent@@@Z
       5290 14A9 00515E10 ?draggablePaintPairs@QAbstractItemViewPrivate@@UEBA?AV?$QList@U?$QPair@VQRect@@VQModelIndex@@@@@@AEBV?$QList@VQModelIndex@@@@PEAVQRect@@@Z
       5291 14AA 005521A0 ?draggablePaintPairs@QTreeViewPrivate@@UEBA?AV?$QList@U?$QPair@VQRect@@VQModelIndex@@@@@@AEBV?$QList@VQModelIndex@@@@PEAVQRect@@@Z
       5292 14AB 00678B60 ?draw@QGraphicsBlurEffect@@MEAAXPEAVQPainter@@@Z
       5293 14AC 00678C90 ?draw@QGraphicsColorizeEffect@@MEAAXPEAVQPainter@@@Z
       5294 14AD 00678EA0 ?draw@QGraphicsDropShadowEffect@@MEAAXPEAVQPainter@@@Z
       5295 14AE 00679090 ?draw@QGraphicsEffectSource@@QEAAXPEAVQPainter@@@Z
       5296 14AF 00679190 ?draw@QGraphicsOpacityEffect@@MEAAXPEAVQPainter@@@Z
       5297 14B0 00604AF0 ?draw@QGraphicsScenePrivate@@QEAAXPEAVQGraphicsItem@@PEAVQPainter@@QEBVQTransform@@2PEAVQRegion@@PEAVQWidget@@N2_N5@Z
       5298 14B1 00420CD0 ?draw@QLineControl@@QEAAXPEAVQPainter@@AEBVQPoint@@AEBVQRect@@H@Z
       5299 14B2 001E95C0 ?draw@QPaintBuffer@@QEBAXPEAVQPainter@@H@Z
       5300 14B3 0016F820 ?draw@QPaintEngineEx@@UEAAXAEBVQVectorPath@@@Z
       5301 14B4 000FE770 ?draw@QPixmapBlurFilter@@UEBAXPEAVQPainter@@AEBVQPointF@@AEBVQPixmap@@AEBVQRectF@@@Z
       5302 14B5 000FEAF0 ?draw@QPixmapColorizeFilter@@UEBAXPEAVQPainter@@AEBVQPointF@@AEBVQPixmap@@AEBVQRectF@@@Z
       5303 14B6 000FEF00 ?draw@QPixmapConvolutionFilter@@UEBAXPEAVQPainter@@AEBVQPointF@@AEBVQPixmap@@AEBVQRectF@@@Z
       5304 14B7 000FF490 ?draw@QPixmapDropShadowFilter@@UEBAXPEAVQPainter@@AEBVQPointF@@AEBVQPixmap@@AEBVQRectF@@@Z
       5305 14B8 004A57D0 ?draw@QPlainTextDocumentLayout@@UEAAXPEAVQPainter@@AEBUPaintContext@QAbstractTextDocumentLayout@@@Z
       5306 14B9 002B5490 ?draw@QTextDocumentLayout@@UEAAXPEAVQPainter@@AEBUPaintContext@QAbstractTextDocumentLayout@@@Z
       5307 14BA 002813F0 ?draw@QTextLayout@@QEBAXPEAVQPainter@@AEBVQPointF@@AEBV?$QVector@UFormatRange@QTextLayout@@@@AEBVQRectF@@@Z
       5308 14BB 002823E0 ?draw@QTextLine@@QEBAXPEAVQPainter@@AEBVQPointF@@PEBUFormatRange@QTextLayout@@@Z
       5309 14BC 00552350 ?drawAnimatedOperation@QTreeViewPrivate@@QEBAXPEAVQPainter@@@Z
       5310 14BD 00310380 ?drawArc@QPainter@@QEAAXAEBVQRect@@HH@Z
       5311 14BE 00178260 ?drawArc@QPainter@@QEAAXAEBVQRectF@@HH@Z
       5312 14BF 0068D780 ?drawArc@QPainter@@QEAAXHHHHHH@Z
       5313 14C0 006051A0 ?drawBackground@QGraphicsScene@@MEAAXPEAVQPainter@@AEBVQRectF@@@Z
       5314 14C1 00624D30 ?drawBackground@QGraphicsView@@MEAAXPEAVQPainter@@AEBVQRectF@@@Z
       5315 14C2 0055FC30 ?drawBackground@QItemDelegate@@IEBAXPEAVQPainter@@AEBVQStyleOptionViewItem@@AEBVQModelIndex@@@Z
       5316 14C3 004697B0 ?drawBase@QTabBar@@QEBA_NXZ
       5317 14C4 00552540 ?drawBranches@QTreeView@@MEBAXPEAVQPainter@@AEBVQRect@@AEBVQModelIndex@@@Z
       5318 14C5 0055FD70 ?drawCheck@QItemDelegate@@MEBAXPEAVQPainter@@AEBVQStyleOptionViewItem@@AEBVQRect@@W4CheckState@Qt@@@Z
       5319 14C6 0068D7F0 ?drawChord@QPainter@@QEAAXAEBVQRect@@HH@Z
       5320 14C7 00178340 ?drawChord@QPainter@@QEAAXAEBVQRectF@@HH@Z
       5321 14C8 0068D840 ?drawChord@QPainter@@QEAAXHHHHHH@Z
       5322 14C9 00399560 ?drawComplexControl@QCleanlooksStyle@@UEBAXW4ComplexControl@QStyle@@PEBVQStyleOptionComplex@@PEAVQPainter@@PEBVQWidget@@@Z
       5323 14CA 003104C0 ?drawComplexControl@QCommonStyle@@UEBAXW4ComplexControl@QStyle@@PEBVQStyleOptionComplex@@PEAVQPainter@@PEBVQWidget@@@Z
       5324 14CB 003BC3A0 ?drawComplexControl@QMotifStyle@@UEBAXW4ComplexControl@QStyle@@PEBVQStyleOptionComplex@@PEAVQPainter@@PEBVQWidget@@@Z
       5325 14CC 00378B40 ?drawComplexControl@QPlastiqueStyle@@UEBAXW4ComplexControl@QStyle@@PEBVQStyleOptionComplex@@PEAVQPainter@@PEBVQWidget@@@Z
       5326 14CD 0032BF50 ?drawComplexControl@QProxyStyle@@UEBAXW4ComplexControl@QStyle@@PEBVQStyleOptionComplex@@PEAVQPainter@@PEBVQWidget@@@Z
       5327 14CE 0033BB50 ?drawComplexControl@QStyleSheetStyle@@UEBAXW4ComplexControl@QStyle@@PEBVQStyleOptionComplex@@PEAVQPainter@@PEBVQWidget@@@Z
       5328 14CF 003B0BE0 ?drawComplexControl@QWindowsStyle@@UEBAXW4ComplexControl@QStyle@@PEBVQStyleOptionComplex@@PEAVQPainter@@PEBVQWidget@@@Z
       5329 14D0 0035E760 ?drawComplexControl@QWindowsVistaStyle@@UEBAXW4ComplexControl@QStyle@@PEBVQStyleOptionComplex@@PEAVQPainter@@PEBVQWidget@@@Z
       5330 14D1 0036B310 ?drawComplexControl@QWindowsXPStyle@@UEBAXW4ComplexControl@QStyle@@PEBVQStyleOptionComplex@@PEAVQPainter@@PEBVQWidget@@@Z
       5331 14D2 00460500 ?drawContents@QSplashScreen@@MEAAXPEAVQPainter@@@Z
       5332 14D3 00269190 ?drawContents@QTextControl@@QEAAXPEAVQPainter@@AEBVQRectF@@PEAVQWidget@@@Z
       5333 14D4 002978A0 ?drawContents@QTextDocument@@QEAAXPEAVQPainter@@AEBVQRectF@@@Z
       5334 14D5 0035BC00 ?drawControl@QCDEStyle@@UEBAXW4ControlElement@QStyle@@PEBVQStyleOption@@PEAVQPainter@@PEBVQWidget@@@Z
       5335 14D6 003A22F0 ?drawControl@QCleanlooksStyle@@UEBAXW4ControlElement@QStyle@@PEBVQStyleOption@@PEAVQPainter@@PEBVQWidget@@@Z
       5336 14D7 00313BB0 ?drawControl@QCommonStyle@@UEBAXW4ControlElement@QStyle@@PEBVQStyleOption@@PEAVQPainter@@PEBVQWidget@@@Z
       5337 14D8 003BE030 ?drawControl@QMotifStyle@@UEBAXW4ControlElement@QStyle@@PEBVQStyleOption@@PEAVQPainter@@PEBVQWidget@@@Z
       5338 14D9 00380820 ?drawControl@QPlastiqueStyle@@UEBAXW4ControlElement@QStyle@@PEBVQStyleOption@@PEAVQPainter@@PEBVQWidget@@@Z
       5339 14DA 0032BFB0 ?drawControl@QProxyStyle@@UEBAXW4ControlElement@QStyle@@PEBVQStyleOption@@PEAVQPainter@@PEBVQWidget@@@Z
       5340 14DB 0033ED70 ?drawControl@QStyleSheetStyle@@UEBAXW4ControlElement@QStyle@@PEBVQStyleOption@@PEAVQPainter@@PEBVQWidget@@@Z
       5341 14DC 003B2850 ?drawControl@QWindowsStyle@@UEBAXW4ControlElement@QStyle@@PEBVQStyleOption@@PEAVQPainter@@PEBVQWidget@@@Z
       5342 14DD 0035FFB0 ?drawControl@QWindowsVistaStyle@@UEBAXW4ControlElement@QStyle@@PEBVQStyleOption@@PEAVQPainter@@PEBVQWidget@@@Z
       5343 14DE 0036E110 ?drawControl@QWindowsXPStyle@@UEBAXW4ControlElement@QStyle@@PEBVQStyleOption@@PEAVQPainter@@PEBVQWidget@@@Z
       5344 14DF 0068D8B0 ?drawConvexPolygon@QPainter@@QEAAXAEBVQPolygon@@@Z
       5345 14E0 00156DF0 ?drawConvexPolygon@QPainter@@QEAAXAEBVQPolygonF@@@Z
       5346 14E1 00178480 ?drawConvexPolygon@QPainter@@QEAAXPEBVQPoint@@H@Z
       5347 14E2 001785A0 ?drawConvexPolygon@QPainter@@QEAAXPEBVQPointF@@H@Z
       5348 14E3 00283590 ?drawCursor@QTextLayout@@QEBAXPEAVQPainter@@AEBVQPointF@@H@Z
       5349 14E4 002835B0 ?drawCursor@QTextLayout@@QEBAXPEAVQPainter@@AEBVQPointF@@HH@Z
       5350 14E5 0055FE70 ?drawDecoration@QItemDelegate@@MEBAXPEAVQPainter@@AEBVQStyleOptionViewItem@@AEBVQRect@@AEBVQPixmap@@@Z
       5351 14E6 0055FFA0 ?drawDisplay@QItemDelegate@@MEBAXPEAVQPainter@@AEBVQStyleOptionViewItem@@AEBVQRect@@AEBVQString@@@Z
       5352 14E7 0022A950 ?drawEllipse@QBlitterPaintEngine@@UEAAXAEBVQRectF@@@Z
       5353 14E8 00169360 ?drawEllipse@QPaintEngine@@UEAAXAEBVQRect@@@Z
       5354 14E9 00169390 ?drawEllipse@QPaintEngine@@UEAAXAEBVQRectF@@@Z
       5355 14EA 0016F8F0 ?drawEllipse@QPaintEngineEx@@UEAAXAEBVQRect@@@Z
       5356 14EB 0016F920 ?drawEllipse@QPaintEngineEx@@UEAAXAEBVQRectF@@@Z
       5357 14EC 0068D900 ?drawEllipse@QPainter@@QEAAXAEBVQPoint@@HH@Z
       5358 14ED 0068D990 ?drawEllipse@QPainter@@QEAAXAEBVQPointF@@NN@Z
       5359 14EE 001786A0 ?drawEllipse@QPainter@@QEAAXAEBVQRect@@@Z
       5360 14EF 001787D0 ?drawEllipse@QPainter@@QEAAXAEBVQRectF@@@Z
       5361 14F0 0068DA50 ?drawEllipse@QPainter@@QEAAXHHHH@Z
       5362 14F1 00560700 ?drawFocus@QItemDelegate@@MEBAXPEAVQPainter@@AEBVQStyleOptionViewItem@@AEBVQRect@@@Z
       5363 14F2 00605270 ?drawForeground@QGraphicsScene@@MEAAXPEAVQPainter@@AEBVQRectF@@@Z
       5364 14F3 00624D80 ?drawForeground@QGraphicsView@@MEAAXPEAVQPainter@@AEBVQRectF@@@Z
       5365 14F4 0040F190 ?drawFrame@QFrame@@IEAAXPEAVQPainter@@@Z
       5366 14F5 001788D0 ?drawGlyphRun@QPainter@@QEAAXAEBVQPointF@@AEBVQGlyphRun@@@Z
       5367 14F6 0022A9D0 ?drawImage@QBlitterPaintEngine@@UEAAXAEBVQPointF@@AEBVQImage@@@Z
       5368 14F7 0022AA80 ?drawImage@QBlitterPaintEngine@@UEAAXAEBVQRectF@@AEBVQImage@@0V?$QFlags@W4ImageConversionFlag@Qt@@@@@Z
       5369 14F8 00169460 ?drawImage@QPaintEngine@@UEAAXAEBVQRectF@@AEBVQImage@@0V?$QFlags@W4ImageConversionFlag@Qt@@@@@Z
       5370 14F9 0016FA30 ?drawImage@QPaintEngineEx@@UEAAXAEBVQPointF@@AEBVQImage@@@Z
       5371 14FA 000DA8F0 ?drawImage@QPainter@@QEAAXAEBVQPoint@@AEBVQImage@@@Z
       5372 14FB 0068DA80 ?drawImage@QPainter@@QEAAXAEBVQPoint@@AEBVQImage@@AEBVQRect@@V?$QFlags@W4ImageConversionFlag@Qt@@@@@Z
       5373 14FC 00179130 ?drawImage@QPainter@@QEAAXAEBVQPointF@@AEBVQImage@@@Z
       5374 14FD 0068DB20 ?drawImage@QPainter@@QEAAXAEBVQPointF@@AEBVQImage@@AEBVQRectF@@V?$QFlags@W4ImageConversionFlag@Qt@@@@@Z
       5375 14FE 000F0770 ?drawImage@QPainter@@QEAAXAEBVQRect@@AEBVQImage@@0V?$QFlags@W4ImageConversionFlag@Qt@@@@@Z
       5376 14FF 000FF710 ?drawImage@QPainter@@QEAAXAEBVQRect@@AEBVQImage@@@Z
       5377 1500 001794A0 ?drawImage@QPainter@@QEAAXAEBVQRectF@@AEBVQImage@@0V?$QFlags@W4ImageConversionFlag@Qt@@@@@Z
       5378 1501 0068DBD0 ?drawImage@QPainter@@QEAAXAEBVQRectF@@AEBVQImage@@@Z
       5379 1502 000FF7B0 ?drawImage@QPainter@@QEAAXHHAEBVQImage@@HHHHV?$QFlags@W4ImageConversionFlag@Qt@@@@@Z
       5380 1503 002B20B0 ?drawInlineObject@QAbstractTextDocumentLayout@@MEAAXPEAVQPainter@@AEBVQRectF@@VQTextInlineObject@@HAEBVQTextFormat@@@Z
       5381 1504 002B7EC0 ?drawInlineObject@QTextDocumentLayout@@MEAAXPEAVQPainter@@AEBVQRectF@@VQTextInlineObject@@HAEBVQTextFormat@@@Z
       5382 1505 00605340 ?drawItemHelper@QGraphicsScenePrivate@@QEAAXPEAVQGraphicsItem@@PEAVQPainter@@PEBVQStyleOptionGraphicsItem@@PEAVQWidget@@_N@Z
       5383 1506 003A79B0 ?drawItemPixmap@QCleanlooksStyle@@UEBAXPEAVQPainter@@AEBVQRect@@HAEBVQPixmap@@@Z
       5384 1507 0032C010 ?drawItemPixmap@QProxyStyle@@UEBAXPEAVQPainter@@AEBVQRect@@HAEBVQPixmap@@@Z
       5385 1508 003077F0 ?drawItemPixmap@QStyle@@UEBAXPEAVQPainter@@AEBVQRect@@HAEBVQPixmap@@@Z
       5386 1509 00342F60 ?drawItemPixmap@QStyleSheetStyle@@UEBAXPEAVQPainter@@AEBVQRect@@HAEBVQPixmap@@@Z
       5387 150A 003A79C0 ?drawItemText@QCleanlooksStyle@@UEBAXPEAVQPainter@@AEBVQRect@@HAEBVQPalette@@_NAEBVQString@@W4ColorRole@4@@Z
       5388 150B 0032C070 ?drawItemText@QProxyStyle@@UEBAXPEAVQPainter@@AEBVQRect@@HAEBVQPalette@@_NAEBVQString@@W4ColorRole@4@@Z
       5389 150C 00307960 ?drawItemText@QStyle@@UEBAXPEAVQPainter@@AEBVQRect@@HAEBVQPalette@@_NAEBVQString@@W4ColorRole@4@@Z
       5390 150D 00342FD0 ?drawItemText@QStyleSheetStyle@@UEBAXPEAVQPainter@@AEBVQRect@@HAEBVQPalette@@_NAEBVQString@@W4ColorRole@4@@Z
       5391 150E 00606770 ?drawItems@QGraphicsScene@@MEAAXPEAVQPainter@@HQEAPEAVQGraphicsItem@@QEBVQStyleOptionGraphicsItem@@PEAVQWidget@@@Z
       5392 150F 00606A10 ?drawItems@QGraphicsScenePrivate@@QEAAXPEAVQPainter@@QEBVQTransform@@PEAVQRegion@@PEAVQWidget@@@Z
       5393 1510 00624DD0 ?drawItems@QGraphicsView@@MEAAXPEAVQPainter@@HQEAPEAVQGraphicsItem@@QEBVQStyleOptionGraphicsItem@@@Z
       5394 1511 0038B420 ?drawLine@QPainter@@QEAAXAEBVQLine@@@Z
       5395 1512 000F07F0 ?drawLine@QPainter@@QEAAXAEBVQLineF@@@Z
       5396 1513 000F0800 ?drawLine@QPainter@@QEAAXAEBVQPoint@@0@Z
       5397 1514 000F0830 ?drawLine@QPainter@@QEAAXAEBVQPointF@@0@Z
       5398 1515 00068D50 ?drawLine@QPainter@@QEAAXHHHH@Z
       5399 1516 00169640 ?drawLines@QPaintEngine@@UEAAXPEBVQLine@@H@Z
       5400 1517 001697A0 ?drawLines@QPaintEngine@@UEAAXPEBVQLineF@@H@Z
       5401 1518 0016FAE0 ?drawLines@QPaintEngineEx@@UEAAXPEBVQLine@@H@Z
       5402 1519 0016FD30 ?drawLines@QPaintEngineEx@@UEAAXPEBVQLineF@@H@Z
       5403 151A 0068DC70 ?drawLines@QPainter@@QEAAXAEBV?$QVector@VQLine@@@@@Z
       5404 151B 001597D0 ?drawLines@QPainter@@QEAAXAEBV?$QVector@VQLineF@@@@@Z
       5405 151C 000F0860 ?drawLines@QPainter@@QEAAXAEBV?$QVector@VQPoint@@@@@Z
       5406 151D 0030F3A0 ?drawLines@QPainter@@QEAAXAEBV?$QVector@VQPointF@@@@@Z
       5407 151E 00179B30 ?drawLines@QPainter@@QEAAXPEBVQLine@@H@Z
       5408 151F 00179CD0 ?drawLines@QPainter@@QEAAXPEBVQLineF@@H@Z
       5409 1520 00179E70 ?drawLines@QPainter@@QEAAXPEBVQPoint@@H@Z
       5410 1521 00179E80 ?drawLines@QPainter@@QEAAXPEBVQPointF@@H@Z
       5411 1522 001698E0 ?drawPath@QPaintEngine@@UEAAXAEBVQPainterPath@@@Z
       5412 1523 0016FE60 ?drawPath@QPaintEngineEx@@UEAAXAEBVQPainterPath@@@Z
       5413 1524 0017A070 ?drawPath@QPainter@@QEAAXAEBVQPainterPath@@@Z
       5414 1525 0016C120 ?drawPicture@QPainter@@QEAAXAEBVQPoint@@AEBVQPicture@@@Z
       5415 1526 0017A120 ?drawPicture@QPainter@@QEAAXAEBVQPointF@@AEBVQPicture@@@Z
       5416 1527 0016C160 ?drawPicture@QPainter@@QEAAXHHAEBVQPicture@@@Z
       5417 1528 0068DC80 ?drawPie@QPainter@@QEAAXAEBVQRect@@HH@Z
       5418 1529 0017A1F0 ?drawPie@QPainter@@QEAAXAEBVQRectF@@HH@Z
       5419 152A 0068DCD0 ?drawPie@QPainter@@QEAAXHHHHHH@Z
       5420 152B 0022AB30 ?drawPixmap@QBlitterPaintEngine@@UEAAXAEBVQPointF@@AEBVQPixmap@@@Z
       5421 152C 0022ABD0 ?drawPixmap@QBlitterPaintEngine@@UEAAXAEBVQRectF@@AEBVQPixmap@@0@Z
       5422 152D 0016FEE0 ?drawPixmap@QPaintEngineEx@@UEAAXAEBVQPointF@@AEBVQPixmap@@@Z
       5423 152E 00070B70 ?drawPixmap@QPainter@@QEAAXAEBVQPoint@@AEBVQPixmap@@@Z
       5424 152F 000AA090 ?drawPixmap@QPainter@@QEAAXAEBVQPoint@@AEBVQPixmap@@AEBVQRect@@@Z
       5425 1530 0017A3B0 ?drawPixmap@QPainter@@QEAAXAEBVQPointF@@AEBVQPixmap@@@Z
       5426 1531 000FF8F0 ?drawPixmap@QPainter@@QEAAXAEBVQPointF@@AEBVQPixmap@@AEBVQRectF@@@Z
       5427 1532 000F5CE0 ?drawPixmap@QPainter@@QEAAXAEBVQRect@@AEBVQPixmap@@0@Z
       5428 1533 000C09B0 ?drawPixmap@QPainter@@QEAAXAEBVQRect@@AEBVQPixmap@@@Z
       5429 1534 0017A760 ?drawPixmap@QPainter@@QEAAXAEBVQRectF@@AEBVQPixmap@@0@Z
       5430 1535 00068D90 ?drawPixmap@QPainter@@QEAAXHHAEBVQPixmap@@@Z
       5431 1536 00169900 ?drawPixmap@QPainter@@QEAAXHHAEBVQPixmap@@HHHH@Z
       5432 1537 00319240 ?drawPixmap@QPainter@@QEAAXHHHHAEBVQPixmap@@@Z
       5433 1538 0068DD40 ?drawPixmap@QPainter@@QEAAXHHHHAEBVQPixmap@@HHHH@Z
       5434 1539 0016FF80 ?drawPixmapFragments@QPaintEngineEx@@UEAAXPEBVPixmapFragment@QPainter@@HAEBVQPixmap@@V?$QFlags@W4PixmapFragmentHint@QPainter@@@@@Z
       5435 153A 00170260 ?drawPixmapFragments@QPaintEngineEx@@UEAAXPEBVQRectF@@0HAEBVQPixmap@@V?$QFlags@W4PixmapFragmentHint@QPainter@@@@@Z
       5436 153B 0017AEC0 ?drawPixmapFragments@QPainter@@QEAAXPEBVPixmapFragment@1@HAEBVQPixmap@@V?$QFlags@W4PixmapFragmentHint@QPainter@@@@@Z
       5437 153C 0017B230 ?drawPixmapFragments@QPainter@@QEAAXPEBVQRectF@@0HAEBVQPixmap@@V?$QFlags@W4PixmapFragmentHint@QPainter@@@@@Z
       5438 153D 00105120 ?drawPixmapOpacity@QBlittable@@UEAAXAEBVQRectF@@AEBVQPixmap@@0W4CompositionMode@QPainter@@N@Z
       5439 153E 000F08B0 ?drawPoint@QPainter@@QEAAXAEBVQPoint@@@Z
       5440 153F 000F08C0 ?drawPoint@QPainter@@QEAAXAEBVQPointF@@@Z
       5441 1540 00068DE0 ?drawPoint@QPainter@@QEAAXHH@Z
       5442 1541 0022AEA0 ?drawPoints@QBlitterPaintEngine@@UEAAXPEBVQPoint@@H@Z
       5443 1542 0022AF30 ?drawPoints@QBlitterPaintEngine@@UEAAXPEBVQPointF@@H@Z
       5444 1543 001699D0 ?drawPoints@QPaintEngine@@UEAAXPEBVQPoint@@H@Z
       5445 1544 00169AF0 ?drawPoints@QPaintEngine@@UEAAXPEBVQPointF@@H@Z
       5446 1545 00170330 ?drawPoints@QPaintEngineEx@@UEAAXPEBVQPoint@@H@Z
       5447 1546 00170650 ?drawPoints@QPaintEngineEx@@UEAAXPEBVQPointF@@H@Z
       5448 1547 003C0F00 ?drawPoints@QPainter@@QEAAXAEBVQPolygon@@@Z
       5449 1548 0068DE20 ?drawPoints@QPainter@@QEAAXAEBVQPolygonF@@@Z
       5450 1549 0017B360 ?drawPoints@QPainter@@QEAAXPEBVQPoint@@H@Z
       5451 154A 0017B620 ?drawPoints@QPainter@@QEAAXPEBVQPointF@@H@Z
       5452 154B 0022AFC0 ?drawPolygon@QBlitterPaintEngine@@UEAAXPEBVQPoint@@HW4PolygonDrawMode@QPaintEngine@@@Z
       5453 154C 0022B050 ?drawPolygon@QBlitterPaintEngine@@UEAAXPEBVQPointF@@HW4PolygonDrawMode@QPaintEngine@@@Z
       5454 154D 00169CE0 ?drawPolygon@QPaintEngine@@UEAAXPEBVQPoint@@HW4PolygonDrawMode@1@@Z
       5455 154E 00169E20 ?drawPolygon@QPaintEngine@@UEAAXPEBVQPointF@@HW4PolygonDrawMode@1@@Z
       5456 154F 00170930 ?drawPolygon@QPaintEngineEx@@UEAAXPEBVQPoint@@HW4PolygonDrawMode@QPaintEngine@@@Z
       5457 1550 00170C00 ?drawPolygon@QPaintEngineEx@@UEAAXPEBVQPointF@@HW4PolygonDrawMode@QPaintEngine@@@Z
       5458 1551 000F08D0 ?drawPolygon@QPainter@@QEAAXAEBVQPolygon@@W4FillRule@Qt@@@Z
       5459 1552 000F0930 ?drawPolygon@QPainter@@QEAAXAEBVQPolygonF@@W4FillRule@Qt@@@Z
       5460 1553 0017B8B0 ?drawPolygon@QPainter@@QEAAXPEBVQPoint@@HW4FillRule@Qt@@@Z
       5461 1554 0017B9E0 ?drawPolygon@QPainter@@QEAAXPEBVQPointF@@HW4FillRule@Qt@@@Z
       5462 1555 000F0990 ?drawPolyline@QPainter@@QEAAXAEBVQPolygon@@@Z
       5463 1556 000F09E0 ?drawPolyline@QPainter@@QEAAXAEBVQPolygonF@@@Z
       5464 1557 0017BAF0 ?drawPolyline@QPainter@@QEAAXPEBVQPoint@@H@Z
       5465 1558 0017BBF0 ?drawPolyline@QPainter@@QEAAXPEBVQPointF@@H@Z
       5466 1559 0035BDC0 ?drawPrimitive@QCDEStyle@@UEBAXW4PrimitiveElement@QStyle@@PEBVQStyleOption@@PEAVQPainter@@PEBVQWidget@@@Z
       5467 155A 003A7B10 ?drawPrimitive@QCleanlooksStyle@@UEBAXW4PrimitiveElement@QStyle@@PEBVQStyleOption@@PEAVQPainter@@PEBVQWidget@@@Z
       5468 155B 003192E0 ?drawPrimitive@QCommonStyle@@UEBAXW4PrimitiveElement@QStyle@@PEBVQStyleOption@@PEAVQPainter@@PEBVQWidget@@@Z
       5469 155C 003C0F50 ?drawPrimitive@QMotifStyle@@UEBAXW4PrimitiveElement@QStyle@@PEBVQStyleOption@@PEAVQPainter@@PEBVQWidget@@@Z
       5470 155D 0038B860 ?drawPrimitive@QPlastiqueStyle@@UEBAXW4PrimitiveElement@QStyle@@PEBVQStyleOption@@PEAVQPainter@@PEBVQWidget@@@Z
       5471 155E 0032C0D0 ?drawPrimitive@QProxyStyle@@UEBAXW4PrimitiveElement@QStyle@@PEBVQStyleOption@@PEAVQPainter@@PEBVQWidget@@@Z
       5472 155F 00343190 ?drawPrimitive@QStyleSheetStyle@@UEBAXW4PrimitiveElement@QStyle@@PEBVQStyleOption@@PEAVQPainter@@PEBVQWidget@@@Z
       5473 1560 003B63C0 ?drawPrimitive@QWindowsStyle@@UEBAXW4PrimitiveElement@QStyle@@PEBVQStyleOption@@PEAVQPainter@@PEBVQWidget@@@Z
       5474 1561 00363270 ?drawPrimitive@QWindowsVistaStyle@@UEBAXW4PrimitiveElement@QStyle@@PEBVQStyleOption@@PEAVQPainter@@PEBVQWidget@@@Z
       5475 1562 00370590 ?drawPrimitive@QWindowsXPStyle@@UEBAXW4PrimitiveElement@QStyle@@PEBVQStyleOption@@PEAVQPainter@@PEBVQWidget@@@Z
       5476 1563 00068E10 ?drawRect@QPainter@@QEAAXAEBVQRect@@@Z
       5477 1564 000F0A30 ?drawRect@QPainter@@QEAAXAEBVQRectF@@@Z
       5478 1565 00068E20 ?drawRect@QPainter@@QEAAXHHHH@Z
       5479 1566 0022B0E0 ?drawRects@QBlitterPaintEngine@@UEAAXPEBVQRect@@H@Z
       5480 1567 0022B190 ?drawRects@QBlitterPaintEngine@@UEAAXPEBVQRectF@@H@Z
       5481 1568 00169FD0 ?drawRects@QPaintEngine@@UEAAXPEBVQRect@@H@Z
       5482 1569 0016A130 ?drawRects@QPaintEngine@@UEAAXPEBVQRectF@@H@Z
       5483 156A 00170D20 ?drawRects@QPaintEngineEx@@UEAAXPEBVQRect@@H@Z
       5484 156B 00170F20 ?drawRects@QPaintEngineEx@@UEAAXPEBVQRectF@@H@Z
       5485 156C 0068DE70 ?drawRects@QPainter@@QEAAXAEBV?$QVector@VQRect@@@@@Z
       5486 156D 0068DE80 ?drawRects@QPainter@@QEAAXAEBV?$QVector@VQRectF@@@@@Z
       5487 156E 0017BCD0 ?drawRects@QPainter@@QEAAXPEBVQRect@@H@Z
       5488 156F 0017BF70 ?drawRects@QPainter@@QEAAXPEBVQRectF@@H@Z
       5489 1570 0068DE90 ?drawRoundRect@QPainter@@QEAAXAEBVQRect@@HH@Z
       5490 1571 0017C1D0 ?drawRoundRect@QPainter@@QEAAXAEBVQRectF@@HH@Z
       5491 1572 0068DEE0 ?drawRoundRect@QPainter@@QEAAXHHHHHH@Z
       5492 1573 001710E0 ?drawRoundedRect@QPaintEngineEx@@UEAAXAEBVQRectF@@NNW4SizeMode@Qt@@@Z
       5493 1574 000F0A40 ?drawRoundedRect@QPainter@@QEAAXAEBVQRect@@NNW4SizeMode@Qt@@@Z
       5494 1575 0017C200 ?drawRoundedRect@QPainter@@QEAAXAEBVQRectF@@NNW4SizeMode@Qt@@@Z
       5495 1576 0068DF50 ?drawRoundedRect@QPainter@@QEAAXHHHHNNW4SizeMode@Qt@@@Z
       5496 1577 00552A90 ?drawRow@QTreeView@@MEBAXPEAVQPainter@@AEBVQStyleOptionViewItem@@AEBVQModelIndex@@@Z
       5497 1578 006794D0 ?drawSource@QGraphicsEffect@@IEAAXPEAVQPainter@@@Z
       5498 1579 0068DFC0 ?drawStaticText@QPainter@@QEAAXAEBVQPoint@@AEBVQStaticText@@@Z
       5499 157A 0017C2E0 ?drawStaticText@QPainter@@QEAAXAEBVQPointF@@AEBVQStaticText@@@Z
       5500 157B 0068E000 ?drawStaticText@QPainter@@QEAAXHHAEBVQStaticText@@@Z
       5501 157C 0022B230 ?drawStaticTextItem@QBlitterPaintEngine@@UEAAXPEAVQStaticTextItem@@@Z
       5502 157D 00171400 ?drawStaticTextItem@QPaintEngineEx@@UEAAXPEAVQStaticTextItem@@@Z
       5503 157E 00606C00 ?drawSubtreeRecursive@QGraphicsScenePrivate@@QEAAXPEAVQGraphicsItem@@PEAVQPainter@@QEBVQTransform@@PEAVQRegion@@PEAVQWidget@@N2@Z
       5504 157F 000F0A90 ?drawText@QPainter@@QEAAXAEBVQPoint@@AEBVQString@@@Z
       5505 1580 0017D070 ?drawText@QPainter@@QEAAXAEBVQPointF@@AEBVQString@@@Z
       5506 1581 0017D090 ?drawText@QPainter@@QEAAXAEBVQPointF@@AEBVQString@@HH@Z
       5507 1582 0017D7A0 ?drawText@QPainter@@QEAAXAEBVQRect@@HAEBVQString@@PEAV2@@Z
       5508 1583 0017D900 ?drawText@QPainter@@QEAAXAEBVQRectF@@AEBVQString@@AEBVQTextOption@@@Z
       5509 1584 0017D9F0 ?drawText@QPainter@@QEAAXAEBVQRectF@@HAEBVQString@@PEAV2@@Z
       5510 1585 002979E0 ?drawText@QPainter@@QEAAXHHAEBVQString@@@Z
       5511 1586 0031BDF0 ?drawText@QPainter@@QEAAXHHHHHAEBVQString@@PEAVQRect@@@Z
       5512 1587 0022B2B0 ?drawTextItem@QBlitterPaintEngine@@UEAAXAEBVQPointF@@AEBVQTextItem@@@Z
       5513 1588 0016A390 ?drawTextItem@QPaintEngine@@UEAAXAEBVQPointF@@AEBVQTextItem@@@Z
       5514 1589 0068E050 ?drawTextItem@QPainter@@QEAAXAEBVQPoint@@AEBVQTextItem@@@Z
       5515 158A 0017DAE0 ?drawTextItem@QPainter@@QEAAXAEBVQPointF@@AEBVQTextItem@@@Z
       5516 158B 0068E090 ?drawTextItem@QPainter@@QEAAXHHAEBVQTextItem@@@Z
       5517 158C 0022B340 ?drawTiledPixmap@QBlitterPaintEngine@@UEAAXAEBVQRectF@@AEBVQPixmap@@AEBVQPointF@@@Z
       5518 158D 0016A5E0 ?drawTiledPixmap@QPaintEngine@@UEAAXAEBVQRectF@@AEBVQPixmap@@AEBVQPointF@@@Z
       5519 158E 001715A0 ?drawTiledPixmap@QPaintEngineEx@@UEAAXAEBVQRectF@@AEBVQPixmap@@AEBVQPointF@@@Z
       5520 158F 00070BB0 ?drawTiledPixmap@QPainter@@QEAAXAEBVQRect@@AEBVQPixmap@@AEBVQPoint@@@Z
       5521 1590 0017E9F0 ?drawTiledPixmap@QPainter@@QEAAXAEBVQRectF@@AEBVQPixmap@@AEBVQPointF@@@Z
       5522 1591 0031BE40 ?drawTiledPixmap@QPainter@@QEAAXHHHHAEBVQPixmap@@HH@Z
       5523 1592 005537F0 ?drawTree@QTreeView@@IEBAXPEAVQPainter@@AEBVQRegion@@@Z
       5524 1593 00070C20 ?drawWidget@QWidgetPrivate@@QEAAXPEAVQPaintDevice@@AEBVQRegion@@AEBVQPoint@@HPEAVQPainter@@PEAVQWidgetBackingStore@@@Z
       5525 1594 000AA140 ?dropAction@QDropEvent@@QEBA?AW4DropAction@Qt@@XZ
       5526 1595 0061E990 ?dropAction@QGraphicsSceneDragDropEvent@@QEBA?AW4DropAction@Qt@@XZ
       5527 1596 00515F60 ?dropEvent@QAbstractItemView@@MEAAXPEAVQDropEvent@@@Z
       5528 1597 00488570 ?dropEvent@QAbstractScrollArea@@MEAAXPEAVQDropEvent@@@Z
       5529 1598 005DCF80 ?dropEvent@QGraphicsItem@@MEAAXPEAVQGraphicsSceneDragDropEvent@@@Z
       5530 1599 005F88E0 ?dropEvent@QGraphicsProxyWidget@@MEAAXPEAVQGraphicsSceneDragDropEvent@@@Z
       5531 159A 006073B0 ?dropEvent@QGraphicsScene@@MEAAXPEAVQGraphicsSceneDragDropEvent@@@Z
       5532 159B 005DCFC0 ?dropEvent@QGraphicsTextItem@@MEAAXPEAVQGraphicsSceneDragDropEvent@@@Z
       5533 159C 00624E80 ?dropEvent@QGraphicsView@@MEAAXPEAVQDropEvent@@@Z
       5534 159D 0041D2D0 ?dropEvent@QLineEdit@@MEAAXPEAVQDropEvent@@@Z
       5535 159E 00533E90 ?dropEvent@QListView@@MEAAXPEAVQDropEvent@@@Z
       5536 159F 00578430 ?dropEvent@QListWidget@@UEAAXPEAVQDropEvent@@@Z
       5537 15A0 004A57E0 ?dropEvent@QPlainTextEdit@@MEAAXPEAVQDropEvent@@@Z
       5538 15A1 00581780 ?dropEvent@QTableWidget@@MEAAXPEAVQDropEvent@@@Z
       5539 15A2 00475120 ?dropEvent@QTextEdit@@MEAAXPEAVQDropEvent@@@Z
       5540 15A3 0058FB60 ?dropEvent@QTreeWidget@@MEAAXPEAVQDropEvent@@@Z
       5541 15A4 00071510 ?dropEvent@QWidget@@MEAAXPEAVQDropEvent@@@Z
       5542 15A5 005160A0 ?dropIndicatorPosition@QAbstractItemView@@IEBA?AW4DropIndicatorPosition@1@XZ
       5543 15A6 0056F280 ?dropMimeData@QDirModel@@UEAA_NPEBVQMimeData@@W4DropAction@Qt@@HHAEBVQModelIndex@@@Z
       5544 15A7 004EB610 ?dropMimeData@QFileSystemModel@@UEAA_NPEBVQMimeData@@W4DropAction@Qt@@HHAEBVQModelIndex@@@Z
       5545 15A8 0052E360 ?dropMimeData@QIdentityProxyModel@@UEAA_NPEBVQMimeData@@W4DropAction@Qt@@HHAEBVQModelIndex@@@Z
       5546 15A9 00578870 ?dropMimeData@QListModel@@UEAA_NPEBVQMimeData@@W4DropAction@Qt@@HHAEBVQModelIndex@@@Z
       5547 15AA 00578910 ?dropMimeData@QListWidget@@MEAA_NHPEBVQMimeData@@W4DropAction@Qt@@@Z
       5548 15AB 00599C00 ?dropMimeData@QProxyModel@@UEAA_NPEBVQMimeData@@W4DropAction@Qt@@HHAEBVQModelIndex@@@Z
       5549 15AC 005A5CB0 ?dropMimeData@QSortFilterProxyModel@@UEAA_NPEBVQMimeData@@W4DropAction@Qt@@HHAEBVQModelIndex@@@Z
       5550 15AD 005B4100 ?dropMimeData@QStandardItemModel@@UEAA_NPEBVQMimeData@@W4DropAction@Qt@@HHAEBVQModelIndex@@@Z
       5551 15AE 00581BE0 ?dropMimeData@QTableWidget@@MEAA_NHHPEBVQMimeData@@W4DropAction@Qt@@@Z
       5552 15AF 00590420 ?dropMimeData@QTreeWidget@@MEAA_NPEAVQTreeWidgetItem@@HPEBVQMimeData@@W4DropAction@Qt@@@Z
       5553 15B0 004E1EC0 ?dropMimeData@QUrlModel@@UEAA_NPEBVQMimeData@@W4DropAction@Qt@@HHAEBVQModelIndex@@@Z
       5554 15B1 005160B0 ?dropOn@QAbstractItemViewPrivate@@UEAA_NPEAVQDropEvent@@PEAH1PEAVQModelIndex@@@Z
       5555 15B2 00516330 ?droppingOnItself@QAbstractItemViewPrivate@@QEAA_NPEAVQDropEvent@@AEBVQModelIndex@@@Z
       5556 15B3 005F6D90 ?dump@QGraphicsLinearLayout@@QEBAXH@Z
       5557 15B4 001B81E0 ?duplex@QPrinter@@QEBA?AW4DuplexMode@1@XZ
       5558 15B5 00107970 ?duplicateNativeImage@QVolatileImage@@QEBAPEAXXZ
       5559 15B6 003E0C90 ?duplicatesEnabled@QComboBox@@QEBA_NXZ
       5560 15B7 0015EE00 ?dx@QMatrix@@QEBANXZ
       5561 15B8 00071540 ?dx@QTransform@@QEBANXZ
       5562 15B9 0015EE10 ?dy@QMatrix@@QEBANXZ
       5563 15BA 00071550 ?dy@QTransform@@QEBANXZ
       5564 15BB 002B8EC0 ?dynamicDocumentSize@QTextDocumentLayout@@QEBA?AVQSizeF@@XZ
       5565 15BC 002B8F30 ?dynamicPageCount@QTextDocumentLayout@@QEBAHXZ
       5566 15BD 005A5E90 ?dynamicSortFilter@QSortFilterProxyModel@@QEBA_NXZ
       5567 15BE 003CD7D0 ?echoMode@QLineControl@@QEBAIXZ
       5568 15BF 0041D4B0 ?echoMode@QLineEdit@@QEBA?AW4EchoMode@1@XZ
       5569 15C0 0018D260 ?edge@QWingedEdge@@QEAAPEAVQPathEdge@@H@Z
       5570 15C1 0018D280 ?edge@QWingedEdge@@QEBAPEBVQPathEdge@@H@Z
       5571 15C2 0018D2A0 ?edgeCount@QWingedEdge@@QEBAHXZ
       5572 15C3 0064FA60 ?edgeOrientation@QGraphicsAnchorLayoutPrivate@@SA?AW4Orientation@1@W4AnchorPoint@Qt@@@Z
       5573 15C4 00516610 ?edit@QAbstractItemView@@MEAA_NAEBVQModelIndex@@W4EditTrigger@1@PEAVQEvent@@@Z
       5574 15C5 005167F0 ?edit@QAbstractItemView@@QEAAXAEBVQModelIndex@@@Z
       5575 15C6 00578A10 ?editItem@QListWidget@@QEAAXPEAVQListWidgetItem@@@Z
       5576 15C7 00581CE0 ?editItem@QTableWidget@@QEAAXPEAVQTableWidgetItem@@@Z
       5577 15C8 005904E0 ?editItem@QTreeWidget@@QEAAXPEAVQTreeWidgetItem@@H@Z
       5578 15C9 003E0CB0 ?editTextChanged@QComboBox@@IEAAXAEBVQString@@@Z
       5579 15CA 00516860 ?editTriggers@QAbstractItemView@@QEBA?AV?$QFlags@W4EditTrigger@QAbstractItemView@@@@XZ
       5580 15CB 00024DA0 ?editableTextInterface@QAccessibleInterface@@QEAAPEAVQAccessibleEditableTextInterface@@XZ
       5581 15CC 003CD7E0 ?editingFinished@QAbstractSpinBox@@IEAAXXZ
       5582 15CD 006840D0 ?editingFinished@QLineControl@@IEAAXXZ
       5583 15CE 0041D4D0 ?editingFinished@QLineEdit@@IEAAXXZ
       5584 15CF 00516870 ?editor@QAbstractItemViewPrivate@@QEAAPEAVQWidget@@AEBVQModelIndex@@AEBVQStyleOptionViewItem@@@Z
       5585 15D0 00516A10 ?editorDestroyed@QAbstractItemView@@MEAAXPEAVQObject@@@Z
       5586 15D1 0055E6F0 ?editorEvent@QAbstractItemDelegate@@UEAA_NPEAVQEvent@@PEAVQAbstractItemModel@@AEBVQStyleOptionViewItem@@AEBVQModelIndex@@@Z
       5587 15D2 00560840 ?editorEvent@QItemDelegate@@MEAA_NPEAVQEvent@@PEAVQAbstractItemModel@@AEBVQStyleOptionViewItem@@AEBVQModelIndex@@@Z
       5588 15D3 005C8250 ?editorEvent@QStyledItemDelegate@@MEAA_NPEAVQEvent@@PEAVQAbstractItemModel@@AEBVQStyleOptionViewItem@@AEBVQModelIndex@@@Z
       5589 15D4 00516A90 ?editorForIndex@QAbstractItemViewPrivate@@QEBAAEBUQEditorInfo@@AEBVQModelIndex@@@Z
       5590 15D5 005DD0D0 ?effectiveBoundingRect@QGraphicsItemPrivate@@QEBA?AVQRectF@@AEBV2@@Z
       5591 15D6 005DD360 ?effectiveBoundingRect@QGraphicsItemPrivate@@QEBA?AVQRectF@@PEAVQGraphicsItem@@@Z
       5592 15D7 0000E670 ?effectiveFocusWidget@QWidgetPrivate@@QEAAPEAVQWidget@@XZ
       5593 15D8 005DD540 ?effectiveOpacity@QGraphicsItem@@QEBANXZ
       5594 15D9 0000E6B0 ?effectiveOpacity@QGraphicsItemPrivate@@QEBANXZ
       5595 15DA 0000E6E0 ?effectiveRectFor@QWidgetPrivate@@QEBA?AVQRect@@AEBV2@@Z
       5596 15DB 005F5570 ?effectiveSizeHint@QGraphicsLayoutItem@@QEBA?AVQSizeF@@W4SizeHint@Qt@@AEBV2@@Z
       5597 15DC 005F5600 ?effectiveSizeHints@QGraphicsLayoutItemPrivate@@QEBAPEAVQSizeF@@AEBV2@@Z
       5598 15DD 000715F0 ?effectiveWinId@QWidget@@QEBAPEAUHWND__@@XZ
       5599 15DE 00168030 ?elementAt@QPainterPath@@QEBAAEBVElement@1@H@Z
       5600 15DF 0015EE20 ?elementCount@QPainterPath@@QEBAHXZ
       5601 15E0 00024DB0 ?elementCount@QVectorPath@@QEBAHXZ
       5602 15E1 00024DC0 ?elements@QVectorPath@@QEBAPEBW4ElementType@QPainterPath@@XZ
       5603 15E2 004697C0 ?elideMode@QTabBar@@QEBA?AW4TextElideMode@Qt@@XZ
       5604 15E3 00471580 ?elideMode@QTabWidget@@QEBA?AW4TextElideMode@Qt@@XZ
       5605 15E4 0055E700 ?elidedText@QAbstractItemDelegate@@SA?AVQString@@AEBVQFontMetrics@@HW4TextElideMode@Qt@@AEBV2@@Z
       5606 15E5 00255B90 ?elidedText@QFontMetrics@@QEBA?AVQString@@AEBV2@W4TextElideMode@Qt@@HH@Z
       5607 15E6 00255DF0 ?elidedText@QFontMetricsF@@QEBA?AVQString@@AEBV2@W4TextElideMode@Qt@@NH@Z
       5608 15E7 00275D90 ?elidedText@QTextEngine@@QEBA?AVQString@@W4TextElideMode@Qt@@AEBUQFixed@@H@Z
       5609 15E8 0016A8D0 ?emSquareSize@QFontEngine@@UEBA?AUQFixed@@XZ
       5610 15E9 001EB4A0 ?emitAboutToDestroy@QPaintBufferSignalProxy@@QEAAXPEBVQPaintBufferPrivate@@@Z
       5611 15EA 003E0CE0 ?emitActivated@QComboBoxPrivate@@QEAAXAEBVQModelIndex@@@Z
       5612 15EB 000379D0 ?emitChanged@QClipboard@@AEAAXW4Mode@1@@Z
       5613 15EC 00024DD0 ?emitCubicTo@QStroker@@QEAAXNNNNNN@Z
       5614 15ED 00024EB0 ?emitCubicTo@QStrokerOps@@IEAAXNNNNNN@Z
       5615 15EE 00420F70 ?emitCursorPositionChanged@QLineControl@@AEAAXXZ
       5616 15EF 005B4BF0 ?emitDataChanged@QStandardItem@@IEAAXXZ
       5617 15F0 005906E0 ?emitDataChanged@QTreeWidgetItem@@IEAAXXZ
       5618 15F1 004CABE0 ?emitFilesSelected@QFileDialogPrivate@@QEAAXAEBVQStringList@@@Z
       5619 15F2 00024F20 ?emitLastWindowClosed@QApplicationPrivate@@SAXXZ
       5620 15F3 00024FD0 ?emitLineTo@QStroker@@QEAAXNN@Z
       5621 15F4 00025010 ?emitLineTo@QStrokerOps@@IEAAXNN@Z
       5622 15F5 00025020 ?emitMoveTo@QStroker@@QEAAXNN@Z
       5623 15F6 00025060 ?emitMoveTo@QStrokerOps@@IEAAXNN@Z
       5624 15F7 002A2DA0 ?emitRedoAvailable@QTextDocumentPrivate@@QEAAX_N@Z
       5625 15F8 00568570 ?emitSelectionChanged@QItemSelectionModel@@IEAAXAEBVQItemSelection@@0@Z
       5626 15F9 002A2DE0 ?emitUndoAvailable@QTextDocumentPrivate@@QEAAX_N@Z
       5627 15FA 00344C20 ?empty@?$QList@VQItemSelectionRange@@@@QEBA_NXZ
       5628 15FB 0066C0D0 ?emptyLabel@QUndoView@@QEBA?AVQString@@XZ
       5629 15FC 00106270 ?enableCleanupHooks@QImagePixmapCleanupHooks@@SAXAEBVQImage@@@Z
       5630 15FD 00106280 ?enableCleanupHooks@QImagePixmapCleanupHooks@@SAXAEBVQPixmap@@@Z
       5631 15FE 00106290 ?enableCleanupHooks@QImagePixmapCleanupHooks@@SAXPEAVQPixmapData@@@Z
       5632 15FF 00607460 ?enableMouseTrackingOnViews@QGraphicsScenePrivate@@QEAAXXZ
       5633 1600 0065CDE0 ?enableRichText@QSystemTrayIcon@@QEAAX_N@Z
       5634 1601 00607500 ?enableTouchEventsOnViews@QGraphicsScenePrivate@@QEAAXXZ
       5635 1602 002A2E20 ?enableUndoRedo@QTextDocumentPrivate@@QEAAX_N@Z
       5636 1603 00071670 ?enabledChange@QWidget@@MEAAX_N@Z
       5637 1604 0068A360 ?enabledChanged@QGraphicsEffect@@IEAAX_N@Z
       5638 1605 005DD570 ?enabledChanged@QGraphicsObject@@IEAAXXZ
       5639 1606 004B7410 ?enabledOptions@QAbstractPrintDialog@@QEBA?AV?$QFlags@W4PrintDialogOption@QAbstractPrintDialog@@@@XZ
       5640 1607 004F65A0 ?enabledOptions@QPageSetupDialog@@QEBA?AV?$QFlags@W4PageSetupDialogOption@QPageSetupDialog@@@@XZ
       5641 1608 0004E660 ?encodeString@QKeySequence@@CA?AVQString@@H@Z
       5642 1609 0004E690 ?encodeString@QKeySequencePrivate@@SA?AVQString@@HW4SequenceFormat@QKeySequence@@@Z
       5643 160A 00040180 ?encodedData@QDropEvent@@UEBA?AVQByteArray@@PEBD@Z
       5644 160B 00344C50 ?end@?$QList@VQItemSelectionRange@@@@QEAA?AViterator@1@XZ
       5645 160C 00344CA0 ?end@?$QList@VQItemSelectionRange@@@@QEBA?AVconst_iterator@1@XZ
       5646 160D 0022B3D0 ?end@QBlitterPaintEngine@@UEAA_NXZ
       5647 160E 00025140 ?end@QDashStroker@@UEAAXXZ
       5648 160F 003CD810 ?end@QLineControl@@QEAAX_N@Z
       5649 1610 003CD870 ?end@QLineControl@@QEBAHXZ
       5650 1611 0041D4F0 ?end@QLineEdit@@QEAAX_N@Z
       5651 1612 0017FBB0 ?end@QPainter@@QEAA_NXZ
       5652 1613 001CDF80 ?end@QStrokerOps@@UEAAXXZ
       5653 1614 00292740 ?end@QTextBlock@@QEBA?AViterator@1@XZ
       5654 1615 0029B540 ?end@QTextDocument@@QEBA?AVQTextBlock@@XZ
       5655 1616 000EC270 ?end@QTextDocumentPrivate@@QEBA?AVConstIterator@?$QFragmentMap@VQTextFragmentData@@@@XZ
       5656 1617 00292860 ?end@QTextFrame@@QEBA?AViterator@1@XZ
       5657 1618 002D1C60 ?end@QTextTableCell@@QEBA?AViterator@QTextFrame@@XZ
       5658 1619 001079C0 ?endDataAccess@QVolatileImage@@QEBAX_N@Z
       5659 161A 002C4A00 ?endEditBlock@QTextCursor@@QEAAXXZ
       5660 161B 002A2F60 ?endEditBlock@QTextDocumentPrivate@@QEAAXXZ
       5661 161C 00284010 ?endLayout@QTextLayout@@QEAAXXZ
       5662 161D 0066A770 ?endMacro@QUndoStack@@QEAAXXZ
       5663 161E 00025170 ?endNativePainting@QPaintEngineEx@@UEAAXXZ
       5664 161F 0017FD30 ?endNativePainting@QPainter@@QEAAXXZ
       5665 1620 00276940 ?endOfLine@QTextEngine@@AEAAHH@Z
       5666 1621 00238800 ?endPaint@QWidgetBackingStore@@AEAAXAEBVQRegion@@PEAVQWindowSurface@@PEAUBeginPaintInfo@@@Z
       5667 1622 001E1E90 ?endPaint@QWindowSurface@@UEAAXAEBVQRegion@@@Z
       5668 1623 0042A5F0 ?endSeparatorMove@QMainWindowLayout@@QEAA_NAEBVQPoint@@@Z
       5669 1624 0012FF30 ?endTangent@QBezier@@QEBA?AVQLineF@@XZ
       5670 1625 00344CD0 ?endsWith@?$QList@VQItemSelectionRange@@@@QEBA_NAEBVQItemSelectionRange@@@Z
       5671 1626 0000E7D0 ?enforceNativeChildren@QWidgetPrivate@@QEAAXXZ
       5672 1627 00068E60 ?engine@QTextLayout@@QEBAPEAVQTextEngine@@XZ
       5673 1628 0023FA30 ?engineForScript@QFontPrivate@@QEBAPEAVQFontEngine@@H@Z
       5674 1629 004A5820 ?ensureBlockLayout@QPlainTextDocumentLayout@@QEBAXAEBVQTextBlock@@@Z
       5675 162A 004A5870 ?ensureCursorVisible@QPlainTextEdit@@QEAAXXZ
       5676 162B 00269460 ?ensureCursorVisible@QTextControl@@UEAAXXZ
       5677 162C 00475160 ?ensureCursorVisible@QTextEdit@@QEAAXXZ
       5678 162D 00156250 ?ensureData@QPainterPath@@AEAAXXZ
       5679 162E 0018D320 ?ensureData_helper@QPainterPath@@AEAAXXZ
       5680 162F 001079D0 ?ensureFormat@QVolatileImage@@QEAA_NW4Format@QImage@@@Z
       5681 1630 001C6220 ?ensureHandle@QRegion@@AEBAXXZ
       5682 1631 002B90D0 ?ensureLayouted@QTextDocumentLayout@@QEAAXN@Z
       5683 1632 002A3040 ?ensureMaximumBlockCount@QTextDocumentPrivate@@QEAA_NXZ
       5684 1633 000716F0 ?ensurePolished@QWidget@@QEBAXXZ
       5685 1634 0000E870 ?ensureSceneTransform@QGraphicsItemPrivate@@QEAAXXZ
       5686 1635 005DD620 ?ensureSceneTransformRecursive@QGraphicsItemPrivate@@QEAAXPEAPEAVQGraphicsItem@@@Z
       5687 1636 005DD6F0 ?ensureSequentialSiblingIndex@QGraphicsItemPrivate@@QEAAXXZ
       5688 1637 006077A0 ?ensureSequentialTopLevelSiblingIndexes@QGraphicsScenePrivate@@QEAAXXZ
       5689 1638 00578B40 ?ensureSorted@QListModel@@QEAAXHW4SortOrder@Qt@@HH@Z
       5690 1639 0000E890 ?ensureSortedChildren@QGraphicsItemPrivate@@QEAAXXZ
       5691 163A 005DD840 ?ensureSortedTopLevelItems@QGraphicsScenePrivate@@QEAAXXZ
       5692 163B 000EC290 ?ensureSpace@QTextEngine@@QEBA_NH@Z
       5693 163C 005F5CC0 ?ensureUserSizeHints@QGraphicsLayoutItemPrivate@@QEAAXXZ
       5694 163D 005DD910 ?ensureVisible@QGraphicsItem@@QEAAXAEBVQRectF@@HH@Z
       5695 163E 0000E9C0 ?ensureVisible@QGraphicsItem@@QEAAXNNNNHH@Z
       5696 163F 00624F80 ?ensureVisible@QGraphicsView@@QEAAXAEBVQRectF@@HH@Z
       5697 1640 0000EA10 ?ensureVisible@QGraphicsView@@QEAAXNNNNHH@Z
       5698 1641 00625230 ?ensureVisible@QGraphicsView@@QEAAXPEBVQGraphicsItem@@HH@Z
       5699 1642 0048CFC0 ?ensureVisible@QScrollArea@@QEAAXHHHH@Z
       5700 1643 0048D200 ?ensureWidgetVisible@QScrollArea@@QEAAXPEAVQWidget@@HH@Z
       5701 1644 003E0D90 ?enterEvent@QComboBoxPrivateScroller@@MEAAXPEAVQEvent@@@Z
       5702 1645 00448F80 ?enterEvent@QMenu@@MEAAXPEAVQEvent@@@Z
       5703 1646 00484E30 ?enterEvent@QToolButton@@MEAAXPEAVQEvent@@@Z
       5704 1647 00071860 ?enterEvent@QWidget@@MEAAXPEAVQEvent@@@Z
       5705 1648 00025180 ?enterModal@QApplicationPrivate@@SAXPEAVQWidget@@@Z
       5706 1649 006078E0 ?enterModal@QGraphicsScenePrivate@@QEAAXPEAVQGraphicsItem@@W4PanelModality@2@@Z
       5707 164A 0009AD20 ?enterModal_sys@QApplicationPrivate@@SAXPEAVQWidget@@@Z
       5708 164B 00068E70 ?enterWhatsThisMode@QWhatsThis@@SAXXZ
       5709 164C 00516CD0 ?entered@QAbstractItemView@@IEAAXAEBVQModelIndex@@@Z
       5710 164D 002F0360 ?entryInfoAt@QZipReader@@QEBA?AUFileInfo@1@H@Z
       5711 164E 001C63B0 ?eor@QRegion@@QEBA?AV1@AEBV1@@Z
       5712 164F 00344D40 ?erase@?$QList@VQItemSelectionRange@@@@QEAA?AViterator@1@V21@0@Z
       5713 1650 00344E50 ?erase@?$QList@VQItemSelectionRange@@@@QEAA?AViterator@1@V21@@Z
       5714 1651 0031BF00 ?eraseRect@QPainter@@QEAAXAEBVQRect@@@Z
       5715 1652 0017FE40 ?eraseRect@QPainter@@QEAAXAEBVQRectF@@@Z
       5716 1653 004BA220 ?eraseRect@QPainter@@QEAAXHHHH@Z
       5717 1654 000E5650 ?error@QImageReader@@QEBA?AW4ImageReaderError@1@XZ
       5718 1655 000E8750 ?error@QImageWriter@@QEBA?AW4ImageWriterError@1@XZ
       5719 1656 00101ED0 ?error@QMovie@@IEAAXW4ImageReaderError@QImageReader@@@Z
       5720 1657 000E5660 ?errorString@QImageReader@@QEBA?AVQString@@XZ
       5721 1658 000E8760 ?errorString@QImageWriter@@QEBA?AVQString@@XZ
       5722 1659 002DF330 ?errorSymbol@Parser@QCss@@QEAA?AUSymbol@2@XZ
       5723 165A 0029B560 ?escape@Qt@@YA?AVQString@@AEBV2@@Z
       5724 165B 004DB7E0 ?escapeButton@QMessageBox@@QEBAPEAVQAbstractButton@@XZ
       5725 165C 0061BBD0 ?estimateItems@QGraphicsSceneBspTreeIndex@@UEBA?AV?$QList@PEAVQGraphicsItem@@@@AEBVQRectF@@W4SortOrder@Qt@@@Z
       5726 165D 0061FA60 ?estimateItems@QGraphicsSceneIndex@@UEBA?AV?$QList@PEAVQGraphicsItem@@@@AEBVQPointF@@W4SortOrder@Qt@@@Z
       5727 165E 00607FF0 ?estimateItems@QGraphicsSceneLinearIndex@@UEBA?AV?$QList@PEAVQGraphicsItem@@@@AEBVQRectF@@W4SortOrder@Qt@@@Z
       5728 165F 0061BE00 ?estimateTopLevelItems@QGraphicsSceneBspTreeIndex@@UEBA?AV?$QList@PEAVQGraphicsItem@@@@AEBVQRectF@@W4SortOrder@Qt@@@Z
       5729 1660 0061FAF0 ?estimateTopLevelItems@QGraphicsSceneIndex@@UEBA?AV?$QList@PEAVQGraphicsItem@@@@AEBVQRectF@@W4SortOrder@Qt@@@Z
       5730 1661 003C7890 ?event@QAbstractButton@@MEAA_NPEAVQEvent@@@Z
       5731 1662 00516E10 ?event@QAbstractItemView@@MEAA_NPEAVQEvent@@@Z
       5732 1663 00488580 ?event@QAbstractScrollArea@@MEAA_NPEAVQEvent@@@Z
       5733 1664 003C9F10 ?event@QAbstractSlider@@MEAA_NPEAVQEvent@@@Z
       5734 1665 003CD880 ?event@QAbstractSpinBox@@UEAA_NPEAVQEvent@@@Z
       5735 1666 0000EAB0 ?event@QAction@@MEAA_NPEAVQEvent@@@Z
       5736 1667 000253C0 ?event@QApplication@@MEAA_NPEAVQEvent@@@Z
       5737 1668 003D6A90 ?event@QCalendarWidget@@MEAA_NPEAVQEvent@@@Z
       5738 1669 003DCEB0 ?event@QCheckBox@@MEAA_NPEAVQEvent@@@Z
       5739 166A 000A5510 ?event@QClipboard@@MEAA_NPEAVQEvent@@@Z
       5740 166B 003E0DC0 ?event@QComboBox@@UEAA_NPEAVQEvent@@@Z
       5741 166C 003EA3C0 ?event@QCommandLinkButton@@MEAA_NPEAVQEvent@@@Z
       5742 166D 00660520 ?event@QCompleter@@MEAA_NPEAVQEvent@@@Z
       5743 166E 003EDA80 ?event@QDateTimeEdit@@UEAA_NPEAVQEvent@@@Z
       5744 166F 003F3B30 ?event@QDial@@MEAA_NPEAVQEvent@@@Z
       5745 1670 003F5F20 ?event@QDialogButtonBox@@MEAA_NPEAVQEvent@@@Z
       5746 1671 003F9680 ?event@QDockWidget@@MEAA_NPEAVQEvent@@@Z
       5747 1672 004EBC20 ?event@QFileSystemModel@@MEAA_NPEAVQEvent@@@Z
       5748 1673 0048C270 ?event@QFocusFrame@@MEAA_NPEAVQEvent@@@Z
       5749 1674 0040DC00 ?event@QFontComboBox@@MEAA_NPEAVQEvent@@@Z
       5750 1675 0040F2F0 ?event@QFrame@@MEAA_NPEAVQEvent@@@Z
       5751 1676 005F8B00 ?event@QGraphicsProxyWidget@@MEAA_NPEAVQEvent@@@Z
       5752 1677 00608030 ?event@QGraphicsScene@@MEAA_NPEAVQEvent@@@Z
       5753 1678 0061BE30 ?event@QGraphicsSceneBspTreeIndex@@MEAA_NPEAVQEvent@@@Z
       5754 1679 00625280 ?event@QGraphicsView@@MEAA_NPEAVQEvent@@@Z
       5755 167A 0062EC90 ?event@QGraphicsWidget@@MEAA_NPEAVQEvent@@@Z
       5756 167B 00410550 ?event@QGroupBox@@MEAA_NPEAVQEvent@@@Z
       5757 167C 00524010 ?event@QHeaderView@@MEAA_NPEAVQEvent@@@Z
       5758 167D 00419740 ?event@QLCDNumber@@MEAA_NPEAVQEvent@@@Z
       5759 167E 00412E00 ?event@QLabel@@MEAA_NPEAVQEvent@@@Z
       5760 167F 0041D550 ?event@QLineEdit@@UEAA_NPEAVQEvent@@@Z
       5761 1680 005346F0 ?event@QListView@@MEAA_NPEAVQEvent@@@Z
       5762 1681 00579240 ?event@QListWidget@@MEAA_NPEAVQEvent@@@Z
       5763 1682 00426810 ?event@QMainWindow@@MEAA_NPEAVQEvent@@@Z
       5764 1683 00432B00 ?event@QMdiArea@@MEAA_NPEAVQEvent@@@Z
       5765 1684 0043DF80 ?event@QMdiSubWindow@@MEAA_NPEAVQEvent@@@Z
       5766 1685 00448F90 ?event@QMenu@@MEAA_NPEAVQEvent@@@Z
       5767 1686 00452960 ?event@QMenuBar@@MEAA_NPEAVQEvent@@@Z
       5768 1687 004DB7F0 ?event@QMessageBox@@MEAA_NPEAVQEvent@@@Z
       5769 1688 003C3B70 ?event@QMotifStyle@@UEAA_NPEAVQEvent@@@Z
       5770 1689 004A5FA0 ?event@QPlainTextEdit@@MEAA_NPEAVQEvent@@@Z
       5771 168A 004567E0 ?event@QProgressBar@@MEAA_NPEAVQEvent@@@Z
       5772 168B 0032C2A0 ?event@QProxyStyle@@MEAA_NPEAVQEvent@@@Z
       5773 168C 00457ED0 ?event@QPushButton@@MEAA_NPEAVQEvent@@@Z
       5774 168D 00458FB0 ?event@QRadioButton@@MEAA_NPEAVQEvent@@@Z
       5775 168E 00459A00 ?event@QRubberBand@@MEAA_NPEAVQEvent@@@Z
       5776 168F 0048D5A0 ?event@QScrollArea@@MEAA_NPEAVQEvent@@@Z
       5777 1690 0045A4F0 ?event@QScrollBar@@UEAA_NPEAVQEvent@@@Z
       5778 1691 00059260 ?event@QShortcut@@MEAA_NPEAVQEvent@@@Z
       5779 1692 004E20A0 ?event@QSidebar@@MEAA_NPEAVQEvent@@@Z
       5780 1693 0045BCA0 ?event@QSizeGrip@@MEAA_NPEAVQEvent@@@Z
       5781 1694 0045CC50 ?event@QSlider@@UEAA_NPEAVQEvent@@@Z
       5782 1695 00097CA0 ?event@QSoftKeyManager@@MEAA_NPEAVQEvent@@@Z
       5783 1696 0045E590 ?event@QSpinBox@@MEAA_NPEAVQEvent@@@Z
       5784 1697 00460730 ?event@QSplashScreen@@MEAA_NPEAVQEvent@@@Z
       5785 1698 004628A0 ?event@QSplitter@@MEAA_NPEAVQEvent@@@Z
       5786 1699 00462930 ?event@QSplitterHandle@@MEAA_NPEAVQEvent@@@Z
       5787 169A 00465F10 ?event@QStackedWidget@@MEAA_NPEAVQEvent@@@Z
       5788 169B 004669F0 ?event@QStatusBar@@MEAA_NPEAVQEvent@@@Z
       5789 169C 00344ED0 ?event@QStyleSheetStyle@@MEAA_NPEAVQEvent@@@Z
       5790 169D 0065CDF0 ?event@QSystemTrayIcon@@MEAA_NPEAVQEvent@@@Z
       5791 169E 00469860 ?event@QTabBar@@MEAA_NPEAVQEvent@@@Z
       5792 169F 00471590 ?event@QTabWidget@@MEAA_NPEAVQEvent@@@Z
       5793 16A0 00582D10 ?event@QTableWidget@@MEAA_NPEAVQEvent@@@Z
       5794 16A1 00479920 ?event@QTextBrowser@@MEAA_NPEAVQEvent@@@Z
       5795 16A2 002695B0 ?event@QTextControl@@MEAA_NPEAVQEvent@@@Z
       5796 16A3 00475180 ?event@QTextEdit@@MEAA_NPEAVQEvent@@@Z
       5797 16A4 0047C9C0 ?event@QToolBar@@MEAA_NPEAVQEvent@@@Z
       5798 16A5 004829E0 ?event@QToolBox@@MEAA_NPEAVQEvent@@@Z
       5799 16A6 00484E90 ?event@QToolButton@@MEAA_NPEAVQEvent@@@Z
       5800 16A7 005912F0 ?event@QTreeWidget@@MEAA_NPEAVQEvent@@@Z
       5801 16A8 00071920 ?event@QWidget@@MEAA_NPEAVQEvent@@@Z
       5802 16A9 00085400 ?event@QWidgetAction@@MEAA_NPEAVQEvent@@@Z
       5803 16AA 003655B0 ?event@QWindowsVistaStyle@@UEAA_NPEAVQEvent@@@Z
       5804 16AB 004FAE10 ?event@QWizard@@MEAA_NPEAVQEvent@@@Z
       5805 16AC 00492210 ?event@QWorkspace@@MEAA_NPEAVQEvent@@@Z
       5806 16AD 003D6CE0 ?eventFilter@QCalendarWidget@@MEAA_NPEAVQObject@@PEAVQEvent@@@Z
       5807 16AE 003E0E60 ?eventFilter@QComboBoxPrivateContainer@@MEAA_NPEAVQObject@@PEAVQEvent@@@Z
       5808 16AF 00660530 ?eventFilter@QCompleter@@MEAA_NPEAVQObject@@PEAVQEvent@@@Z
       5809 16B0 004BFA10 ?eventFilter@QDialog@@MEAA_NPEAVQObject@@PEAVQEvent@@@Z
       5810 16B1 0048C280 ?eventFilter@QFocusFrame@@MEAA_NPEAVQObject@@PEAVQEvent@@@Z
       5811 16B2 004D40F0 ?eventFilter@QFontDialog@@EEAA_NPEAVQObject@@PEAVQEvent@@@Z
       5812 16B3 005F8F20 ?eventFilter@QGraphicsProxyWidget@@MEAA_NPEAVQObject@@PEAVQEvent@@@Z
       5813 16B4 00608960 ?eventFilter@QGraphicsScene@@MEAA_NPEAVQObject@@PEAVQEvent@@@Z
       5814 16B5 00560A80 ?eventFilter@QItemDelegate@@MEAA_NPEAVQObject@@PEAVQEvent@@@Z
       5815 16B6 00432FC0 ?eventFilter@QMdiArea@@MEAA_NPEAVQObject@@PEAVQEvent@@@Z
       5816 16B7 0043E5B0 ?eventFilter@QMdiSubWindow@@MEAA_NPEAVQObject@@PEAVQEvent@@@Z
       5817 16B8 00452BA0 ?eventFilter@QMenuBar@@MEAA_NPEAVQObject@@PEAVQEvent@@@Z
       5818 16B9 003C3CB0 ?eventFilter@QMotifStyle@@MEAA_NPEAVQObject@@PEAVQEvent@@@Z
       5819 16BA 003920B0 ?eventFilter@QPlastiqueStyle@@MEAA_NPEAVQObject@@PEAVQEvent@@@Z
       5820 16BB 0048D600 ?eventFilter@QScrollArea@@MEAA_NPEAVQObject@@PEAVQEvent@@@Z
       5821 16BC 0045BCB0 ?eventFilter@QSizeGrip@@MEAA_NPEAVQObject@@PEAVQEvent@@@Z
       5822 16BD 005C8520 ?eventFilter@QStyledItemDelegate@@MEAA_NPEAVQObject@@PEAVQEvent@@@Z
       5823 16BE 000854D0 ?eventFilter@QWidgetAction@@MEAA_NPEAVQObject@@PEAVQEvent@@@Z
       5824 16BF 0048A900 ?eventFilter@QWidgetResizeHandler@@MEAA_NPEAVQObject@@PEAVQEvent@@@Z
       5825 16C0 003B9070 ?eventFilter@QWindowsStyle@@MEAA_NPEAVQObject@@PEAVQEvent@@@Z
       5826 16C1 004924D0 ?eventFilter@QWorkspace@@MEAA_NPEAVQObject@@PEAVQEvent@@@Z
       5827 16C2 00670F60 ?eventTest@QBasicKeyEventTransition@@MEAA_NPEAVQEvent@@@Z
       5828 16C3 006713B0 ?eventTest@QBasicMouseEventTransition@@MEAA_NPEAVQEvent@@@Z
       5829 16C4 00670250 ?eventTest@QKeyEventTransition@@MEAA_NPEAVQEvent@@@Z
       5830 16C5 00670900 ?eventTest@QMouseEventTransition@@MEAA_NPEAVQEvent@@@Z
       5831 16C6 00670FE0 ?eventType@QBasicKeyEventTransition@@QEBA?AW4Type@QEvent@@XZ
       5832 16C7 00671450 ?eventType@QBasicMouseEventTransition@@QEBA?AW4Type@QEvent@@XZ
       5833 16C8 0023FDE0 ?exactMatch@QFont@@QEBA_NXZ
       5834 16C9 00240070 ?exactMatch@QFontInfo@@QEBA_NXZ
       5835 16CA 003C7A30 ?exclusive@QButtonGroup@@QEBA_NXZ
       5836 16CB 00025760 ?exec@QApplication@@SAHXZ
       5837 16CC 004BFA20 ?exec@QDialog@@QEAAHXZ
       5838 16CD 00039AE0 ?exec@QDrag@@QEAA?AW4DropAction@Qt@@V?$QFlags@W4DropAction@Qt@@@@@Z
       5839 16CE 00039B00 ?exec@QDrag@@QEAA?AW4DropAction@Qt@@V?$QFlags@W4DropAction@Qt@@@@W423@@Z
       5840 16CF 004492C0 ?exec@QMenu@@QEAAPEAVQAction@@AEBVQPoint@@PEAV2@@Z
       5841 16D0 00449390 ?exec@QMenu@@QEAAPEAVQAction@@XZ
       5842 16D1 004493C0 ?exec@QMenu@@SAPEAVQAction@@V?$QList@PEAVQAction@@@@AEBVQPoint@@PEAV2@@Z
       5843 16D2 00449450 ?exec@QMenu@@SAPEAVQAction@@V?$QList@PEAVQAction@@@@AEBVQPoint@@PEAV2@PEAVQWidget@@@Z
       5844 16D3 004B3750 ?exec@QPageSetupDialog@@UEAAHXZ
       5845 16D4 000F0AF0 ?exec@QPicture@@AEAA_NPEAVQPainter@@AEAVQDataStream@@H@Z
       5846 16D5 004B4180 ?exec@QPrintDialog@@UEAAHXZ
       5847 16D6 001C65D0 ?exec@QRegion@@AEAAXAEBVQByteArray@@HW4ByteOrder@QDataStream@@@Z
       5848 16D7 00516FD0 ?executeDelayedItemsLayout@QAbstractItemView@@IEAAXXZ
       5849 16D8 001062A0 ?executeImageHooks@QImagePixmapCleanupHooks@@SAX_J@Z
       5850 16D9 00591420 ?executePendingSort@QTreeWidgetItem@@AEBAXXZ
       5851 16DA 00106330 ?executePixmapDataDestructionHooks@QImagePixmapCleanupHooks@@SAXPEAVQPixmapData@@@Z
       5852 16DB 00106400 ?executePixmapDataModificationHooks@QImagePixmapCleanupHooks@@SAXPEAVQPixmapData@@@Z
       5853 16DC 00517020 ?executePostedLayout@QAbstractItemViewPrivate@@QEBAXXZ
       5854 16DD 002F0400 ?exists@QZipReader@@QEBA_NXZ
       5855 16DE 002F0440 ?exists@QZipWriter@@QEBA_NXZ
       5856 16DF 00554080 ?expand@QTreeView@@QEAAXAEBVQModelIndex@@@Z
       5857 16E0 00554490 ?expand@QTreeViewPrivate@@QEAAXH_N@Z
       5858 16E1 00554800 ?expandAll@QTreeView@@QEAAXXZ
       5859 16E2 00591460 ?expandItem@QTreeWidget@@QEAAXPEBVQTreeWidgetItem@@@Z
       5860 16E3 00554860 ?expandOrCollapseItemAtPos@QTreeViewPrivate@@QEAA_NAEBVQPoint@@@Z
       5861 16E4 005549A0 ?expandToDepth@QTreeView@@QEAAXH@Z
       5862 16E5 00554CB0 ?expanded@QTreeView@@IEAAXAEBVQModelIndex@@@Z
       5863 16E6 00469BB0 ?expanding@QTabBar@@QEBA_NXZ
       5864 16E7 00034A50 ?expandingDirections@QBoxLayout@@UEBA?AV?$QFlags@W4Orientation@Qt@@@@XZ
       5865 16E8 00042A40 ?expandingDirections@QFormLayout@@UEBA?AV?$QFlags@W4Orientation@Qt@@@@XZ
       5866 16E9 00049090 ?expandingDirections@QGridLayout@@UEBA?AV?$QFlags@W4Orientation@Qt@@@@XZ
       5867 16EA 000514D0 ?expandingDirections@QLayout@@UEBA?AV?$QFlags@W4Orientation@Qt@@@@XZ
       5868 16EB 00054FF0 ?expandingDirections@QSizePolicy@@QEBA?AV?$QFlags@W4Orientation@Qt@@@@XZ
       5869 16EC 00055010 ?expandingDirections@QSpacerItem@@UEBA?AV?$QFlags@W4Orientation@Qt@@@@XZ
       5870 16ED 00055030 ?expandingDirections@QWidgetItem@@UEBA?AV?$QFlags@W4Orientation@Qt@@@@XZ
       5871 16EE 00554CE0 ?expandsOnDoubleClick@QTreeView@@QEBA_NXZ
       5872 16EF 003FFF50 ?expansive@QDockAreaLayoutInfo@@QEBA_NW4Orientation@Qt@@@Z
       5873 16F0 00517070 ?extendedSelectionCommand@QAbstractItemViewPrivate@@QEBA?AV?$QFlags@W4SelectionFlag@QItemSelectionModel@@@@AEBVQModelIndex@@PEBVQEvent@@@Z
       5874 16F1 004BFB90 ?extension@QDialog@@QEBAPEAVQWidget@@XZ
       5875 16F2 005DDAC0 ?extension@QGraphicsEllipseItem@@MEBA?AVQVariant@@AEBV2@@Z
       5876 16F3 005DDAF0 ?extension@QGraphicsItem@@MEBA?AVQVariant@@AEBV2@@Z
       5877 16F4 005DDB20 ?extension@QGraphicsLineItem@@MEBA?AVQVariant@@AEBV2@@Z
       5878 16F5 005DDB50 ?extension@QGraphicsPathItem@@MEBA?AVQVariant@@AEBV2@@Z
       5879 16F6 005DDB80 ?extension@QGraphicsPixmapItem@@MEBA?AVQVariant@@AEBV2@@Z
       5880 16F7 005DDBB0 ?extension@QGraphicsPolygonItem@@MEBA?AVQVariant@@AEBV2@@Z
       5881 16F8 005DDBE0 ?extension@QGraphicsRectItem@@MEBA?AVQVariant@@AEBV2@@Z
       5882 16F9 005DDC10 ?extension@QGraphicsSimpleTextItem@@MEBA?AVQVariant@@AEBV2@@Z
       5883 16FA 005DDC40 ?extension@QGraphicsTextItem@@MEBA?AVQVariant@@AEBV2@@Z
       5884 16FB 00AAFB80 ?externalLoader@QTextImageHandler@@2P6A?AVQImage@@AEBVQString@@0@ZEA
       5885 16FC 0000EB80 ?extra@QGraphicsItemPrivate@@QEBA?AVQVariant@@W4Extra@1@@Z
       5886 16FD 0000EC10 ?extraData@QWidgetPrivate@@QEBAPEAUQWExtra@@XZ
       5887 16FE 005DDC70 ?extraItemCache@QGraphicsItemPrivate@@QEBAPEAVQGraphicsItemCache@@XZ
       5888 16FF 004A6270 ?extraSelections@QPlainTextEdit@@QEBA?AV?$QList@UExtraSelection@QTextEdit@@@@XZ
       5889 1700 00269AA0 ?extraSelections@QTextControl@@QEBA?AV?$QList@UExtraSelection@QTextEdit@@@@XZ
       5890 1701 004752C0 ?extraSelections@QTextEdit@@QEBA?AV?$QList@UExtraSelection@QTextEdit@@@@XZ
       5891 1702 002F0480 ?extractAll@QZipReader@@QEBA_NAEBVQString@@@Z
       5892 1703 002DF3B0 ?extractBackground@ValueExtractor@QCss@@QEAA_NPEAVQBrush@@PEAVQString@@PEAW4Repeat@2@PEAV?$QFlags@W4AlignmentFlag@Qt@@@@PEAW4Origin@2@PEAW4Attachment@2@4@Z
       5893 1704 002DF7B0 ?extractBorder@ValueExtractor@QCss@@QEAA_NPEAHPEAVQBrush@@PEAW4BorderStyle@2@PEAVQSize@@@Z
       5894 1705 002DFC30 ?extractBox@ValueExtractor@QCss@@QEAA_NPEAH00@Z
       5895 1706 002DFE00 ?extractFont@ValueExtractor@QCss@@AEAAXXZ
       5896 1707 002DFE30 ?extractFont@ValueExtractor@QCss@@QEAA_NPEAVQFont@@PEAH@Z
       5897 1708 002E00A0 ?extractGeometry@ValueExtractor@QCss@@QEAA_NPEAH00000@Z
       5898 1709 002E01E0 ?extractImage@ValueExtractor@QCss@@QEAA_NPEAVQIcon@@PEAV?$QFlags@W4AlignmentFlag@Qt@@@@PEAVQSize@@@Z
       5899 170A 002E0390 ?extractOutline@ValueExtractor@QCss@@QEAA_NPEAHPEAVQBrush@@PEAW4BorderStyle@2@PEAVQSize@@0@Z
       5900 170B 002E0610 ?extractPalette@ValueExtractor@QCss@@QEAA_NPEAVQBrush@@000@Z
       5901 170C 002E0750 ?extractPosition@ValueExtractor@QCss@@QEAA_NPEAH000PEAW4Origin@2@PEAV?$QFlags@W4AlignmentFlag@Qt@@@@PEAW4PositionMode@2@2@Z
       5902 170D 002E08F0 ?extractStyleFeatures@ValueExtractor@QCss@@QEAAHXZ
       5903 170E 0016A8F0 ?faceId@QFontEngine@@UEBA?AUFaceId@1@XZ
       5904 170F 00AACA20 ?fade_menu@QApplicationPrivate@@2_NA
       5905 1710 00AACA21 ?fade_tooltip@QApplicationPrivate@@2_NA
       5906 1711 0025B820 ?families@QFontDatabase@@QEBA?AVQStringList@@W4WritingSystem@1@@Z
       5907 1712 002400C0 ?family@QFont@@QEBA?AVQString@@XZ
       5908 1713 002400F0 ?family@QFontInfo@@QEBA?AVQString@@XZ
       5909 1714 002FC5D0 ?familyName@QRawFont@@QEBA?AVQString@@XZ
       5910 1715 003F9B30 ?features@QDockWidget@@QEBA?AV?$QFlags@W4DockWidgetFeature@QDockWidget@@@@XZ
       5911 1716 00237410 ?features@QRasterWindowSurface@@UEBA?AV?$QFlags@W4WindowSurfaceFeature@QWindowSurface@@@@XZ
       5912 1717 001E1F30 ?features@QWindowSurface@@UEBA?AV?$QFlags@W4WindowSurfaceFeature@QWindowSurface@@@@XZ
       5913 1718 003F9B40 ?featuresChanged@QDockWidget@@IEAAXV?$QFlags@W4DockWidgetFeature@QDockWidget@@@@@Z
       5914 1719 004F48B0 ?fetch@QFileInfoGatherer@@AEAAXAEBVQFileInfo@@AEAVQElapsedTimer@@AEA_NAEAV?$QList@U?$QPair@VQString@@VQFileInfo@@@@@@AEBVQString@@@Z
       5915 171A 004F49C0 ?fetchExtendedInformation@QFileInfoGatherer@@QEAAXAEBVQString@@AEBVQStringList@@@Z
       5916 171B 00517400 ?fetchMore@QAbstractItemViewPrivate@@QEAAXXZ
       5917 171C 0059A980 ?fetchMore@QAbstractProxyModel@@UEAAXAEBVQModelIndex@@@Z
       5918 171D 004EBCB0 ?fetchMore@QFileSystemModel@@UEAAXAEBVQModelIndex@@@Z
       5919 171E 00599C80 ?fetchMore@QProxyModel@@UEAAXAEBVQModelIndex@@@Z
       5920 171F 005A5F50 ?fetchMore@QSortFilterProxyModel@@UEAAXAEBVQModelIndex@@@Z
       5921 1720 004FAFA0 ?field@QWizard@@QEBA?AVQVariant@@AEBVQString@@@Z
       5922 1721 004FB090 ?field@QWizardPage@@IEBA?AVQVariant@@AEBVQString@@@Z
       5923 1722 00042AB0 ?fieldGrowthPolicy@QFormLayout@@QEBA?AW4FieldGrowthPolicy@1@XZ
       5924 1723 0068E250 ?file@QFileOpenEvent@@QEBA?AVQString@@XZ
       5925 1724 002F0E50 ?fileData@QZipReader@@QEBA?AVQByteArray@@AEBVQString@@@Z
       5926 1725 00025780 ?fileDialogDelete@QGuiPlatformPlugin@@UEAAXPEAVQFileDialog@@@Z
       5927 1726 00025790 ?fileDialogDirectory@QGuiPlatformPlugin@@UEBA?AVQString@@PEBVQFileDialog@@@Z
       5928 1727 000257C0 ?fileDialogResultCode@QGuiPlatformPlugin@@UEAA?AW4DialogCode@QDialog@@PEAVQFileDialog@@@Z
       5929 1728 000257D0 ?fileDialogSelectFile@QGuiPlatformPlugin@@UEAAXPEAVQFileDialog@@AEBVQString@@@Z
       5930 1729 000257E0 ?fileDialogSelectNameFilter@QGuiPlatformPlugin@@UEAAXPEAVQFileDialog@@AEBVQString@@@Z
       5931 172A 000257F0 ?fileDialogSelectedFiles@QGuiPlatformPlugin@@UEBA?AVQStringList@@PEBVQFileDialog@@@Z
       5932 172B 00025820 ?fileDialogSelectedNameFilter@QGuiPlatformPlugin@@UEBA?AVQString@@PEBVQFileDialog@@@Z
       5933 172C 00025850 ?fileDialogSetDirectory@QGuiPlatformPlugin@@UEAAXPEAVQFileDialog@@AEBVQString@@@Z
       5934 172D 00025860 ?fileDialogSetFilter@QGuiPlatformPlugin@@UEAAXPEAVQFileDialog@@@Z
       5935 172E 00025870 ?fileDialogSetNameFilters@QGuiPlatformPlugin@@UEAAXPEAVQFileDialog@@AEBVQStringList@@@Z
       5936 172F 00025880 ?fileDialogSetVisible@QGuiPlatformPlugin@@UEAA_NPEAVQFileDialog@@_N@Z
       5937 1730 0056F970 ?fileIcon@QDirModel@@QEBA?AVQIcon@@AEBVQModelIndex@@@Z
       5938 1731 004AEE70 ?fileIcon@QFileSystemModel@@QEBA?AVQIcon@@AEBVQModelIndex@@@Z
       5939 1732 0056FA30 ?fileInfo@QDirModel@@QEBA?AVQFileInfo@@AEBVQModelIndex@@@Z
       5940 1733 004AEED0 ?fileInfo@QFileSystemModel@@QEBA?AVQFileInfo@@AEBVQModelIndex@@@Z
       5941 1734 002F1310 ?fileInfoList@QZipReader@@QEBA?AV?$QList@UFileInfo@QZipReader@@@@XZ
       5942 1735 004CACE0 ?fileMode@QFileDialog@@QEBA?AW4FileMode@1@XZ
       5943 1736 0056FA60 ?fileName@QDirModel@@QEBA?AVQString@@AEBVQModelIndex@@@Z
       5944 1737 004AEF30 ?fileName@QFileSystemModel@@QEBA?AVQString@@AEBVQModelIndex@@@Z
       5945 1738 000E56E0 ?fileName@QImageReader@@QEBA?AVQString@@XZ
       5946 1739 000E8790 ?fileName@QImageWriter@@QEBA?AVQString@@XZ
       5947 173A 00101F10 ?fileName@QMovie@@QEBA?AVQString@@XZ
       5948 173B 000F2470 ?fileName@QPictureIO@@QEBA?AVQString@@XZ
       5949 173C 000BC3A0 ?fileName@QSound@@QEBA?AVQString@@XZ
       5950 173D 002D71C0 ?fileName@QTextDocumentWriter@@QEBA?AVQString@@XZ
       5951 173E 0056FB60 ?filePath@QDirModel@@QEBA?AVQString@@AEBVQModelIndex@@@Z
       5952 173F 004EBD60 ?filePath@QFileSystemModel@@QEBA?AVQString@@AEBVQModelIndex@@@Z
       5953 1740 004EBF70 ?filePath@QFileSystemModelPrivate@@QEBA?AVQString@@AEBVQModelIndex@@@Z
       5954 1741 004EC170 ?fileRenamed@QFileSystemModel@@IEAAXAEBVQString@@00@Z
       5955 1742 004CACF0 ?fileSelected@QFileDialog@@IEAAXAEBVQString@@@Z
       5956 1743 00098C70 ?fileSystemIcon@QGuiPlatformPlugin@@UEAA?AVQIcon@@AEBVQFileInfo@@@Z
       5957 1744 004CAD20 ?filesSelected@QFileDialog@@IEAAXAEBVQStringList@@@Z
       5958 1745 00105130 ?fill@QBlittablePixmapData@@UEAAXAEBVQColor@@@Z
       5959 1746 0022B3E0 ?fill@QBlitterPaintEngine@@UEAAXAEBVQVectorPath@@AEBVQBrush@@@Z
       5960 1747 000DA970 ?fill@QImage@@QEAAXAEBVQColor@@@Z
       5961 1748 000DABF0 ?fill@QImage@@QEAAXI@Z
       5962 1749 000DAD50 ?fill@QImage@@QEAAXW4GlobalColor@Qt@@@Z
       5963 174A 0000EC20 ?fill@QMatrix4x4@@QEAAXN@Z
       5964 174B 000F5D50 ?fill@QPixmap@@QEAAXAEBVQColor@@@Z
       5965 174C 00072890 ?fill@QPixmap@@QEAAXPEBVQWidget@@AEBVQPoint@@@Z
       5966 174D 0068E280 ?fill@QPixmap@@QEAAXPEBVQWidget@@HH@Z
       5967 174E 00103AE0 ?fill@QRasterPixmapData@@UEAAXAEBVQColor@@@Z
       5968 174F 00235D90 ?fill@QRuntimePixmapData@@UEAAXAEBVQColor@@@Z
       5969 1750 00107A20 ?fill@QVolatileImage@@QEAAXI@Z
       5970 1751 001D9500 ?fillInPendingGlyphs@QTextureGlyphCache@@QEAAXXZ
       5971 1752 0022B4A0 ?fillPath@QBlitterPaintEngine@@QEAAXAEBVQPainterPath@@PEAUQSpanData@@@Z
       5972 1753 0017FED0 ?fillPath@QPainter@@QEAAXAEBVQPainterPath@@AEBVQBrush@@@Z
       5973 1754 0022B530 ?fillPolygon@QBlitterPaintEngine@@QEAAXPEBVQPointF@@HW4PolygonDrawMode@QPaintEngine@@@Z
       5974 1755 0022B5C0 ?fillRect@QBlitterPaintEngine@@UEAAXAEBVQRectF@@AEBVQBrush@@@Z
       5975 1756 0022BF00 ?fillRect@QBlitterPaintEngine@@UEAAXAEBVQRectF@@AEBVQColor@@@Z
       5976 1757 001717F0 ?fillRect@QPaintEngineEx@@UEAAXAEBVQRectF@@AEBVQBrush@@@Z
       5977 1758 00171990 ?fillRect@QPaintEngineEx@@UEAAXAEBVQRectF@@AEBVQColor@@@Z
       5978 1759 00180090 ?fillRect@QPainter@@QEAAXAEBVQRect@@AEBVQBrush@@@Z
       5979 175A 00180300 ?fillRect@QPainter@@QEAAXAEBVQRect@@AEBVQColor@@@Z
       5980 175B 0068E2C0 ?fillRect@QPainter@@QEAAXAEBVQRect@@W4BrushStyle@Qt@@@Z
       5981 175C 00345060 ?fillRect@QPainter@@QEAAXAEBVQRect@@W4GlobalColor@Qt@@@Z
       5982 175D 001803B0 ?fillRect@QPainter@@QEAAXAEBVQRectF@@AEBVQBrush@@@Z
       5983 175E 00180600 ?fillRect@QPainter@@QEAAXAEBVQRectF@@AEBVQColor@@@Z
       5984 175F 0068E330 ?fillRect@QPainter@@QEAAXAEBVQRectF@@W4BrushStyle@Qt@@@Z
       5985 1760 004AC1D0 ?fillRect@QPainter@@QEAAXAEBVQRectF@@W4GlobalColor@Qt@@@Z
       5986 1761 000729A0 ?fillRect@QPainter@@QEAAXHHHHAEBVQBrush@@@Z
       5987 1762 001D9880 ?fillRect@QPainter@@QEAAXHHHHAEBVQColor@@@Z
       5988 1763 0068E380 ?fillRect@QPainter@@QEAAXHHHHW4BrushStyle@Qt@@@Z
       5989 1764 004BA280 ?fillRect@QPainter@@QEAAXHHHHW4GlobalColor@Qt@@@Z
       5990 1765 005DDD60 ?fillRule@QGraphicsPolygonItem@@QEBA?AW4FillRule@Qt@@XZ
       5991 1766 0018D5B0 ?fillRule@QPainterPath@@QEBA?AW4FillRule@Qt@@XZ
       5992 1767 001D98C0 ?fillTexture@QImageTextureGlyphCache@@UEAAXAEBUCoord@QTextureGlyphCache@@IUQFixed@@@Z
       5993 1768 0056FC50 ?filter@QDirModel@@QEBA?AV?$QFlags@W4Filter@QDir@@@@XZ
       5994 1769 004CAD50 ?filter@QFileDialog@@QEBA?AV?$QFlags@W4Filter@QDir@@@@XZ
       5995 176A 004EC1B0 ?filter@QFileSystemModel@@QEBA?AV?$QFlags@W4Filter@QDir@@@@XZ
       5996 176B 005A6080 ?filterAcceptsColumn@QSortFilterProxyModel@@MEBA_NHAEBVQModelIndex@@@Z
       5997 176C 005A6090 ?filterAcceptsRow@QSortFilterProxyModel@@MEBA_NHAEBVQModelIndex@@@Z
       5998 176D 005A6280 ?filterCaseSensitivity@QSortFilterProxyModel@@QEBA?AW4CaseSensitivity@Qt@@XZ
       5999 176E 005A62A0 ?filterChanged@QSortFilterProxyModel@@IEAAXXZ
       6000 176F 00608A30 ?filterDescendantEvent@QGraphicsScenePrivate@@QEAA_NPEAVQGraphicsItem@@PEAVQEvent@@@Z
       6001 1770 00608AE0 ?filterEvent@QGraphicsScenePrivate@@QEAA_NPEAVQGraphicsItem@@PEAVQEvent@@@Z
       6002 1771 005CA5E0 ?filterEvent@QInputContext@@UEAA_NPEBVQEvent@@@Z
       6003 1772 004AEF90 ?filterForMode@QFileDialogPrivate@@QEBA?AV?$QFlags@W4Filter@QDir@@@@V2@@Z
       6004 1773 005A62E0 ?filterKeyColumn@QSortFilterProxyModel@@QEBAHXZ
       6005 1774 005A62F0 ?filterRegExp@QSortFilterProxyModel@@QEBA?AVQRegExp@@XZ
       6006 1775 005A6320 ?filterRole@QSortFilterProxyModel@@QEBAHXZ
       6007 1776 004CAD80 ?filterSelected@QFileDialog@@IEAAXAEBVQString@@@Z
       6008 1777 004CADB0 ?filters@QFileDialog@@QEBA?AVQStringList@@XZ
       6009 1778 004EC1C0 ?filtersAcceptsNode@QFileSystemModelPrivate@@QEBA_NPEBVQFileSystemNode@1@@Z
       6010 1779 005DDD70 ?filtersChildEvents@QGraphicsItem@@QEBA_NXZ
       6011 177A 0014A360 ?finalStop@QLinearGradient@@QEBA?AVQPointF@@XZ
       6012 177B 000F9410 ?find@QPixmapCache@@SAPEAVQPixmap@@AEBVQString@@@Z
       6013 177C 000F9430 ?find@QPixmapCache@@SA_NAEBVKey@1@PEAVQPixmap@@@Z
       6014 177D 000F94A0 ?find@QPixmapCache@@SA_NAEBVQString@@AEAVQPixmap@@@Z
       6015 177E 000F94F0 ?find@QPixmapCache@@SA_NAEBVQString@@PEAVQPixmap@@@Z
       6016 177F 004A63C0 ?find@QPlainTextEdit@@QEAA_NAEBVQString@@V?$QFlags@W4FindFlag@QTextDocument@@@@@Z
       6017 1780 00269C40 ?find@QTextControl@@QEAA_NAEBVQString@@V?$QFlags@W4FindFlag@QTextDocument@@@@@Z
       6018 1781 0029B850 ?find@QTextDocument@@QEBA?AVQTextCursor@@AEBVQRegExp@@AEBV2@V?$QFlags@W4FindFlag@QTextDocument@@@@@Z
       6019 1782 0029B8F0 ?find@QTextDocument@@QEBA?AVQTextCursor@@AEBVQRegExp@@HV?$QFlags@W4FindFlag@QTextDocument@@@@@Z
       6020 1783 0029BAC0 ?find@QTextDocument@@QEBA?AVQTextCursor@@AEBVQString@@AEBV2@V?$QFlags@W4FindFlag@QTextDocument@@@@@Z
       6021 1784 0029BBC0 ?find@QTextDocument@@QEBA?AVQTextCursor@@AEBVQString@@HV?$QFlags@W4FindFlag@QTextDocument@@@@@Z
       6022 1785 000EC300 ?find@QTextDocumentPrivate@@QEBA?AVConstIterator@?$QFragmentMap@VQTextFragmentData@@@@H@Z
       6023 1786 004752F0 ?find@QTextEdit@@QEAA_NAEBVQString@@V?$QFlags@W4FindFlag@QTextDocument@@@@@Z
       6024 1787 00072BC0 ?find@QWidget@@SAPEAV1@PEAUHWND__@@@Z
       6025 1788 0029BC90 ?findBlock@QTextDocument@@QEBA?AVQTextBlock@@H@Z
       6026 1789 0029BCD0 ?findBlockByLineNumber@QTextDocument@@QEBA?AVQTextBlock@@H@Z
       6027 178A 0029BD10 ?findBlockByNumber@QTextDocument@@QEBA?AVQTextBlock@@H@Z
       6028 178B 0067D7D0 ?findBufferChanged@QClipboard@@IEAAXXZ
       6029 178C 00025940 ?findClosestTouchPointId@QApplicationPrivate@@QEAAHAEBVQPointF@@@Z
       6030 178D 00608CF0 ?findClosestTouchPointId@QGraphicsScenePrivate@@QEAAHAEBVQPointF@@@Z
       6031 178E 003E1220 ?findData@QComboBox@@QEBAHAEBVQVariant@@HV?$QFlags@W4MatchFlag@Qt@@@@@Z
       6032 178F 00420FC0 ?findInMask@QLineControl@@AEBAHH_N0VQChar@@@Z
       6033 1790 0019CD60 ?findInsertStatus@QWingedEdge@@AEBA?AUTraversalStatus@1@HH@Z
       6034 1791 002769F0 ?findItem@QTextEngine@@QEBAHH@Z
       6035 1792 00625350 ?findItems@QGraphicsViewPrivate@@QEBA?AV?$QList@PEAVQGraphicsItem@@@@AEBVQRegion@@PEA_NAEBVQTransform@@@Z
       6036 1793 00579250 ?findItems@QListWidget@@QEBA?AV?$QList@PEAVQListWidgetItem@@@@AEBVQString@@V?$QFlags@W4MatchFlag@Qt@@@@@Z
       6037 1794 005B5110 ?findItems@QStandardItemModel@@QEBA?AV?$QList@PEAVQStandardItem@@@@AEBVQString@@V?$QFlags@W4MatchFlag@Qt@@@@H@Z
       6038 1795 00582D20 ?findItems@QTableWidget@@QEBA?AV?$QList@PEAVQTableWidgetItem@@@@AEBVQString@@V?$QFlags@W4MatchFlag@Qt@@@@@Z
       6039 1796 00591500 ?findItems@QTreeWidget@@QEBA?AV?$QList@PEAVQTreeWidgetItem@@@@AEBVQString@@V?$QFlags@W4MatchFlag@Qt@@@@H@Z
       6040 1797 00269CC0 ?findNextPrevAnchor@QTextControl@@QEAA_NAEBVQTextCursor@@_NAEAV2@@Z
       6041 1798 00650130 ?findPaths@QGraphicsAnchorLayoutPrivate@@QEAAXW4Orientation@1@@Z
       6042 1799 00400080 ?findSeparator@QDockAreaLayout@@QEBA?AV?$QList@H@@AEBVQPoint@@@Z
       6043 179A 00400220 ?findSeparator@QDockAreaLayoutInfo@@QEBA?AV?$QList@H@@AEBVQPoint@@@Z
       6044 179B 003456A0 ?findText@QComboBox@@QEBAHAEBVQString@@V?$QFlags@W4MatchFlag@Qt@@@@@Z
       6045 179C 004607F0 ?finish@QSplashScreen@@QEAAXPEAVQWidget@@@Z
       6046 179D 00421110 ?finishChange@QLineControl@@AEAA_NH_N0@Z
       6047 179E 002A4400 ?finishEdit@QTextDocumentPrivate@@QEAAXXZ
       6048 179F 004BFBA0 ?finished@QDialog@@IEAAXH@Z
       6049 17A0 00101F90 ?finished@QMovie@@IEAAXXZ
       6050 17A1 00345700 ?first@?$QList@VQItemSelectionRange@@@@QEAAAEAVQItemSelectionRange@@XZ
       6051 17A2 00345740 ?first@?$QList@VQItemSelectionRange@@@@QEBAAEBVQItemSelectionRange@@XZ
       6052 17A3 0029C1D0 ?firstBlock@QTextDocument@@QEBA?AVQTextBlock@@XZ
       6053 17A4 00292900 ?firstCursorPosition@QTextFrame@@QEBA?AVQTextCursor@@XZ
       6054 17A5 002D21B0 ?firstCursorPosition@QTextTableCell@@QEBA?AVQTextCursor@@XZ
       6055 17A6 003D6F00 ?firstDayOfWeek@QCalendarWidget@@QEBA?AW4DayOfWeek@Qt@@XZ
       6056 17A7 00292980 ?firstLineNumber@QTextBlock@@QEBAHXZ
       6057 17A8 002929E0 ?firstPosition@QTextFrame@@QEBAHXZ
       6058 17A9 002D2240 ?firstPosition@QTextTableCell@@QEBAHXZ
       6059 17AA 004A63F0 ?firstVisibleBlock@QPlainTextEdit@@IEBA?AVQTextBlock@@XZ
       6060 17AB 00554E20 ?firstVisibleItem@QTreeViewPrivate@@QEBAHPEAH@Z
       6061 17AC 006256D0 ?fitInView@QGraphicsView@@QEAAXAEBVQRectF@@W4AspectRatioMode@Qt@@@Z
       6062 17AD 0000ECC0 ?fitInView@QGraphicsView@@QEAAXNNNNW4AspectRatioMode@Qt@@@Z
       6063 17AE 00625940 ?fitInView@QGraphicsView@@QEAAXPEBVQGraphicsItem@@W4AspectRatioMode@Qt@@@Z
       6064 17AF 004AC230 ?fitInView@QPrintPreviewWidget@@QEAAXXZ
       6065 17B0 004004F0 ?fitItems@QDockAreaLayoutInfo@@QEAAXXZ
       6066 17B1 00400B50 ?fitLayout@QDockAreaLayout@@QEAAXXZ
       6067 17B2 004AC250 ?fitToWidth@QPrintPreviewWidget@@QEAAXXZ
       6068 17B3 00025DF0 ?fix_neg_rect@QPaintEngine@@QEAAXPEAH000@Z
       6069 17B4 002404F0 ?fixedPitch@QFont@@QEBA_NXZ
       6070 17B5 00240500 ?fixedPitch@QFontInfo@@QEBA_NXZ
       6071 17B6 003CD9E0 ?fixup@QAbstractSpinBox@@UEBAXAEAVQString@@@Z
       6072 17B7 003EDB40 ?fixup@QDateTimeEdit@@MEBAXAEAVQString@@@Z
       6073 17B8 0045E5E0 ?fixup@QDoubleSpinBox@@UEBAXAEAVQString@@@Z
       6074 17B9 004871F0 ?fixup@QIntValidator@@UEBAXAEAVQString@@@Z
       6075 17BA 00421320 ?fixup@QLineControl@@QEAA_NXZ
       6076 17BB 0045E620 ?fixup@QSpinBox@@MEBAXAEAVQString@@@Z
       6077 17BC 00487340 ?fixup@QValidator@@UEBAXAEAVQString@@@Z
       6078 17BD 0059A9C0 ?flags@QAbstractProxyModel@@UEBA?AV?$QFlags@W4ItemFlag@Qt@@@@AEBVQModelIndex@@@Z
       6079 17BE 0056FC60 ?flags@QDirModel@@UEBA?AV?$QFlags@W4ItemFlag@Qt@@@@AEBVQModelIndex@@@Z
       6080 17BF 004EC620 ?flags@QFileSystemModel@@UEBA?AV?$QFlags@W4ItemFlag@Qt@@@@AEBVQModelIndex@@@Z
       6081 17C0 005DDFB0 ?flags@QGraphicsItem@@QEBA?AV?$QFlags@W4GraphicsItemFlag@QGraphicsItem@@@@XZ
       6082 17C1 00579450 ?flags@QListModel@@UEBA?AV?$QFlags@W4ItemFlag@Qt@@@@AEBVQModelIndex@@@Z
       6083 17C2 004AEFC0 ?flags@QListWidgetItem@@QEBA?AV?$QFlags@W4ItemFlag@Qt@@@@XZ
       6084 17C3 00025E20 ?flags@QPaintEngineEx@@UEBAIXZ
       6085 17C4 00599CA0 ?flags@QProxyModel@@UEBA?AV?$QFlags@W4ItemFlag@Qt@@@@AEBVQModelIndex@@@Z
       6086 17C5 005A6900 ?flags@QSortFilterProxyModel@@UEBA?AV?$QFlags@W4ItemFlag@Qt@@@@AEBVQModelIndex@@@Z
       6087 17C6 005B5320 ?flags@QStandardItem@@QEBA?AV?$QFlags@W4ItemFlag@Qt@@@@XZ
       6088 17C7 005B53A0 ?flags@QStandardItemModel@@UEBA?AV?$QFlags@W4ItemFlag@Qt@@@@AEBVQModelIndex@@@Z
       6089 17C8 005BCAD0 ?flags@QStringListModel@@UEBA?AV?$QFlags@W4ItemFlag@Qt@@@@AEBVQModelIndex@@@Z
       6090 17C9 00583110 ?flags@QTableWidgetItem@@QEBA?AV?$QFlags@W4ItemFlag@Qt@@@@XZ
       6091 17CA 00180680 ?flags@QTextOption@@QEBA?AV?$QFlags@W4Flag@QTextOption@@@@XZ
       6092 17CB 005917C0 ?flags@QTreeWidgetItem@@QEBA?AV?$QFlags@W4ItemFlag@Qt@@@@XZ
       6093 17CC 004E2100 ?flags@QUrlModel@@UEBA?AV?$QFlags@W4ItemFlag@Qt@@@@AEBVQModelIndex@@@Z
       6094 17CD 0018D660 ?flip@QWingedEdge@@SA?AW4Direction@QPathEdge@@W423@@Z
       6095 17CE 0018D670 ?flip@QWingedEdge@@SA?AW4Traversal@QPathEdge@@W423@@Z
       6096 17CF 00671EB0 ?flipCoordinates@QMatrix4x4@@QEAAXXZ
       6097 17D0 00535720 ?flow@QListView@@QEBA?AW4Flow@1@XZ
       6098 17D1 00237420 ?flush@QRasterWindowSurface@@UEAAXPEAVQWidget@@AEBVQRegion@@AEBVQPoint@@@Z
       6099 17D2 00238830 ?flush@QWidgetBackingStore@@QEAAXPEAVQWidget@@PEAVQWindowSurface@@@Z
       6100 17D3 000F9880 ?flushDetachedPixmaps@QPixmapCache@@SAXXZ
       6101 17D4 0014A390 ?focalPoint@QRadialGradient@@QEBA?AVQPointF@@XZ
       6102 17D5 0014A3C0 ?focalRadius@QRadialGradient@@QEBANXZ
       6103 17D6 00025E30 ?focusChanged@QApplication@@IEAAXPEAVQWidget@@0@Z
       6104 17D7 003C7B70 ?focusInEvent@QAbstractButton@@MEAAXPEAVQFocusEvent@@@Z
       6105 17D8 00517960 ?focusInEvent@QAbstractItemView@@MEAAXPEAVQFocusEvent@@@Z
       6106 17D9 003CDA00 ?focusInEvent@QAbstractSpinBox@@MEAAXPEAVQFocusEvent@@@Z
       6107 17DA 003E1460 ?focusInEvent@QComboBox@@MEAAXPEAVQFocusEvent@@@Z
       6108 17DB 003EDBA0 ?focusInEvent@QDateTimeEdit@@MEAAXPEAVQFocusEvent@@@Z
       6109 17DC 005DDFF0 ?focusInEvent@QGraphicsItem@@MEAAXPEAVQFocusEvent@@@Z
       6110 17DD 005F9320 ?focusInEvent@QGraphicsProxyWidget@@MEAAXPEAVQFocusEvent@@@Z
       6111 17DE 00609190 ?focusInEvent@QGraphicsScene@@MEAAXPEAVQFocusEvent@@@Z
       6112 17DF 005DE020 ?focusInEvent@QGraphicsTextItem@@MEAAXPEAVQFocusEvent@@@Z
       6113 17E0 00625AC0 ?focusInEvent@QGraphicsView@@MEAAXPEAVQFocusEvent@@@Z
       6114 17E1 0062F020 ?focusInEvent@QGraphicsWidget@@MEAAXPEAVQFocusEvent@@@Z
       6115 17E2 004108B0 ?focusInEvent@QGroupBox@@MEAAXPEAVQFocusEvent@@@Z
       6116 17E3 00412F30 ?focusInEvent@QLabel@@MEAAXPEAVQFocusEvent@@@Z
       6117 17E4 0041D7B0 ?focusInEvent@QLineEdit@@MEAAXPEAVQFocusEvent@@@Z
       6118 17E5 0043ECA0 ?focusInEvent@QMdiSubWindow@@MEAAXPEAVQFocusEvent@@@Z
       6119 17E6 00452E80 ?focusInEvent@QMenuBar@@MEAAXPEAVQFocusEvent@@@Z
       6120 17E7 004A6470 ?focusInEvent@QPlainTextEdit@@MEAAXPEAVQFocusEvent@@@Z
       6121 17E8 00457FA0 ?focusInEvent@QPushButton@@MEAAXPEAVQFocusEvent@@@Z
       6122 17E9 004E2180 ?focusInEvent@QSidebar@@MEAAXPEAVQFocusEvent@@@Z
       6123 17EA 00475320 ?focusInEvent@QTextEdit@@MEAAXPEAVQFocusEvent@@@Z
       6124 17EB 00072CC0 ?focusInEvent@QWidget@@MEAAXPEAVQFocusEvent@@@Z
       6125 17EC 005DE0D0 ?focusItem@QGraphicsItem@@QEBAPEAV1@XZ
       6126 17ED 00609240 ?focusItem@QGraphicsScene@@QEBAPEAVQGraphicsItem@@XZ
       6127 17EE 00072D30 ?focusNextChild@QWidget@@IEAA_NXZ
       6128 17EF 00517AE0 ?focusNextPrevChild@QAbstractItemView@@MEAA_N_N@Z
       6129 17F0 003EDD00 ?focusNextPrevChild@QDateTimeEdit@@MEAA_N_N@Z
       6130 17F1 005F9530 ?focusNextPrevChild@QGraphicsProxyWidget@@MEAA_N_N@Z
       6131 17F2 00609260 ?focusNextPrevChild@QGraphicsScene@@IEAA_N_N@Z
       6132 17F3 00625B40 ?focusNextPrevChild@QGraphicsView@@MEAA_N_N@Z
       6133 17F4 0062F060 ?focusNextPrevChild@QGraphicsWidget@@MEAA_N_N@Z
       6134 17F5 00412F80 ?focusNextPrevChild@QLabel@@MEAA_N_N@Z
       6135 17F6 004496A0 ?focusNextPrevChild@QMenu@@MEAA_N_N@Z
       6136 17F7 004A64D0 ?focusNextPrevChild@QPlainTextEdit@@MEAA_N_N@Z
       6137 17F8 0048D640 ?focusNextPrevChild@QScrollArea@@UEAA_N_N@Z
       6138 17F9 00479C50 ?focusNextPrevChild@QTextBrowser@@MEAA_N_N@Z
       6139 17FA 00475380 ?focusNextPrevChild@QTextEdit@@MEAA_N_N@Z
       6140 17FB 00072D40 ?focusNextPrevChild@QWidget@@MEAA_N_N@Z
       6141 17FC 00025E80 ?focusNextPrevChild_helper@QApplicationPrivate@@SAPEAVQWidget@@PEAV2@_N@Z
       6142 17FD 003C7BA0 ?focusOutEvent@QAbstractButton@@MEAAXPEAVQFocusEvent@@@Z
       6143 17FE 00517BF0 ?focusOutEvent@QAbstractItemView@@MEAAXPEAVQFocusEvent@@@Z
       6144 17FF 003CDA60 ?focusOutEvent@QAbstractSpinBox@@MEAAXPEAVQFocusEvent@@@Z
       6145 1800 003E14D0 ?focusOutEvent@QComboBox@@MEAAXPEAVQFocusEvent@@@Z
       6146 1801 005DE0E0 ?focusOutEvent@QGraphicsItem@@MEAAXPEAVQFocusEvent@@@Z
       6147 1802 005F95B0 ?focusOutEvent@QGraphicsProxyWidget@@MEAAXPEAVQFocusEvent@@@Z
       6148 1803 006094A0 ?focusOutEvent@QGraphicsScene@@MEAAXPEAVQFocusEvent@@@Z
       6149 1804 005DE110 ?focusOutEvent@QGraphicsTextItem@@MEAAXPEAVQFocusEvent@@@Z
       6150 1805 00625B50 ?focusOutEvent@QGraphicsView@@MEAAXPEAVQFocusEvent@@@Z
       6151 1806 0062F120 ?focusOutEvent@QGraphicsWidget@@MEAAXPEAVQFocusEvent@@@Z
       6152 1807 00412FD0 ?focusOutEvent@QLabel@@MEAAXPEAVQFocusEvent@@@Z
       6153 1808 0041DA70 ?focusOutEvent@QLineEdit@@MEAAXPEAVQFocusEvent@@@Z
       6154 1809 0043ECC0 ?focusOutEvent@QMdiSubWindow@@MEAAXPEAVQFocusEvent@@@Z
       6155 180A 00452EA0 ?focusOutEvent@QMenuBar@@MEAAXPEAVQFocusEvent@@@Z
       6156 180B 004A6530 ?focusOutEvent@QPlainTextEdit@@MEAAXPEAVQFocusEvent@@@Z
       6157 180C 00458030 ?focusOutEvent@QPushButton@@MEAAXPEAVQFocusEvent@@@Z
       6158 180D 00479CA0 ?focusOutEvent@QTextBrowser@@MEAAXPEAVQFocusEvent@@@Z
       6159 180E 004753E0 ?focusOutEvent@QTextEdit@@MEAAXPEAVQFocusEvent@@@Z
       6160 180F 00072E10 ?focusOutEvent@QWidget@@MEAAXPEAVQFocusEvent@@@Z
       6161 1810 0062F160 ?focusPolicy@QGraphicsWidget@@QEBA?AW4FocusPolicy@Qt@@XZ
       6162 1811 00072E80 ?focusPolicy@QWidget@@QEBA?AW4FocusPolicy@Qt@@XZ
       6163 1812 0043ECD0 ?focusPreviousChild@QWidget@@IEAA_NXZ
       6164 1813 005DE1A0 ?focusProxy@QGraphicsItem@@QEBAPEAV1@XZ
       6165 1814 00072E90 ?focusProxy@QWidget@@QEBAPEAV1@XZ
       6166 1815 005DE1B0 ?focusScopeItem@QGraphicsItem@@QEBAPEAV1@XZ
       6167 1816 005DE1C0 ?focusScopeItemChange@QGraphicsItemPrivate@@UEAAX_N@Z
       6168 1817 00025FD0 ?focusWidget@QApplication@@SAPEAVQWidget@@XZ
       6169 1818 0062F170 ?focusWidget@QGraphicsWidget@@QEBAPEAV1@XZ
       6170 1819 005CA5F0 ?focusWidget@QInputContext@@QEBAPEAVQWidget@@XZ
       6171 181A 00072EB0 ?focusWidget@QWidget@@QEBAPEAV1@XZ
       6172 181B 00AACA00 ?focus_widget@QApplicationPrivate@@2PEAVQWidget@@EA
       6173 181C 0000ED00 ?font@QAction@@QEBA?AVQFont@@XZ
       6174 181D 00025FE0 ?font@QApplication@@SA?AVQFont@@PEBD@Z
       6175 181E 00026120 ?font@QApplication@@SA?AVQFont@@PEBVQWidget@@@Z
       6176 181F 000262D0 ?font@QApplication@@SA?AVQFont@@XZ
       6177 1820 0025BF80 ?font@QFontDatabase@@QEBA?AVQFont@@AEBVQString@@0H@Z
       6178 1821 004ADA60 ?font@QFontDialog@@AEBA?AVQFont@@XZ
       6179 1822 00609550 ?font@QGraphicsScene@@QEBA?AVQFont@@XZ
       6180 1823 005DE1D0 ?font@QGraphicsSimpleTextItem@@QEBA?AVQFont@@XZ
       6181 1824 005DE200 ?font@QGraphicsTextItem@@QEBA?AVQFont@@XZ
       6182 1825 0062F1A0 ?font@QGraphicsWidget@@QEBA?AVQFont@@XZ
       6183 1826 005CA600 ?font@QInputContext@@UEBA?AVQFont@@XZ
       6184 1827 004AEFD0 ?font@QListWidgetItem@@QEBA?AVQFont@@XZ
       6185 1828 001806C0 ?font@QPaintEngineState@@QEBA?AVQFont@@XZ
       6186 1829 001806F0 ?font@QPainter@@QEBAAEBVQFont@@XZ
       6187 182A 003E1510 ?font@QStandardItem@@QEBA?AVQFont@@XZ
       6188 182B 00583120 ?font@QTableWidgetItem@@QEBA?AVQFont@@XZ
       6189 182C 0028CC50 ?font@QTextCharFormat@@QEBA?AVQFont@@XZ
       6190 182D 00276B40 ?font@QTextEngine@@QEBA?AVQFont@@AEBUQScriptItem@@@Z
       6191 182E 000EC4A0 ?font@QTextEngine@@QEBA?AVQFont@@XZ
       6192 182F 0016A940 ?font@QTextItem@@QEBA?AVQFont@@XZ
       6193 1830 002841C0 ?font@QTextLayout@@QEBA?AVQFont@@XZ
       6194 1831 0005EBB0 ?font@QToolTip@@SA?AVQFont@@XZ
       6195 1832 005917D0 ?font@QTreeWidgetItem@@QEBA?AVQFont@@H@Z
       6196 1833 0005EBE0 ?font@QWidget@@QEBAAEBVQFont@@XZ
       6197 1834 00065810 ?fontCapitalization@QTextCharFormat@@QEBA?AW4Capitalization@QFont@@XZ
       6198 1835 00072EC0 ?fontChange@QWidget@@MEAAXAEBVQFont@@@Z
       6199 1836 000263D0 ?fontDatabaseChanged@QApplication@@IEAAXXZ
       6200 1837 001B8230 ?fontEmbeddingEnabled@QPrinter@@QEBA_NXZ
       6201 1838 001719F0 ?fontEngine@QStaticTextItem@@QEBAPEAVQFontEngine@@XZ
       6202 1839 00276D20 ?fontEngine@QTextEngine@@QEBAPEAVQFontEngine@@AEBUQScriptItem@@PEAUQFixed@@11@Z
       6203 183A 00065820 ?fontFamily@QTextCharFormat@@QEBA?AVQString@@XZ
       6204 183B 00475410 ?fontFamily@QTextEdit@@QEBA?AVQString@@XZ
       6205 183C 0040DCA0 ?fontFilters@QFontComboBox@@QEBA?AV?$QFlags@W4FontFilter@QFontComboBox@@@@XZ
       6206 183D 00065850 ?fontFixedPitch@QTextCharFormat@@QEBA_NXZ
       6207 183E 00065860 ?fontHintingPreference@QTextCharFormat@@QEBA?AW4HintingPreference@QFont@@XZ
       6208 183F 00180730 ?fontInfo@QPainter@@QEBA?AVQFontInfo@@XZ
       6209 1840 0068E430 ?fontInfo@QWidget@@QEBA?AVQFontInfo@@XZ
       6210 1841 00065870 ?fontItalic@QTextCharFormat@@QEBA_NXZ
       6211 1842 00475490 ?fontItalic@QTextEdit@@QEBA_NXZ
       6212 1843 00065880 ?fontKerning@QTextCharFormat@@QEBA_NXZ
       6213 1844 00065890 ?fontLetterSpacing@QTextCharFormat@@QEBANXZ
       6214 1845 000263F0 ?fontMetrics@QApplication@@SA?AVQFontMetrics@@XZ
       6215 1846 001807A0 ?fontMetrics@QPainter@@QEBA?AVQFontMetrics@@XZ
       6216 1847 00026460 ?fontMetrics@QWidget@@QEBA?AVQFontMetrics@@XZ
       6217 1848 000658A0 ?fontOverline@QTextCharFormat@@QEBA_NXZ
       6218 1849 000658B0 ?fontPointSize@QTextCharFormat@@QEBANXZ
       6219 184A 00475500 ?fontPointSize@QTextEdit@@QEBANXZ
       6220 184B 004D42D0 ?fontSelected@QFontDialog@@IEAAXAEBVQFont@@@Z
       6221 184C 000658C0 ?fontStrikeOut@QTextCharFormat@@QEBA_NXZ
       6222 184D 000658D0 ?fontStyleHint@QTextCharFormat@@QEBA?AW4StyleHint@QFont@@XZ
       6223 184E 000658E0 ?fontStyleStrategy@QTextCharFormat@@QEBA?AW4StyleStrategy@QFont@@XZ
       6224 184F 002FC680 ?fontTable@QRawFont@@QEBA?AVQByteArray@@PEBD@Z
       6225 1850 0028CD30 ?fontUnderline@QTextCharFormat@@QEBA_NXZ
       6226 1851 00475570 ?fontUnderline@QTextEdit@@QEBA_NXZ
       6227 1852 000658F0 ?fontWeight@QTextCharFormat@@QEBAHXZ
       6228 1853 004755D0 ?fontWeight@QTextEdit@@QEBAHXZ
       6229 1854 00065910 ?fontWordSpacing@QTextCharFormat@@QEBANXZ
       6230 1855 004DEF80 ?forceShow@QProgressDialog@@IEAAXXZ
       6231 1856 004AF030 ?foreground@QListWidgetItem@@QEBA?AVQBrush@@XZ
       6232 1857 0009B020 ?foreground@QPalette@@QEBAAEBVQBrush@@XZ
       6233 1858 003E1570 ?foreground@QStandardItem@@QEBA?AVQBrush@@XZ
       6234 1859 00583180 ?foreground@QTableWidgetItem@@QEBA?AVQBrush@@XZ
       6235 185A 00065920 ?foreground@QTextFormat@@QEBA?AVQBrush@@XZ
       6236 185B 00591830 ?foreground@QTreeWidgetItem@@QEBA?AVQBrush@@H@Z
       6237 185C 00609580 ?foregroundBrush@QGraphicsScene@@QEBA?AVQBrush@@XZ
       6238 185D 00625B90 ?foregroundBrush@QGraphicsView@@QEBA?AVQBrush@@XZ
       6239 185E 00026490 ?foregroundColor@QAccessibleInterface@@QEAA?AVQColor@@XZ
       6240 185F 00072ED0 ?foregroundRole@QWidget@@QEBA?AW4ColorRole@QPalette@@XZ
       6241 1860 00042B80 ?formAlignment@QFormLayout@@QEBA?AV?$QFlags@W4AlignmentFlag@Qt@@@@XZ
       6242 1861 002B22D0 ?format@QAbstractTextDocumentLayout@@IEAA?AVQTextCharFormat@@H@Z
       6243 1862 00040250 ?format@QDropEvent@@UEBAPEBDH@Z
       6244 1863 000DB040 ?format@QImage@@QEBA?AW4Format@1@XZ
       6245 1864 000E2CD0 ?format@QImageIOHandler@@QEBA?AVQByteArray@@XZ
       6246 1865 000E5840 ?format@QImageReader@@QEBA?AVQByteArray@@XZ
       6247 1866 000E8850 ?format@QImageWriter@@QEBA?AVQByteArray@@XZ
       6248 1867 00101FB0 ?format@QMovie@@QEBA?AVQByteArray@@XZ
       6249 1868 000F24A0 ?format@QPictureIO@@QEBAPEBDXZ
       6250 1869 00456830 ?format@QProgressBar@@QEBA?AVQString@@XZ
       6251 186A 002D8B70 ?format@QSyntaxHighlighter@@IEBA?AVQTextCharFormat@@H@Z
       6252 186B 002D7280 ?format@QTextDocumentWriter@@QEBA?AVQByteArray@@XZ
       6253 186C 002770D0 ?format@QTextEngine@@QEBA?AVQTextCharFormat@@PEBUQScriptItem@@@Z
       6254 186D 0028CDF0 ?format@QTextFormatCollection@@QEBA?AVQTextFormat@@H@Z
       6255 186E 002841F0 ?format@QTextInlineObject@@QEBA?AVQTextFormat@@XZ
       6256 186F 0026A4F0 ?format@QTextList@@QEBA?AVQTextListFormat@@XZ
       6257 1870 00292A50 ?format@QTextObject@@QEBA?AVQTextFormat@@XZ
       6258 1871 0026A540 ?format@QTextTable@@QEBA?AVQTextTableFormat@@XZ
       6259 1872 002D22A0 ?format@QTextTableCell@@QEBA?AVQTextCharFormat@@XZ
       6260 1873 00107AD0 ?format@QVolatileImage@@QEBA?AW4Format@QImage@@XZ
       6261 1874 000EC4D0 ?formatCollection@QTextDocumentPrivate@@QEAAPEAVQTextFormatCollection@@XZ
       6262 1875 000EC4E0 ?formatCollection@QTextDocumentPrivate@@QEBAPEBVQTextFormatCollection@@XZ
       6263 1876 002B2380 ?formatIndex@QAbstractTextDocumentLayout@@IEAAHH@Z
       6264 1877 00277280 ?formatIndex@QTextEngine@@QEBAHPEBUQScriptItem@@@Z
       6265 1878 002842B0 ?formatIndex@QTextInlineObject@@QEBAHXZ
       6266 1879 00292A90 ?formatIndex@QTextObject@@QEBAHXZ
       6267 187A 0003A8A0 ?formats@QInternalMimeData@@UEBA?AVQStringList@@XZ
       6268 187B 000EC4F0 ?formats@QTextEngine@@QEBAPEAVQTextFormatCollection@@XZ
       6269 187C 0003AA40 ?formatsHelper@QInternalMimeData@@SA?AVQStringList@@PEBVQMimeData@@@Z
       6270 187D 00479D70 ?forward@QTextBrowser@@UEAAXXZ
       6271 187E 00479F40 ?forwardAvailable@QTextBrowser@@IEAAX_N@Z
       6272 187F 00479F80 ?forwardHistoryCount@QTextBrowser@@QEBAHXZ
       6273 1880 00292AC0 ?fragment@iterator@QTextBlock@@QEBA?AVQTextFragment@@XZ
       6274 1881 00069130 ?fragmentIndex@QTextBlock@@QEBAHXZ
       6275 1882 000EC540 ?fragmentMap@QTextDocumentPrivate@@QEAAAEAV?$QFragmentMap@VQTextFragmentData@@@@XZ
       6276 1883 000EC550 ?fragmentMap@QTextDocumentPrivate@@QEBAAEBV?$QFragmentMap@VQTextFragmentData@@@@XZ
       6277 1884 0029C320 ?frameAt@QTextDocument@@QEBAPEAVQTextFrame@@H@Z
       6278 1885 002A4740 ?frameAt@QTextDocumentPrivate@@QEBAPEAVQTextFrame@@H@Z
       6279 1886 004A6560 ?frameBoundingRect@QPlainTextDocumentLayout@@UEBA?AVQRectF@@PEAVQTextFrame@@@Z
       6280 1887 002B9B80 ?frameBoundingRect@QTextDocumentLayout@@UEBA?AVQRectF@@PEAVQTextFrame@@@Z
       6281 1888 00101FE0 ?frameChanged@QMovie@@IEAAXH@Z
       6282 1889 00102020 ?frameCount@QMovie@@QEBAHXZ
       6283 188A 001EBB50 ?frameEndIndex@QPaintBuffer@@QEBAHH@Z
       6284 188B 00069140 ?frameFormat@QTextFrame@@QEBA?AVQTextFrameFormat@@XZ
       6285 188C 00072FE0 ?frameGeometry@QWidget@@QEBA?AVQRect@@XZ
       6286 188D 0040F360 ?frameRect@QFrame@@QEBA?AVQRect@@XZ
       6287 188E 001020A0 ?frameRect@QMovie@@QEBA?AVQRect@@XZ
       6288 188F 0040F3C0 ?frameShadow@QFrame@@QEBA?AW4Shadow@1@XZ
       6289 1890 0040F3D0 ?frameShape@QFrame@@QEBA?AW4Shape@1@XZ
       6290 1891 00073120 ?frameSize@QWidget@@QEBA?AVQSize@@XZ
       6291 1892 001EBBB0 ?frameStartIndex@QPaintBuffer@@QEBAHH@Z
       6292 1893 00073200 ?frameStrut@QWidgetPrivate@@QEBA?AVQRect@@XZ
       6293 1894 0040F3E0 ?frameStyle@QFrame@@QEBAHXZ
       6294 1895 0040F3F0 ?frameWidth@QFrame@@QEBAHXZ
       6295 1896 00345CD0 ?free@?$QList@VQItemSelectionRange@@@@AEAAXPEAUData@QListData@@@Z
       6296 1897 00277400 ?freeMemory@QTextEngine@@QEAAXXZ
       6297 1898 00625BC0 ?freeStyleOptionsArray@QGraphicsViewPrivate@@QEAAXPEAVQStyleOptionGraphicsItem@@@Z
       6298 1899 00675B30 ?fromAxisAndAngle@QQuaternion@@SA?AV1@AEBVQVector3D@@N@Z
       6299 189A 00675BF0 ?fromAxisAndAngle@QQuaternion@@SA?AV1@NNNN@Z
       6300 189B 0014D1A0 ?fromCmyk@QColor@@SA?AV1@HHHHH@Z
       6301 189C 0014D260 ?fromCmykF@QColor@@SA?AV1@NNNNN@Z
       6302 189D 000BCDD0 ?fromData@QBitmap@@SA?AV1@AEBVQSize@@PEBEW4Format@QImage@@@Z
       6303 189E 0003ABC0 ?fromData@QImage@@SA?AV1@AEBVQByteArray@@PEBD@Z
       6304 189F 000DB150 ?fromData@QImage@@SA?AV1@PEBEHPEBD@Z
       6305 18A0 000FB7A0 ?fromData@QPixmapData@@UEAA_NPEBEIPEBDV?$QFlags@W4ImageConversionFlag@Qt@@@@@Z
       6306 18A1 00104040 ?fromData@QRasterPixmapData@@UEAA_NPEBEIPEBDV?$QFlags@W4ImageConversionFlag@Qt@@@@@Z
       6307 18A2 00235E10 ?fromData@QRuntimePixmapData@@UEAA_NPEBEIPEBDV?$QFlags@W4ImageConversionFlag@Qt@@@@@Z
       6308 18A3 000FB8E0 ?fromFile@QPixmapData@@UEAA_NAEBVQString@@PEBDV?$QFlags@W4ImageConversionFlag@Qt@@@@@Z
       6309 18A4 00235E60 ?fromFile@QRuntimePixmapData@@UEAA_NAEBVQString@@PEBDV?$QFlags@W4ImageConversionFlag@Qt@@@@@Z
       6310 18A5 002FC6F0 ?fromFont@QRawFont@@SA?AV1@AEBVQFont@@W4WritingSystem@QFontDatabase@@@Z
       6311 18A6 0014D3D0 ?fromHsl@QColor@@SA?AV1@HHHH@Z
       6312 18A7 0014D4C0 ?fromHslF@QColor@@SA?AV1@NNNN@Z
       6313 18A8 0014D620 ?fromHsv@QColor@@SA?AV1@HHHH@Z
       6314 18A9 0014D710 ?fromHsvF@QColor@@SA?AV1@NNNN@Z
       6315 18AA 002CC4F0 ?fromHtml@QTextDocumentFragment@@SA?AV1@AEBVQString@@@Z
       6316 18AB 002CC520 ?fromHtml@QTextDocumentFragment@@SA?AV1@AEBVQString@@PEBVQTextDocument@@@Z
       6317 18AC 000BCF20 ?fromImage@QBitmap@@SA?AV1@AEBVQImage@@V?$QFlags@W4ImageConversionFlag@Qt@@@@@Z
       6318 18AD 00105590 ?fromImage@QBlittablePixmapData@@UEAAXAEBVQImage@@V?$QFlags@W4ImageConversionFlag@Qt@@@@@Z
       6319 18AE 000F5E30 ?fromImage@QPixmap@@SA?AV1@AEBVQImage@@V?$QFlags@W4ImageConversionFlag@Qt@@@@@Z
       6320 18AF 00104150 ?fromImage@QRasterPixmapData@@UEAAXAEBVQImage@@V?$QFlags@W4ImageConversionFlag@Qt@@@@@Z
       6321 18B0 00235EB0 ?fromImage@QRuntimePixmapData@@UEAAXAEBVQImage@@V?$QFlags@W4ImageConversionFlag@Qt@@@@@Z
       6322 18B1 000F5EF0 ?fromImageReader@QPixmap@@SA?AV1@PEAVQImageReader@@V?$QFlags@W4ImageConversionFlag@Qt@@@@@Z
       6323 18B2 000FB9C0 ?fromImageReader@QPixmapData@@UEAAXPEAVQImageReader@@V?$QFlags@W4ImageConversionFlag@Qt@@@@@Z
       6324 18B3 001041B0 ?fromImageReader@QRasterPixmapData@@UEAAXPEAVQImageReader@@V?$QFlags@W4ImageConversionFlag@Qt@@@@@Z
       6325 18B4 004B7430 ?fromPage@QAbstractPrintDialog@@QEBAHXZ
       6326 18B5 001B83B0 ?fromPage@QPrinter@@QEBAHXZ
       6327 18B6 002CC6C0 ?fromPlainText@QTextDocumentFragment@@SA?AV1@AEBVQString@@@Z
       6328 18B7 00130060 ?fromPoints@QBezier@@SA?AV1@AEBVQPointF@@000@Z
       6329 18B8 0014D850 ?fromRgb@QColor@@SA?AV1@HHHH@Z
       6330 18B9 0014D8F0 ?fromRgb@QColor@@SA?AV1@I@Z
       6331 18BA 0014D9A0 ?fromRgbF@QColor@@SA?AV1@NNNN@Z
       6332 18BB 0014DAC0 ?fromRgba@QColor@@SA?AV1@I@Z
       6333 18BC 001DBF50 ?fromScale@QTransform@@SA?AV1@NN@Z
       6334 18BD 00345F60 ?fromSet@?$QList@VQItemSelectionRange@@@@SA?AV1@AEBV?$QSet@VQItemSelectionRange@@@@@Z
       6335 18BE 00345F90 ?fromStdList@?$QList@VQItemSelectionRange@@@@SA?AV1@AEBV?$list@VQItemSelectionRange@@V?$allocator@VQItemSelectionRange@@@std@@@std@@@Z
       6336 18BF 00240640 ?fromString@QFont@@QEAA_NAEBVQString@@@Z
       6337 18C0 0004EC00 ?fromString@QKeySequence@@SA?AV1@AEBVQString@@W4SequenceFormat@1@@Z
       6338 18C1 000C0E00 ?fromTheme@QIcon@@SA?AV1@AEBVQString@@AEBV1@@Z
       6339 18C2 001DBFD0 ?fromTranslate@QTransform@@SA?AV1@NN@Z
       6340 18C3 00346020 ?fromVector@?$QList@VQItemSelectionRange@@@@SA?AV1@AEBV?$QVector@VQItemSelectionRange@@@@@Z
       6341 18C4 00107E20 ?fromWinHBITMAP@QPixmap@@SA?AV1@PEAUHBITMAP__@@W4HBitmapFormat@1@@Z
       6342 18C5 00108080 ?fromWinHICON@QPixmap@@SA?AV1@PEAUHICON__@@@Z
       6343 18C6 00346050 ?front@?$QList@VQItemSelectionRange@@@@QEAAAEAVQItemSelectionRange@@XZ
       6344 18C7 00346090 ?front@?$QList@VQItemSelectionRange@@@@QEBAAEBVQItemSelectionRange@@XZ
       6345 18C8 00671FC0 ?frustum@QMatrix4x4@@QEAAXNNNNNN@Z
       6346 18C9 001B83C0 ?fullPage@QPrinter@@QEBA_NXZ
       6347 18CA 000E8880 ?gamma@QImageWriter@@QEBAMXZ
       6348 18CB 000F24C0 ?gamma@QPictureIO@@QEBAMXZ
       6349 18CC 00400D30 ?gapIndex@QDockAreaLayout@@QEBA?AV?$QList@H@@AEBVQPoint@@@Z
       6350 18CD 00401120 ?gapIndex@QDockAreaLayoutInfo@@QEBA?AV?$QList@H@@AEBVQPoint@@_NW4TabMode@1@@Z
       6351 18CE 00401420 ?gapRect@QDockAreaLayout@@QEBA?AVQRect@@AEBV?$QList@H@@@Z
       6352 18CF 003ACEC0 ?generatedIconPixmap@QCleanlooksStyle@@UEBA?AVQPixmap@@W4Mode@QIcon@@AEBV2@PEBVQStyleOption@@@Z
       6353 18D0 0031BF30 ?generatedIconPixmap@QCommonStyle@@UEBA?AVQPixmap@@W4Mode@QIcon@@AEBV2@PEBVQStyleOption@@@Z
       6354 18D1 0032C2E0 ?generatedIconPixmap@QProxyStyle@@UEBA?AVQPixmap@@W4Mode@QIcon@@AEBV2@PEBVQStyleOption@@@Z
       6355 18D2 003460B0 ?generatedIconPixmap@QStyleSheetStyle@@UEBA?AVQPixmap@@W4Mode@QIcon@@AEBV2@PEBVQStyleOption@@@Z
       6356 18D3 005DE4E0 ?genericMapFromScene@QGraphicsItemPrivate@@QEBA?AVQPointF@@AEBV2@PEBVQWidget@@@Z
       6357 18D4 005242D0 ?geometriesChanged@QHeaderView@@IEAAXXZ
       6358 18D5 005F5DF0 ?geometry@QGraphicsLayoutItem@@QEBA?AVQRectF@@XZ
       6359 18D6 000514E0 ?geometry@QLayout@@UEBA?AVQRect@@XZ
       6360 18D7 00055210 ?geometry@QSpacerItem@@UEBA?AVQRect@@XZ
       6361 18D8 0065CE00 ?geometry@QSystemTrayIcon@@QEBA?AVQRect@@XZ
       6362 18D9 0000EFC0 ?geometry@QWidget@@QEBAAEBVQRect@@XZ
       6363 18DA 00055230 ?geometry@QWidgetItem@@UEBA?AVQRect@@XZ
       6364 18DB 001E1F50 ?geometry@QWindowSurface@@QEBA?AVQRect@@XZ
       6365 18DC 00633470 ?geometryChanged@QGraphicsWidget@@IEAAXXZ
       6366 18DD 00040390 ?gesture@QGestureEvent@@QEBAPEAVQGesture@@W4GestureType@Qt@@@Z
       6367 18DE 00086C30 ?gestureCancelPolicy@QGesture@@QEBA?AW4GestureCancelPolicy@1@XZ
       6368 18DF 006095F0 ?gestureEventHandler@QGraphicsScenePrivate@@QEAAXPEAVQGestureEvent@@@Z
       6369 18E0 0060B830 ?gestureTargetsAtHotSpots@QGraphicsScenePrivate@@QEAAXAEBV?$QSet@PEAVQGesture@@@@W4GestureFlag@Qt@@PEAV?$QHash@PEAVQGraphicsObject@@V?$QSet@PEAVQGesture@@@@@@PEAV?$QSet@PEAVQGraphicsObject@@@@PEAV2@4@Z
       6370 18E1 00086C40 ?gestureType@QGesture@@QEBA?AW4GestureType@Qt@@XZ
       6371 18E2 00040410 ?gestures@QGestureEvent@@QEBA?AV?$QList@PEAVQGesture@@@@XZ
       6372 18E3 0000EFD0 ?get@QActionPrivate@@SAPEAV1@PEAVQAction@@@Z
       6373 18E4 00027340 ?get@QFontPrivate@@SAPEAV1@AEBVQFont@@@Z
       6374 18E5 00651060 ?get@QGraphicsAnchorLayoutPrivate@@SAPEAV1@PEAVQGraphicsAnchorLayout@@@Z
       6375 18E6 0000EFE0 ?get@QGraphicsItemPrivate@@SAPEAV1@PEAVQGraphicsItem@@@Z
       6376 18E7 0000EFF0 ?get@QGraphicsItemPrivate@@SAPEBV1@PEBVQGraphicsItem@@@Z
       6377 18E8 005CDF20 ?get@QGraphicsLayoutItemPrivate@@SAPEAV1@PEAVQGraphicsLayoutItem@@@Z
       6378 18E9 005CDF30 ?get@QGraphicsLayoutItemPrivate@@SAPEBV1@PEBVQGraphicsLayoutItem@@@Z
       6379 18EA 0060C020 ?get@QGraphicsScenePrivate@@SAPEAV1@PEAVQGraphicsScene@@@Z
       6380 18EB 00180F40 ?get@QRawFontPrivate@@SAPEAV1@AEBVQRawFont@@@Z
       6381 18EC 0066FC40 ?get@QStatePrivate@@SAPEAV1@PEAVQState@@@Z
       6382 18ED 0066FC50 ?get@QStatePrivate@@SAPEBV1@PEBVQState@@@Z
       6383 18EE 002FA220 ?get@QStaticTextPrivate@@SAPEAV1@PEBVQStaticText@@@Z
       6384 18EF 00651070 ?getAnchor@QGraphicsAnchorLayoutPrivate@@QEAAPEAVQGraphicsAnchor@@PEAVQGraphicsLayoutItem@@W4AnchorPoint@Qt@@01@Z
       6385 18F0 00248940 ?getCMap@QFontEngine@@SAPEBEPEBEIPEA_NPEAH@Z
       6386 18F1 00277D10 ?getClusterLength@QTextEngine@@AEAAHPEAGPEBUHB_CharAttributes@@HHHPEAH@Z
       6387 18F2 0014DB00 ?getCmyk@QColor@@QEAAXPEAH0000@Z
       6388 18F3 0014DBC0 ?getCmykF@QColor@@QEAAXPEAN0000@Z
       6389 18F4 004BA330 ?getColor@QColorDialog@@SA?AVQColor@@AEBV2@PEAVQWidget@@@Z
       6390 18F5 004BA3A0 ?getColor@QColorDialog@@SA?AVQColor@@AEBV2@PEAVQWidget@@AEBVQString@@V?$QFlags@W4ColorDialogOption@QColorDialog@@@@@Z
       6391 18F6 005F47F0 ?getContentsMargins@QGraphicsLayout@@UEBAXPEAN000@Z
       6392 18F7 005F5E30 ?getContentsMargins@QGraphicsLayoutItem@@UEBAXPEAN000@Z
       6393 18F8 0062F1F0 ?getContentsMargins@QGraphicsWidget@@UEBAXPEAN000@Z
       6394 18F9 00051510 ?getContentsMargins@QLayout@@QEBAXPEAH000@Z
       6395 18FA 00073410 ?getContentsMargins@QWidget@@QEBAXPEAH000@Z
       6396 18FB 0022D920 ?getDC@QPaintDevice@@UEBAPEAUHDC__@@XZ
       6397 18FC 0016A9E0 ?getDC@QPaintEngine@@UEBAPEAUHDC__@@XZ
       6398 18FD 001B8410 ?getDC@QPrinter@@UEBAPEAUHDC__@@XZ
       6399 18FE 00073460 ?getDC@QWidget@@UEBAPEAUHDC__@@XZ
       6400 18FF 00358A80 ?getDefaultStyleSheet@QStyleSheetStyle@@AEBA?AUStyleSheet@QCss@@XZ
       6401 1900 004D7AD0 ?getDouble@QInputDialog@@SANPEAVQWidget@@AEBVQString@@1NNNHPEA_NV?$QFlags@W4WindowType@Qt@@@@@Z
       6402 1901 004CAE10 ?getEnvironmentVariable@QFileDialogPrivate@@QEAA?AVQString@@AEBV2@@Z
       6403 1902 004CAF40 ?getExistingDirectory@QFileDialog@@SA?AVQString@@PEAVQWidget@@AEBV2@1V?$QFlags@W4Option@QFileDialog@@@@@Z
       6404 1903 004F4CD0 ?getFileInfos@QFileInfoGatherer@@IEAAXAEBVQString@@AEBVQStringList@@@Z
       6405 1904 004ADA90 ?getFont@QFontDialog@@CA?AVQFont@@PEA_NPEBV2@PEAVQWidget@@@Z
       6406 1905 004D4300 ?getFont@QFontDialog@@SA?AVQFont@@PEA_NAEBV2@PEAVQWidget@@@Z
       6407 1906 004D43A0 ?getFont@QFontDialog@@SA?AVQFont@@PEA_NAEBV2@PEAVQWidget@@AEBVQString@@@Z
       6408 1907 004D43E0 ?getFont@QFontDialog@@SA?AVQFont@@PEA_NAEBV2@PEAVQWidget@@AEBVQString@@V?$QFlags@W4FontDialogOption@QFontDialog@@@@@Z
       6409 1908 004D4420 ?getFont@QFontDialog@@SA?AVQFont@@PEA_NPEAVQWidget@@@Z
       6410 1909 00248C40 ?getGlyphBearings@QFontEngine@@UEAAXIPEAN0@Z
       6411 190A 00248D10 ?getGlyphPositions@QFontEngine@@QEAAXAEBUQGlyphLayout@@AEBVQTransform@@V?$QFlags@W4RenderFlag@QTextItem@@@@AEAV?$QVarLengthArray@I$0BAA@@@AEAV?$QVarLengthArray@UQFixedPoint@@$0BAA@@@@Z
       6412 190B 00651180 ?getGraphParts@QGraphicsAnchorLayoutPrivate@@QEAA?AV?$QList@V?$QList@PEAUQSimplexConstraint@@@@@@W4Orientation@1@@Z
       6413 190C 00401690 ?getGrid@QDockAreaLayout@@QEAAXPEAV?$QVector@UQLayoutStruct@@@@0@Z
       6414 190D 0014DCE0 ?getHsl@QColor@@QEBAXPEAH000@Z
       6415 190E 0014DDB0 ?getHslF@QColor@@QEBAXPEAN000@Z
       6416 190F 0014DEB0 ?getHsv@QColor@@QEBAXPEAH000@Z
       6417 1910 0014DF80 ?getHsvF@QColor@@QEBAXPEAN000@Z
       6418 1911 004F56C0 ?getInfo@QFileInfoGatherer@@QEBA?AVQExtendedInformation@@AEBVQFileInfo@@@Z
       6419 1912 004D7CB0 ?getInt@QInputDialog@@SAHPEAVQWidget@@AEBVQString@@1HHHHPEA_NV?$QFlags@W4WindowType@Qt@@@@@Z
       6420 1913 004D7E90 ?getInteger@QInputDialog@@SAHPEAVQWidget@@AEBVQString@@1HHHHPEA_NV?$QFlags@W4WindowType@Qt@@@@@Z
       6421 1914 004D7EF0 ?getItem@QInputDialog@@SA?AVQString@@PEAVQWidget@@AEBV2@1AEBVQStringList@@H_NPEA_NV?$QFlags@W4WindowType@Qt@@@@@Z
       6422 1915 004D7F70 ?getItem@QInputDialog@@SA?AVQString@@PEAVQWidget@@AEBV2@1AEBVQStringList@@H_NPEA_NV?$QFlags@W4WindowType@Qt@@@@V?$QFlags@W4InputMethodHint@Qt@@@@@Z
       6423 1916 00042C60 ?getItemPosition@QFormLayout@@QEBAXHPEAHPEAW4ItemRole@1@@Z
       6424 1917 00049300 ?getItemPosition@QGridLayout@@QEAAXHPEAH000@Z
       6425 1918 000734E0 ?getLayoutItemMargins@QWidgetPrivate@@QEBAXPEAH000@Z
       6426 1919 00042D80 ?getLayoutPosition@QFormLayout@@QEBAXPEAVQLayout@@PEAHPEAW4ItemRole@1@@Z
       6427 191A 005F4D50 ?getMargin@QGraphicsLayoutPrivate@@QEBAXPEANNW4PixelMetric@QStyle@@@Z
       6428 191B 000515A0 ?getMargin@QLayoutPrivate@@QEBAXPEAHHW4PixelMetric@QStyle@@@Z
       6429 191C 00073530 ?getOpaqueChildren@QWidgetPrivate@@QEBAAEBVQRegion@@XZ
       6430 191D 004CB250 ?getOpenFileName@QFileDialog@@SA?AVQString@@PEAVQWidget@@AEBV2@11PEAV2@V?$QFlags@W4Option@QFileDialog@@@@@Z
       6431 191E 004CB5F0 ?getOpenFileNames@QFileDialog@@SA?AVQStringList@@PEAVQWidget@@AEBVQString@@11PEAV4@V?$QFlags@W4Option@QFileDialog@@@@@Z
       6432 191F 001B8420 ?getPageMargins@QPrinter@@QEBAXPEAN000W4Unit@1@@Z
       6433 1920 004A65B0 ?getPaintContext@QPlainTextEdit@@IEBA?AUPaintContext@QAbstractTextDocumentLayout@@XZ
       6434 1921 0026A800 ?getPaintContext@QTextControl@@QEBA?AUPaintContext@QAbstractTextDocumentLayout@@PEAVQWidget@@@Z
       6435 1922 00027350 ?getPixmapCursor@QApplicationPrivate@@QEAA?AVQPixmap@@W4CursorShape@Qt@@@Z
       6436 1923 00249470 ?getPointInOutline@QFontEngine@@UEAA?AW4HB_Error@@IHIPEAH0PEAI@Z
       6437 1924 0016DD70 ?getPrinterDC@QPrintEngine@@UEBAPEAUHDC__@@XZ
       6438 1925 00462B90 ?getRange@QSplitter@@QEBAXHPEAH0@Z
       6439 1926 0014E080 ?getRgb@QColor@@QEBAXPEAH000@Z
       6440 1927 0014E120 ?getRgbF@QColor@@QEBAXPEAN000@Z
       6441 1928 004BA520 ?getRgba@QColorDialog@@SAIIPEA_NPEAVQWidget@@@Z
       6442 1929 004CB9A0 ?getSaveFileName@QFileDialog@@SA?AVQString@@PEAVQWidget@@AEBV2@11PEAV2@V?$QFlags@W4Option@QFileDialog@@@@@Z
       6443 192A 0042AD30 ?getSeparatorWidget@QMainWindowLayout@@QEAAPEAVQWidget@@XZ
       6444 192B 00249480 ?getSfntTable@QFontEngine@@QEBA?AVQByteArray@@I@Z
       6445 192C 0016A9F0 ?getSfntTableData@QFontEngine@@UEBA_NIPEAEPEAI@Z
       6446 192D 0042AE30 ?getStyleOptionInfo@QMainWindowLayout@@QEBAXPEAVQStyleOptionToolBar@@PEAVQToolBar@@@Z
       6447 192E 00130110 ?getSubRange@QBezier@@QEBA?AV1@NN@Z
       6448 192F 0042AEB0 ?getTabBar@QMainWindowLayout@@QEAAPEAVQTabBar@@XZ
       6449 1930 004D8200 ?getText@QInputDialog@@SA?AVQString@@PEAVQWidget@@AEBV2@1W4EchoMode@QLineEdit@@1PEA_NV?$QFlags@W4WindowType@Qt@@@@@Z
       6450 1931 004D8270 ?getText@QInputDialog@@SA?AVQString@@PEAVQWidget@@AEBV2@1W4EchoMode@QLineEdit@@1PEA_NV?$QFlags@W4WindowType@Qt@@@@V?$QFlags@W4InputMethodHint@Qt@@@@@Z
       6451 1932 0041DB70 ?getTextMargins@QLineEdit@@QEBAXPEAH000@Z
       6452 1933 00249560 ?getTrueTypeGlyphIndex@QFontEngine@@SAIPEBEI@Z
       6453 1934 002498C0 ?getUnscaledGlyph@QFontEngine@@UEAAXIPEAVQPainterPath@@PEAUglyph_metrics_t@@@Z
       6454 1935 00042E40 ?getWidgetPosition@QFormLayout@@QEBAXPEAVQWidget@@PEAHPEAW4ItemRole@1@@Z
       6455 1936 0062F2A0 ?getWindowFrameMargins@QGraphicsWidget@@QEBAXPEAN000@Z
       6456 1937 000274A0 ?giveFocusAccordingToFocusPolicy@QApplicationPrivate@@CAXPEAVQWidget@@W4FocusPolicy@Qt@@W4FocusReason@4@@Z
       6457 1938 00027570 ?globalPos@QContextMenuEvent@@QEBAAEBVQPoint@@XZ
       6458 1939 00027580 ?globalPos@QHelpEvent@@QEBAAEBVQPoint@@XZ
       6459 193A 00027590 ?globalPos@QMouseEvent@@QEBAAEBVQPoint@@XZ
       6460 193B 000275A0 ?globalPos@QTabletEvent@@QEBAAEBVQPoint@@XZ
       6461 193C 000275B0 ?globalPos@QWheelEvent@@QEBAAEBVQPoint@@XZ
       6462 193D 000275C0 ?globalStrut@QApplication@@SA?AVQSize@@XZ
       6463 193E 0068E470 ?globalX@QContextMenuEvent@@QEBAHXZ
       6464 193F 0068E480 ?globalX@QHelpEvent@@QEBAHXZ
       6465 1940 004B5AE0 ?globalX@QMouseEvent@@QEBAHXZ
       6466 1941 0068E490 ?globalX@QTabletEvent@@QEBAHXZ
       6467 1942 0068E4A0 ?globalX@QWheelEvent@@QEBAHXZ
       6468 1943 0068E4B0 ?globalY@QContextMenuEvent@@QEBAHXZ
       6469 1944 0068E4C0 ?globalY@QHelpEvent@@QEBAHXZ
       6470 1945 004B5AF0 ?globalY@QMouseEvent@@QEBAHXZ
       6471 1946 0068E4D0 ?globalY@QTabletEvent@@QEBAHXZ
       6472 1947 0068E4E0 ?globalY@QWheelEvent@@QEBAHXZ
       6473 1948 00249980 ?glyphCache@QFontEngine@@QEBAPEAVQFontEngineGlyphCache@@PEAXW4Type@2@AEBVQTransform@@@Z
       6474 1949 00249A00 ?glyphCount@QFontEngine@@UEBAHXZ
       6475 194A 002FDBA0 ?glyphIndexes@QGlyphRun@@QEBA?AV?$QVector@I@@XZ
       6476 194B 002FC7D0 ?glyphIndexesForChars@QRawFont@@QEBA_NPEBVQChar@@HPEAIPEAH@Z
       6477 194C 002FC830 ?glyphIndexesForString@QRawFont@@QEBA?AV?$QVector@I@@AEBVQString@@@Z
       6478 194D 001D9E80 ?glyphMargin@QImageTextureGlyphCache@@UEBAHXZ
       6479 194E 000275D0 ?glyphMargin@QTextureGlyphCache@@UEBAHXZ
       6480 194F 000275E0 ?glyphPadding@QTextureGlyphCache@@UEBAHXZ
       6481 1950 00292E40 ?glyphRuns@QTextFragment@@QEBA?AV?$QList@VQGlyphRun@@@@XZ
       6482 1951 00284440 ?glyphRuns@QTextLayout@@QEBA?AV?$QList@VQGlyphRun@@@@XZ
       6483 1952 00284550 ?glyphs@QTextLine@@AEBA?AV?$QList@VQGlyphRun@@@@HH@Z
       6484 1953 006870B0 ?goToUrl@QSidebar@@IEAAXAEBVQUrl@@@Z
       6485 1954 0026AB80 ?gotFocus@QFocusEvent@@QEBA_NXZ
       6486 1955 005DE5F0 ?grabGesture@QGraphicsObject@@QEAAXW4GestureType@Qt@@V?$QFlags@W4GestureFlag@Qt@@@@@Z
       6487 1956 0060C030 ?grabGesture@QGraphicsScenePrivate@@QEAAXPEAVQGraphicsItem@@W4GestureType@Qt@@@Z
       6488 1957 000737A0 ?grabGesture@QWidget@@QEAAXW4GestureType@Qt@@V?$QFlags@W4GestureFlag@Qt@@@@@Z
       6489 1958 005DE6A0 ?grabKeyboard@QGraphicsItem@@QEAAXXZ
       6490 1959 0060C130 ?grabKeyboard@QGraphicsScenePrivate@@QEAAXPEAVQGraphicsItem@@@Z
       6491 195A 000B44C0 ?grabKeyboard@QWidget@@QEAAXXZ
       6492 195B 0062F350 ?grabKeyboardEvent@QGraphicsWidget@@MEAAXPEAVQEvent@@@Z
       6493 195C 005DE6E0 ?grabMouse@QGraphicsItem@@QEAAXXZ
       6494 195D 0060C2E0 ?grabMouse@QGraphicsScenePrivate@@QEAAXPEAVQGraphicsItem@@_N@Z
       6495 195E 000B44F0 ?grabMouse@QWidget@@QEAAXAEBVQCursor@@@Z
       6496 195F 000B45B0 ?grabMouse@QWidget@@QEAAXXZ
       6497 1960 005F9610 ?grabMouseEvent@QGraphicsProxyWidget@@MEAAXPEAVQEvent@@@Z
       6498 1961 0062F360 ?grabMouseEvent@QGraphicsWidget@@MEAAXPEAVQEvent@@@Z
       6499 1962 000B4650 ?grabMouseWhileInWindow@QWidgetPrivate@@QEAAXXZ
       6500 1963 0062F370 ?grabShortcut@QGraphicsWidget@@QEAAHAEBVQKeySequence@@W4ShortcutContext@Qt@@@Z
       6501 1964 000737D0 ?grabShortcut@QWidget@@QEAAHAEBVQKeySequence@@W4ShortcutContext@Qt@@@Z
       6502 1965 000F5FA0 ?grabWidget@QPixmap@@SA?AV1@PEAVQWidget@@AEBVQRect@@@Z
       6503 1966 0040C310 ?grabWidget@QPixmap@@SA?AV1@PEAVQWidget@@HHHH@Z
       6504 1967 001E1F80 ?grabWidget@QWindowSurface@@UEBA?AVQPixmap@@PEBVQWidget@@AEBVQRect@@@Z
       6505 1968 00108380 ?grabWindow@QPixmap@@SA?AV1@PEAUHWND__@@HHHH@Z
       6506 1969 0014A470 ?gradient@QBrush@@QEBAPEBVQGradient@@XZ
       6507 196A 005DE730 ?graphicsEffect@QGraphicsItem@@QEBAPEAVQGraphicsEffect@@XZ
       6508 196B 00073850 ?graphicsEffect@QWidget@@QEBAPEAVQGraphicsEffect@@XZ
       6509 196C 006794F0 ?graphicsItem@QGraphicsEffectSource@@QEBAPEBVQGraphicsItem@@XZ
       6510 196D 005F5E60 ?graphicsItem@QGraphicsLayoutItem@@QEBAPEAVQGraphicsItem@@XZ
       6511 196E 00073870 ?graphicsProxyWidget@QWidget@@QEBAPEAVQGraphicsProxyWidget@@XZ
       6512 196F 0000F000 ?graphicsSystem@QApplicationPrivate@@SAPEAVQGraphicsSystem@@XZ
       6513 1970 00AAC9D0 ?graphics_system@QApplicationPrivate@@2PEAVQGraphicsSystem@@EA
       6514 1971 00AACA58 ?graphics_system_name@QApplicationPrivate@@2VQString@@A
       6515 1972 00249A70 ?grayPalette@QFontEngine@@KAAEBV?$QVector@I@@XZ
       6516 1973 0014E200 ?green@QColor@@QEBAHXZ
       6517 1974 0014E260 ?greenF@QColor@@QEBANXZ
       6518 1975 00535850 ?gridSize@QListView@@QEBA?AVQSize@@XZ
       6519 1976 005446E0 ?gridStyle@QTableView@@QEBA?AW4PenStyle@Qt@@XZ
       6520 1977 00688350 ?gripMoved@QColumnViewGrip@@IEAAXH@Z
       6521 1978 003C7C10 ?group@QAbstractButton@@QEBAPEAVQButtonGroup@@XZ
       6522 1979 005DE750 ?group@QGraphicsItem@@QEBAPEAVQGraphicsItemGroup@@XZ
       6523 197A 0066C100 ?group@QUndoView@@QEBAPEAVQUndoGroup@@XZ
       6524 197B 0022D2D0 ?hPal@QColormap@@SAPEAUHPALETTE__@@XZ
       6525 197C 000A5FD0 ?handle@QCursor@@QEBAPEAUHICON__@@XZ
       6526 197D 002FE320 ?handle@QFont@@QEBAPEAUHFONT__@@XZ
       6527 197E 0009B0E0 ?handle@QRegion@@QEBAPEAUHRGN__@@XZ
       6528 197F 00462FA0 ?handle@QSplitter@@QEBAPEAVQSplitterHandle@@H@Z
       6529 1980 0019D0D0 ?handleCrossingEdges@QPathClipper@@AEAA_NAEAVQWingedEdge@@NW4ClipperMode@1@@Z
       6530 1981 0000F010 ?handleSoftwareInputPanel@QWidgetPrivate@@QEAAXW4MouseButton@Qt@@_N@Z
       6531 1982 00097DC0 ?handleUpdateSoftKeys@QSoftKeyManager@@AEAA_NXZ
       6532 1983 003F9C10 ?handleVisibilityChange@QDockWidget@@AEAAX_N@Z
       6533 1984 00463000 ?handleWidth@QSplitter@@QEBAHXZ
       6534 1985 002B2410 ?handlerForObject@QAbstractTextDocumentLayout@@QEBAPEAVQTextObjectInterface@@H@Z
       6535 1986 005DE7B0 ?handlesChildEvents@QGraphicsItem@@QEBA_NXZ
       6536 1987 00249A80 ?harfbuzzFace@QFontEngine@@QEBAPEAUHB_FaceRec_@@XZ
       6537 1988 00249AC0 ?harfbuzzFont@QFontEngine@@QEBAPEAUHB_Font_@@XZ
       6538 1989 003CDBE0 ?hasAcceptableInput@QAbstractSpinBox@@QEBA_NXZ
       6539 198A 004213E0 ?hasAcceptableInput@QLineControl@@AEBA_NAEBVQString@@@Z
       6540 198B 003CDBF0 ?hasAcceptableInput@QLineControl@@QEBA_NXZ
       6541 198C 0041DBC0 ?hasAcceptableInput@QLineEdit@@QEBA_NXZ
       6542 198D 000F6240 ?hasAlpha@QPixmap@@QEBA_NXZ
       6543 198E 00105730 ?hasAlphaChannel@QBlittablePixmapData@@UEBA_NXZ
       6544 198F 000DB240 ?hasAlphaChannel@QImage@@QEBA_NXZ
       6545 1990 000F6270 ?hasAlphaChannel@QPixmap@@QEBA_NXZ
       6546 1991 00104220 ?hasAlphaChannel@QRasterPixmapData@@UEBA_NXZ
       6547 1992 00235F30 ?hasAlphaChannel@QRuntimePixmapData@@UEBA_NXZ
       6548 1993 00107AE0 ?hasAlphaChannel@QVolatileImage@@QEBA_NXZ
       6549 1994 00517D20 ?hasAutoScroll@QAbstractItemView@@QEBA_NXZ
       6550 1995 0059AA10 ?hasChildren@QAbstractProxyModel@@UEBA_NAEBVQModelIndex@@@Z
       6551 1996 0056FE10 ?hasChildren@QDirModel@@UEBA_NAEBVQModelIndex@@@Z
       6552 1997 004EC890 ?hasChildren@QFileSystemModel@@UEBA_NAEBVQModelIndex@@@Z
       6553 1998 00599D00 ?hasChildren@QProxyModel@@UEBA_NAEBVQModelIndex@@@Z
       6554 1999 005A6DE0 ?hasChildren@QSortFilterProxyModel@@UEBA_NAEBVQModelIndex@@@Z
       6555 199A 005B54A0 ?hasChildren@QStandardItem@@QEBA_NXZ
       6556 199B 005B54C0 ?hasChildren@QStandardItemModel@@UEBA_NAEBVQModelIndex@@@Z
       6557 199C 00171A00 ?hasClipOperations@QPaintEngineExPrivate@@QEBA_NXZ
       6558 199D 00560EA0 ?hasClipping@QItemDelegate@@QEBA_NXZ
       6559 199E 00181160 ?hasClipping@QPainter@@QEBA_NXZ
       6560 199F 002C4C00 ?hasComplexSelection@QTextCursor@@QEBA_NXZ
       6561 19A0 00651E20 ?hasConflicts@QGraphicsAnchorLayoutPrivate@@QEBA_NXZ
       6562 19A1 005DE7D0 ?hasCursor@QGraphicsItem@@QEBA_NXZ
       6563 19A2 00517D30 ?hasEditor@QAbstractItemViewPrivate@@QEBA_NAEBVQModelIndex@@@Z
       6564 19A3 0068E4F0 ?hasExtendedInfo@QKeyEvent@@QEBA_NXZ
       6565 19A4 00040450 ?hasExtendedInfo@QMouseEvent@@QEBA_NXZ
       6566 19A5 0025D860 ?hasFamily@QFontDatabase@@QEBA_NAEBVQString@@@Z
       6567 19A6 000275F0 ?hasFeature@QPaintEngine@@QEBA_NV?$QFlags@W4PaintEngineFeature@QPaintEngine@@@@@Z
       6568 19A7 00027600 ?hasFeature@QWindowSurface@@QEBA_NW4WindowSurfaceFeature@1@@Z
       6569 19A8 00402A80 ?hasFixedSize@QDockAreaLayoutInfo@@QEBA_NXZ
       6570 19A9 005DE7F0 ?hasFocus@QGraphicsItem@@QEBA_NXZ
       6571 19AA 0060C4F0 ?hasFocus@QGraphicsScene@@QEBA_NXZ
       6572 19AB 000738A0 ?hasFocus@QWidget@@QEBA_NXZ
       6573 19AC 0003AC60 ?hasFormat@QInternalMimeData@@UEBA_NAEBVQString@@@Z
       6574 19AD 0028CF70 ?hasFormatCached@QTextFormatCollection@@QEBA_NAEBVQTextFormat@@@Z
       6575 19AE 0003AD90 ?hasFormatHelper@QInternalMimeData@@SA_NAEBVQString@@PEBVQMimeData@@@Z
       6576 19AF 000EC7C0 ?hasFormats@QTextEngine@@QEBA_NXZ
       6577 19B0 003CDC00 ?hasFrame@QAbstractSpinBox@@QEBA_NXZ
       6578 19B1 003E1D40 ?hasFrame@QComboBox@@QEBA_NXZ
       6579 19B2 0041DBE0 ?hasFrame@QLineEdit@@QEBA_NXZ
       6580 19B3 00034B50 ?hasHeightForWidth@QBoxLayout@@UEBA_NXZ
       6581 19B4 00042E80 ?hasHeightForWidth@QFormLayout@@UEBA_NXZ
       6582 19B5 005F5E70 ?hasHeightForWidth@QGraphicsLayoutItemPrivate@@QEBA_NXZ
       6583 19B6 00049450 ?hasHeightForWidth@QGridLayout@@UEBA_NXZ
       6584 19B7 000552F0 ?hasHeightForWidth@QLayoutItem@@UEBA_NXZ
       6585 19B8 00073970 ?hasHeightForWidth@QSizePolicy@@QEBA_NXZ
       6586 19B9 00055300 ?hasHeightForWidth@QWidgetItem@@UEBA_NXZ
       6587 19BA 00073980 ?hasHeightForWidth@QWidgetPrivate@@UEBA_NXZ
       6588 19BB 00086C50 ?hasHotSpot@QGesture@@QEBA_NXZ
       6589 19BC 00027620 ?hasImplicitClose@QVectorPath@@QEBA_NXZ
       6590 19BD 00027630 ?hasMouseTracking@QWidget@@QEBA_NXZ
       6591 19BE 00027640 ?hasNext@Parser@QCss@@QEBA_NXZ
       6592 19BF 0028D110 ?hasProperty@QTextFormat@@QEBA_NH@Z
       6593 19C0 00413080 ?hasScaledContents@QLabel@@QEBA_NXZ
       6594 19C1 00413090 ?hasSelectedText@QLabel@@QEBA_NXZ
       6595 19C2 003CDC20 ?hasSelectedText@QLineControl@@QEBA_NXZ
       6596 19C3 0041DBF0 ?hasSelectedText@QLineEdit@@QEBA_NXZ
       6597 19C4 005692D0 ?hasSelection@QItemSelectionModel@@QEBA_NXZ
       6598 19C5 002C4C30 ?hasSelection@QTextCursor@@QEBA_NXZ
       6599 19C6 000739B0 ?hasStaticContents@QWidgetBackingStore@@AEBA_NXZ
       6600 19C7 001E2270 ?hasStaticContents@QWindowSurface@@IEBA_NXZ
       6601 19C8 00346330 ?hasStyleRule@QStyleSheetStyle@@AEBA_NPEBVQWidget@@H@Z
       6602 19C9 000C1000 ?hasThemeIcon@QIcon@@SA_NAEBVQString@@@Z
       6603 19CA 003C9F20 ?hasTracking@QAbstractSlider@@QEBA_NXZ
       6604 19CB 0000F0B0 ?hasTranslateOnlySceneTransform@QGraphicsItemPrivate@@QEAA_NXZ
       6605 19CC 00555110 ?hasVisibleChildren@QTreeViewPrivate@@QEBA_NAEBVQModelIndex@@@Z
       6606 19CD 004FB800 ?hasVisitedPage@QWizard@@QEBA_NH@Z
       6607 19CE 005F5F40 ?hasWidthForHeight@QGraphicsLayoutItemPrivate@@QEBA_NXZ
       6608 19CF 005F6010 ?hasWidthForHeight@QSizePolicy@@QEBA_NXZ
       6609 19D0 00027650 ?hasWindingFill@QVectorPath@@QEBA_NXZ
       6610 19D1 005551F0 ?header@QTreeView@@QEBAPEAVQHeaderView@@XZ
       6611 19D2 0059AA50 ?headerData@QAbstractProxyModel@@UEBA?AVQVariant@@HW4Orientation@Qt@@H@Z
       6612 19D3 0056FEB0 ?headerData@QDirModel@@UEBA?AVQVariant@@HW4Orientation@Qt@@H@Z
       6613 19D4 004EC8E0 ?headerData@QFileSystemModel@@UEBA?AVQVariant@@HW4Orientation@Qt@@H@Z
       6614 19D5 00599D40 ?headerData@QProxyModel@@UEBA?AVQVariant@@HW4Orientation@Qt@@H@Z
       6615 19D6 005A6EB0 ?headerData@QSortFilterProxyModel@@UEBA?AVQVariant@@HW4Orientation@Qt@@H@Z
       6616 19D7 005B5540 ?headerData@QStandardItemModel@@UEBA?AVQVariant@@HW4Orientation@Qt@@H@Z
       6617 19D8 00524320 ?headerDataChanged@QHeaderView@@QEAAXW4Orientation@Qt@@HH@Z
       6618 19D9 00591AE0 ?headerItem@QTreeWidget@@QEBAPEAVQTreeWidgetItem@@XZ
       6619 19DA 00065970 ?headerRowCount@QTextTableFormat@@QEBAHXZ
       6620 19DB 003D7960 ?headerTextFormat@QCalendarWidget@@QEBA?AVQTextCharFormat@@XZ
       6621 19DC 00256060 ?height@QFontMetrics@@QEBAHXZ
       6622 19DD 002560C0 ?height@QFontMetricsF@@QEBANXZ
       6623 19DE 005DE890 ?height@QGraphicsItemPrivate@@UEBANXZ
       6624 19DF 0000F0F0 ?height@QGraphicsScene@@QEBANXZ
       6625 19E0 000DB270 ?height@QImage@@QEBAHXZ
       6626 19E1 00346550 ?height@QItemSelectionRange@@QEBAHXZ
       6627 19E2 003CDC60 ?height@QLineControl@@QEBAHXZ
       6628 19E3 000739F0 ?height@QPaintDevice@@QEBAHXZ
       6629 19E4 000F62A0 ?height@QPixmap@@QEBAHXZ
       6630 19E5 00027660 ?height@QPixmapData@@QEBAHXZ
       6631 19E6 000EC7E0 ?height@QScriptItem@@QEBA?AUQFixed@@XZ
       6632 19E7 000EC800 ?height@QScriptLine@@QEBA?AUQFixed@@XZ
       6633 19E8 00065980 ?height@QTextFrameFormat@@QEBA?AVQTextLength@@XZ
       6634 19E9 000659A0 ?height@QTextImageFormat@@QEBANXZ
       6635 19EA 00285650 ?height@QTextInlineObject@@QEBANXZ
       6636 19EB 002856C0 ?height@QTextLine@@QEBANXZ
       6637 19EC 00107AF0 ?height@QVolatileImage@@QEBAHXZ
       6638 19ED 0000F110 ?height@QWidget@@QEBAHXZ
       6639 19EE 005DE8A0 ?heightChanged@QGraphicsObject@@IEAAXXZ
       6640 19EF 00034B80 ?heightForWidth@QBoxLayout@@UEBAHH@Z
       6641 19F0 003EA3D0 ?heightForWidth@QCommandLinkButton@@MEBAHH@Z
       6642 19F1 00042F40 ?heightForWidth@QFormLayout@@UEBAHH@Z
       6643 19F2 00049500 ?heightForWidth@QGridLayout@@UEBAHH@Z
       6644 19F3 004130E0 ?heightForWidth@QLabel@@UEBAHH@Z
       6645 19F4 00055330 ?heightForWidth@QLayoutItem@@UEBAHH@Z
       6646 19F5 00453150 ?heightForWidth@QMenuBar@@UEBAHH@Z
       6647 19F6 00471610 ?heightForWidth@QTabWidget@@UEBAHH@Z
       6648 19F7 00073A00 ?heightForWidth@QWidget@@UEBAHH@Z
       6649 19F8 00055340 ?heightForWidth@QWidgetItem@@UEBAHH@Z
       6650 19F9 00055510 ?heightForWidth@QWidgetItemV2@@UEBAHH@Z
       6651 19FA 001B64F0 ?heightMM@QPaintDevice@@QEBAHXZ
       6652 19FB 0055E740 ?helpEvent@QAbstractItemDelegate@@QEAA_NPEAVQHelpEvent@@PEAVQAbstractItemView@@AEBVQStyleOptionViewItem@@AEBVQModelIndex@@@Z
       6653 19FC 0060C510 ?helpEvent@QGraphicsScene@@MEAAXPEAVQGraphicsSceneHelpEvent@@@Z
       6654 19FD 003F6310 ?helpRequested@QDialogButtonBox@@IEAAXXZ
       6655 19FE 004FB870 ?helpRequested@QWizard@@IEAAXXZ
       6656 19FF 00027670 ?hiResGlobalPos@QTabletEvent@@QEBAAEBVQPointF@@XZ
       6657 1A00 0068E500 ?hiResGlobalX@QTabletEvent@@QEBANXZ
       6658 1A01 0068E510 ?hiResGlobalY@QTabletEvent@@QEBANXZ
       6659 1A02 00524730 ?hiddenSectionCount@QHeaderView@@QEBAHXZ
       6660 1A03 00AACA08 ?hidden_focus_widget@QApplicationPrivate@@2PEAVQWidget@@EA
       6661 1A04 0000F120 ?hide@QGraphicsItem@@QEAAXXZ
       6662 1A05 0065CE40 ?hide@QSystemTrayIcon@@QEAAXXZ
       6663 1A06 0005D870 ?hide@QWidget@@QEAAXXZ
       6664 1A07 0065CE80 ?hideBalloon@QBalloonTip@@SAXXZ
       6665 1A08 00073A60 ?hideChildren@QWidgetPrivate@@QEAAX_N@Z
       6666 1A09 00544710 ?hideColumn@QTableView@@QEAAXH@Z
       6667 1A0A 00555200 ?hideColumn@QTreeView@@QEAAXH@Z
       6668 1A0B 003CDCD0 ?hideEvent@QAbstractSpinBox@@MEAAXPEAVQHideEvent@@@Z
       6669 1A0C 003E1D60 ?hideEvent@QComboBox@@MEAAXPEAVQHideEvent@@@Z
       6670 1A0D 003E1D70 ?hideEvent@QComboBoxPrivateContainer@@MEAAXPEAVQHideEvent@@@Z
       6671 1A0E 003E1DB0 ?hideEvent@QComboBoxPrivateScroller@@MEAAXPEAVQHideEvent@@@Z
       6672 1A0F 005F9620 ?hideEvent@QGraphicsProxyWidget@@MEAAXPEAVQHideEvent@@@Z
       6673 1A10 0062F3E0 ?hideEvent@QGraphicsWidget@@MEAAXPEAVQHideEvent@@@Z
       6674 1A11 0043F560 ?hideEvent@QMdiSubWindow@@MEAAXPEAVQHideEvent@@@Z
       6675 1A12 00449880 ?hideEvent@QMenu@@MEAAXPEAVQHideEvent@@@Z
       6676 1A13 0045A5A0 ?hideEvent@QScrollBar@@MEAAXPEAVQHideEvent@@@Z
       6677 1A14 0045BD50 ?hideEvent@QSizeGrip@@MEAAXPEAVQHideEvent@@@Z
       6678 1A15 00469C70 ?hideEvent@QTabBar@@MEAAXPEAVQHideEvent@@@Z
       6679 1A16 00073BF0 ?hideEvent@QWidget@@MEAAXPEAVQHideEvent@@@Z
       6680 1A17 004933B0 ?hideEvent@QWorkspace@@MEAAXPEAVQHideEvent@@@Z
       6681 1A18 00466CC0 ?hideOrShow@QStatusBar@@IEAAXXZ
       6682 1A19 003E1DC0 ?hidePopup@QComboBox@@UEAAXXZ
       6683 1A1A 00544730 ?hideRow@QTableView@@QEAAXH@Z
       6684 1A1B 00346590 ?hideSection@QHeaderView@@QEAAXH@Z
       6685 1A1C 00449D70 ?hideTearOffMenu@QMenu@@QEAAXXZ
       6686 1A1D 0005EC50 ?hideText@QToolTip@@SAXXZ
       6687 1A1E 00069210 ?hideText@QWhatsThis@@SAXXZ
       6688 1A1F 00073C00 ?hide_helper@QWidgetPrivate@@QEAAXXZ
       6689 1A20 000B46D0 ?hide_sys@QWidgetPrivate@@QEAAXXZ
       6690 1A21 0030F3F0 ?highlight@QPalette@@QEBAAEBVQBrush@@XZ
       6691 1A22 00524740 ?highlightSections@QHeaderView@@QEBA_NXZ
       6692 1A23 003E2090 ?highlighted@QComboBox@@IEAAXAEBVQString@@@Z
       6693 1A24 003E20C0 ?highlighted@QComboBox@@IEAAXH@Z
       6694 1A25 006625A0 ?highlighted@QCompleter@@IEAAXAEBVQModelIndex@@@Z
       6695 1A26 006625D0 ?highlighted@QCompleter@@IEAAXAEBVQString@@@Z
       6696 1A27 0047A010 ?highlighted@QTextBrowser@@IEAAXAEBVQString@@@Z
       6697 1A28 0047A040 ?highlighted@QTextBrowser@@IEAAXAEBVQUrl@@@Z
       6698 1A29 0031C400 ?highlightedText@QPalette@@QEBAAEBVQBrush@@XZ
       6699 1A2A 00240F80 ?hintingPreference@QFont@@QEBA?AW4HintingPreference@1@XZ
       6700 1A2B 002FCAF0 ?hintingPreference@QRawFont@@QEBA?AW4HintingPreference@QFont@@XZ
       6701 1A2C 00027680 ?hints@QVectorPath@@QEBAIXZ
       6702 1A2D 004CBE20 ?history@QFileDialog@@QEBA?AVQStringList@@XZ
       6703 1A2E 0047A140 ?historyChanged@QTextBrowser@@IEAAXXZ
       6704 1A2F 0047A160 ?historyTitle@QTextBrowser@@QEBA?AVQString@@H@Z
       6705 1A30 0047A1D0 ?historyUrl@QTextBrowser@@QEBA?AVQUrl@@H@Z
       6706 1A31 003C7C20 ?hitButton@QAbstractButton@@MEBA_NAEBVQPoint@@@Z
       6707 1A32 003DCF00 ?hitButton@QCheckBox@@MEBA_NAEBVQPoint@@@Z
       6708 1A33 00459000 ?hitButton@QRadioButton@@MEBA_NAEBVQPoint@@@Z
       6709 1A34 00484F50 ?hitButton@QToolButton@@MEBA_NAEBVQPoint@@@Z
       6710 1A35 004A65F0 ?hitTest@QPlainTextDocumentLayout@@UEBAHAEBVQPointF@@W4HitTestAccuracy@Qt@@@Z
       6711 1A36 0026AD70 ?hitTest@QTextControl@@UEBAHAEBVQPointF@@W4HitTestAccuracy@Qt@@@Z
       6712 1A37 002BA330 ?hitTest@QTextDocumentLayout@@UEBAHAEBVQPointF@@W4HitTestAccuracy@Qt@@@Z
       6713 1A38 003ACEF0 ?hitTestComplexControl@QCleanlooksStyle@@UEBA?AW4SubControl@QStyle@@W4ComplexControl@3@PEBVQStyleOptionComplex@@AEBVQPoint@@PEBVQWidget@@@Z
       6714 1A39 0031C410 ?hitTestComplexControl@QCommonStyle@@UEBA?AW4SubControl@QStyle@@W4ComplexControl@3@PEBVQStyleOptionComplex@@AEBVQPoint@@PEBVQWidget@@@Z
       6715 1A3A 003921E0 ?hitTestComplexControl@QPlastiqueStyle@@UEBA?AW4SubControl@QStyle@@W4ComplexControl@3@PEBVQStyleOptionComplex@@AEBVQPoint@@PEBVQWidget@@@Z
       6716 1A3B 0032C350 ?hitTestComplexControl@QProxyStyle@@UEBA?AW4SubControl@QStyle@@W4ComplexControl@3@PEBVQStyleOptionComplex@@AEBVQPoint@@PEBVQWidget@@@Z
       6717 1A3C 003465A0 ?hitTestComplexControl@QStyleSheetStyle@@UEBA?AW4SubControl@QStyle@@W4ComplexControl@3@PEBVQStyleOptionComplex@@AEBVQPoint@@PEBVQWidget@@@Z
       6718 1A3D 00365670 ?hitTestComplexControl@QWindowsVistaStyle@@UEBA?AW4SubControl@QStyle@@W4ComplexControl@3@PEBVQStyleOptionComplex@@AEBVQPoint@@PEBVQWidget@@@Z
       6719 1A3E 00671470 ?hitTestPath@QBasicMouseEventTransition@@QEBA?AVQPainterPath@@XZ
       6720 1A3F 00670970 ?hitTestPath@QMouseEventTransition@@QEBA?AVQPainterPath@@XZ
       6721 1A40 003CDD20 ?home@QLineControl@@QEAAX_N@Z
       6722 1A41 0041DC30 ?home@QLineEdit@@QEAAX_N@Z
       6723 1A42 0047A240 ?home@QTextBrowser@@UEAAXXZ
       6724 1A43 00285770 ?horizontalAdvance@QTextLine@@QEBANXZ
       6725 1A44 00086C60 ?horizontalDirection@QSwipeGesture@@QEBA?AW4SwipeDirection@1@XZ
       6726 1A45 00544750 ?horizontalHeader@QTableView@@QEBAPEAVQHeaderView@@XZ
       6727 1A46 003D7B20 ?horizontalHeaderFormat@QCalendarWidget@@QEBA?AW4HorizontalHeaderFormat@1@XZ
       6728 1A47 005B56E0 ?horizontalHeaderItem@QStandardItemModel@@QEBAPEAVQStandardItem@@H@Z
       6729 1A48 00583340 ?horizontalHeaderItem@QTableWidget@@QEBAPEAVQTableWidgetItem@@H@Z
       6730 1A49 005C4B60 ?horizontalOffset@QColumnView@@MEBAHXZ
       6731 1A4A 00524750 ?horizontalOffset@QHeaderView@@MEBAHXZ
       6732 1A4B 00535AD0 ?horizontalOffset@QListView@@MEBAHXZ
       6733 1A4C 00544760 ?horizontalOffset@QTableView@@MEBAHXZ
       6734 1A4D 00555220 ?horizontalOffset@QTreeView@@MEBAHXZ
       6735 1A4E 00053BA0 ?horizontalPolicy@QSizePolicy@@QEBA?AW4Policy@1@XZ
       6736 1A4F 005F2A60 ?horizontalScaleAt@QGraphicsItemAnimation@@QEBANN@Z
       6737 1A50 00625C40 ?horizontalScroll@QGraphicsViewPrivate@@QEBA_JXZ
       6738 1A51 00488930 ?horizontalScrollBar@QAbstractScrollArea@@QEBAPEAVQScrollBar@@XZ
       6739 1A52 00488940 ?horizontalScrollBarPolicy@QAbstractScrollArea@@QEBA?AW4ScrollBarPolicy@Qt@@XZ
       6740 1A53 00517DF0 ?horizontalScrollMode@QAbstractItemView@@QEBA?AW4ScrollMode@1@XZ
       6741 1A54 00517E00 ?horizontalScrollbarAction@QAbstractItemView@@MEAAXH@Z
       6742 1A55 00544770 ?horizontalScrollbarAction@QTableView@@MEAAXH@Z
       6743 1A56 00555230 ?horizontalScrollbarAction@QTreeView@@MEAAXH@Z
       6744 1A57 00517E10 ?horizontalScrollbarValueChanged@QAbstractItemView@@MEAAXH@Z
       6745 1A58 005F2AC0 ?horizontalShearAt@QGraphicsItemAnimation@@QEBANN@Z
       6746 1A59 00043010 ?horizontalSpacing@QFormLayout@@QEBAHXZ
       6747 1A5A 0065B370 ?horizontalSpacing@QGraphicsAnchorLayout@@QEBANXZ
       6748 1A5B 005CDFF0 ?horizontalSpacing@QGraphicsGridLayout@@QEBANXZ
       6749 1A5C 00049640 ?horizontalSpacing@QGridLayout@@QEBAHXZ
       6750 1A5D 00517F70 ?horizontalStepsPerItem@QAbstractItemView@@IEBAHXZ
       6751 1A5E 00034C70 ?horizontalStretch@QSizePolicy@@QEBAHXZ
       6752 1A5F 00039200 ?hotSpot@QCursor@@QEBA?AVQPoint@@XZ
       6753 1A60 00039C30 ?hotSpot@QDrag@@QEBA?AVQPoint@@XZ
       6754 1A61 00086CC0 ?hotSpot@QGesture@@QEBA?AVQPointF@@XZ
       6755 1A62 0000F130 ?hover@QAction@@QEAAXXZ
       6756 1A63 0042AFE0 ?hover@QMainWindowLayout@@QEAA?AV?$QList@H@@PEAVQLayoutItem@@AEBVQPoint@@@Z
       6757 1A64 005DE8C0 ?hoverEnterEvent@QGraphicsItem@@MEAAXPEAVQGraphicsSceneHoverEvent@@@Z
       6758 1A65 005F9630 ?hoverEnterEvent@QGraphicsProxyWidget@@MEAAXPEAVQGraphicsSceneHoverEvent@@@Z
       6759 1A66 005DE8F0 ?hoverEnterEvent@QGraphicsTextItem@@MEAAXPEAVQGraphicsSceneHoverEvent@@@Z
       6760 1A67 005DE960 ?hoverLeaveEvent@QGraphicsItem@@MEAAXPEAVQGraphicsSceneHoverEvent@@@Z
       6761 1A68 005F9640 ?hoverLeaveEvent@QGraphicsProxyWidget@@MEAAXPEAVQGraphicsSceneHoverEvent@@@Z
       6762 1A69 005DE990 ?hoverLeaveEvent@QGraphicsTextItem@@MEAAXPEAVQGraphicsSceneHoverEvent@@@Z
       6763 1A6A 0062F3F0 ?hoverLeaveEvent@QGraphicsWidget@@MEAAXPEAVQGraphicsSceneHoverEvent@@@Z
       6764 1A6B 005DEA00 ?hoverMoveEvent@QGraphicsItem@@MEAAXPEAVQGraphicsSceneHoverEvent@@@Z
       6765 1A6C 005F9690 ?hoverMoveEvent@QGraphicsProxyWidget@@MEAAXPEAVQGraphicsSceneHoverEvent@@@Z
       6766 1A6D 005DEA10 ?hoverMoveEvent@QGraphicsTextItem@@MEAAXPEAVQGraphicsSceneHoverEvent@@@Z
       6767 1A6E 0062F400 ?hoverMoveEvent@QGraphicsWidget@@MEAAXPEAVQGraphicsSceneHoverEvent@@@Z
       6768 1A6F 0000F150 ?hovered@QAction@@IEAAXXZ
       6769 1A70 00017600 ?hovered@QActionGroup@@IEAAXPEAVQAction@@@Z
       6770 1A71 00449EE0 ?hovered@QMenu@@IEAAXPEAVQAction@@@Z
       6771 1A72 004533C0 ?hovered@QMenuBar@@IEAAXPEAVQAction@@@Z
       6772 1A73 0068E520 ?href@QWhatsThisClickedEvent@@QEBA?AVQString@@XZ
       6773 1A74 0014E2D0 ?hslHue@QColor@@QEBAHXZ
       6774 1A75 0014E360 ?hslHueF@QColor@@QEBANXZ
       6775 1A76 0014E3F0 ?hslSaturation@QColor@@QEBAHXZ
       6776 1A77 0014E450 ?hslSaturationF@QColor@@QEBANXZ
       6777 1A78 0014E4C0 ?hsvHue@QColor@@QEBAHXZ
       6778 1A79 0014E550 ?hsvHueF@QColor@@QEBANXZ
       6779 1A7A 0014E5E0 ?hsvSaturation@QColor@@QEBAHXZ
       6780 1A7B 0014E640 ?hsvSaturationF@QColor@@QEBANXZ
       6781 1A7C 0014E6B0 ?hue@QColor@@QEBAHXZ
       6782 1A7D 0014E6C0 ?hueF@QColor@@QEBANXZ
       6783 1A7E 003C7C90 ?icon@QAbstractButton@@QEBA?AVQIcon@@XZ
       6784 1A7F 0000F170 ?icon@QAction@@QEBA?AVQIcon@@XZ
       6785 1A80 005C2230 ?icon@QFileIconProvider@@UEBA?AVQIcon@@AEBVQFileInfo@@@Z
       6786 1A81 005C2440 ?icon@QFileIconProvider@@UEBA?AVQIcon@@W4IconType@1@@Z
       6787 1A82 004ECB00 ?icon@QFileSystemModelPrivate@@QEBA?AVQIcon@@AEBVQModelIndex@@@Z
       6788 1A83 004AF1B0 ?icon@QListWidgetItem@@QEBA?AVQIcon@@XZ
       6789 1A84 00449F20 ?icon@QMenu@@QEBA?AVQIcon@@XZ
       6790 1A85 004DB980 ?icon@QMessageBox@@QEBA?AW4Icon@1@XZ
       6791 1A86 003E2100 ?icon@QStandardItem@@QEBA?AVQIcon@@XZ
       6792 1A87 0065CEB0 ?icon@QSystemTrayIcon@@QEBA?AVQIcon@@XZ
       6793 1A88 00583390 ?icon@QTableWidgetItem@@QEBA?AVQIcon@@XZ
       6794 1A89 00591B10 ?icon@QTreeWidgetItem@@QEBA?AVQIcon@@H@Z
       6795 1A8A 00100930 ?iconName@QIconEngineV2@@QEAA?AVQString@@XZ
       6796 1A8B 004DB990 ?iconPixmap@QMessageBox@@QEBA?AVQPixmap@@XZ
       6797 1A8C 0056FFF0 ?iconProvider@QDirModel@@QEBAPEAVQFileIconProvider@@XZ
       6798 1A8D 004CBF70 ?iconProvider@QFileDialog@@QEBAPEAVQFileIconProvider@@XZ
       6799 1A8E 004F58A0 ?iconProvider@QFileInfoGatherer@@QEBAPEAVQFileIconProvider@@XZ
       6800 1A8F 004ECB90 ?iconProvider@QFileSystemModel@@QEBAPEAVQFileIconProvider@@XZ
       6801 1A90 003C7CC0 ?iconSize@QAbstractButton@@QEBA?AVQSize@@XZ
       6802 1A91 00517F80 ?iconSize@QAbstractItemView@@QEBA?AVQSize@@XZ
       6803 1A92 003E2160 ?iconSize@QComboBox@@QEBA?AVQSize@@XZ
       6804 1A93 00426BA0 ?iconSize@QMainWindow@@QEBA?AVQSize@@XZ
       6805 1A94 00469C80 ?iconSize@QTabBar@@QEBA?AVQSize@@XZ
       6806 1A95 004719E0 ?iconSize@QTabWidget@@QEBA?AVQSize@@XZ
       6807 1A96 0047CD70 ?iconSize@QToolBar@@QEBA?AVQSize@@XZ
       6808 1A97 006843F0 ?iconSizeChanged@QMainWindow@@IEAAXAEBVQSize@@@Z
       6809 1A98 0047CD90 ?iconSizeChanged@QToolBar@@IEAAXAEBVQSize@@@Z
       6810 1A99 0000F1A0 ?iconText@QAction@@QEBA?AVQString@@XZ
       6811 1A9A 00098CA0 ?iconThemeSearchPaths@QGuiPlatformPlugin@@UEAA?AVQStringList@@XZ
       6812 1A9B 002E0EE0 ?iconValue@Declaration@QCss@@QEBA?AVQIcon@@XZ
       6813 1A9C 003C7D50 ?id@QButtonGroup@@QEBAHPEAVQAbstractButton@@@Z
       6814 1A9D 00059340 ?id@QShortcut@@QEBAHXZ
       6815 1A9E 0066A890 ?id@QUndoCommand@@UEBAHXZ
       6816 1A9F 00040460 ?id@TouchPoint@QTouchEvent@@QEBAHXZ
       6817 1AA0 0029C580 ?idealWidth@QTextDocument@@QEBANXZ
       6818 1AA1 002BB0B0 ?idealWidth@QTextDocumentLayout@@QEBANXZ
       6819 1AA2 00651EA0 ?identifyFloatItems@QGraphicsAnchorLayoutPrivate@@QEAAXAEBV?$QSet@PEAUAnchorData@@@@W4Orientation@1@@Z
       6820 1AA3 006521D0 ?identifyNonFloatItems_helper@QGraphicsAnchorLayoutPrivate@@QEAAXPEBUAnchorData@@PEAV?$QSet@PEAVQGraphicsLayoutItem@@@@@Z
       6821 1AA4 0068E550 ?ignore@QDragMoveEvent@@QEAAXAEBVQRect@@@Z
       6822 1AA5 004BA840 ?ignore@QDragMoveEvent@@QEAAXXZ
       6823 1AA6 00040470 ?ignore@QGestureEvent@@QEAAXPEAVQGesture@@@Z
       6824 1AA7 000404B0 ?ignore@QGestureEvent@@QEAAXW4GestureType@Qt@@@Z
       6825 1AA8 0026ADB0 ?ignoreUnusedNavigationEvents@QTextControl@@QEBA_NXZ
       6826 1AA9 00037E60 ?image@QClipboard@@QEBA?AVQImage@@W4Mode@1@@Z
       6827 1AAA 00027690 ?image@QImageTextureGlyphCache@@QEBAAEBVQImage@@XZ
       6828 1AAB 000E2D00 ?imageCount@QImageIOHandler@@UEBAHXZ
       6829 1AAC 000E61C0 ?imageCount@QImageReader@@QEBAHXZ
       6830 1AAD 000E6200 ?imageFormat@QImageReader@@QEBA?AW4Format@QImage@@XZ
       6831 1AAE 000E6280 ?imageFormat@QImageReader@@SA?AVQByteArray@@AEBVQString@@@Z
       6832 1AAF 000E6300 ?imageFormat@QImageReader@@SA?AVQByteArray@@PEAVQIODevice@@@Z
       6833 1AB0 000EC850 ?imageFormat@QTextFormatCollection@@QEBA?AVQTextImageFormat@@H@Z
       6834 1AB1 000276A0 ?imageInterface@QAccessibleInterface@@QEAAPEAVQAccessibleImageInterface@@XZ
       6835 1AB2 00107B00 ?imageRef@QVolatileImage@@QEAAAEAVQImage@@XZ
       6836 1AB3 00256130 ?inFont@QFontMetrics@@QEBA_NVQChar@@@Z
       6837 1AB4 002561A0 ?inFont@QFontMetricsF@@QEBA_NVQChar@@@Z
       6838 1AB5 00256210 ?inFontUcs4@QFontMetrics@@QEBA_NI@Z
       6839 1AB6 002562C0 ?inFontUcs4@QFontMetricsF@@QEBA_NI@Z
       6840 1AB7 000276B0 ?inPopupMode@QApplicationPrivate@@QEBA_NXZ
       6841 1AB8 003CDD30 ?inSelection@QLineControl@@QEBA_NH@Z
       6842 1AB9 00069220 ?inWhatsThisMode@QWhatsThis@@SA_NXZ
       6843 1ABA 00413120 ?indent@QLabel@@QEBAHXZ
       6844 1ABB 000659B0 ?indent@QTextBlockFormat@@QEBAHXZ
       6845 1ABC 000659C0 ?indent@QTextListFormat@@QEBAHXZ
       6846 1ABD 0029C610 ?indentWidth@QTextDocument@@QEBANXZ
       6847 1ABE 00555240 ?indentation@QTreeView@@QEBAHXZ
       6848 1ABF 00555250 ?indentationForItem@QTreeViewPrivate@@QEBAHH@Z
       6849 1AC0 00570000 ?index@QDirModel@@QEBA?AVQModelIndex@@AEBVQString@@H@Z
       6850 1AC1 00570AB0 ?index@QDirModel@@UEBA?AVQModelIndex@@HHAEBV2@@Z
       6851 1AC2 004ECBA0 ?index@QFileSystemModel@@QEBA?AVQModelIndex@@AEBVQString@@H@Z
       6852 1AC3 004ECC40 ?index@QFileSystemModel@@UEBA?AVQModelIndex@@HHAEBV2@@Z
       6853 1AC4 004AF210 ?index@QFileSystemModelPrivate@@QEAA?AVQModelIndex@@AEBVQString@@@Z
       6854 1AC5 004ECDA0 ?index@QFileSystemModelPrivate@@QEBA?AVQModelIndex@@PEBVQFileSystemNode@1@@Z
       6855 1AC6 0052E3F0 ?index@QIdentityProxyModel@@UEBA?AVQModelIndex@@HHAEBV2@@Z
       6856 1AC7 005795B0 ?index@QListModel@@QEBA?AVQModelIndex@@PEAVQListWidgetItem@@@Z
