EXPORTS
??0?$QList@VQItemSelectionRange@@@@QEAA@AEBV0@@Z
??0?$QList@VQItemSelectionRange@@@@QEAA@XZ
??0Declaration@QCss@@QEAA@AEBU01@@Z
??0Declaration@QCss@@QEAA@XZ
??0FileInfo@QZipReader@@QEAA@AEBU01@@Z
??0FileInfo@QZipReader@@QEAA@XZ
??0Key@QPixmapCache@@QEAA@AEBV01@@Z
??0Key@QPixmapCache@@QEAA@XZ
??0Parser@QCss@@QEAA@AEBV01@@Z
??0Parser@QCss@@QEAA@AEBVQString@@_N@Z
??0Parser@QCss@@QEAA@XZ
??0QAbstractButton@@IEAA@AEAVQAbstractButtonPrivate@@PEAVQWidget@@@Z
??0QAbstractButton@@QEAA@PEAVQWidget@@@Z
??0QAbstractGraphicsShapeItem@@IEAA@AEAVQAbstractGraphicsShapeItemPrivate@@PEAVQGraphicsItem@@PEAVQGraphicsScene@@@Z
??0QAbstractGraphicsShapeItem@@QEAA@PEAVQGraphicsItem@@PEAVQGraphicsScene@@@Z
??0QAbstractItemDelegate@@IEAA@AEAVQObjectPrivate@@PEAVQObject@@@Z
??0QAbstractItemDelegate@@QEAA@PEAVQObject@@@Z
??0QAbstractItemView@@IEAA@AEAVQAbstractItemViewPrivate@@PEAVQWidget@@@Z
??0QAbstractItemView@@QEAA@PEAVQWidget@@@Z
??0QAbstractItemViewPrivate@@QEAA@XZ
??0QAbstractPageSetupDialog@@QEAA@AEAVQAbstractPageSetupDialogPrivate@@PEAVQPrinter@@PEAVQWidget@@@Z
??0QAbstractPageSetupDialog@@QEAA@PEAVQPrinter@@PEAVQWidget@@@Z
??0QAbstractPrintDialog@@IEAA@AEAVQAbstractPrintDialogPrivate@@PEAVQPrinter@@PEAVQWidget@@@Z
??0QAbstractPrintDialog@@QEAA@PEAVQPrinter@@PEAVQWidget@@@Z
??0QAbstractProxyModel@@IEAA@AEAVQAbstractProxyModelPrivate@@PEAVQObject@@@Z
??0QAbstractProxyModel@@QEAA@PEAVQObject@@@Z
??0QAbstractScrollArea@@IEAA@AEAVQAbstractScrollAreaPrivate@@PEAVQWidget@@@Z
??0QAbstractScrollArea@@QEAA@PEAVQWidget@@@Z
??0QAbstractScrollAreaPrivate@@QEAA@XZ
??0QAbstractSlider@@IEAA@AEAVQAbstractSliderPrivate@@PEAVQWidget@@@Z
??0QAbstractSlider@@QEAA@PEAVQWidget@@@Z
??0QAbstractSpinBox@@IEAA@AEAVQAbstractSpinBoxPrivate@@PEAVQWidget@@@Z
??0QAbstractSpinBox@@QEAA@PEAVQWidget@@@Z
??0QAbstractTextDocumentLayout@@IEAA@AEAVQAbstractTextDocumentLayoutPrivate@@PEAVQTextDocument@@@Z
??0QAbstractTextDocumentLayout@@QEAA@PEAVQTextDocument@@@Z
??0QAbstractUndoItem@@QEAA@AEBV0@@Z
??0QAbstractUndoItem@@QEAA@XZ
??0QAccessible2Interface@@QEAA@AEBV0@@Z
??0QAccessible2Interface@@QEAA@XZ
??0QAccessibleActionInterface@@QEAA@AEBV0@@Z
??0QAccessibleActionInterface@@QEAA@XZ
??0QAccessibleApplication@@QEAA@XZ
??0QAccessibleEditableTextInterface@@QEAA@AEBV0@@Z
??0QAccessibleEditableTextInterface@@QEAA@XZ
??0QAccessibleEvent@@QEAA@AEBV0@@Z
??0QAccessibleEvent@@QEAA@W4Type@QEvent@@H@Z
??0QAccessibleFactoryInterface@@QEAA@AEBU0@@Z
??0QAccessibleFactoryInterface@@QEAA@XZ
??0QAccessibleImageInterface@@QEAA@AEBV0@@Z
??0QAccessibleImageInterface@@QEAA@XZ
??0QAccessibleInterface@@QEAA@AEBV0@@Z
??0QAccessibleInterface@@QEAA@XZ
??0QAccessibleInterfaceEx@@QEAA@AEBV0@@Z
??0QAccessibleInterfaceEx@@QEAA@XZ
??0QAccessibleObject@@QEAA@PEAVQObject@@@Z
??0QAccessibleObjectEx@@QEAA@PEAVQObject@@@Z
??0QAccessiblePlugin@@QEAA@PEAVQObject@@@Z
??0QAccessibleSimpleEditableTextInterface@@QEAA@AEBV0@@Z
??0QAccessibleSimpleEditableTextInterface@@QEAA@PEAVQAccessibleInterface@@@Z
??0QAccessibleTable2CellInterface@@QEAA@AEBV0@@Z
??0QAccessibleTable2CellInterface@@QEAA@XZ
??0QAccessibleTable2Interface@@QEAA@AEBV0@@Z
??0QAccessibleTable2Interface@@QEAA@XZ
??0QAccessibleTableInterface@@QEAA@AEBV0@@Z
??0QAccessibleTableInterface@@QEAA@XZ
??0QAccessibleTextInterface@@QEAA@AEBV0@@Z
??0QAccessibleTextInterface@@QEAA@XZ
??0QAccessibleValueInterface@@QEAA@AEBV0@@Z
??0QAccessibleValueInterface@@QEAA@XZ
??0QAccessibleWidget@@QEAA@PEAVQWidget@@W4Role@QAccessible@@AEBVQString@@@Z
??0QAccessibleWidgetEx@@QEAA@PEAVQWidget@@W4Role@QAccessible@@AEBVQString@@@Z
??0QAction@@IEAA@AEAVQActionPrivate@@PEAVQObject@@@Z
??0QAction@@QEAA@AEBVQIcon@@AEBVQString@@PEAVQObject@@@Z
??0QAction@@QEAA@AEBVQString@@PEAVQObject@@@Z
??0QAction@@QEAA@PEAVQObject@@@Z
??0QActionEvent@@QEAA@AEBV0@@Z
??0QActionEvent@@QEAA@HPEAVQAction@@0@Z
??0QActionGroup@@QEAA@PEAVQObject@@@Z
??0QActionPrivate@@QEAA@AEBV0@@Z
??0QActionPrivate@@QEAA@XZ
??0QApplication@@IEAA@AEAHPEAPEAD@Z
??0QApplication@@IEAA@AEAHPEAPEADW4Type@0@@Z
??0QApplication@@IEAA@AEAHPEAPEAD_N@Z
??0QApplication@@QEAA@AEAHPEAPEADH@Z
??0QApplication@@QEAA@AEAHPEAPEADW4Type@0@H@Z
??0QApplication@@QEAA@AEAHPEAPEAD_NH@Z
??0QApplicationPrivate@@QEAA@AEAHPEAPEADW4Type@QApplication@@H@Z
??0QBalloonTip@@IEAA@W4MessageIcon@QSystemTrayIcon@@AEBVQString@@1PEAV2@@Z
??0QBasicKeyEventTransition@@QEAA@PEAVQState@@@Z
??0QBasicKeyEventTransition@@QEAA@W4Type@QEvent@@HPEAVQState@@@Z
??0QBasicKeyEventTransition@@QEAA@W4Type@QEvent@@HV?$QFlags@W4KeyboardModifier@Qt@@@@PEAVQState@@@Z
??0QBasicMouseEventTransition@@QEAA@PEAVQState@@@Z
??0QBasicMouseEventTransition@@QEAA@W4Type@QEvent@@W4MouseButton@Qt@@PEAVQState@@@Z
??0QBitmap@@QEAA@AEBV0@@Z
??0QBitmap@@QEAA@AEBVQPixmap@@@Z
??0QBitmap@@QEAA@AEBVQSize@@@Z
??0QBitmap@@QEAA@AEBVQString@@PEBD@Z
??0QBitmap@@QEAA@HH@Z
??0QBitmap@@QEAA@XZ
??0QBlittable@@QEAA@AEBV0@@Z
??0QBlittable@@QEAA@AEBVQSize@@V?$QFlags@W4Capability@QBlittable@@@@@Z
??0QBlittablePixmapData@@QEAA@XZ
??0QBlitterPaintEngine@@QEAA@PEAVQBlittablePixmapData@@@Z
??0QBoxLayout@@QEAA@W4Direction@0@PEAVQWidget@@@Z
??0QBrush@@QEAA@AEBV0@@Z
??0QBrush@@QEAA@AEBVQColor@@AEBVQPixmap@@@Z
??0QBrush@@QEAA@AEBVQColor@@W4BrushStyle@Qt@@@Z
??0QBrush@@QEAA@AEBVQGradient@@@Z
??0QBrush@@QEAA@AEBVQImage@@@Z
??0QBrush@@QEAA@AEBVQPixmap@@@Z
??0QBrush@@QEAA@W4BrushStyle@Qt@@@Z
??0QBrush@@QEAA@W4GlobalColor@Qt@@AEBVQPixmap@@@Z
??0QBrush@@QEAA@W4GlobalColor@Qt@@W4BrushStyle@2@@Z
??0QBrush@@QEAA@XZ
??0QButtonGroup@@QEAA@PEAVQObject@@@Z
??0QCDEStyle@@QEAA@_N@Z
??0QCalendarWidget@@QEAA@PEAVQWidget@@@Z
??0QCheckBox@@QEAA@AEBVQString@@PEAVQWidget@@@Z
??0QCheckBox@@QEAA@PEAVQWidget@@@Z
??0QCleanlooksStyle@@IEAA@AEAVQCleanlooksStylePrivate@@@Z
??0QCleanlooksStyle@@QEAA@XZ
??0QClipboard@@AEAA@PEAVQObject@@@Z
??0QClipboardEvent@@QEAA@AEBV0@@Z
??0QClipboardEvent@@QEAA@PEAVQEventPrivate@@@Z
??0QCloseEvent@@QEAA@AEBV0@@Z
??0QCloseEvent@@QEAA@XZ
??0QColor@@QEAA@AEBV0@@Z
??0QColor@@QEAA@AEBVQString@@@Z
??0QColor@@QEAA@HHHH@Z
??0QColor@@QEAA@I@Z
??0QColor@@QEAA@PEBD@Z
??0QColor@@QEAA@W4GlobalColor@Qt@@@Z
??0QColor@@QEAA@W4Spec@0@@Z
??0QColor@@QEAA@XZ
??0QColorDialog@@AEAA@PEAVQWidget@@_N@Z
??0QColorDialog@@QEAA@AEBVQColor@@PEAVQWidget@@@Z
??0QColorDialog@@QEAA@PEAVQWidget@@@Z
??0QColormap@@AEAA@XZ
??0QColormap@@QEAA@AEBV0@@Z
??0QColumnView@@IEAA@AEAVQColumnViewPrivate@@PEAVQWidget@@@Z
??0QColumnView@@QEAA@PEAVQWidget@@@Z
??0QColumnViewGrip@@IEAA@AEAVQColumnViewGripPrivate@@PEAVQWidget@@V?$QFlags@W4WindowType@Qt@@@@@Z
??0QColumnViewGrip@@QEAA@PEAVQWidget@@@Z
??0QColumnViewPrivate@@QEAA@XZ
??0QComboBox@@IEAA@AEAVQComboBoxPrivate@@PEAVQWidget@@@Z
??0QComboBox@@QEAA@PEAVQWidget@@@Z
??0QComboBoxPrivate@@QEAA@AEBV0@@Z
??0QComboBoxPrivate@@QEAA@XZ
??0QComboBoxPrivateContainer@@QEAA@PEAVQAbstractItemView@@PEAVQComboBox@@@Z
??0QComboBoxPrivateScroller@@QEAA@W4SliderAction@QAbstractSlider@@PEAVQWidget@@@Z
??0QCommandLinkButton@@QEAA@AEBVQString@@0PEAVQWidget@@@Z
??0QCommandLinkButton@@QEAA@AEBVQString@@PEAVQWidget@@@Z
??0QCommandLinkButton@@QEAA@PEAVQWidget@@@Z
??0QCommonStyle@@IEAA@AEAVQCommonStylePrivate@@@Z
??0QCommonStyle@@QEAA@XZ
??0QCompleter@@QEAA@AEBVQStringList@@PEAVQObject@@@Z
??0QCompleter@@QEAA@PEAVQAbstractItemModel@@PEAVQObject@@@Z
??0QCompleter@@QEAA@PEAVQObject@@@Z
??0QConicalGradient@@QEAA@AEBV0@@Z
??0QConicalGradient@@QEAA@AEBVQPointF@@N@Z
??0QConicalGradient@@QEAA@NNN@Z
??0QConicalGradient@@QEAA@XZ
??0QContextMenuEvent@@QEAA@AEBV0@@Z
??0QContextMenuEvent@@QEAA@W4Reason@0@AEBVQPoint@@1@Z
??0QContextMenuEvent@@QEAA@W4Reason@0@AEBVQPoint@@1V?$QFlags@W4KeyboardModifier@Qt@@@@@Z
??0QContextMenuEvent@@QEAA@W4Reason@0@AEBVQPoint@@@Z
??0QCursor@@QEAA@AEBV0@@Z
??0QCursor@@QEAA@AEBVQBitmap@@0HH@Z
??0QCursor@@QEAA@AEBVQPixmap@@HH@Z
??0QCursor@@QEAA@PEAUHICON__@@@Z
??0QCursor@@QEAA@W4CursorShape@Qt@@@Z
??0QCursor@@QEAA@XZ
??0QDashStroker@@QEAA@AEBV0@@Z
??0QDashStroker@@QEAA@PEAVQStroker@@@Z
??0QDataWidgetMapper@@QEAA@PEAVQObject@@@Z
??0QDateEdit@@QEAA@AEBVQDate@@PEAVQWidget@@@Z
??0QDateEdit@@QEAA@PEAVQWidget@@@Z
??0QDateTimeEdit@@IEAA@AEBVQVariant@@W4Type@1@PEAVQWidget@@@Z
??0QDateTimeEdit@@QEAA@AEBVQDate@@PEAVQWidget@@@Z
??0QDateTimeEdit@@QEAA@AEBVQDateTime@@PEAVQWidget@@@Z
??0QDateTimeEdit@@QEAA@AEBVQTime@@PEAVQWidget@@@Z
??0QDateTimeEdit@@QEAA@PEAVQWidget@@@Z
??0QDesktopWidget@@QEAA@XZ
??0QDial@@QEAA@PEAVQWidget@@@Z
??0QDialog@@IEAA@AEAVQDialogPrivate@@PEAVQWidget@@V?$QFlags@W4WindowType@Qt@@@@@Z
??0QDialog@@QEAA@PEAVQWidget@@V?$QFlags@W4WindowType@Qt@@@@@Z
??0QDialogButtonBox@@QEAA@PEAVQWidget@@@Z
??0QDialogButtonBox@@QEAA@V?$QFlags@W4StandardButton@QDialogButtonBox@@@@W4Orientation@Qt@@PEAVQWidget@@@Z
??0QDialogButtonBox@@QEAA@W4Orientation@Qt@@PEAVQWidget@@@Z
??0QDirModel@@IEAA@AEAVQDirModelPrivate@@PEAVQObject@@@Z
??0QDirModel@@QEAA@AEBVQStringList@@V?$QFlags@W4Filter@QDir@@@@V?$QFlags@W4SortFlag@QDir@@@@PEAVQObject@@@Z
??0QDirModel@@QEAA@PEAVQObject@@@Z
??0QDockAreaLayout@@QEAA@AEBV0@@Z
??0QDockAreaLayout@@QEAA@PEAVQMainWindow@@@Z
??0QDockAreaLayoutInfo@@QEAA@AEBV0@@Z
??0QDockAreaLayoutInfo@@QEAA@PEBHW4DockPosition@QInternal@@W4Orientation@Qt@@HPEAVQMainWindow@@@Z
??0QDockAreaLayoutInfo@@QEAA@XZ
??0QDockWidget@@QEAA@AEBVQString@@PEAVQWidget@@V?$QFlags@W4WindowType@Qt@@@@@Z
??0QDockWidget@@QEAA@PEAVQWidget@@V?$QFlags@W4WindowType@Qt@@@@@Z
??0QDockWidgetLayout@@QEAA@PEAVQWidget@@@Z
??0QDoubleSpinBox@@QEAA@PEAVQWidget@@@Z
??0QDoubleValidator@@QEAA@NNHPEAVQObject@@@Z
??0QDoubleValidator@@QEAA@PEAVQObject@@@Z
??0QDrag@@QEAA@PEAVQWidget@@@Z
??0QDragEnterEvent@@QEAA@AEBV0@@Z
??0QDragEnterEvent@@QEAA@AEBVQPoint@@V?$QFlags@W4DropAction@Qt@@@@PEBVQMimeData@@V?$QFlags@W4MouseButton@Qt@@@@V?$QFlags@W4KeyboardModifier@Qt@@@@@Z
??0QDragLeaveEvent@@QEAA@AEBV0@@Z
??0QDragLeaveEvent@@QEAA@XZ
??0QDragMoveEvent@@QEAA@AEBV0@@Z
??0QDragMoveEvent@@QEAA@AEBVQPoint@@V?$QFlags@W4DropAction@Qt@@@@PEBVQMimeData@@V?$QFlags@W4MouseButton@Qt@@@@V?$QFlags@W4KeyboardModifier@Qt@@@@W4Type@QEvent@@@Z
??0QDragResponseEvent@@QEAA@AEBV0@@Z
??0QDragResponseEvent@@QEAA@_N@Z
??0QDropEvent@@QEAA@AEBV0@@Z
??0QDropEvent@@QEAA@AEBVQPoint@@V?$QFlags@W4DropAction@Qt@@@@PEBVQMimeData@@V?$QFlags@W4MouseButton@Qt@@@@V?$QFlags@W4KeyboardModifier@Qt@@@@W4Type@QEvent@@@Z
??0QErrorMessage@@QEAA@PEAVQWidget@@@Z
??0QFileDialog@@IEAA@AEBUQFileDialogArgs@@@Z
??0QFileDialog@@QEAA@PEAVQWidget@@AEBVQString@@11@Z
??0QFileDialog@@QEAA@PEAVQWidget@@V?$QFlags@W4WindowType@Qt@@@@@Z
??0QFileDialogPrivate@@QEAA@XZ
??0QFileIconProvider@@QEAA@XZ
??0QFileInfoGatherer@@QEAA@PEAVQObject@@@Z
??0QFileOpenEvent@@QEAA@AEBV0@@Z
??0QFileOpenEvent@@QEAA@AEBVQString@@@Z
??0QFileOpenEvent@@QEAA@AEBVQUrl@@@Z
??0QFileSystemModel@@IEAA@AEAVQFileSystemModelPrivate@@PEAVQObject@@@Z
??0QFileSystemModel@@QEAA@PEAVQObject@@@Z
??0QFileSystemModelPrivate@@QEAA@XZ
??0QFocusEvent@@QEAA@AEBV0@@Z
??0QFocusEvent@@QEAA@W4Type@QEvent@@W4FocusReason@Qt@@@Z
??0QFocusFrame@@QEAA@PEAVQWidget@@@Z
??0QFont@@AEAA@PEAVQFontPrivate@@@Z
??0QFont@@QEAA@AEBV0@@Z
??0QFont@@QEAA@AEBV0@PEAVQPaintDevice@@@Z
??0QFont@@QEAA@AEBVQString@@HH_N@Z
??0QFont@@QEAA@XZ
??0QFontComboBox@@QEAA@PEAVQWidget@@@Z
??0QFontDatabase@@QEAA@XZ
??0QFontDialog@@AEAA@PEAVQWidget@@_NV?$QFlags@W4WindowType@Qt@@@@@Z
??0QFontDialog@@QEAA@AEBVQFont@@PEAVQWidget@@@Z
??0QFontDialog@@QEAA@PEAVQWidget@@@Z
??0QFontEngine@@QEAA@XZ
??0QFontInfo@@QEAA@AEBV0@@Z
??0QFontInfo@@QEAA@AEBVQFont@@@Z
??0QFontMetrics@@QEAA@AEBV0@@Z
??0QFontMetrics@@QEAA@AEBVQFont@@@Z
??0QFontMetrics@@QEAA@AEBVQFont@@PEAVQPaintDevice@@@Z
??0QFontMetricsF@@QEAA@AEBV0@@Z
??0QFontMetricsF@@QEAA@AEBVQFont@@@Z
??0QFontMetricsF@@QEAA@AEBVQFont@@PEAVQPaintDevice@@@Z
??0QFontMetricsF@@QEAA@AEBVQFontMetrics@@@Z
??0QFontPrivate@@QEAA@AEBV0@@Z
??0QFontPrivate@@QEAA@XZ
??0QFormLayout@@QEAA@PEAVQWidget@@@Z
??0QFrame@@IEAA@AEAVQFramePrivate@@PEAVQWidget@@V?$QFlags@W4WindowType@Qt@@@@@Z
??0QFrame@@QEAA@PEAVQWidget@@V?$QFlags@W4WindowType@Qt@@@@@Z
??0QGesture@@IEAA@AEAVQGesturePrivate@@PEAVQObject@@@Z
??0QGesture@@QEAA@PEAVQObject@@@Z
??0QGestureEvent@@QEAA@AEBV0@@Z
??0QGestureEvent@@QEAA@AEBV?$QList@PEAVQGesture@@@@@Z
??0QGestureRecognizer@@QEAA@AEBV0@@Z
??0QGestureRecognizer@@QEAA@XZ
??0QGlyphRun@@QEAA@AEBV0@@Z
??0QGlyphRun@@QEAA@XZ
??0QGradient@@QEAA@AEBV0@@Z
??0QGradient@@QEAA@XZ
??0QGraphicsAnchor@@AEAA@PEAVQGraphicsAnchorLayout@@@Z
??0QGraphicsAnchorLayout@@QEAA@PEAVQGraphicsLayoutItem@@@Z
??0QGraphicsAnchorLayoutPrivate@@QEAA@AEBV0@@Z
??0QGraphicsAnchorLayoutPrivate@@QEAA@XZ
??0QGraphicsBlurEffect@@QEAA@PEAVQObject@@@Z
??0QGraphicsColorizeEffect@@QEAA@PEAVQObject@@@Z
??0QGraphicsDropShadowEffect@@QEAA@PEAVQObject@@@Z
??0QGraphicsEffect@@IEAA@AEAVQGraphicsEffectPrivate@@PEAVQObject@@@Z
??0QGraphicsEffect@@QEAA@PEAVQObject@@@Z
??0QGraphicsEffectPrivate@@QEAA@AEBV0@@Z
??0QGraphicsEffectPrivate@@QEAA@XZ
??0QGraphicsEffectSource@@IEAA@AEAVQGraphicsEffectSourcePrivate@@PEAVQObject@@@Z
??0QGraphicsEllipseItem@@QEAA@AEBVQRectF@@PEAVQGraphicsItem@@PEAVQGraphicsScene@@@Z
??0QGraphicsEllipseItem@@QEAA@NNNNPEAVQGraphicsItem@@PEAVQGraphicsScene@@@Z
??0QGraphicsEllipseItem@@QEAA@PEAVQGraphicsItem@@PEAVQGraphicsScene@@@Z
??0QGraphicsGridLayout@@QEAA@PEAVQGraphicsLayoutItem@@@Z
??0QGraphicsItem@@IEAA@AEAVQGraphicsItemPrivate@@PEAV0@PEAVQGraphicsScene@@@Z
??0QGraphicsItem@@QEAA@PEAV0@PEAVQGraphicsScene@@@Z
??0QGraphicsItemAnimation@@QEAA@PEAVQObject@@@Z
??0QGraphicsItemGroup@@QEAA@PEAVQGraphicsItem@@PEAVQGraphicsScene@@@Z
??0QGraphicsItemPrivate@@QEAA@AEBV0@@Z
??0QGraphicsItemPrivate@@QEAA@XZ
??0QGraphicsLayout@@IEAA@AEAVQGraphicsLayoutPrivate@@PEAVQGraphicsLayoutItem@@@Z
??0QGraphicsLayout@@QEAA@PEAVQGraphicsLayoutItem@@@Z
??0QGraphicsLayoutItem@@IEAA@AEAVQGraphicsLayoutItemPrivate@@@Z
??0QGraphicsLayoutItem@@QEAA@PEAV0@_N@Z
??0QGraphicsLayoutItemPrivate@@QEAA@AEBV0@@Z
??0QGraphicsLayoutItemPrivate@@QEAA@PEAVQGraphicsLayoutItem@@_N@Z
??0QGraphicsLayoutPrivate@@QEAA@AEBV0@@Z
??0QGraphicsLayoutPrivate@@QEAA@XZ
??0QGraphicsLineItem@@QEAA@AEBVQLineF@@PEAVQGraphicsItem@@PEAVQGraphicsScene@@@Z
??0QGraphicsLineItem@@QEAA@NNNNPEAVQGraphicsItem@@PEAVQGraphicsScene@@@Z
??0QGraphicsLineItem@@QEAA@PEAVQGraphicsItem@@PEAVQGraphicsScene@@@Z
??0QGraphicsLinearLayout@@QEAA@PEAVQGraphicsLayoutItem@@@Z
??0QGraphicsLinearLayout@@QEAA@W4Orientation@Qt@@PEAVQGraphicsLayoutItem@@@Z
??0QGraphicsObject@@IEAA@AEAVQGraphicsItemPrivate@@PEAVQGraphicsItem@@PEAVQGraphicsScene@@@Z
??0QGraphicsObject@@QEAA@PEAVQGraphicsItem@@@Z
??0QGraphicsOpacityEffect@@QEAA@PEAVQObject@@@Z
??0QGraphicsPathItem@@QEAA@AEBVQPainterPath@@PEAVQGraphicsItem@@PEAVQGraphicsScene@@@Z
??0QGraphicsPathItem@@QEAA@PEAVQGraphicsItem@@PEAVQGraphicsScene@@@Z
??0QGraphicsPixmapItem@@QEAA@AEBVQPixmap@@PEAVQGraphicsItem@@PEAVQGraphicsScene@@@Z
??0QGraphicsPixmapItem@@QEAA@PEAVQGraphicsItem@@PEAVQGraphicsScene@@@Z
??0QGraphicsPolygonItem@@QEAA@AEBVQPolygonF@@PEAVQGraphicsItem@@PEAVQGraphicsScene@@@Z
??0QGraphicsPolygonItem@@QEAA@PEAVQGraphicsItem@@PEAVQGraphicsScene@@@Z
??0QGraphicsProxyWidget@@QEAA@PEAVQGraphicsItem@@V?$QFlags@W4WindowType@Qt@@@@@Z
??0QGraphicsRectItem@@QEAA@AEBVQRectF@@PEAVQGraphicsItem@@PEAVQGraphicsScene@@@Z
??0QGraphicsRectItem@@QEAA@NNNNPEAVQGraphicsItem@@PEAVQGraphicsScene@@@Z
??0QGraphicsRectItem@@QEAA@PEAVQGraphicsItem@@PEAVQGraphicsScene@@@Z
??0QGraphicsRotation@@QEAA@PEAVQObject@@@Z
??0QGraphicsScale@@QEAA@PEAVQObject@@@Z
??0QGraphicsScene@@QEAA@AEBVQRectF@@PEAVQObject@@@Z
??0QGraphicsScene@@QEAA@NNNNPEAVQObject@@@Z
??0QGraphicsScene@@QEAA@PEAVQObject@@@Z
??0QGraphicsSceneBspTreeIndex@@QEAA@PEAVQGraphicsScene@@@Z
??0QGraphicsSceneContextMenuEvent@@QEAA@W4Type@QEvent@@@Z
??0QGraphicsSceneDragDropEvent@@QEAA@W4Type@QEvent@@@Z
??0QGraphicsSceneEvent@@IEAA@AEAVQGraphicsSceneEventPrivate@@W4Type@QEvent@@@Z
??0QGraphicsSceneEvent@@QEAA@W4Type@QEvent@@@Z
??0QGraphicsSceneHelpEvent@@QEAA@W4Type@QEvent@@@Z
??0QGraphicsSceneHoverEvent@@QEAA@W4Type@QEvent@@@Z
??0QGraphicsSceneIndex@@IEAA@AEAVQGraphicsSceneIndexPrivate@@PEAVQGraphicsScene@@@Z
??0QGraphicsSceneIndex@@QEAA@PEAVQGraphicsScene@@@Z
??0QGraphicsSceneLinearIndex@@QEAA@PEAVQGraphicsScene@@@Z
??0QGraphicsSceneMouseEvent@@QEAA@W4Type@QEvent@@@Z
??0QGraphicsSceneMoveEvent@@QEAA@XZ
??0QGraphicsScenePrivate@@QEAA@AEBV0@@Z
??0QGraphicsScenePrivate@@QEAA@XZ
??0QGraphicsSceneResizeEvent@@QEAA@XZ
??0QGraphicsSceneWheelEvent@@QEAA@W4Type@QEvent@@@Z
??0QGraphicsSimpleTextItem@@QEAA@AEBVQString@@PEAVQGraphicsItem@@PEAVQGraphicsScene@@@Z
??0QGraphicsSimpleTextItem@@QEAA@PEAVQGraphicsItem@@PEAVQGraphicsScene@@@Z
??0QGraphicsSystem@@QEAA@AEBV0@@Z
??0QGraphicsSystem@@QEAA@XZ
??0QGraphicsSystemPlugin@@QEAA@PEAVQObject@@@Z
??0QGraphicsTextItem@@QEAA@AEBVQString@@PEAVQGraphicsItem@@PEAVQGraphicsScene@@@Z
??0QGraphicsTextItem@@QEAA@PEAVQGraphicsItem@@PEAVQGraphicsScene@@@Z
??0QGraphicsTransform@@IEAA@AEAVQGraphicsTransformPrivate@@PEAVQObject@@@Z
??0QGraphicsTransform@@QEAA@PEAVQObject@@@Z
??0QGraphicsView@@IEAA@AEAVQGraphicsViewPrivate@@PEAVQWidget@@@Z
??0QGraphicsView@@QEAA@PEAVQGraphicsScene@@PEAVQWidget@@@Z
??0QGraphicsView@@QEAA@PEAVQWidget@@@Z
??0QGraphicsViewPrivate@@QEAA@XZ
??0QGraphicsWidget@@IEAA@AEAVQGraphicsWidgetPrivate@@PEAVQGraphicsItem@@PEAVQGraphicsScene@@V?$QFlags@W4WindowType@Qt@@@@@Z
??0QGraphicsWidget@@QEAA@PEAVQGraphicsItem@@V?$QFlags@W4WindowType@Qt@@@@@Z
??0QGridLayout@@QEAA@PEAVQWidget@@@Z
??0QGridLayout@@QEAA@XZ
??0QGroupBox@@QEAA@AEBVQString@@PEAVQWidget@@@Z
??0QGroupBox@@QEAA@PEAVQWidget@@@Z
??0QGuiPlatformPlugin@@QEAA@PEAVQObject@@@Z
??0QGuiPlatformPluginInterface@@QEAA@AEBU0@@Z
??0QGuiPlatformPluginInterface@@QEAA@XZ
??0QHBoxLayout@@QEAA@PEAVQWidget@@@Z
??0QHBoxLayout@@QEAA@XZ
??0QHeaderView@@IEAA@AEAVQHeaderViewPrivate@@W4Orientation@Qt@@PEAVQWidget@@@Z
??0QHeaderView@@QEAA@W4Orientation@Qt@@PEAVQWidget@@@Z
??0QHelpEvent@@QEAA@AEBV0@@Z
??0QHelpEvent@@QEAA@W4Type@QEvent@@AEBVQPoint@@1@Z
??0QHideEvent@@QEAA@AEBV0@@Z
??0QHideEvent@@QEAA@XZ
??0QHoverEvent@@QEAA@AEBV0@@Z
??0QHoverEvent@@QEAA@W4Type@QEvent@@AEBVQPoint@@1@Z
??0QIcon@@QEAA@AEBV0@@Z
??0QIcon@@QEAA@AEBVQPixmap@@@Z
??0QIcon@@QEAA@AEBVQString@@@Z
??0QIcon@@QEAA@PEAVQIconEngine@@@Z
??0QIcon@@QEAA@PEAVQIconEngineV2@@@Z
??0QIcon@@QEAA@XZ
??0QIconDragEvent@@QEAA@AEBV0@@Z
??0QIconDragEvent@@QEAA@XZ
??0QIconEngine@@QEAA@AEBV0@@Z
??0QIconEngine@@QEAA@XZ
??0QIconEngineFactoryInterface@@QEAA@AEBU0@@Z
??0QIconEngineFactoryInterface@@QEAA@XZ
??0QIconEngineFactoryInterfaceV2@@QEAA@AEBU0@@Z
??0QIconEngineFactoryInterfaceV2@@QEAA@XZ
??0QIconEnginePlugin@@QEAA@PEAVQObject@@@Z
??0QIconEnginePluginV2@@QEAA@PEAVQObject@@@Z
??0QIconEngineV2@@QEAA@AEBV0@@Z
??0QIconEngineV2@@QEAA@XZ
??0QIdentityProxyModel@@IEAA@AEAVQIdentityProxyModelPrivate@@PEAVQObject@@@Z
??0QIdentityProxyModel@@QEAA@PEAVQObject@@@Z
??0QImage@@QEAA@AEBV0@@Z
??0QImage@@QEAA@AEBVQSize@@W4Format@0@@Z
??0QImage@@QEAA@AEBVQString@@PEBD@Z
??0QImage@@QEAA@HHW4Format@0@@Z
??0QImage@@QEAA@PEAEHHHW4Format@0@@Z
??0QImage@@QEAA@PEAEHHW4Format@0@@Z
??0QImage@@QEAA@PEBD0@Z
??0QImage@@QEAA@PEBEHHHW4Format@0@@Z
??0QImage@@QEAA@PEBEHHW4Format@0@@Z
??0QImage@@QEAA@QEBQEBD@Z
??0QImage@@QEAA@XZ
??0QImageData@@QEAA@AEBU0@@Z
??0QImageData@@QEAA@XZ
??0QImageIOHandler@@IEAA@AEAVQImageIOHandlerPrivate@@@Z
??0QImageIOHandler@@QEAA@XZ
??0QImageIOHandlerFactoryInterface@@QEAA@AEBU0@@Z
??0QImageIOHandlerFactoryInterface@@QEAA@XZ
??0QImageIOPlugin@@QEAA@PEAVQObject@@@Z
??0QImagePixmapCleanupHooks@@QEAA@AEBV0@@Z
??0QImagePixmapCleanupHooks@@QEAA@XZ
??0QImageReader@@QEAA@AEBVQString@@AEBVQByteArray@@@Z
??0QImageReader@@QEAA@PEAVQIODevice@@AEBVQByteArray@@@Z
??0QImageReader@@QEAA@XZ
??0QImageTextKeyLang@@QEAA@AEBV0@@Z
??0QImageTextKeyLang@@QEAA@PEBD0@Z
??0QImageTextKeyLang@@QEAA@XZ
??0QImageTextureGlyphCache@@QEAA@AEBV0@@Z
??0QImageTextureGlyphCache@@QEAA@W4Type@QFontEngineGlyphCache@@AEBVQTransform@@@Z
??0QImageWriter@@QEAA@AEBVQString@@AEBVQByteArray@@@Z
??0QImageWriter@@QEAA@PEAVQIODevice@@AEBVQByteArray@@@Z
??0QImageWriter@@QEAA@XZ
??0QInputContext@@QEAA@PEAVQObject@@@Z
??0QInputContextFactoryInterface@@QEAA@AEBU0@@Z
??0QInputContextFactoryInterface@@QEAA@XZ
??0QInputContextPlugin@@QEAA@PEAVQObject@@@Z
??0QInputDialog@@AEAA@AEBVQString@@0PEAVQWidget@@1V?$QFlags@W4WindowType@Qt@@@@@Z
??0QInputDialog@@AEAA@AEBVQString@@PEAVQWidget@@W4Type@0@V?$QFlags@W4WindowType@Qt@@@@@Z
??0QInputDialog@@QEAA@PEAVQWidget@@V?$QFlags@W4WindowType@Qt@@@@@Z
??0QInputEvent@@QEAA@AEBV0@@Z
??0QInputEvent@@QEAA@W4Type@QEvent@@V?$QFlags@W4KeyboardModifier@Qt@@@@@Z
??0QInputMethodEvent@@QEAA@AEBV0@@Z
??0QInputMethodEvent@@QEAA@AEBVQString@@AEBV?$QList@VAttribute@QInputMethodEvent@@@@@Z
??0QInputMethodEvent@@QEAA@XZ
??0QIntValidator@@QEAA@HHPEAVQObject@@@Z
??0QIntValidator@@QEAA@PEAVQObject@@@Z
??0QInternalMimeData@@QEAA@XZ
??0QItemDelegate@@QEAA@PEAVQObject@@@Z
??0QItemEditorCreatorBase@@QEAA@AEBV0@@Z
??0QItemEditorCreatorBase@@QEAA@XZ
??0QItemEditorFactory@@QEAA@AEBV0@@Z
??0QItemEditorFactory@@QEAA@XZ
??0QItemSelection@@QEAA@AEBV0@@Z
??0QItemSelection@@QEAA@AEBVQModelIndex@@0@Z
??0QItemSelection@@QEAA@XZ
??0QItemSelectionModel@@IEAA@AEAVQItemSelectionModelPrivate@@PEAVQAbstractItemModel@@@Z
??0QItemSelectionModel@@QEAA@PEAVQAbstractItemModel@@@Z
??0QItemSelectionModel@@QEAA@PEAVQAbstractItemModel@@PEAVQObject@@@Z
??0QItemSelectionRange@@QEAA@AEBV0@@Z
??0QItemSelectionRange@@QEAA@AEBVQModelIndex@@0@Z
??0QItemSelectionRange@@QEAA@AEBVQModelIndex@@@Z
??0QItemSelectionRange@@QEAA@XZ
??0QKeyEvent@@QEAA@AEBV0@@Z
??0QKeyEvent@@QEAA@W4Type@QEvent@@HV?$QFlags@W4KeyboardModifier@Qt@@@@AEBVQString@@_NG@Z
??0QKeyEventTransition@@QEAA@PEAVQObject@@W4Type@QEvent@@HPEAVQState@@@Z
??0QKeyEventTransition@@QEAA@PEAVQState@@@Z
??0QKeySequence@@QEAA@AEBV0@@Z
??0QKeySequence@@QEAA@AEBVQString@@@Z
??0QKeySequence@@QEAA@AEBVQString@@W4SequenceFormat@0@@Z
??0QKeySequence@@QEAA@HHHH@Z
??0QKeySequence@@QEAA@W4StandardKey@0@@Z
??0QKeySequence@@QEAA@XZ
??0QKeySequencePrivate@@QEAA@AEBV0@@Z
??0QKeySequencePrivate@@QEAA@XZ
??0QLCDNumber@@QEAA@IPEAVQWidget@@@Z
??0QLCDNumber@@QEAA@PEAVQWidget@@@Z
??0QLabel@@QEAA@AEBVQString@@PEAVQWidget@@V?$QFlags@W4WindowType@Qt@@@@@Z
??0QLabel@@QEAA@PEAVQWidget@@V?$QFlags@W4WindowType@Qt@@@@@Z
??0QLayout@@IEAA@AEAVQLayoutPrivate@@PEAV0@PEAVQWidget@@@Z
??0QLayout@@QEAA@PEAVQWidget@@@Z
??0QLayout@@QEAA@XZ
??0QLayoutItem@@QEAA@AEBV0@@Z
??0QLayoutItem@@QEAA@V?$QFlags@W4AlignmentFlag@Qt@@@@@Z
??0QLayoutPrivate@@QEAA@AEBV0@@Z
??0QLayoutPrivate@@QEAA@XZ
??0QLineControl@@QEAA@AEBVQString@@@Z
??0QLineEdit@@QEAA@AEBVQString@@PEAVQWidget@@@Z
??0QLineEdit@@QEAA@PEAVQWidget@@@Z
??0QLinearGradient@@QEAA@AEBV0@@Z
??0QLinearGradient@@QEAA@AEBVQPointF@@0@Z
??0QLinearGradient@@QEAA@NNNN@Z
??0QLinearGradient@@QEAA@XZ
??0QListModel@@QEAA@PEAVQListWidget@@@Z
??0QListView@@IEAA@AEAVQListViewPrivate@@PEAVQWidget@@@Z
??0QListView@@QEAA@PEAVQWidget@@@Z
??0QListWidget@@QEAA@PEAVQWidget@@@Z
??0QListWidgetItem@@QEAA@AEBV0@@Z
??0QListWidgetItem@@QEAA@AEBVQIcon@@AEBVQString@@PEAVQListWidget@@H@Z
??0QListWidgetItem@@QEAA@AEBVQString@@PEAVQListWidget@@H@Z
??0QListWidgetItem@@QEAA@PEAVQListWidget@@H@Z
??0QMainWindow@@QEAA@PEAVQWidget@@V?$QFlags@W4WindowType@Qt@@@@@Z
??0QMainWindowLayout@@QEAA@PEAVQMainWindow@@PEAVQLayout@@@Z
??0QMatrix4x4@@AEAA@H@Z
??0QMatrix4x4@@QEAA@AEBVQMatrix@@@Z
??0QMatrix4x4@@QEAA@AEBVQTransform@@@Z
??0QMatrix4x4@@QEAA@NNNNNNNNNNNNNNNN@Z
??0QMatrix4x4@@QEAA@PEBN@Z
??0QMatrix4x4@@QEAA@PEBNHH@Z
??0QMatrix4x4@@QEAA@XZ
??0QMatrix@@AEAA@NNNNNN_N@Z
??0QMatrix@@AEAA@_N@Z
??0QMatrix@@QEAA@AEBV0@@Z
??0QMatrix@@QEAA@NNNNNN@Z
??0QMatrix@@QEAA@W4Initialization@Qt@@@Z
??0QMatrix@@QEAA@XZ
??0QMdiArea@@QEAA@PEAVQWidget@@@Z
??0QMdiSubWindow@@QEAA@PEAVQWidget@@V?$QFlags@W4WindowType@Qt@@@@@Z
??0QMenu@@IEAA@AEAVQMenuPrivate@@PEAVQWidget@@@Z
??0QMenu@@QEAA@AEBVQString@@PEAVQWidget@@@Z
??0QMenu@@QEAA@PEAVQWidget@@@Z
??0QMenuBar@@QEAA@PEAVQWidget@@@Z
??0QMessageBox@@QEAA@AEBVQString@@0W4Icon@0@HHHPEAVQWidget@@V?$QFlags@W4WindowType@Qt@@@@@Z
??0QMessageBox@@QEAA@PEAVQWidget@@@Z
??0QMessageBox@@QEAA@W4Icon@0@AEBVQString@@1V?$QFlags@W4StandardButton@QMessageBox@@@@PEAVQWidget@@V?$QFlags@W4WindowType@Qt@@@@@Z
??0QMimeSource@@QEAA@AEBV0@@Z
??0QMimeSource@@QEAA@XZ
??0QMotifStyle@@IEAA@AEAVQMotifStylePrivate@@_N@Z
??0QMotifStyle@@QEAA@_N@Z
??0QMouseEvent@@QEAA@AEBV0@@Z
??0QMouseEvent@@QEAA@W4Type@QEvent@@AEBVQPoint@@1W4MouseButton@Qt@@V?$QFlags@W4MouseButton@Qt@@@@V?$QFlags@W4KeyboardModifier@Qt@@@@@Z
??0QMouseEvent@@QEAA@W4Type@QEvent@@AEBVQPoint@@W4MouseButton@Qt@@V?$QFlags@W4MouseButton@Qt@@@@V?$QFlags@W4KeyboardModifier@Qt@@@@@Z
??0QMouseEventTransition@@QEAA@PEAVQObject@@W4Type@QEvent@@W4MouseButton@Qt@@PEAVQState@@@Z
??0QMouseEventTransition@@QEAA@PEAVQState@@@Z
??0QMoveEvent@@QEAA@AEBV0@@Z
??0QMoveEvent@@QEAA@AEBVQPoint@@0@Z
??0QMovie@@QEAA@AEBVQString@@AEBVQByteArray@@PEAVQObject@@@Z
??0QMovie@@QEAA@PEAVQIODevice@@AEBVQByteArray@@PEAVQObject@@@Z
??0QMovie@@QEAA@PEAVQObject@@@Z
??0QPageSetupDialog@@QEAA@PEAVQPrinter@@PEAVQWidget@@@Z
??0QPageSetupDialog@@QEAA@PEAVQWidget@@@Z
??0QPaintBuffer@@QEAA@AEBV0@@Z
??0QPaintBuffer@@QEAA@XZ
??0QPaintBufferResource@@QEAA@P6AXPEAX@ZPEAVQObject@@@Z
??0QPaintBufferSignalProxy@@QEAA@XZ
??0QPaintDevice@@IEAA@XZ
??0QPaintEngine@@IEAA@AEAVQPaintEnginePrivate@@V?$QFlags@W4PaintEngineFeature@QPaintEngine@@@@@Z
??0QPaintEngine@@QEAA@V?$QFlags@W4PaintEngineFeature@QPaintEngine@@@@@Z
??0QPaintEngineEx@@IEAA@AEAVQPaintEngineExPrivate@@@Z
??0QPaintEngineEx@@QEAA@XZ
??0QPaintEngineExPrivate@@QEAA@AEBV0@@Z
??0QPaintEngineExPrivate@@QEAA@XZ
??0QPaintEngineExReplayer@@QEAA@AEBV0@@Z
??0QPaintEngineExReplayer@@QEAA@XZ
??0QPaintEngineState@@QEAA@AEBV0@@Z
??0QPaintEngineState@@QEAA@XZ
??0QPaintEvent@@QEAA@AEBV0@@Z
??0QPaintEvent@@QEAA@AEBVQRect@@@Z
??0QPaintEvent@@QEAA@AEBVQRegion@@@Z
??0QPainter@@QEAA@PEAVQPaintDevice@@@Z
??0QPainter@@QEAA@XZ
??0QPainterPath@@QEAA@AEBV0@@Z
??0QPainterPath@@QEAA@AEBVQPointF@@@Z
??0QPainterPath@@QEAA@XZ
??0QPainterPathStroker@@QEAA@XZ
??0QPainterReplayer@@QEAA@AEBV0@@Z
??0QPainterReplayer@@QEAA@XZ
??0QPainterState@@QEAA@AEBV0@@Z
??0QPainterState@@QEAA@PEBV0@@Z
??0QPainterState@@QEAA@XZ
??0QPalette@@QEAA@AEBV0@@Z
??0QPalette@@QEAA@AEBVQBrush@@00000000@Z
??0QPalette@@QEAA@AEBVQColor@@000000@Z
??0QPalette@@QEAA@AEBVQColor@@0@Z
??0QPalette@@QEAA@AEBVQColor@@@Z
??0QPalette@@QEAA@W4GlobalColor@Qt@@@Z
??0QPalette@@QEAA@XZ
??0QPanGesture@@QEAA@PEAVQObject@@@Z
??0QPathClipper@@QEAA@AEBVQPainterPath@@0@Z
??0QPen@@QEAA@AEBV0@@Z
??0QPen@@QEAA@AEBVQBrush@@NW4PenStyle@Qt@@W4PenCapStyle@3@W4PenJoinStyle@3@@Z
??0QPen@@QEAA@AEBVQColor@@@Z
??0QPen@@QEAA@W4PenStyle@Qt@@@Z
??0QPen@@QEAA@XZ
??0QPicture@@IEAA@AEAVQPicturePrivate@@@Z
??0QPicture@@QEAA@AEBV0@@Z
??0QPicture@@QEAA@H@Z
??0QPictureFormatInterface@@QEAA@AEBU0@@Z
??0QPictureFormatInterface@@QEAA@XZ
??0QPictureFormatPlugin@@QEAA@PEAVQObject@@@Z
??0QPictureIO@@QEAA@AEBVQString@@PEBD@Z
??0QPictureIO@@QEAA@PEAVQIODevice@@PEBD@Z
??0QPictureIO@@QEAA@XZ
??0QPinchGesture@@QEAA@PEAVQObject@@@Z
??0QPixmap@@AEAA@AEBVQSize@@H@Z
??0QPixmap@@AEAA@AEBVQSize@@W4Type@0@@Z
??0QPixmap@@QEAA@AEBV0@@Z
??0QPixmap@@QEAA@AEBVQSize@@@Z
??0QPixmap@@QEAA@AEBVQString@@PEBDV?$QFlags@W4ImageConversionFlag@Qt@@@@@Z
??0QPixmap@@QEAA@HH@Z
??0QPixmap@@QEAA@PEAVQPixmapData@@@Z
??0QPixmap@@QEAA@QEBQEBD@Z
??0QPixmap@@QEAA@XZ
??0QPixmapBlurFilter@@QEAA@PEAVQObject@@@Z
??0QPixmapColorizeFilter@@QEAA@PEAVQObject@@@Z
??0QPixmapConvolutionFilter@@QEAA@PEAVQObject@@@Z
??0QPixmapData@@QEAA@AEBV0@@Z
??0QPixmapData@@QEAA@W4PixelType@0@H@Z
??0QPixmapDropShadowFilter@@QEAA@PEAVQObject@@@Z
??0QPixmapFilter@@IEAA@AEAVQPixmapFilterPrivate@@W4FilterType@0@PEAVQObject@@@Z
??0QPixmapFilter@@IEAA@W4FilterType@0@PEAVQObject@@@Z
??0QPlaceHolderItem@@QEAA@AEBV0@@Z
??0QPlaceHolderItem@@QEAA@PEAVQWidget@@@Z
??0QPlaceHolderItem@@QEAA@XZ
??0QPlainTextDocumentLayout@@QEAA@PEAVQTextDocument@@@Z
??0QPlainTextEdit@@IEAA@AEAVQPlainTextEditPrivate@@PEAVQWidget@@@Z
??0QPlainTextEdit@@QEAA@AEBVQString@@PEAVQWidget@@@Z
??0QPlainTextEdit@@QEAA@PEAVQWidget@@@Z
??0QPlastiqueStyle@@QEAA@XZ
??0QPolygon@@QEAA@AEBV0@@Z
??0QPolygon@@QEAA@AEBV?$QVector@VQPoint@@@@@Z
??0QPolygon@@QEAA@AEBVQRect@@_N@Z
??0QPolygon@@QEAA@H@Z
??0QPolygon@@QEAA@HPEBH@Z
??0QPolygon@@QEAA@XZ
??0QPolygonF@@QEAA@AEBV0@@Z
??0QPolygonF@@QEAA@AEBV?$QVector@VQPointF@@@@@Z
??0QPolygonF@@QEAA@AEBVQPolygon@@@Z
??0QPolygonF@@QEAA@AEBVQRectF@@@Z
??0QPolygonF@@QEAA@H@Z
??0QPolygonF@@QEAA@XZ
??0QPrintDialog@@QEAA@PEAVQPrinter@@PEAVQWidget@@@Z
??0QPrintDialog@@QEAA@PEAVQWidget@@@Z
??0QPrintEngine@@QEAA@AEBV0@@Z
??0QPrintEngine@@QEAA@XZ
??0QPrintPreviewDialog@@QEAA@PEAVQPrinter@@PEAVQWidget@@V?$QFlags@W4WindowType@Qt@@@@@Z
??0QPrintPreviewDialog@@QEAA@PEAVQWidget@@V?$QFlags@W4WindowType@Qt@@@@@Z
??0QPrintPreviewWidget@@QEAA@PEAVQPrinter@@PEAVQWidget@@V?$QFlags@W4WindowType@Qt@@@@@Z
??0QPrintPreviewWidget@@QEAA@PEAVQWidget@@V?$QFlags@W4WindowType@Qt@@@@@Z
??0QPrinter@@QEAA@AEBVQPrinterInfo@@W4PrinterMode@0@@Z
??0QPrinter@@QEAA@W4PrinterMode@0@@Z
??0QPrinterInfo@@AEAA@AEBVQString@@@Z
??0QPrinterInfo@@QEAA@AEBV0@@Z
??0QPrinterInfo@@QEAA@AEBVQPrinter@@@Z
??0QPrinterInfo@@QEAA@XZ
??0QProgressBar@@QEAA@PEAVQWidget@@@Z
??0QProgressDialog@@QEAA@AEBVQString@@0HHPEAVQWidget@@V?$QFlags@W4WindowType@Qt@@@@@Z
??0QProgressDialog@@QEAA@PEAVQWidget@@V?$QFlags@W4WindowType@Qt@@@@@Z
??0QProxyModel@@IEAA@AEAVQProxyModelPrivate@@PEAVQObject@@@Z
??0QProxyModel@@QEAA@PEAVQObject@@@Z
??0QProxyStyle@@QEAA@PEAVQStyle@@@Z
??0QPushButton@@IEAA@AEAVQPushButtonPrivate@@PEAVQWidget@@@Z
??0QPushButton@@QEAA@AEBVQIcon@@AEBVQString@@PEAVQWidget@@@Z
??0QPushButton@@QEAA@AEBVQString@@PEAVQWidget@@@Z
??0QPushButton@@QEAA@PEAVQWidget@@@Z
??0QQuaternion@@QEAA@AEBVQVector4D@@@Z
??0QQuaternion@@QEAA@NAEBVQVector3D@@@Z
??0QQuaternion@@QEAA@NNNN@Z
??0QQuaternion@@QEAA@XZ
??0QRadialGradient@@QEAA@AEBV0@@Z
??0QRadialGradient@@QEAA@AEBVQPointF@@N0@Z
??0QRadialGradient@@QEAA@AEBVQPointF@@N0N@Z
??0QRadialGradient@@QEAA@AEBVQPointF@@N@Z
??0QRadialGradient@@QEAA@NNN@Z
??0QRadialGradient@@QEAA@NNNNN@Z
??0QRadialGradient@@QEAA@NNNNNN@Z
??0QRadialGradient@@QEAA@XZ
??0QRadioButton@@QEAA@AEBVQString@@PEAVQWidget@@@Z
??0QRadioButton@@QEAA@PEAVQWidget@@@Z
??0QRasterPixmapData@@QEAA@AEBV0@@Z
??0QRasterPixmapData@@QEAA@W4PixelType@QPixmapData@@@Z
??0QRasterWindowSurface@@QEAA@PEAVQWidget@@_N@Z
??0QRawFont@@QEAA@AEBV0@@Z
??0QRawFont@@QEAA@AEBVQByteArray@@NW4HintingPreference@QFont@@@Z
??0QRawFont@@QEAA@AEBVQString@@NW4HintingPreference@QFont@@@Z
??0QRawFont@@QEAA@XZ
??0QRawFontPrivate@@QEAA@AEBV0@@Z
??0QRawFontPrivate@@QEAA@XZ
??0QRegExpValidator@@QEAA@AEBVQRegExp@@PEAVQObject@@@Z
??0QRegExpValidator@@QEAA@PEAVQObject@@@Z
??0QRegion@@QEAA@AEBV0@@Z
??0QRegion@@QEAA@AEBVQBitmap@@@Z
??0QRegion@@QEAA@AEBVQPolygon@@W4FillRule@Qt@@@Z
??0QRegion@@QEAA@AEBVQRect@@W4RegionType@0@@Z
??0QRegion@@QEAA@HHHHW4RegionType@0@@Z
??0QRegion@@QEAA@XZ
??0QResizeEvent@@QEAA@AEBV0@@Z
??0QResizeEvent@@QEAA@AEBVQSize@@0@Z
??0QRubberBand@@QEAA@W4Shape@0@PEAVQWidget@@@Z
??0QRuntimePixmapData@@QEAA@AEBV0@@Z
??0QRuntimePixmapData@@QEAA@PEBVQRuntimeGraphicsSystem@@W4PixelType@QPixmapData@@@Z
??0QScriptItem@@QEAA@HAEBUQScriptAnalysis@@@Z
??0QScriptItem@@QEAA@XZ
??0QScriptLine@@QEAA@XZ
??0QScrollArea@@IEAA@AEAVQScrollAreaPrivate@@PEAVQWidget@@@Z
??0QScrollArea@@QEAA@PEAVQWidget@@@Z
??0QScrollBar@@QEAA@PEAVQWidget@@@Z
??0QScrollBar@@QEAA@W4Orientation@Qt@@PEAVQWidget@@@Z
??0QSessionManager@@AEAA@PEAVQApplication@@AEAVQString@@1@Z
??0QShortcut@@QEAA@AEBVQKeySequence@@PEAVQWidget@@PEBD2W4ShortcutContext@Qt@@@Z
??0QShortcut@@QEAA@PEAVQWidget@@@Z
??0QShortcutEvent@@QEAA@AEBV0@@Z
??0QShortcutEvent@@QEAA@AEBVQKeySequence@@H_N@Z
??0QShowEvent@@QEAA@AEBV0@@Z
??0QShowEvent@@QEAA@XZ
??0QSidebar@@QEAA@PEAVQWidget@@@Z
??0QSizeGrip@@QEAA@PEAVQWidget@@@Z
??0QSizePolicy@@AEAA@H@Z
??0QSizePolicy@@QEAA@W4Policy@0@0@Z
??0QSizePolicy@@QEAA@W4Policy@0@0W4ControlType@0@@Z
??0QSizePolicy@@QEAA@XZ
??0QSlider@@QEAA@PEAVQWidget@@@Z
??0QSlider@@QEAA@W4Orientation@Qt@@PEAVQWidget@@@Z
??0QSoftKeyManager@@AEAA@XZ
??0QSortFilterProxyModel@@QEAA@PEAVQObject@@@Z
??0QSound@@QEAA@AEBVQString@@PEAVQObject@@@Z
??0QSpacerItem@@QEAA@AEBV0@@Z
??0QSpacerItem@@QEAA@HHW4Policy@QSizePolicy@@0@Z
??0QSpanCollection@@QEAA@AEBV0@@Z
??0QSpanCollection@@QEAA@XZ
??0QSpinBox@@QEAA@PEAVQWidget@@@Z
??0QSplashScreen@@QEAA@AEBVQPixmap@@V?$QFlags@W4WindowType@Qt@@@@@Z
??0QSplashScreen@@QEAA@PEAVQWidget@@AEBVQPixmap@@V?$QFlags@W4WindowType@Qt@@@@@Z
??0QSplitter@@QEAA@PEAVQWidget@@@Z
??0QSplitter@@QEAA@W4Orientation@Qt@@PEAVQWidget@@@Z
??0QSplitterHandle@@QEAA@W4Orientation@Qt@@PEAVQSplitter@@@Z
??0QStackedLayout@@QEAA@PEAVQLayout@@@Z
??0QStackedLayout@@QEAA@PEAVQWidget@@@Z
??0QStackedLayout@@QEAA@XZ
??0QStackedWidget@@QEAA@PEAVQWidget@@@Z
??0QStandardItem@@IEAA@AEAVQStandardItemPrivate@@@Z
??0QStandardItem@@IEAA@AEBV0@@Z
??0QStandardItem@@QEAA@AEBVQIcon@@AEBVQString@@@Z
??0QStandardItem@@QEAA@AEBVQString@@@Z
??0QStandardItem@@QEAA@HH@Z
??0QStandardItem@@QEAA@XZ
??0QStandardItemModel@@IEAA@AEAVQStandardItemModelPrivate@@PEAVQObject@@@Z
??0QStandardItemModel@@QEAA@HHPEAVQObject@@@Z
??0QStandardItemModel@@QEAA@PEAVQObject@@@Z
??0QStatePrivate@@QEAA@AEBV0@@Z
??0QStaticText@@QEAA@AEBV0@@Z
??0QStaticText@@QEAA@AEBVQString@@@Z
??0QStaticText@@QEAA@XZ
??0QStaticTextItem@@QEAA@AEBV0@@Z
??0QStaticTextItem@@QEAA@XZ
??0QStaticTextPrivate@@QEAA@AEBV0@@Z
??0QStaticTextPrivate@@QEAA@XZ
??0QStatusBar@@QEAA@PEAVQWidget@@@Z
??0QStatusTipEvent@@QEAA@AEBV0@@Z
??0QStatusTipEvent@@QEAA@AEBVQString@@@Z
??0QStringListModel@@QEAA@AEBVQStringList@@PEAVQObject@@@Z
??0QStringListModel@@QEAA@PEAVQObject@@@Z
??0QStroker@@QEAA@AEBV0@@Z
??0QStroker@@QEAA@XZ
??0QStrokerOps@@QEAA@AEBV0@@Z
??0QStrokerOps@@QEAA@XZ
??0QStyle@@IEAA@AEAVQStylePrivate@@@Z
??0QStyle@@QEAA@XZ
??0QStyleFactoryInterface@@QEAA@AEBU0@@Z
??0QStyleFactoryInterface@@QEAA@XZ
??0QStyleHintReturn@@QEAA@HH@Z
??0QStyleHintReturnMask@@QEAA@AEBV0@@Z
??0QStyleHintReturnMask@@QEAA@XZ
??0QStyleHintReturnVariant@@QEAA@AEBV0@@Z
??0QStyleHintReturnVariant@@QEAA@XZ
??0QStyleOption@@QEAA@AEBV0@@Z
??0QStyleOption@@QEAA@HH@Z
??0QStyleOptionButton@@IEAA@H@Z
??0QStyleOptionButton@@QEAA@AEBV0@@Z
??0QStyleOptionButton@@QEAA@XZ
??0QStyleOptionComboBox@@IEAA@H@Z
??0QStyleOptionComboBox@@QEAA@AEBV0@@Z
??0QStyleOptionComboBox@@QEAA@XZ
??0QStyleOptionComplex@@QEAA@AEBV0@@Z
??0QStyleOptionComplex@@QEAA@HH@Z
??0QStyleOptionDockWidget@@IEAA@H@Z
??0QStyleOptionDockWidget@@QEAA@AEBV0@@Z
??0QStyleOptionDockWidget@@QEAA@XZ
??0QStyleOptionDockWidgetV2@@IEAA@H@Z
??0QStyleOptionDockWidgetV2@@QEAA@AEBV0@@Z
??0QStyleOptionDockWidgetV2@@QEAA@AEBVQStyleOptionDockWidget@@@Z
??0QStyleOptionDockWidgetV2@@QEAA@XZ
??0QStyleOptionFocusRect@@IEAA@H@Z
??0QStyleOptionFocusRect@@QEAA@AEBV0@@Z
??0QStyleOptionFocusRect@@QEAA@XZ
??0QStyleOptionFrame@@IEAA@H@Z
??0QStyleOptionFrame@@QEAA@AEBV0@@Z
??0QStyleOptionFrame@@QEAA@XZ
??0QStyleOptionFrameV2@@IEAA@H@Z
??0QStyleOptionFrameV2@@QEAA@AEBV0@@Z
??0QStyleOptionFrameV2@@QEAA@AEBVQStyleOptionFrame@@@Z
??0QStyleOptionFrameV2@@QEAA@XZ
??0QStyleOptionFrameV3@@IEAA@H@Z
??0QStyleOptionFrameV3@@QEAA@AEBV0@@Z
??0QStyleOptionFrameV3@@QEAA@AEBVQStyleOptionFrame@@@Z
??0QStyleOptionFrameV3@@QEAA@XZ
??0QStyleOptionGraphicsItem@@IEAA@H@Z
??0QStyleOptionGraphicsItem@@QEAA@AEBV0@@Z
??0QStyleOptionGraphicsItem@@QEAA@XZ
??0QStyleOptionGroupBox@@IEAA@H@Z
??0QStyleOptionGroupBox@@QEAA@AEBV0@@Z
??0QStyleOptionGroupBox@@QEAA@XZ
??0QStyleOptionHeader@@IEAA@H@Z
??0QStyleOptionHeader@@QEAA@AEBV0@@Z
??0QStyleOptionHeader@@QEAA@XZ
??0QStyleOptionMenuItem@@IEAA@H@Z
??0QStyleOptionMenuItem@@QEAA@AEBV0@@Z
??0QStyleOptionMenuItem@@QEAA@XZ
??0QStyleOptionProgressBar@@IEAA@H@Z
??0QStyleOptionProgressBar@@QEAA@AEBV0@@Z
??0QStyleOptionProgressBar@@QEAA@XZ
??0QStyleOptionProgressBarV2@@IEAA@H@Z
??0QStyleOptionProgressBarV2@@QEAA@AEBV0@@Z
??0QStyleOptionProgressBarV2@@QEAA@AEBVQStyleOptionProgressBar@@@Z
??0QStyleOptionProgressBarV2@@QEAA@XZ
??0QStyleOptionQ3DockWindow@@IEAA@H@Z
??0QStyleOptionQ3DockWindow@@QEAA@AEBV0@@Z
??0QStyleOptionQ3DockWindow@@QEAA@XZ
??0QStyleOptionQ3ListView@@IEAA@H@Z
??0QStyleOptionQ3ListView@@QEAA@AEBV0@@Z
??0QStyleOptionQ3ListView@@QEAA@XZ
??0QStyleOptionQ3ListViewItem@@IEAA@H@Z
??0QStyleOptionQ3ListViewItem@@QEAA@AEBV0@@Z
??0QStyleOptionQ3ListViewItem@@QEAA@XZ
??0QStyleOptionRubberBand@@IEAA@H@Z
??0QStyleOptionRubberBand@@QEAA@AEBV0@@Z
??0QStyleOptionRubberBand@@QEAA@XZ
??0QStyleOptionSizeGrip@@IEAA@H@Z
??0QStyleOptionSizeGrip@@QEAA@AEBV0@@Z
??0QStyleOptionSizeGrip@@QEAA@XZ
??0QStyleOptionSlider@@IEAA@H@Z
??0QStyleOptionSlider@@QEAA@AEBV0@@Z
??0QStyleOptionSlider@@QEAA@XZ
??0QStyleOptionSpinBox@@IEAA@H@Z
??0QStyleOptionSpinBox@@QEAA@AEBV0@@Z
??0QStyleOptionSpinBox@@QEAA@XZ
??0QStyleOptionTab@@IEAA@H@Z
??0QStyleOptionTab@@QEAA@AEBV0@@Z
??0QStyleOptionTab@@QEAA@XZ
??0QStyleOptionTabBarBase@@IEAA@H@Z
??0QStyleOptionTabBarBase@@QEAA@AEBV0@@Z
??0QStyleOptionTabBarBase@@QEAA@XZ
??0QStyleOptionTabBarBaseV2@@IEAA@H@Z
??0QStyleOptionTabBarBaseV2@@QEAA@AEBV0@@Z
??0QStyleOptionTabBarBaseV2@@QEAA@AEBVQStyleOptionTabBarBase@@@Z
??0QStyleOptionTabBarBaseV2@@QEAA@XZ
??0QStyleOptionTabV2@@IEAA@H@Z
??0QStyleOptionTabV2@@QEAA@AEBV0@@Z
??0QStyleOptionTabV2@@QEAA@AEBVQStyleOptionTab@@@Z
??0QStyleOptionTabV2@@QEAA@XZ
??0QStyleOptionTabV3@@IEAA@H@Z
??0QStyleOptionTabV3@@QEAA@AEBV0@@Z
??0QStyleOptionTabV3@@QEAA@AEBVQStyleOptionTab@@@Z
??0QStyleOptionTabV3@@QEAA@AEBVQStyleOptionTabV2@@@Z
??0QStyleOptionTabV3@@QEAA@XZ
??0QStyleOptionTabWidgetFrame@@IEAA@H@Z
??0QStyleOptionTabWidgetFrame@@QEAA@AEBV0@@Z
??0QStyleOptionTabWidgetFrame@@QEAA@XZ
??0QStyleOptionTabWidgetFrameV2@@IEAA@H@Z
??0QStyleOptionTabWidgetFrameV2@@QEAA@AEBV0@@Z
??0QStyleOptionTabWidgetFrameV2@@QEAA@AEBVQStyleOptionTabWidgetFrame@@@Z
??0QStyleOptionTabWidgetFrameV2@@QEAA@XZ
??0QStyleOptionTitleBar@@IEAA@H@Z
??0QStyleOptionTitleBar@@QEAA@AEBV0@@Z
??0QStyleOptionTitleBar@@QEAA@XZ
??0QStyleOptionToolBar@@IEAA@H@Z
??0QStyleOptionToolBar@@QEAA@AEBV0@@Z
??0QStyleOptionToolBar@@QEAA@XZ
??0QStyleOptionToolBox@@IEAA@H@Z
??0QStyleOptionToolBox@@QEAA@AEBV0@@Z
??0QStyleOptionToolBox@@QEAA@XZ
??0QStyleOptionToolBoxV2@@IEAA@H@Z
??0QStyleOptionToolBoxV2@@QEAA@AEBV0@@Z
??0QStyleOptionToolBoxV2@@QEAA@AEBVQStyleOptionToolBox@@@Z
??0QStyleOptionToolBoxV2@@QEAA@XZ
??0QStyleOptionToolButton@@IEAA@H@Z
??0QStyleOptionToolButton@@QEAA@AEBV0@@Z
??0QStyleOptionToolButton@@QEAA@XZ
??0QStyleOptionViewItem@@IEAA@H@Z
??0QStyleOptionViewItem@@QEAA@AEBV0@@Z
??0QStyleOptionViewItem@@QEAA@XZ
??0QStyleOptionViewItemV2@@IEAA@H@Z
??0QStyleOptionViewItemV2@@QEAA@AEBV0@@Z
??0QStyleOptionViewItemV2@@QEAA@AEBVQStyleOptionViewItem@@@Z
??0QStyleOptionViewItemV2@@QEAA@XZ
??0QStyleOptionViewItemV3@@IEAA@H@Z
??0QStyleOptionViewItemV3@@QEAA@AEBV0@@Z
??0QStyleOptionViewItemV3@@QEAA@AEBVQStyleOptionViewItem@@@Z
??0QStyleOptionViewItemV3@@QEAA@XZ
??0QStyleOptionViewItemV4@@IEAA@H@Z
??0QStyleOptionViewItemV4@@QEAA@AEBV0@@Z
??0QStyleOptionViewItemV4@@QEAA@AEBVQStyleOptionViewItem@@@Z
??0QStyleOptionViewItemV4@@QEAA@XZ
??0QStylePlugin@@QEAA@PEAVQObject@@@Z
??0QStyleSheetStyle@@QEAA@PEAVQStyle@@@Z
??0QStyledItemDelegate@@QEAA@PEAVQObject@@@Z
??0QSwipeGesture@@QEAA@PEAVQObject@@@Z
??0QSyntaxHighlighter@@QEAA@PEAVQObject@@@Z
??0QSyntaxHighlighter@@QEAA@PEAVQTextDocument@@@Z
??0QSyntaxHighlighter@@QEAA@PEAVQTextEdit@@@Z
??0QSystemTrayIcon@@QEAA@AEBVQIcon@@PEAVQObject@@@Z
??0QSystemTrayIcon@@QEAA@PEAVQObject@@@Z
??0QTabBar@@QEAA@PEAVQWidget@@@Z
??0QTabWidget@@QEAA@PEAVQWidget@@@Z
??0QTableView@@IEAA@AEAVQTableViewPrivate@@PEAVQWidget@@@Z
??0QTableView@@QEAA@PEAVQWidget@@@Z
??0QTableWidget@@QEAA@HHPEAVQWidget@@@Z
??0QTableWidget@@QEAA@PEAVQWidget@@@Z
??0QTableWidgetItem@@QEAA@AEBV0@@Z
??0QTableWidgetItem@@QEAA@AEBVQIcon@@AEBVQString@@H@Z
??0QTableWidgetItem@@QEAA@AEBVQString@@H@Z
??0QTableWidgetItem@@QEAA@H@Z
??0QTableWidgetSelectionRange@@QEAA@AEBV0@@Z
??0QTableWidgetSelectionRange@@QEAA@HHHH@Z
??0QTableWidgetSelectionRange@@QEAA@XZ
??0QTabletEvent@@QEAA@AEBV0@@Z
??0QTabletEvent@@QEAA@W4Type@QEvent@@AEBVQPoint@@1AEBVQPointF@@HHNHHNNHV?$QFlags@W4KeyboardModifier@Qt@@@@_J@Z
??0QTapAndHoldGesture@@QEAA@PEAVQObject@@@Z
??0QTapGesture@@QEAA@PEAVQObject@@@Z
??0QTessellator@@QEAA@AEBV0@@Z
??0QTessellator@@QEAA@XZ
??0QTextBlock@@QEAA@AEBV0@@Z
??0QTextBlock@@QEAA@PEAVQTextDocumentPrivate@@H@Z
??0QTextBlock@@QEAA@XZ
??0QTextBlockFormat@@IEAA@AEBVQTextFormat@@@Z
??0QTextBlockFormat@@QEAA@AEBV0@@Z
??0QTextBlockFormat@@QEAA@XZ
??0QTextBlockGroup@@IEAA@AEAVQTextBlockGroupPrivate@@PEAVQTextDocument@@@Z
??0QTextBlockGroup@@IEAA@PEAVQTextDocument@@@Z
??0QTextBlockUserData@@QEAA@AEBV0@@Z
??0QTextBlockUserData@@QEAA@XZ
??0QTextBrowser@@QEAA@PEAVQWidget@@@Z
??0QTextCharFormat@@IEAA@AEBVQTextFormat@@@Z
??0QTextCharFormat@@QEAA@AEBV0@@Z
??0QTextCharFormat@@QEAA@XZ
??0QTextControl@@QEAA@AEBVQString@@PEAVQObject@@@Z
??0QTextControl@@QEAA@PEAVQObject@@@Z
??0QTextControl@@QEAA@PEAVQTextDocument@@PEAVQObject@@@Z
??0QTextCursor@@QEAA@AEBV0@@Z
??0QTextCursor@@QEAA@AEBVQTextBlock@@@Z
??0QTextCursor@@QEAA@PEAVQTextCursorPrivate@@@Z
??0QTextCursor@@QEAA@PEAVQTextDocument@@@Z
??0QTextCursor@@QEAA@PEAVQTextDocumentPrivate@@H@Z
??0QTextCursor@@QEAA@PEAVQTextFrame@@@Z
??0QTextCursor@@QEAA@XZ
??0QTextDocument@@IEAA@AEAVQTextDocumentPrivate@@PEAVQObject@@@Z
??0QTextDocument@@QEAA@AEBVQString@@PEAVQObject@@@Z
??0QTextDocument@@QEAA@PEAVQObject@@@Z
??0QTextDocumentFragment@@QEAA@AEBV0@@Z
??0QTextDocumentFragment@@QEAA@AEBVQTextCursor@@@Z
??0QTextDocumentFragment@@QEAA@PEBVQTextDocument@@@Z
??0QTextDocumentFragment@@QEAA@XZ
??0QTextDocumentLayout@@QEAA@PEAVQTextDocument@@@Z
??0QTextDocumentPrivate@@QEAA@XZ
??0QTextDocumentWriter@@QEAA@AEBVQString@@AEBVQByteArray@@@Z
??0QTextDocumentWriter@@QEAA@PEAVQIODevice@@AEBVQByteArray@@@Z
??0QTextDocumentWriter@@QEAA@XZ
??0QTextEdit@@IEAA@AEAVQTextEditPrivate@@PEAVQWidget@@@Z
??0QTextEdit@@QEAA@AEBVQString@@PEAVQWidget@@@Z
??0QTextEdit@@QEAA@PEAVQWidget@@@Z
??0QTextEngine@@QEAA@AEBV0@@Z
??0QTextEngine@@QEAA@AEBVQString@@AEBVQFont@@@Z
??0QTextEngine@@QEAA@XZ
??0QTextFormat@@QEAA@AEBV0@@Z
??0QTextFormat@@QEAA@H@Z
??0QTextFormat@@QEAA@XZ
??0QTextFormatCollection@@QEAA@AEBV0@@Z
??0QTextFormatCollection@@QEAA@XZ
??0QTextFragment@@QEAA@AEBV0@@Z
??0QTextFragment@@QEAA@PEBVQTextDocumentPrivate@@HH@Z
??0QTextFragment@@QEAA@XZ
??0QTextFrame@@IEAA@AEAVQTextFramePrivate@@PEAVQTextDocument@@@Z
??0QTextFrame@@QEAA@PEAVQTextDocument@@@Z
??0QTextFrameFormat@@IEAA@AEBVQTextFormat@@@Z
??0QTextFrameFormat@@QEAA@AEBV0@@Z
??0QTextFrameFormat@@QEAA@XZ
??0QTextFrameLayoutData@@QEAA@AEBV0@@Z
??0QTextFrameLayoutData@@QEAA@XZ
??0QTextImageFormat@@IEAA@AEBVQTextFormat@@@Z
??0QTextImageFormat@@QEAA@AEBV0@@Z
??0QTextImageFormat@@QEAA@XZ
??0QTextInlineObject@@QEAA@HPEAVQTextEngine@@@Z
??0QTextInlineObject@@QEAA@XZ
??0QTextLayout@@AEAA@PEAVQTextEngine@@@Z
??0QTextLayout@@QEAA@AEBVQString@@@Z
??0QTextLayout@@QEAA@AEBVQString@@AEBVQFont@@PEAVQPaintDevice@@@Z
??0QTextLayout@@QEAA@AEBVQTextBlock@@@Z
??0QTextLayout@@QEAA@XZ
??0QTextLength@@QEAA@W4Type@0@N@Z
??0QTextLength@@QEAA@XZ
??0QTextLine@@AEAA@HPEAVQTextEngine@@@Z
??0QTextLine@@QEAA@XZ
??0QTextList@@QEAA@PEAVQTextDocument@@@Z
??0QTextListFormat@@IEAA@AEBVQTextFormat@@@Z
??0QTextListFormat@@QEAA@AEBV0@@Z
??0QTextListFormat@@QEAA@XZ
??0QTextObject@@IEAA@AEAVQTextObjectPrivate@@PEAVQTextDocument@@@Z
??0QTextObject@@IEAA@PEAVQTextDocument@@@Z
??0QTextObjectInterface@@QEAA@AEBV0@@Z
??0QTextObjectInterface@@QEAA@XZ
??0QTextOdfWriter@@QEAA@AEBV0@@Z
??0QTextOdfWriter@@QEAA@AEBVQTextDocument@@PEAVQIODevice@@@Z
??0QTextOption@@QEAA@AEBV0@@Z
??0QTextOption@@QEAA@V?$QFlags@W4AlignmentFlag@Qt@@@@@Z
??0QTextOption@@QEAA@XZ
??0QTextTable@@QEAA@PEAVQTextDocument@@@Z
??0QTextTableCell@@AEAA@PEBVQTextTable@@H@Z
??0QTextTableCell@@QEAA@AEBV0@@Z
??0QTextTableCell@@QEAA@XZ
??0QTextTableCellFormat@@IEAA@AEBVQTextFormat@@@Z
??0QTextTableCellFormat@@QEAA@AEBV0@@Z
??0QTextTableCellFormat@@QEAA@XZ
??0QTextTableFormat@@IEAA@AEBVQTextFormat@@@Z
??0QTextTableFormat@@QEAA@AEBV0@@Z
??0QTextTableFormat@@QEAA@XZ
??0QTextureGlyphCache@@QEAA@AEBV0@@Z
??0QTextureGlyphCache@@QEAA@W4Type@QFontEngineGlyphCache@@AEBVQTransform@@@Z
??0QTimeEdit@@QEAA@AEBVQTime@@PEAVQWidget@@@Z
??0QTimeEdit@@QEAA@PEAVQWidget@@@Z
??0QToolBar@@QEAA@AEBVQString@@PEAVQWidget@@@Z
??0QToolBar@@QEAA@PEAVQWidget@@@Z
??0QToolBarChangeEvent@@QEAA@AEBV0@@Z
??0QToolBarChangeEvent@@QEAA@_N@Z
??0QToolBarExtension@@QEAA@PEAVQWidget@@@Z
??0QToolBox@@QEAA@PEAVQWidget@@V?$QFlags@W4WindowType@Qt@@@@@Z
??0QToolButton@@IEAA@AEAVQToolButtonPrivate@@PEAVQWidget@@@Z
??0QToolButton@@QEAA@PEAVQWidget@@@Z
??0QTouchEvent@@QEAA@AEBV0@@Z
??0QTouchEvent@@QEAA@W4Type@QEvent@@W4DeviceType@0@V?$QFlags@W4KeyboardModifier@Qt@@@@V?$QFlags@W4TouchPointState@Qt@@@@AEBV?$QList@VTouchPoint@QTouchEvent@@@@@Z
??0QTransform@@AEAA@NNNNNNNNN_N@Z
??0QTransform@@AEAA@_N@Z
??0QTransform@@QEAA@AEBV0@@Z
??0QTransform@@QEAA@AEBVQMatrix@@@Z
??0QTransform@@QEAA@NNNNNN@Z
??0QTransform@@QEAA@NNNNNNNNN@Z
??0QTransform@@QEAA@W4Initialization@Qt@@@Z
??0QTransform@@QEAA@XZ
??0QTreeView@@IEAA@AEAVQTreeViewPrivate@@PEAVQWidget@@@Z
??0QTreeView@@QEAA@PEAVQWidget@@@Z
??0QTreeViewPrivate@@QEAA@XZ
??0QTreeWidget@@QEAA@PEAVQWidget@@@Z
??0QTreeWidgetItem@@QEAA@AEBV0@@Z
??0QTreeWidgetItem@@QEAA@AEBVQStringList@@H@Z
??0QTreeWidgetItem@@QEAA@H@Z
??0QTreeWidgetItem@@QEAA@PEAV0@0H@Z
??0QTreeWidgetItem@@QEAA@PEAV0@AEBVQStringList@@H@Z
??0QTreeWidgetItem@@QEAA@PEAV0@H@Z
??0QTreeWidgetItem@@QEAA@PEAVQTreeWidget@@AEBVQStringList@@H@Z
??0QTreeWidgetItem@@QEAA@PEAVQTreeWidget@@H@Z
??0QTreeWidgetItem@@QEAA@PEAVQTreeWidget@@PEAV0@H@Z
??0QTreeWidgetItemIterator@@QEAA@AEBV0@@Z
??0QTreeWidgetItemIterator@@QEAA@PEAVQTreeWidget@@V?$QFlags@W4IteratorFlag@QTreeWidgetItemIterator@@@@@Z
??0QTreeWidgetItemIterator@@QEAA@PEAVQTreeWidgetItem@@V?$QFlags@W4IteratorFlag@QTreeWidgetItemIterator@@@@@Z
??0QUndoCommand@@QEAA@AEBVQString@@PEAV0@@Z
??0QUndoCommand@@QEAA@PEAV0@@Z
??0QUndoGroup@@QEAA@PEAVQObject@@@Z
??0QUndoStack@@QEAA@PEAVQObject@@@Z
??0QUndoView@@QEAA@PEAVQUndoGroup@@PEAVQWidget@@@Z
??0QUndoView@@QEAA@PEAVQUndoStack@@PEAVQWidget@@@Z
??0QUndoView@@QEAA@PEAVQWidget@@@Z
??0QUrlModel@@QEAA@PEAVQObject@@@Z
??0QVBoxLayout@@QEAA@PEAVQWidget@@@Z
??0QVBoxLayout@@QEAA@XZ
??0QValidator@@IEAA@AEAVQObjectPrivate@@PEAVQObject@@@Z
??0QValidator@@IEAA@AEAVQValidatorPrivate@@PEAVQObject@@@Z
??0QValidator@@QEAA@PEAVQObject@@@Z
??0QVector2D@@AEAA@MMH@Z
??0QVector2D@@QEAA@AEBVQPoint@@@Z
??0QVector2D@@QEAA@AEBVQPointF@@@Z
??0QVector2D@@QEAA@AEBVQVector3D@@@Z
??0QVector2D@@QEAA@AEBVQVector4D@@@Z
??0QVector2D@@QEAA@NN@Z
??0QVector2D@@QEAA@XZ
??0QVector3D@@AEAA@MMMH@Z
??0QVector3D@@QEAA@AEBVQPoint@@@Z
??0QVector3D@@QEAA@AEBVQPointF@@@Z
??0QVector3D@@QEAA@AEBVQVector2D@@@Z
??0QVector3D@@QEAA@AEBVQVector2D@@N@Z
??0QVector3D@@QEAA@AEBVQVector4D@@@Z
??0QVector3D@@QEAA@NNN@Z
??0QVector3D@@QEAA@XZ
??0QVector4D@@AEAA@MMMMH@Z
??0QVector4D@@QEAA@AEBVQPoint@@@Z
??0QVector4D@@QEAA@AEBVQPointF@@@Z
??0QVector4D@@QEAA@AEBVQVector2D@@@Z
??0QVector4D@@QEAA@AEBVQVector2D@@NN@Z
??0QVector4D@@QEAA@AEBVQVector3D@@@Z
??0QVector4D@@QEAA@AEBVQVector3D@@N@Z
??0QVector4D@@QEAA@NNNN@Z
??0QVector4D@@QEAA@XZ
??0QVectorPath@@QEAA@PEBNHPEBW4ElementType@QPainterPath@@I@Z
??0QVolatileImage@@QEAA@AEBV0@@Z
??0QVolatileImage@@QEAA@AEBVQImage@@@Z
??0QVolatileImage@@QEAA@HHW4Format@QImage@@@Z
??0QVolatileImage@@QEAA@PEAX0@Z
??0QVolatileImage@@QEAA@XZ
??0QWhatsThis@@AEAA@XZ
??0QWhatsThisClickedEvent@@QEAA@AEBV0@@Z
??0QWhatsThisClickedEvent@@QEAA@AEBVQString@@@Z
??0QWheelEvent@@QEAA@AEBV0@@Z
??0QWheelEvent@@QEAA@AEBVQPoint@@0HV?$QFlags@W4MouseButton@Qt@@@@V?$QFlags@W4KeyboardModifier@Qt@@@@W4Orientation@Qt@@@Z
??0QWheelEvent@@QEAA@AEBVQPoint@@HV?$QFlags@W4MouseButton@Qt@@@@V?$QFlags@W4KeyboardModifier@Qt@@@@W4Orientation@Qt@@@Z
??0QWidget@@IEAA@AEAVQWidgetPrivate@@PEAV0@V?$QFlags@W4WindowType@Qt@@@@@Z
??0QWidget@@QEAA@PEAV0@V?$QFlags@W4WindowType@Qt@@@@@Z
??0QWidgetAction@@QEAA@PEAVQObject@@@Z
??0QWidgetBackingStore@@QEAA@AEBV0@@Z
??0QWidgetBackingStore@@QEAA@PEAVQWidget@@@Z
??0QWidgetBackingStoreTracker@@QEAA@XZ
??0QWidgetItem@@QEAA@PEAVQWidget@@@Z
??0QWidgetItemV2@@QEAA@PEAVQWidget@@@Z
??0QWidgetPrivate@@QEAA@AEBV0@@Z
??0QWidgetPrivate@@QEAA@H@Z
??0QWidgetResizeHandler@@QEAA@PEAVQWidget@@0@Z
??0QWindowStateChangeEvent@@QEAA@AEBV0@@Z
??0QWindowStateChangeEvent@@QEAA@V?$QFlags@W4WindowState@Qt@@@@@Z
??0QWindowStateChangeEvent@@QEAA@V?$QFlags@W4WindowState@Qt@@@@_N@Z
??0QWindowSurface@@QEAA@AEBV0@@Z
??0QWindowSurface@@QEAA@PEAVQWidget@@_N@Z
??0QWindowsMime@@QEAA@AEBV0@@Z
??0QWindowsMime@@QEAA@XZ
??0QWindowsStyle@@IEAA@AEAVQWindowsStylePrivate@@@Z
??0QWindowsStyle@@QEAA@XZ
??0QWindowsVistaStyle@@QEAA@XZ
??0QWindowsXPStyle@@QEAA@AEAVQWindowsXPStylePrivate@@@Z
??0QWindowsXPStyle@@QEAA@XZ
??0QWingedEdge@@QEAA@AEBV0@@Z
??0QWingedEdge@@QEAA@AEBVQPainterPath@@0@Z
??0QWingedEdge@@QEAA@XZ
??0QWizard@@QEAA@PEAVQWidget@@V?$QFlags@W4WindowType@Qt@@@@@Z
??0QWizardPage@@QEAA@PEAVQWidget@@@Z
??0QWorkspace@@QEAA@PEAVQWidget@@@Z
??0QZipReader@@QEAA@AEBVQString@@V?$QFlags@W4OpenModeFlag@QIODevice@@@@@Z
??0QZipReader@@QEAA@PEAVQIODevice@@@Z
??0QZipWriter@@QEAA@AEBVQString@@V?$QFlags@W4OpenModeFlag@QIODevice@@@@@Z
??0QZipWriter@@QEAA@PEAVQIODevice@@@Z
??0Selector@QCss@@QEAA@AEBU01@@Z
??0Selector@QCss@@QEAA@XZ
??0StyleSelector@QCss@@QEAA@AEBV01@@Z
??0StyleSelector@QCss@@QEAA@XZ
??0Symbol@QCss@@QEAA@AEBU01@@Z
??0Symbol@QCss@@QEAA@XZ
??0Tab@QTextOption@@QEAA@NW4TabType@1@VQChar@@@Z
??0Tab@QTextOption@@QEAA@XZ
??0TouchPoint@QTouchEvent@@QEAA@AEBV01@@Z
??0TouchPoint@QTouchEvent@@QEAA@H@Z
??0Value@QCss@@QEAA@AEBU01@@Z
??0Value@QCss@@QEAA@XZ
??0ValueExtractor@QCss@@QEAA@AEBU01@@Z
??0ValueExtractor@QCss@@QEAA@AEBV?$QVector@UDeclaration@QCss@@@@AEBVQPalette@@@Z
??0iterator@QTextBlock@@AEAA@PEBVQTextDocumentPrivate@@HHH@Z
??0iterator@QTextBlock@@QEAA@AEBV01@@Z
??0iterator@QTextBlock@@QEAA@XZ
??0iterator@QTextFrame@@AEAA@PEAV1@HHH@Z
??0iterator@QTextFrame@@QEAA@AEBV01@@Z
??0iterator@QTextFrame@@QEAA@XZ
??1?$QList@VQItemSelectionRange@@@@QEAA@XZ
??1Declaration@QCss@@QEAA@XZ
??1FileInfo@QZipReader@@QEAA@XZ
??1Key@QPixmapCache@@QEAA@XZ
??1Parser@QCss@@QEAA@XZ
??1QAbstractButton@@UEAA@XZ
??1QAbstractGraphicsShapeItem@@UEAA@XZ
??1QAbstractItemDelegate@@UEAA@XZ
??1QAbstractItemView@@UEAA@XZ
??1QAbstractItemViewPrivate@@UEAA@XZ
??1QAbstractPageSetupDialog@@UEAA@XZ
??1QAbstractPrintDialog@@UEAA@XZ
??1QAbstractProxyModel@@UEAA@XZ
??1QAbstractScrollArea@@UEAA@XZ
??1QAbstractScrollAreaPrivate@@UEAA@XZ
??1QAbstractSlider@@UEAA@XZ
??1QAbstractSpinBox@@UEAA@XZ
??1QAbstractTextDocumentLayout@@UEAA@XZ
??1QAbstractUndoItem@@UEAA@XZ
??1QAccessible2Interface@@UEAA@XZ
??1QAccessibleActionInterface@@UEAA@XZ
??1QAccessibleApplication@@UEAA@XZ
??1QAccessibleEditableTextInterface@@UEAA@XZ
??1QAccessibleEvent@@UEAA@XZ
??1QAccessibleFactoryInterface@@UEAA@XZ
??1QAccessibleImageInterface@@UEAA@XZ
??1QAccessibleInterface@@UEAA@XZ
??1QAccessibleInterfaceEx@@UEAA@XZ
??1QAccessibleObject@@MEAA@XZ
??1QAccessibleObjectEx@@MEAA@XZ
??1QAccessiblePlugin@@UEAA@XZ
??1QAccessibleSimpleEditableTextInterface@@UEAA@XZ
??1QAccessibleTable2CellInterface@@UEAA@XZ
??1QAccessibleTable2Interface@@UEAA@XZ
??1QAccessibleTableInterface@@UEAA@XZ
??1QAccessibleTextInterface@@UEAA@XZ
??1QAccessibleValueInterface@@UEAA@XZ
??1QAccessibleWidget@@MEAA@XZ
??1QAccessibleWidgetEx@@MEAA@XZ
??1QAction@@UEAA@XZ
??1QActionEvent@@UEAA@XZ
??1QActionGroup@@UEAA@XZ
??1QActionPrivate@@UEAA@XZ
??1QApplication@@UEAA@XZ
??1QApplicationPrivate@@UEAA@XZ
??1QBalloonTip@@MEAA@XZ
??1QBasicKeyEventTransition@@UEAA@XZ
??1QBasicMouseEventTransition@@UEAA@XZ
??1QBitmap@@UEAA@XZ
??1QBlittable@@UEAA@XZ
??1QBlittablePixmapData@@UEAA@XZ
??1QBlitterPaintEngine@@UEAA@XZ
??1QBoxLayout@@UEAA@XZ
??1QBrush@@QEAA@XZ
??1QButtonGroup@@UEAA@XZ
??1QCDEStyle@@UEAA@XZ
??1QCalendarWidget@@UEAA@XZ
??1QCheckBox@@UEAA@XZ
??1QCleanlooksStyle@@UEAA@XZ
??1QClipboard@@EEAA@XZ
??1QClipboardEvent@@UEAA@XZ
??1QCloseEvent@@UEAA@XZ
??1QColorDialog@@AEAA@XZ
??1QColorDialog@@UEAA@XZ
??1QColormap@@QEAA@XZ
??1QColumnView@@UEAA@XZ
??1QColumnViewGrip@@UEAA@XZ
??1QColumnViewPrivate@@UEAA@XZ
??1QComboBox@@UEAA@XZ
??1QComboBoxPrivate@@UEAA@XZ
??1QComboBoxPrivateContainer@@UEAA@XZ
??1QComboBoxPrivateScroller@@UEAA@XZ
??1QCommandLinkButton@@UEAA@XZ
??1QCommonStyle@@UEAA@XZ
??1QCompleter@@UEAA@XZ
??1QConicalGradient@@QEAA@XZ
??1QContextMenuEvent@@UEAA@XZ
??1QCursor@@QEAA@XZ
??1QDashStroker@@UEAA@XZ
??1QDataWidgetMapper@@UEAA@XZ
??1QDateEdit@@UEAA@XZ
??1QDateTimeEdit@@UEAA@XZ
??1QDesktopWidget@@UEAA@XZ
??1QDial@@UEAA@XZ
??1QDialog@@UEAA@XZ
??1QDialogButtonBox@@UEAA@XZ
??1QDirModel@@UEAA@XZ
??1QDockAreaLayout@@QEAA@XZ
??1QDockAreaLayoutInfo@@QEAA@XZ
??1QDockWidget@@UEAA@XZ
??1QDockWidgetLayout@@UEAA@XZ
??1QDoubleSpinBox@@UEAA@XZ
??1QDoubleValidator@@UEAA@XZ
??1QDrag@@UEAA@XZ
??1QDragEnterEvent@@UEAA@XZ
??1QDragLeaveEvent@@UEAA@XZ
??1QDragMoveEvent@@UEAA@XZ
??1QDragResponseEvent@@UEAA@XZ
??1QDropEvent@@UEAA@XZ
??1QErrorMessage@@UEAA@XZ
??1QFileDialog@@UEAA@XZ
??1QFileDialogPrivate@@UEAA@XZ
??1QFileIconProvider@@UEAA@XZ
??1QFileInfoGatherer@@UEAA@XZ
??1QFileOpenEvent@@UEAA@XZ
??1QFileSystemModel@@UEAA@XZ
??1QFileSystemModelPrivate@@UEAA@XZ
??1QFocusEvent@@UEAA@XZ
??1QFocusFrame@@UEAA@XZ
??1QFont@@QEAA@XZ
??1QFontComboBox@@UEAA@XZ
??1QFontDialog@@AEAA@XZ
??1QFontDialog@@UEAA@XZ
??1QFontEngine@@UEAA@XZ
??1QFontInfo@@QEAA@XZ
??1QFontMetrics@@QEAA@XZ
??1QFontMetricsF@@QEAA@XZ
??1QFontPrivate@@QEAA@XZ
??1QFormLayout@@UEAA@XZ
??1QFrame@@UEAA@XZ
??1QGesture@@UEAA@XZ
??1QGestureEvent@@UEAA@XZ
??1QGestureRecognizer@@UEAA@XZ
??1QGlyphRun@@QEAA@XZ
??1QGradient@@QEAA@XZ
??1QGraphicsAnchor@@UEAA@XZ
??1QGraphicsAnchorLayout@@UEAA@XZ
??1QGraphicsAnchorLayoutPrivate@@UEAA@XZ
??1QGraphicsBlurEffect@@UEAA@XZ
??1QGraphicsColorizeEffect@@UEAA@XZ
??1QGraphicsDropShadowEffect@@UEAA@XZ
??1QGraphicsEffect@@UEAA@XZ
??1QGraphicsEffectPrivate@@UEAA@XZ
??1QGraphicsEffectSource@@UEAA@XZ
??1QGraphicsEllipseItem@@UEAA@XZ
??1QGraphicsGridLayout@@UEAA@XZ
??1QGraphicsItem@@UEAA@XZ
??1QGraphicsItemAnimation@@UEAA@XZ
??1QGraphicsItemGroup@@UEAA@XZ
??1QGraphicsItemPrivate@@UEAA@XZ
??1QGraphicsLayout@@UEAA@XZ
??1QGraphicsLayoutItem@@UEAA@XZ
??1QGraphicsLayoutItemPrivate@@UEAA@XZ
??1QGraphicsLayoutPrivate@@UEAA@XZ
??1QGraphicsLineItem@@UEAA@XZ
??1QGraphicsLinearLayout@@UEAA@XZ
??1QGraphicsObject@@UEAA@XZ
??1QGraphicsOpacityEffect@@UEAA@XZ
??1QGraphicsPathItem@@UEAA@XZ
??1QGraphicsPixmapItem@@UEAA@XZ
??1QGraphicsPolygonItem@@UEAA@XZ
??1QGraphicsProxyWidget@@UEAA@XZ
??1QGraphicsRectItem@@UEAA@XZ
??1QGraphicsRotation@@UEAA@XZ
??1QGraphicsScale@@UEAA@XZ
??1QGraphicsScene@@UEAA@XZ
??1QGraphicsSceneBspTreeIndex@@UEAA@XZ
??1QGraphicsSceneContextMenuEvent@@UEAA@XZ
??1QGraphicsSceneDragDropEvent@@UEAA@XZ
??1QGraphicsSceneEvent@@UEAA@XZ
??1QGraphicsSceneHelpEvent@@UEAA@XZ
??1QGraphicsSceneHoverEvent@@UEAA@XZ
??1QGraphicsSceneIndex@@UEAA@XZ
??1QGraphicsSceneLinearIndex@@UEAA@XZ
??1QGraphicsSceneMouseEvent@@UEAA@XZ
??1QGraphicsSceneMoveEvent@@UEAA@XZ
??1QGraphicsScenePrivate@@UEAA@XZ
??1QGraphicsSceneResizeEvent@@UEAA@XZ
??1QGraphicsSceneWheelEvent@@UEAA@XZ
??1QGraphicsSimpleTextItem@@UEAA@XZ
??1QGraphicsSystem@@UEAA@XZ
??1QGraphicsSystemPlugin@@UEAA@XZ
??1QGraphicsTextItem@@UEAA@XZ
??1QGraphicsTransform@@UEAA@XZ
??1QGraphicsView@@UEAA@XZ
??1QGraphicsViewPrivate@@UEAA@XZ
??1QGraphicsWidget@@UEAA@XZ
??1QGridLayout@@UEAA@XZ
??1QGroupBox@@UEAA@XZ
??1QGuiPlatformPlugin@@UEAA@XZ
??1QGuiPlatformPluginInterface@@UEAA@XZ
??1QHBoxLayout@@UEAA@XZ
??1QHeaderView@@UEAA@XZ
??1QHelpEvent@@UEAA@XZ
??1QHideEvent@@UEAA@XZ
??1QHoverEvent@@UEAA@XZ
??1QIcon@@QEAA@XZ
??1QIconDragEvent@@UEAA@XZ
??1QIconEngine@@UEAA@XZ
??1QIconEngineFactoryInterface@@UEAA@XZ
??1QIconEngineFactoryInterfaceV2@@UEAA@XZ
??1QIconEnginePlugin@@UEAA@XZ
??1QIconEnginePluginV2@@UEAA@XZ
??1QIconEngineV2@@UEAA@XZ
??1QIdentityProxyModel@@UEAA@XZ
??1QImage@@UEAA@XZ
??1QImageData@@QEAA@XZ
??1QImageIOHandler@@UEAA@XZ
??1QImageIOHandlerFactoryInterface@@UEAA@XZ
??1QImageIOPlugin@@UEAA@XZ
??1QImagePixmapCleanupHooks@@QEAA@XZ
??1QImageReader@@QEAA@XZ
??1QImageTextKeyLang@@QEAA@XZ
??1QImageTextureGlyphCache@@UEAA@XZ
??1QImageWriter@@QEAA@XZ
??1QInputContext@@UEAA@XZ
??1QInputContextFactoryInterface@@UEAA@XZ
??1QInputContextPlugin@@UEAA@XZ
??1QInputDialog@@AEAA@XZ
??1QInputDialog@@UEAA@XZ
??1QInputEvent@@UEAA@XZ
??1QInputMethodEvent@@UEAA@XZ
??1QIntValidator@@UEAA@XZ
??1QInternalMimeData@@UEAA@XZ
??1QItemDelegate@@UEAA@XZ
??1QItemEditorCreatorBase@@UEAA@XZ
??1QItemEditorFactory@@UEAA@XZ
??1QItemSelection@@QEAA@XZ
??1QItemSelectionModel@@UEAA@XZ
??1QItemSelectionRange@@QEAA@XZ
??1QKeyEvent@@UEAA@XZ
??1QKeyEventTransition@@UEAA@XZ
??1QKeySequence@@QEAA@XZ
??1QLCDNumber@@UEAA@XZ
??1QLabel@@UEAA@XZ
??1QLayout@@UEAA@XZ
??1QLayoutItem@@UEAA@XZ
??1QLayoutPrivate@@UEAA@XZ
??1QLineControl@@UEAA@XZ
??1QLineEdit@@UEAA@XZ
??1QLinearGradient@@QEAA@XZ
??1QListModel@@UEAA@XZ
??1QListView@@UEAA@XZ
??1QListWidget@@UEAA@XZ
??1QListWidgetItem@@UEAA@XZ
??1QMainWindow@@UEAA@XZ
??1QMainWindowLayout@@UEAA@XZ
??1QMdiArea@@UEAA@XZ
??1QMdiSubWindow@@UEAA@XZ
??1QMenu@@UEAA@XZ
??1QMenuBar@@UEAA@XZ
??1QMessageBox@@UEAA@XZ
??1QMimeSource@@UEAA@XZ
??1QMotifStyle@@UEAA@XZ
??1QMouseEvent@@UEAA@XZ
??1QMouseEventTransition@@UEAA@XZ
??1QMoveEvent@@UEAA@XZ
??1QMovie@@UEAA@XZ
??1QPageSetupDialog@@UEAA@XZ
??1QPaintBuffer@@UEAA@XZ
??1QPaintBufferResource@@UEAA@XZ
??1QPaintBufferSignalProxy@@UEAA@XZ
??1QPaintDevice@@UEAA@XZ
??1QPaintEngine@@UEAA@XZ
??1QPaintEngineEx@@UEAA@XZ
??1QPaintEngineExPrivate@@UEAA@XZ
??1QPaintEngineExReplayer@@UEAA@XZ
??1QPaintEvent@@UEAA@XZ
??1QPainter@@QEAA@XZ
??1QPainterPath@@QEAA@XZ
??1QPainterPathStroker@@QEAA@XZ
??1QPainterReplayer@@UEAA@XZ
??1QPainterState@@UEAA@XZ
??1QPalette@@QEAA@XZ
??1QPanGesture@@UEAA@XZ
??1QPathClipper@@QEAA@XZ
??1QPen@@QEAA@XZ
??1QPicture@@UEAA@XZ
??1QPictureFormatInterface@@UEAA@XZ
??1QPictureFormatPlugin@@UEAA@XZ
??1QPictureIO@@QEAA@XZ
??1QPinchGesture@@UEAA@XZ
??1QPixmap@@UEAA@XZ
??1QPixmapBlurFilter@@UEAA@XZ
??1QPixmapColorizeFilter@@UEAA@XZ
??1QPixmapConvolutionFilter@@UEAA@XZ
??1QPixmapData@@UEAA@XZ
??1QPixmapDropShadowFilter@@UEAA@XZ
??1QPixmapFilter@@UEAA@XZ
??1QPlaceHolderItem@@QEAA@XZ
??1QPlainTextDocumentLayout@@UEAA@XZ
??1QPlainTextEdit@@UEAA@XZ
??1QPlastiqueStyle@@UEAA@XZ
??1QPolygon@@QEAA@XZ
??1QPolygonF@@QEAA@XZ
??1QPrintDialog@@UEAA@XZ
??1QPrintEngine@@UEAA@XZ
??1QPrintPreviewDialog@@UEAA@XZ
??1QPrintPreviewWidget@@UEAA@XZ
??1QPrinter@@UEAA@XZ
??1QPrinterInfo@@QEAA@XZ
??1QProgressBar@@UEAA@XZ
??1QProgressDialog@@UEAA@XZ
??1QProxyModel@@UEAA@XZ
??1QProxyStyle@@UEAA@XZ
??1QPushButton@@UEAA@XZ
??1QRadialGradient@@QEAA@XZ
??1QRadioButton@@UEAA@XZ
??1QRasterPixmapData@@UEAA@XZ
??1QRasterWindowSurface@@UEAA@XZ
??1QRawFont@@QEAA@XZ
??1QRawFontPrivate@@QEAA@XZ
??1QRegExpValidator@@UEAA@XZ
??1QRegion@@QEAA@XZ
??1QResizeEvent@@UEAA@XZ
??1QRubberBand@@UEAA@XZ
??1QRuntimePixmapData@@UEAA@XZ
??1QScrollArea@@UEAA@XZ
??1QScrollBar@@UEAA@XZ
??1QSessionManager@@EEAA@XZ
??1QShortcut@@UEAA@XZ
??1QShortcutEvent@@UEAA@XZ
??1QShowEvent@@UEAA@XZ
??1QSidebar@@UEAA@XZ
??1QSizeGrip@@UEAA@XZ
??1QSlider@@UEAA@XZ
??1QSoftKeyManager@@UEAA@XZ
??1QSortFilterProxyModel@@UEAA@XZ
??1QSound@@UEAA@XZ
??1QSpacerItem@@UEAA@XZ
??1QSpanCollection@@QEAA@XZ
??1QSpinBox@@UEAA@XZ
??1QSplashScreen@@UEAA@XZ
??1QSplitter@@UEAA@XZ
??1QSplitterHandle@@UEAA@XZ
??1QStackedLayout@@UEAA@XZ
??1QStackedWidget@@UEAA@XZ
??1QStandardItem@@UEAA@XZ
??1QStandardItemModel@@UEAA@XZ
??1QStaticText@@QEAA@XZ
??1QStaticTextItem@@QEAA@XZ
??1QStaticTextPrivate@@QEAA@XZ
??1QStatusBar@@UEAA@XZ
??1QStatusTipEvent@@UEAA@XZ
??1QStringListModel@@UEAA@XZ
??1QStroker@@UEAA@XZ
??1QStrokerOps@@UEAA@XZ
??1QStyle@@UEAA@XZ
??1QStyleFactoryInterface@@UEAA@XZ
??1QStyleHintReturn@@QEAA@XZ
??1QStyleHintReturnMask@@QEAA@XZ
??1QStyleHintReturnVariant@@QEAA@XZ
??1QStyleOption@@QEAA@XZ
??1QStyleOptionButton@@QEAA@XZ
??1QStyleOptionComboBox@@QEAA@XZ
??1QStyleOptionComplex@@QEAA@XZ
??1QStyleOptionDockWidget@@QEAA@XZ
??1QStyleOptionDockWidgetV2@@QEAA@XZ
??1QStyleOptionFocusRect@@QEAA@XZ
??1QStyleOptionFrame@@QEAA@XZ
??1QStyleOptionFrameV2@@QEAA@XZ
??1QStyleOptionFrameV3@@QEAA@XZ
??1QStyleOptionGraphicsItem@@QEAA@XZ
??1QStyleOptionGroupBox@@QEAA@XZ
??1QStyleOptionHeader@@QEAA@XZ
??1QStyleOptionMenuItem@@QEAA@XZ
??1QStyleOptionProgressBar@@QEAA@XZ
??1QStyleOptionProgressBarV2@@QEAA@XZ
??1QStyleOptionQ3DockWindow@@QEAA@XZ
??1QStyleOptionQ3ListView@@QEAA@XZ
??1QStyleOptionQ3ListViewItem@@QEAA@XZ
??1QStyleOptionRubberBand@@QEAA@XZ
??1QStyleOptionSizeGrip@@QEAA@XZ
??1QStyleOptionSlider@@QEAA@XZ
??1QStyleOptionSpinBox@@QEAA@XZ
??1QStyleOptionTab@@QEAA@XZ
??1QStyleOptionTabBarBase@@QEAA@XZ
??1QStyleOptionTabBarBaseV2@@QEAA@XZ
??1QStyleOptionTabV2@@QEAA@XZ
??1QStyleOptionTabV3@@QEAA@XZ
??1QStyleOptionTabWidgetFrame@@QEAA@XZ
??1QStyleOptionTabWidgetFrameV2@@QEAA@XZ
??1QStyleOptionTitleBar@@QEAA@XZ
??1QStyleOptionToolBar@@QEAA@XZ
??1QStyleOptionToolBox@@QEAA@XZ
??1QStyleOptionToolBoxV2@@QEAA@XZ
??1QStyleOptionToolButton@@QEAA@XZ
??1QStyleOptionViewItem@@QEAA@XZ
??1QStyleOptionViewItemV2@@QEAA@XZ
??1QStyleOptionViewItemV3@@QEAA@XZ
??1QStyleOptionViewItemV4@@QEAA@XZ
??1QStylePlugin@@UEAA@XZ
??1QStyleSheetStyle@@UEAA@XZ
??1QStyledItemDelegate@@UEAA@XZ
??1QSwipeGesture@@UEAA@XZ
??1QSyntaxHighlighter@@UEAA@XZ
??1QSystemTrayIcon@@UEAA@XZ
??1QTabBar@@UEAA@XZ
??1QTabWidget@@UEAA@XZ
??1QTableView@@UEAA@XZ
??1QTableWidget@@UEAA@XZ
??1QTableWidgetItem@@UEAA@XZ
??1QTableWidgetSelectionRange@@QEAA@XZ
??1QTabletEvent@@UEAA@XZ
??1QTapAndHoldGesture@@UEAA@XZ
??1QTapGesture@@UEAA@XZ
??1QTessellator@@UEAA@XZ
??1QTextBlockFormat@@QEAA@XZ
??1QTextBlockGroup@@MEAA@XZ
??1QTextBlockUserData@@UEAA@XZ
??1QTextBrowser@@UEAA@XZ
??1QTextCharFormat@@QEAA@XZ
??1QTextControl@@UEAA@XZ
??1QTextCursor@@QEAA@XZ
??1QTextDocument@@UEAA@XZ
??1QTextDocumentFragment@@QEAA@XZ
??1QTextDocumentLayout@@UEAA@XZ
??1QTextDocumentPrivate@@UEAA@XZ
??1QTextDocumentWriter@@QEAA@XZ
??1QTextEdit@@UEAA@XZ
??1QTextEngine@@QEAA@XZ
??1QTextFormat@@QEAA@XZ
??1QTextFormatCollection@@QEAA@XZ
??1QTextFrame@@UEAA@XZ
??1QTextFrameFormat@@QEAA@XZ
??1QTextFrameLayoutData@@UEAA@XZ
??1QTextImageFormat@@QEAA@XZ
??1QTextLayout@@QEAA@XZ
??1QTextList@@UEAA@XZ
??1QTextListFormat@@QEAA@XZ
??1QTextObject@@MEAA@XZ
??1QTextObjectInterface@@UEAA@XZ
??1QTextOdfWriter@@QEAA@XZ
??1QTextOption@@QEAA@XZ
??1QTextTable@@UEAA@XZ
??1QTextTableCell@@QEAA@XZ
??1QTextTableCellFormat@@QEAA@XZ
??1QTextTableFormat@@QEAA@XZ
??1QTextureGlyphCache@@UEAA@XZ
??1QTimeEdit@@UEAA@XZ
??1QToolBar@@UEAA@XZ
??1QToolBarChangeEvent@@UEAA@XZ
??1QToolBarExtension@@UEAA@XZ
??1QToolBox@@UEAA@XZ
??1QToolButton@@UEAA@XZ
??1QTouchEvent@@UEAA@XZ
??1QTreeView@@UEAA@XZ
??1QTreeViewPrivate@@UEAA@XZ
??1QTreeWidget@@UEAA@XZ
??1QTreeWidgetItem@@UEAA@XZ
??1QTreeWidgetItemIterator@@QEAA@XZ
??1QUndoCommand@@UEAA@XZ
??1QUndoGroup@@UEAA@XZ
??1QUndoStack@@UEAA@XZ
??1QUndoView@@UEAA@XZ
??1QUrlModel@@UEAA@XZ
??1QVBoxLayout@@UEAA@XZ
??1QValidator@@UEAA@XZ
??1QVectorPath@@QEAA@XZ
??1QVolatileImage@@QEAA@XZ
??1QWhatsThisClickedEvent@@UEAA@XZ
??1QWheelEvent@@UEAA@XZ
??1QWidget@@UEAA@XZ
??1QWidgetAction@@UEAA@XZ
??1QWidgetBackingStore@@QEAA@XZ
??1QWidgetBackingStoreTracker@@QEAA@XZ
??1QWidgetItem@@UEAA@XZ
??1QWidgetItemV2@@UEAA@XZ
??1QWidgetPrivate@@UEAA@XZ
??1QWidgetResizeHandler@@UEAA@XZ
??1QWindowStateChangeEvent@@UEAA@XZ
??1QWindowSurface@@UEAA@XZ
??1QWindowsMime@@UEAA@XZ
??1QWindowsStyle@@UEAA@XZ
??1QWindowsVistaStyle@@UEAA@XZ
??1QWindowsXPStyle@@UEAA@XZ
??1QWingedEdge@@QEAA@XZ
??1QWizard@@UEAA@XZ
??1QWizardPage@@UEAA@XZ
??1QWorkspace@@UEAA@XZ
??1QZipReader@@QEAA@XZ
??1QZipWriter@@QEAA@XZ
??1Selector@QCss@@QEAA@XZ
??1StyleSelector@QCss@@UEAA@XZ
??1Symbol@QCss@@QEAA@XZ
??1TouchPoint@QTouchEvent@@QEAA@XZ
??1Value@QCss@@QEAA@XZ
??1ValueExtractor@QCss@@QEAA@XZ
??4?$QList@VQItemSelectionRange@@@@QEAAAEAV0@$$QEAV0@@Z
??4?$QList@VQItemSelectionRange@@@@QEAAAEAV0@AEBV0@@Z
??4Declaration@QCss@@QEAAAEAU01@AEBU01@@Z
??4FileInfo@QZipReader@@QEAAAEAU01@AEBU01@@Z
??4Key@QPixmapCache@@QEAAAEAV01@AEBV01@@Z
??4Parser@QCss@@QEAAAEAV01@AEBV01@@Z
??4QAbstractUndoItem@@QEAAAEAV0@AEBV0@@Z
??4QAccessible2Interface@@QEAAAEAV0@AEBV0@@Z
??4QAccessible@@QEAAAEAV0@AEBV0@@Z
??4QAccessibleActionInterface@@QEAAAEAV0@AEBV0@@Z
??4QAccessibleEditableTextInterface@@QEAAAEAV0@AEBV0@@Z
??4QAccessibleEvent@@QEAAAEAV0@AEBV0@@Z
??4QAccessibleFactoryInterface@@QEAAAEAU0@AEBU0@@Z
??4QAccessibleImageInterface@@QEAAAEAV0@AEBV0@@Z
??4QAccessibleInterface@@QEAAAEAV0@AEBV0@@Z
??4QAccessibleInterfaceEx@@QEAAAEAV0@AEBV0@@Z
??4QAccessibleSimpleEditableTextInterface@@QEAAAEAV0@AEBV0@@Z
??4QAccessibleTable2CellInterface@@QEAAAEAV0@AEBV0@@Z
??4QAccessibleTable2Interface@@QEAAAEAV0@AEBV0@@Z
??4QAccessibleTableInterface@@QEAAAEAV0@AEBV0@@Z
??4QAccessibleTextInterface@@QEAAAEAV0@AEBV0@@Z
??4QAccessibleValueInterface@@QEAAAEAV0@AEBV0@@Z
??4QActionEvent@@QEAAAEAV0@AEBV0@@Z
??4QActionPrivate@@QEAAAEAV0@AEBV0@@Z
??4QBezier@@QEAAAEAV0@AEBV0@@Z
??4QBitmap@@QEAAAEAV0@AEBV0@@Z
??4QBitmap@@QEAAAEAV0@AEBVQPixmap@@@Z
??4QBlittable@@QEAAAEAV0@AEBV0@@Z
??4QBrush@@QEAAAEAV0@$$QEAV0@@Z
??4QBrush@@QEAAAEAV0@AEBV0@@Z
??4QClipboardEvent@@QEAAAEAV0@AEBV0@@Z
??4QCloseEvent@@QEAAAEAV0@AEBV0@@Z
??4QColor@@QEAAAEAV0@AEBV0@@Z
??4QColor@@QEAAAEAV0@W4GlobalColor@Qt@@@Z
??4QColorDialog@@QEAAAEAV0@AEBV0@@Z
??4QColormap@@QEAAAEAV0@AEBV0@@Z
??4QComboBoxPrivate@@QEAAAEAV0@AEBV0@@Z
??4QConicalGradient@@QEAAAEAV0@AEBV0@@Z
??4QContextMenuEvent@@QEAAAEAV0@AEBV0@@Z
??4QCursor@@QEAAAEAV0@$$QEAV0@@Z
??4QCursor@@QEAAAEAV0@AEBV0@@Z
??4QDashStroker@@QEAAAEAV0@AEBV0@@Z
??4QDesktopServices@@QEAAAEAV0@AEBV0@@Z
??4QDockAreaLayout@@QEAAAEAV0@AEBV0@@Z
??4QDockAreaLayoutInfo@@QEAAAEAV0@AEBV0@@Z
??4QDragEnterEvent@@QEAAAEAV0@AEBV0@@Z
??4QDragLeaveEvent@@QEAAAEAV0@AEBV0@@Z
??4QDragMoveEvent@@QEAAAEAV0@AEBV0@@Z
??4QDragResponseEvent@@QEAAAEAV0@AEBV0@@Z
??4QDropEvent@@QEAAAEAV0@AEBV0@@Z
??4QFileOpenEvent@@QEAAAEAV0@AEBV0@@Z
??4QFocusEvent@@QEAAAEAV0@AEBV0@@Z
??4QFont@@QEAAAEAV0@$$QEAV0@@Z
??4QFont@@QEAAAEAV0@AEBV0@@Z
??4QFontDatabase@@QEAAAEAV0@AEBV0@@Z
??4QFontDialog@@QEAAAEAV0@AEBV0@@Z
??4QFontInfo@@QEAAAEAV0@AEBV0@@Z
??4QFontMetrics@@QEAAAEAV0@$$QEAV0@@Z
??4QFontMetrics@@QEAAAEAV0@AEBV0@@Z
??4QFontMetricsF@@QEAAAEAV0@$$QEAV0@@Z
??4QFontMetricsF@@QEAAAEAV0@AEBV0@@Z
??4QFontMetricsF@@QEAAAEAV0@AEBVQFontMetrics@@@Z
??4QFontPrivate@@AEAAAEAV0@AEBV0@@Z
??4QGestureEvent@@QEAAAEAV0@AEBV0@@Z
??4QGestureRecognizer@@QEAAAEAV0@AEBV0@@Z
??4QGlyphRun@@QEAAAEAV0@AEBV0@@Z
??4QGradient@@QEAAAEAV0@AEBV0@@Z
??4QGraphicsAnchorLayoutPrivate@@QEAAAEAV0@AEBV0@@Z
??4QGraphicsEffectPrivate@@QEAAAEAV0@AEBV0@@Z
??4QGraphicsItemPrivate@@QEAAAEAV0@AEBV0@@Z
??4QGraphicsLayoutItemPrivate@@QEAAAEAV0@AEBV0@@Z
??4QGraphicsLayoutPrivate@@QEAAAEAV0@AEBV0@@Z
??4QGraphicsScenePrivate@@QEAAAEAV0@AEBV0@@Z
??4QGraphicsSystem@@QEAAAEAV0@AEBV0@@Z
??4QGraphicsSystemEx@@QEAAAEAV0@AEBV0@@Z
??4QGuiPlatformPluginInterface@@QEAAAEAU0@AEBU0@@Z
??4QHelpEvent@@QEAAAEAV0@AEBV0@@Z
??4QHideEvent@@QEAAAEAV0@AEBV0@@Z
??4QHoverEvent@@QEAAAEAV0@AEBV0@@Z
??4QIcon@@QEAAAEAV0@$$QEAV0@@Z
??4QIcon@@QEAAAEAV0@AEBV0@@Z
??4QIconDragEvent@@QEAAAEAV0@AEBV0@@Z
??4QIconEngine@@QEAAAEAV0@AEBV0@@Z
??4QIconEngineFactoryInterface@@QEAAAEAU0@AEBU0@@Z
??4QIconEngineFactoryInterfaceV2@@QEAAAEAU0@AEBU0@@Z
??4QIconEngineV2@@QEAAAEAV0@AEBV0@@Z
??4QImage@@QEAAAEAV0@$$QEAV0@@Z
??4QImage@@QEAAAEAV0@AEBV0@@Z
??4QImageData@@QEAAAEAU0@AEBU0@@Z
??4QImageIOHandlerFactoryInterface@@QEAAAEAU0@AEBU0@@Z
??4QImagePixmapCleanupHooks@@QEAAAEAV0@AEBV0@@Z
??4QImageTextKeyLang@@QEAAAEAV0@AEBV0@@Z
??4QInputContextFactory@@QEAAAEAV0@AEBV0@@Z
??4QInputContextFactoryInterface@@QEAAAEAU0@AEBU0@@Z
??4QInputDialog@@QEAAAEAV0@AEBV0@@Z
??4QInputEvent@@QEAAAEAV0@AEBV0@@Z
??4QInputMethodEvent@@QEAAAEAV0@AEBV0@@Z
??4QItemEditorCreatorBase@@QEAAAEAV0@AEBV0@@Z
??4QItemEditorFactory@@QEAAAEAV0@AEBV0@@Z
??4QItemSelection@@QEAAAEAV0@AEBV0@@Z
??4QItemSelectionRange@@QEAAAEAV0@AEBV0@@Z
??4QKeyBinding@@QEAAAEAU0@AEBU0@@Z
??4QKeyEvent@@QEAAAEAV0@AEBV0@@Z
??4QKeySequence@@QEAAAEAV0@$$QEAV0@@Z
??4QKeySequence@@QEAAAEAV0@AEBV0@@Z
??4QKeySequencePrivate@@QEAAAEAV0@AEBV0@@Z
??4QLayoutItem@@QEAAAEAV0@AEBV0@@Z
??4QLayoutPrivate@@QEAAAEAV0@AEBV0@@Z
??4QLinearGradient@@QEAAAEAV0@AEBV0@@Z
??4QListWidgetItem@@QEAAAEAV0@AEBV0@@Z
??4QMatrix4x4@@QEAAAEAV0@AEBV0@@Z
??4QMatrix@@QEAAAEAV0@AEBV0@@Z
??4QMimeSource@@QEAAAEAV0@AEBV0@@Z
??4QMouseEvent@@QEAAAEAV0@AEBV0@@Z
??4QMoveEvent@@QEAAAEAV0@AEBV0@@Z
??4QPaintBuffer@@QEAAAEAV0@AEBV0@@Z
??4QPaintEngineExPrivate@@QEAAAEAV0@AEBV0@@Z
??4QPaintEngineExReplayer@@QEAAAEAV0@AEBV0@@Z
??4QPaintEngineState@@QEAAAEAV0@AEBV0@@Z
??4QPaintEvent@@QEAAAEAV0@AEBV0@@Z
??4QPainterPath@@QEAAAEAV0@$$QEAV0@@Z
??4QPainterPath@@QEAAAEAV0@AEBV0@@Z
??4QPainterReplayer@@QEAAAEAV0@AEBV0@@Z
??4QPainterState@@QEAAAEAV0@AEBV0@@Z
??4QPalette@@QEAAAEAV0@$$QEAV0@@Z
??4QPalette@@QEAAAEAV0@AEBV0@@Z
??4QPen@@QEAAAEAV0@$$QEAV0@@Z
??4QPen@@QEAAAEAV0@AEBV0@@Z
??4QPicture@@QEAAAEAV0@$$QEAV0@@Z
??4QPicture@@QEAAAEAV0@AEBV0@@Z
??4QPictureFormatInterface@@QEAAAEAU0@AEBU0@@Z
??4QPixmap@@QEAAAEAV0@$$QEAV0@@Z
??4QPixmap@@QEAAAEAV0@AEBV0@@Z
??4QPixmapCache@@QEAAAEAV0@AEBV0@@Z
??4QPixmapData@@QEAAAEAV0@AEBV0@@Z
??4QPlaceHolderItem@@QEAAAEAV0@AEBV0@@Z
??4QPolygon@@QEAAAEAV0@AEBV0@@Z
??4QPolygonF@@QEAAAEAV0@AEBV0@@Z
??4QPrintEngine@@QEAAAEAV0@AEBV0@@Z
??4QPrinterInfo@@QEAAAEAV0@AEBV0@@Z
??4QQuaternion@@QEAAAEAV0@AEBV0@@Z
??4QRadialGradient@@QEAAAEAV0@AEBV0@@Z
??4QRasterPixmapData@@QEAAAEAV0@AEBV0@@Z
??4QRawFont@@QEAAAEAV0@AEBV0@@Z
??4QRawFontPrivate@@QEAAAEAV0@AEBV0@@Z
??4QRegion@@QEAAAEAV0@$$QEAV0@@Z
??4QRegion@@QEAAAEAV0@AEBV0@@Z
??4QResizeEvent@@QEAAAEAV0@AEBV0@@Z
??4QRuntimePixmapData@@QEAAAEAV0@AEBV0@@Z
??4QScriptAnalysis@@QEAAAEAU0@AEBU0@@Z
??4QScriptItem@@QEAAAEAU0@AEBU0@@Z
??4QScriptLine@@QEAAAEAU0@AEBU0@@Z
??4QShortcutEvent@@QEAAAEAV0@AEBV0@@Z
??4QShowEvent@@QEAAAEAV0@AEBV0@@Z
??4QSizePolicy@@QEAAAEAV0@AEBV0@@Z
??4QSpacerItem@@QEAAAEAV0@AEBV0@@Z
??4QSpanCollection@@QEAAAEAV0@AEBV0@@Z
??4QStandardItem@@IEAAAEAV0@AEBV0@@Z
??4QStatePrivate@@QEAAAEAV0@AEBV0@@Z
??4QStaticText@@QEAAAEAV0@AEBV0@@Z
??4QStaticTextItem@@QEAAXAEBV0@@Z
??4QStaticTextPrivate@@QEAAAEAV0@AEBV0@@Z
??4QStatusTipEvent@@QEAAAEAV0@AEBV0@@Z
??4QStroker@@QEAAAEAV0@AEBV0@@Z
??4QStrokerOps@@QEAAAEAV0@AEBV0@@Z
??4QStyleFactory@@QEAAAEAV0@AEBV0@@Z
??4QStyleFactoryInterface@@QEAAAEAU0@AEBU0@@Z
??4QStyleHintReturn@@QEAAAEAV0@AEBV0@@Z
??4QStyleHintReturnMask@@QEAAAEAV0@AEBV0@@Z
??4QStyleHintReturnVariant@@QEAAAEAV0@AEBV0@@Z
??4QStyleOption@@QEAAAEAV0@AEBV0@@Z
??4QStyleOptionButton@@QEAAAEAV0@AEBV0@@Z
??4QStyleOptionComboBox@@QEAAAEAV0@AEBV0@@Z
??4QStyleOptionComplex@@QEAAAEAV0@AEBV0@@Z
??4QStyleOptionDockWidget@@QEAAAEAV0@AEBV0@@Z
??4QStyleOptionDockWidgetV2@@QEAAAEAV0@AEBV0@@Z
??4QStyleOptionDockWidgetV2@@QEAAAEAV0@AEBVQStyleOptionDockWidget@@@Z
??4QStyleOptionFocusRect@@QEAAAEAV0@AEBV0@@Z
??4QStyleOptionFrame@@QEAAAEAV0@AEBV0@@Z
??4QStyleOptionFrameV2@@QEAAAEAV0@AEBV0@@Z
??4QStyleOptionFrameV2@@QEAAAEAV0@AEBVQStyleOptionFrame@@@Z
??4QStyleOptionFrameV3@@QEAAAEAV0@AEBV0@@Z
??4QStyleOptionFrameV3@@QEAAAEAV0@AEBVQStyleOptionFrame@@@Z
??4QStyleOptionGraphicsItem@@QEAAAEAV0@AEBV0@@Z
??4QStyleOptionGroupBox@@QEAAAEAV0@AEBV0@@Z
??4QStyleOptionHeader@@QEAAAEAV0@AEBV0@@Z
??4QStyleOptionMenuItem@@QEAAAEAV0@AEBV0@@Z
??4QStyleOptionProgressBar@@QEAAAEAV0@AEBV0@@Z
??4QStyleOptionProgressBarV2@@QEAAAEAV0@AEBV0@@Z
??4QStyleOptionProgressBarV2@@QEAAAEAV0@AEBVQStyleOptionProgressBar@@@Z
??4QStyleOptionQ3DockWindow@@QEAAAEAV0@AEBV0@@Z
??4QStyleOptionQ3ListView@@QEAAAEAV0@AEBV0@@Z
??4QStyleOptionQ3ListViewItem@@QEAAAEAV0@AEBV0@@Z
??4QStyleOptionRubberBand@@QEAAAEAV0@AEBV0@@Z
??4QStyleOptionSizeGrip@@QEAAAEAV0@AEBV0@@Z
??4QStyleOptionSlider@@QEAAAEAV0@AEBV0@@Z
??4QStyleOptionSpinBox@@QEAAAEAV0@AEBV0@@Z
??4QStyleOptionTab@@QEAAAEAV0@AEBV0@@Z
??4QStyleOptionTabBarBase@@QEAAAEAV0@AEBV0@@Z
??4QStyleOptionTabBarBaseV2@@QEAAAEAV0@AEBV0@@Z
??4QStyleOptionTabBarBaseV2@@QEAAAEAV0@AEBVQStyleOptionTabBarBase@@@Z
??4QStyleOptionTabV2@@QEAAAEAV0@AEBV0@@Z
??4QStyleOptionTabV2@@QEAAAEAV0@AEBVQStyleOptionTab@@@Z
??4QStyleOptionTabV3@@QEAAAEAV0@AEBV0@@Z
??4QStyleOptionTabV3@@QEAAAEAV0@AEBVQStyleOptionTab@@@Z
??4QStyleOptionTabWidgetFrame@@QEAAAEAV0@AEBV0@@Z
??4QStyleOptionTabWidgetFrameV2@@QEAAAEAV0@AEBV0@@Z
??4QStyleOptionTabWidgetFrameV2@@QEAAAEAV0@AEBVQStyleOptionTabWidgetFrame@@@Z
??4QStyleOptionTitleBar@@QEAAAEAV0@AEBV0@@Z
??4QStyleOptionToolBar@@QEAAAEAV0@AEBV0@@Z
??4QStyleOptionToolBox@@QEAAAEAV0@AEBV0@@Z
??4QStyleOptionToolBoxV2@@QEAAAEAV0@AEBV0@@Z
??4QStyleOptionToolBoxV2@@QEAAAEAV0@AEBVQStyleOptionToolBox@@@Z
??4QStyleOptionToolButton@@QEAAAEAV0@AEBV0@@Z
??4QStyleOptionViewItem@@QEAAAEAV0@AEBV0@@Z
??4QStyleOptionViewItemV2@@QEAAAEAV0@AEBV0@@Z
??4QStyleOptionViewItemV2@@QEAAAEAV0@AEBVQStyleOptionViewItem@@@Z
??4QStyleOptionViewItemV3@@QEAAAEAV0@AEBV0@@Z
??4QStyleOptionViewItemV3@@QEAAAEAV0@AEBVQStyleOptionViewItem@@@Z
??4QStyleOptionViewItemV4@@QEAAAEAV0@AEBV0@@Z
??4QStyleOptionViewItemV4@@QEAAAEAV0@AEBVQStyleOptionViewItem@@@Z
??4QTableWidgetItem@@QEAAAEAV0@AEBV0@@Z
??4QTableWidgetSelectionRange@@QEAAAEAV0@AEBV0@@Z
??4QTabletEvent@@QEAAAEAV0@AEBV0@@Z
??4QTessellator@@QEAAAEAV0@AEBV0@@Z
??4QTextBlock@@QEAAAEAV0@AEBV0@@Z
??4QTextBlockFormat@@QEAAAEAV0@AEBV0@@Z
??4QTextBlockUserData@@QEAAAEAV0@AEBV0@@Z
??4QTextCharFormat@@QEAAAEAV0@AEBV0@@Z
??4QTextCursor@@QEAAAEAV0@AEBV0@@Z
??4QTextDocumentFragment@@QEAAAEAV0@AEBV0@@Z
??4QTextEngine@@QEAAAEAV0@AEBV0@@Z
??4QTextFormat@@QEAAAEAV0@AEBV0@@Z
??4QTextFormatCollection@@QEAAAEAV0@AEBV0@@Z
??4QTextFragment@@QEAAAEAV0@AEBV0@@Z
??4QTextFrameFormat@@QEAAAEAV0@AEBV0@@Z
??4QTextFrameLayoutData@@QEAAAEAV0@AEBV0@@Z
??4QTextImageFormat@@QEAAAEAV0@AEBV0@@Z
??4QTextInlineObject@@QEAAAEAV0@AEBV0@@Z
??4QTextItem@@QEAAAEAV0@AEBV0@@Z
??4QTextLength@@QEAAAEAV0@AEBV0@@Z
??4QTextLine@@QEAAAEAV0@AEBV0@@Z
??4QTextListFormat@@QEAAAEAV0@AEBV0@@Z
??4QTextObjectInterface@@QEAAAEAV0@AEBV0@@Z
??4QTextOption@@QEAAAEAV0@AEBV0@@Z
??4QTextTableCell@@QEAAAEAV0@AEBV0@@Z
??4QTextTableCellFormat@@QEAAAEAV0@AEBV0@@Z
??4QTextTableFormat@@QEAAAEAV0@AEBV0@@Z
??4QToolBarChangeEvent@@QEAAAEAV0@AEBV0@@Z
??4QToolTip@@QEAAAEAV0@AEBV0@@Z
??4QTouchEvent@@QEAAAEAV0@AEBV0@@Z
??4QTransform@@QEAAAEAV0@AEBV0@@Z
??4QTreeWidgetItem@@QEAAAEAV0@AEBV0@@Z
??4QTreeWidgetItemIterator@@QEAAAEAV0@AEBV0@@Z
??4QVector2D@@QEAAAEAV0@AEBV0@@Z
??4QVector3D@@QEAAAEAV0@AEBV0@@Z
??4QVector4D@@QEAAAEAV0@AEBV0@@Z
??4QVolatileImage@@QEAAAEAV0@AEBV0@@Z
??4QWhatsThis@@QEAAAEAV0@AEBV0@@Z
??4QWhatsThisClickedEvent@@QEAAAEAV0@AEBV0@@Z
??4QWheelEvent@@QEAAAEAV0@AEBV0@@Z
??4QWidgetBackingStore@@QEAAAEAV0@AEBV0@@Z
??4QWidgetPrivate@@QEAAAEAV0@AEBV0@@Z
??4QWindowStateChangeEvent@@QEAAAEAV0@AEBV0@@Z
??4QWindowSurface@@QEAAAEAV0@AEBV0@@Z
??4QWindowsMime@@QEAAAEAV0@AEBV0@@Z
??4QWingedEdge@@QEAAAEAV0@AEBV0@@Z
??4Scanner@QCss@@QEAAAEAV01@AEBV01@@Z
??4Selector@QCss@@QEAAAEAU01@AEBU01@@Z
??4StyleSelector@QCss@@QEAAAEAV01@AEBV01@@Z
??4Symbol@QCss@@QEAAAEAU01@AEBU01@@Z
??4Tab@QTextOption@@QEAAAEAU01@AEBU01@@Z
??4TouchPoint@QTouchEvent@@QEAAAEAV01@AEBV01@@Z
??4Value@QCss@@QEAAAEAU01@AEBU01@@Z
??4ValueExtractor@QCss@@QEAAAEAU01@AEBU01@@Z
??4iterator@QTextBlock@@QEAAAEAV01@AEBV01@@Z
??4iterator@QTextFrame@@QEAAAEAV01@AEBV01@@Z
??5@YAAEAVQDataStream@@AEAV0@AEAVQBrush@@@Z
??5@YAAEAVQDataStream@@AEAV0@AEAVQColor@@@Z
??5@YAAEAVQDataStream@@AEAV0@AEAVQCursor@@@Z
??5@YAAEAVQDataStream@@AEAV0@AEAVQFont@@@Z
??5@YAAEAVQDataStream@@AEAV0@AEAVQIcon@@@Z
??5@YAAEAVQDataStream@@AEAV0@AEAVQImage@@@Z
??5@YAAEAVQDataStream@@AEAV0@AEAVQKeySequence@@@Z
??5@YAAEAVQDataStream@@AEAV0@AEAVQListWidgetItem@@@Z
??5@YAAEAVQDataStream@@AEAV0@AEAVQMatrix4x4@@@Z
??5@YAAEAVQDataStream@@AEAV0@AEAVQMatrix@@@Z
??5@YAAEAVQDataStream@@AEAV0@AEAVQPaintBuffer@@@Z
??5@YAAEAVQDataStream@@AEAV0@AEAVQPainterPath@@@Z
??5@YAAEAVQDataStream@@AEAV0@AEAVQPalette@@@Z
??5@YAAEAVQDataStream@@AEAV0@AEAVQPen@@@Z
??5@YAAEAVQDataStream@@AEAV0@AEAVQPicture@@@Z
??5@YAAEAVQDataStream@@AEAV0@AEAVQPixmap@@@Z
??5@YAAEAVQDataStream@@AEAV0@AEAVQPolygon@@@Z
??5@YAAEAVQDataStream@@AEAV0@AEAVQPolygonF@@@Z
??5@YAAEAVQDataStream@@AEAV0@AEAVQQuaternion@@@Z
??5@YAAEAVQDataStream@@AEAV0@AEAVQRegion@@@Z
??5@YAAEAVQDataStream@@AEAV0@AEAVQSizePolicy@@@Z
??5@YAAEAVQDataStream@@AEAV0@AEAVQStandardItem@@@Z
??5@YAAEAVQDataStream@@AEAV0@AEAVQTableWidgetItem@@@Z
??5@YAAEAVQDataStream@@AEAV0@AEAVQTextFormat@@@Z
??5@YAAEAVQDataStream@@AEAV0@AEAVQTextLength@@@Z
??5@YAAEAVQDataStream@@AEAV0@AEAVQTransform@@@Z
??5@YAAEAVQDataStream@@AEAV0@AEAVQTreeWidgetItem@@@Z
??5@YAAEAVQDataStream@@AEAV0@AEAVQVector2D@@@Z
??5@YAAEAVQDataStream@@AEAV0@AEAVQVector3D@@@Z
??5@YAAEAVQDataStream@@AEAV0@AEAVQVector4D@@@Z
??5@YAAEAVQTextStream@@AEAV0@AEAVQSplitter@@@Z
??6?$QList@VQItemSelectionRange@@@@QEAAAEAV0@AEBV0@@Z
??6?$QList@VQItemSelectionRange@@@@QEAAAEAV0@AEBVQItemSelectionRange@@@Z
??6@YA?AVQDebug@@V0@AEBVQBrush@@@Z
??6@YA?AVQDebug@@V0@AEBVQColor@@@Z
??6@YA?AVQDebug@@V0@AEBVQFont@@@Z
??6@YA?AVQDebug@@V0@AEBVQItemSelectionRange@@@Z
??6@YA?AVQDebug@@V0@AEBVQKeySequence@@@Z
??6@YA?AVQDebug@@V0@AEBVQMatrix4x4@@@Z
??6@YA?AVQDebug@@V0@AEBVQMatrix@@@Z
??6@YA?AVQDebug@@V0@AEBVQPainterPath@@@Z
??6@YA?AVQDebug@@V0@AEBVQPen@@@Z
??6@YA?AVQDebug@@V0@AEBVQPolygon@@@Z
??6@YA?AVQDebug@@V0@AEBVQPolygonF@@@Z
??6@YA?AVQDebug@@V0@AEBVQQuaternion@@@Z
??6@YA?AVQDebug@@V0@AEBVQRegion@@@Z
??6@YA?AVQDebug@@V0@AEBVQStyleOption@@@Z
??6@YA?AVQDebug@@V0@AEBVQTransform@@@Z
??6@YA?AVQDebug@@V0@AEBVQVector2D@@@Z
??6@YA?AVQDebug@@V0@AEBVQVector3D@@@Z
??6@YA?AVQDebug@@V0@AEBVQVector4D@@@Z
??6@YA?AVQDebug@@V0@AEBW4OptionType@QStyleOption@@@Z
??6@YA?AVQDebug@@V0@PEAVQGraphicsItem@@@Z
??6@YA?AVQDebug@@V0@PEAVQGraphicsObject@@@Z
??6@YA?AVQDebug@@V0@PEBVQEvent@@@Z
??6@YA?AVQDebug@@V0@V?$QFlags@W4GraphicsItemFlag@QGraphicsItem@@@@@Z
??6@YA?AVQDebug@@V0@V?$QFlags@W4StateFlag@QStyle@@@@@Z
??6@YA?AVQDebug@@V0@W4GraphicsItemChange@QGraphicsItem@@@Z
??6@YA?AVQDebug@@V0@W4GraphicsItemFlag@QGraphicsItem@@@Z
??6@YAAEAVQDataStream@@AEAV0@AEBVQBrush@@@Z
??6@YAAEAVQDataStream@@AEAV0@AEBVQColor@@@Z
??6@YAAEAVQDataStream@@AEAV0@AEBVQCursor@@@Z
??6@YAAEAVQDataStream@@AEAV0@AEBVQFont@@@Z
??6@YAAEAVQDataStream@@AEAV0@AEBVQIcon@@@Z
??6@YAAEAVQDataStream@@AEAV0@AEBVQImage@@@Z
??6@YAAEAVQDataStream@@AEAV0@AEBVQKeySequence@@@Z
??6@YAAEAVQDataStream@@AEAV0@AEBVQListWidgetItem@@@Z
??6@YAAEAVQDataStream@@AEAV0@AEBVQMatrix4x4@@@Z
??6@YAAEAVQDataStream@@AEAV0@AEBVQMatrix@@@Z
??6@YAAEAVQDataStream@@AEAV0@AEBVQPaintBuffer@@@Z
??6@YAAEAVQDataStream@@AEAV0@AEBVQPainterPath@@@Z
??6@YAAEAVQDataStream@@AEAV0@AEBVQPalette@@@Z
??6@YAAEAVQDataStream@@AEAV0@AEBVQPen@@@Z
??6@YAAEAVQDataStream@@AEAV0@AEBVQPicture@@@Z
??6@YAAEAVQDataStream@@AEAV0@AEBVQPixmap@@@Z
??6@YAAEAVQDataStream@@AEAV0@AEBVQPolygon@@@Z
??6@YAAEAVQDataStream@@AEAV0@AEBVQPolygonF@@@Z
??6@YAAEAVQDataStream@@AEAV0@AEBVQQuaternion@@@Z
??6@YAAEAVQDataStream@@AEAV0@AEBVQRegion@@@Z
??6@YAAEAVQDataStream@@AEAV0@AEBVQSizePolicy@@@Z
??6@YAAEAVQDataStream@@AEAV0@AEBVQStandardItem@@@Z
??6@YAAEAVQDataStream@@AEAV0@AEBVQTableWidgetItem@@@Z
??6@YAAEAVQDataStream@@AEAV0@AEBVQTextFormat@@@Z
??6@YAAEAVQDataStream@@AEAV0@AEBVQTextLength@@@Z
??6@YAAEAVQDataStream@@AEAV0@AEBVQTransform@@@Z
??6@YAAEAVQDataStream@@AEAV0@AEBVQTreeWidgetItem@@@Z
??6@YAAEAVQDataStream@@AEAV0@AEBVQVector2D@@@Z
??6@YAAEAVQDataStream@@AEAV0@AEBVQVector3D@@@Z
??6@YAAEAVQDataStream@@AEAV0@AEBVQVector4D@@@Z
??6@YAAEAVQDebug@@AEAV0@AEBVQVectorPath@@@Z
??6@YAAEAVQTextStream@@AEAV0@AEBVQSplitter@@@Z
??7QPixmap@@QEBA_NXZ
??8?$QList@VQItemSelectionRange@@@@QEBA_NAEBV0@@Z
??8Key@QPixmapCache@@QEBA_NAEBV01@@Z
??8QBrush@@QEBA_NAEBV0@@Z
??8QColor@@QEBA_NAEBV0@@Z
??8QFont@@QEBA_NAEBV0@@Z
??8QFontMetrics@@QEAA_NAEBV0@@Z
??8QFontMetrics@@QEBA_NAEBV0@@Z
??8QFontMetricsF@@QEAA_NAEBV0@@Z
??8QFontMetricsF@@QEBA_NAEBV0@@Z
??8QGlyphRun@@QEBA_NAEBV0@@Z
??8QGradient@@QEAA_NAEBV0@@Z
??8QGradient@@QEBA_NAEBV0@@Z
??8QImage@@QEBA_NAEBV0@@Z
??8QImageTextKeyLang@@QEBA_NAEBV0@@Z
??8QItemSelectionRange@@QEBA_NAEBV0@@Z
??8QKeySequence@@QEBA_NAEBV0@@Z
??8QMatrix4x4@@QEBA_NAEBV0@@Z
??8QMatrix@@QEBA_NAEBV0@@Z
??8QPainterPath@@QEBA_NAEBV0@@Z
??8QPalette@@QEBA_NAEBV0@@Z
??8QPen@@QEBA_NAEBV0@@Z
??8QRawFont@@QEBA_NAEBV0@@Z
??8QRegion@@QEBA_NAEBV0@@Z
??8QScriptAnalysis@@QEBA_NAEBU0@@Z
??8QSizePolicy@@QEBA_NAEBV0@@Z
??8QStaticText@@QEBA_NAEBV0@@Z
??8QTextBlock@@QEBA_NAEBV0@@Z
??8QTextCursor@@QEBA_NAEBV0@@Z
??8QTextFormat@@QEBA_NAEBV0@@Z
??8QTextFragment@@QEBA_NAEBV0@@Z
??8QTextLength@@QEBA_NAEBV0@@Z
??8QTextTableCell@@QEBA_NAEBV0@@Z
??8QTransform@@QEBA_NAEBV0@@Z
??8Tab@QTextOption@@QEBA_NAEBU01@@Z
??8iterator@QTextBlock@@QEBA_NAEBV01@@Z
??8iterator@QTextFrame@@QEBA_NAEBV01@@Z
??9?$QList@VQItemSelectionRange@@@@QEBA_NAEBV0@@Z
??9Key@QPixmapCache@@QEBA_NAEBV01@@Z
??9QBrush@@QEBA_NAEBV0@@Z
??9QColor@@QEBA_NAEBV0@@Z
??9QFont@@QEBA_NAEBV0@@Z
??9QFontMetrics@@QEAA_NAEBV0@@Z
??9QFontMetrics@@QEBA_NAEBV0@@Z
??9QFontMetricsF@@QEAA_NAEBV0@@Z
??9QFontMetricsF@@QEBA_NAEBV0@@Z
??9QGlyphRun@@QEBA_NAEBV0@@Z
??9QGradient@@QEBA_NAEBV0@@Z
??9QImage@@QEBA_NAEBV0@@Z
??9QImageTextKeyLang@@QEBA_NAEBV0@@Z
??9QItemSelectionRange@@QEBA_NAEBV0@@Z
??9QKeySequence@@QEBA_NAEBV0@@Z
??9QMatrix4x4@@QEBA_NAEBV0@@Z
??9QMatrix@@QEBA_NAEBV0@@Z
??9QPainterPath@@QEBA_NAEBV0@@Z
??9QPalette@@QEBA_NAEBV0@@Z
??9QPen@@QEBA_NAEBV0@@Z
??9QRawFont@@QEBA_NAEBV0@@Z
??9QRegion@@QEBA_NAEBV0@@Z
??9QSizePolicy@@QEBA_NAEBV0@@Z
??9QStaticText@@QEBA_NAEBV0@@Z
??9QTextBlock@@QEBA_NAEBV0@@Z
??9QTextCursor@@QEBA_NAEBV0@@Z
??9QTextFormat@@QEBA_NAEBV0@@Z
??9QTextFragment@@QEBA_NAEBV0@@Z
??9QTextLength@@QEBA_NAEBV0@@Z
??9QTextTableCell@@QEBA_NAEBV0@@Z
??9QTransform@@QEBA_NAEBV0@@Z
??9Tab@QTextOption@@QEBA_NAEBU01@@Z
??9iterator@QTextBlock@@QEBA_NAEBV01@@Z
??9iterator@QTextFrame@@QEBA_NAEBV01@@Z
??A?$QList@VQItemSelectionRange@@@@QEAAAEAVQItemSelectionRange@@H@Z
??A?$QList@VQItemSelectionRange@@@@QEBAAEBVQItemSelectionRange@@H@Z
??AQKeySequence@@QEBAHI@Z
??BQBitmap@@QEBA?AVQVariant@@XZ
??BQBrush@@QEBA?AVQVariant@@XZ
??BQColor@@QEBA?AVQVariant@@XZ
??BQCursor@@QEBA?AVQVariant@@XZ
??BQFont@@QEBA?AVQVariant@@XZ
??BQIcon@@QEBA?AVQVariant@@XZ
??BQImage@@QEBA?AVQVariant@@XZ
??BQKeySequence@@QEBA?AVQString@@XZ
??BQKeySequence@@QEBA?AVQVariant@@XZ
??BQKeySequence@@QEBAHXZ
??BQMatrix4x4@@QEBA?AVQVariant@@XZ
??BQMatrix@@QEBA?AVQVariant@@XZ
??BQPalette@@QEBA?AVQVariant@@XZ
??BQPen@@QEBA?AVQVariant@@XZ
??BQPixmap@@QEBA?AVQVariant@@XZ
??BQPolygon@@QEBA?AVQVariant@@XZ
??BQQuaternion@@QEBA?AVQVariant@@XZ
??BQRegion@@QEBA?AVQVariant@@XZ
??BQSizePolicy@@QEBA?AVQVariant@@XZ
??BQTextFormat@@QEBA?AVQVariant@@XZ
??BQTextLength@@QEBA?AVQVariant@@XZ
??BQTransform@@QEBA?AVQVariant@@XZ
??BQVector2D@@QEBA?AVQVariant@@XZ
??BQVector3D@@QEBA?AVQVariant@@XZ
??BQVector4D@@QEBA?AVQVariant@@XZ
??BQWidgetBackingStoreTracker@@QEBA_NXZ
??CQWidgetBackingStoreTracker@@QEAAPEAVQWidgetBackingStore@@XZ
??D@YA?AVQLine@@AEBV0@AEBVQMatrix@@@Z
??D@YA?AVQLine@@AEBV0@AEBVQTransform@@@Z
??D@YA?AVQLineF@@AEBV0@AEBVQMatrix@@@Z
??D@YA?AVQLineF@@AEBV0@AEBVQTransform@@@Z
??D@YA?AVQPainterPath@@AEBV0@AEBVQMatrix@@@Z
??D@YA?AVQPainterPath@@AEBV0@AEBVQTransform@@@Z
??D@YA?AVQPoint@@AEBV0@AEBVQMatrix@@@Z
??D@YA?AVQPoint@@AEBV0@AEBVQTransform@@@Z
??D@YA?AVQPointF@@AEBV0@AEBVQMatrix@@@Z
??D@YA?AVQPointF@@AEBV0@AEBVQTransform@@@Z
??D@YA?AVQPolygon@@AEBV0@AEBVQMatrix@@@Z
??D@YA?AVQPolygon@@AEBV0@AEBVQTransform@@@Z
??D@YA?AVQPolygonF@@AEBV0@AEBVQMatrix@@@Z
??D@YA?AVQPolygonF@@AEBV0@AEBVQTransform@@@Z
??D@YA?AVQRegion@@AEBV0@AEBVQMatrix@@@Z
??D@YA?AVQRegion@@AEBV0@AEBVQTransform@@@Z
??D@YA?AVQTransform@@AEBV0@N@Z
??DQMatrix@@QEBA?AV0@AEBV0@@Z
??DQTransform@@QEBA?AV0@AEBV0@@Z
??DQTreeWidgetItemIterator@@QEBAPEAVQTreeWidgetItem@@XZ
??DQWidgetBackingStoreTracker@@QEAAAEAVQWidgetBackingStore@@XZ
??EQTreeWidgetItemIterator@@QEAA?BV0@H@Z
??EQTreeWidgetItemIterator@@QEAAAEAV0@XZ
??Eiterator@QTextBlock@@QEAA?AV01@H@Z
??Eiterator@QTextBlock@@QEAAAEAV01@XZ
??Eiterator@QTextFrame@@QEAA?AV01@H@Z
??Eiterator@QTextFrame@@QEAAAEAV01@XZ
??FQTreeWidgetItemIterator@@QEAA?BV0@H@Z
??FQTreeWidgetItemIterator@@QEAAAEAV0@XZ
??Fiterator@QTextBlock@@QEAA?AV01@H@Z
??Fiterator@QTextBlock@@QEAAAEAV01@XZ
??Fiterator@QTextFrame@@QEAA?AV01@H@Z
??Fiterator@QTextFrame@@QEAAAEAV01@XZ
??G@YA?AVQTransform@@AEBV0@N@Z
??GQPainterPath@@QEBA?AV0@AEBV0@@Z
??GQRegion@@QEBA?BV0@AEBV0@@Z
??H?$QList@VQItemSelectionRange@@@@QEBA?AV0@AEBV0@@Z
??H@YA?AVQTransform@@AEBV0@N@Z
??HQPainterPath@@QEBA?AV0@AEBV0@@Z
??HQRegion@@QEBA?BV0@AEBV0@@Z
??HQRegion@@QEBA?BV0@AEBVQRect@@@Z
??IQPainterPath@@QEBA?AV0@AEBV0@@Z
??IQRegion@@QEBA?BV0@AEBV0@@Z
??IQRegion@@QEBA?BV0@AEBVQRect@@@Z
??K@YA?AVQMatrix4x4@@AEBV0@N@Z
??K@YA?AVQTransform@@AEBV0@N@Z
??MQFont@@QEBA_NAEBV0@@Z
??MQImageTextKeyLang@@QEBA_NAEBV0@@Z
??MQItemSelectionRange@@QEBA_NAEBV0@@Z
??MQKeySequence@@QEBA_NAEBV0@@Z
??MQListWidgetItem@@UEBA_NAEBV0@@Z
??MQStandardItem@@UEBA_NAEBV0@@Z
??MQTableWidgetItem@@UEBA_NAEBV0@@Z
??MQTextBlock@@QEBA_NAEBV0@@Z
??MQTextCursor@@QEBA_NAEBV0@@Z
??MQTextFragment@@QEBA_NAEBV0@@Z
??MQTreeWidgetItem@@UEBA_NAEBV0@@Z
??NQKeySequence@@QEBA_NAEBV0@@Z
??NQTextCursor@@QEBA_NAEBV0@@Z
??OQKeySequence@@QEBA_NAEBV0@@Z
??OQTextCursor@@QEBA_NAEBV0@@Z
??PQKeySequence@@QEBA_NAEBV0@@Z
??PQTextCursor@@QEBA_NAEBV0@@Z
??RQMatrix4x4@@QEAAAEANHH@Z
??RQMatrix4x4@@QEBAAEBNHH@Z
??TQRegion@@QEBA?BV0@AEBV0@@Z
??UQPainterPath@@QEBA?AV0@AEBV0@@Z
??UQRegion@@QEBA?BV0@AEBV0@@Z
??XQMatrix4x4@@QEAAAEAV0@AEBV0@@Z
??XQMatrix4x4@@QEAAAEAV0@N@Z
??XQMatrix@@QEAAAEAV0@AEBV0@@Z
??XQQuaternion@@QEAAAEAV0@AEBV0@@Z
??XQQuaternion@@QEAAAEAV0@N@Z
??XQTransform@@QEAAAEAV0@AEBV0@@Z
??XQTransform@@QEAAAEAV0@N@Z
??XQVector2D@@QEAAAEAV0@AEBV0@@Z
??XQVector2D@@QEAAAEAV0@N@Z
??XQVector3D@@QEAAAEAV0@AEBV0@@Z
??XQVector3D@@QEAAAEAV0@N@Z
??XQVector4D@@QEAAAEAV0@AEBV0@@Z
??XQVector4D@@QEAAAEAV0@N@Z
??Y?$QList@VQItemSelectionRange@@@@QEAAAEAV0@AEBV0@@Z
??Y?$QList@VQItemSelectionRange@@@@QEAAAEAV0@AEBVQItemSelectionRange@@@Z
??YQMatrix4x4@@QEAAAEAV0@AEBV0@@Z
??YQPainterPath@@QEAAAEAV0@AEBV0@@Z
??YQQuaternion@@QEAAAEAV0@AEBV0@@Z
??YQRegion@@QEAAAEAV0@AEBV0@@Z
??YQRegion@@QEAAAEAV0@AEBVQRect@@@Z
??YQScriptLine@@QEAAXAEBU0@@Z
??YQTransform@@QEAAAEAV0@N@Z
??YQTreeWidgetItemIterator@@QEAAAEAV0@H@Z
??YQVector2D@@QEAAAEAV0@AEBV0@@Z
??YQVector3D@@QEAAAEAV0@AEBV0@@Z
??YQVector4D@@QEAAAEAV0@AEBV0@@Z
??ZQMatrix4x4@@QEAAAEAV0@AEBV0@@Z
??ZQPainterPath@@QEAAAEAV0@AEBV0@@Z
??ZQQuaternion@@QEAAAEAV0@AEBV0@@Z
??ZQRegion@@QEAAAEAV0@AEBV0@@Z
??ZQTransform@@QEAAAEAV0@N@Z
??ZQTreeWidgetItemIterator@@QEAAAEAV0@H@Z
??ZQVector2D@@QEAAAEAV0@AEBV0@@Z
??ZQVector3D@@QEAAAEAV0@AEBV0@@Z
??ZQVector4D@@QEAAAEAV0@AEBV0@@Z
??_0QMatrix4x4@@QEAAAEAV0@N@Z
??_0QQuaternion@@QEAAAEAV0@N@Z
??_0QTransform@@QEAAAEAV0@N@Z
??_0QVector2D@@QEAAAEAV0@N@Z
??_0QVector3D@@QEAAAEAV0@N@Z
??_0QVector4D@@QEAAAEAV0@N@Z
??_4QPainterPath@@QEAAAEAV0@AEBV0@@Z
??_4QRegion@@QEAAAEAV0@AEBV0@@Z
??_4QRegion@@QEAAAEAV0@AEBVQRect@@@Z
??_5QPainterPath@@QEAAAEAV0@AEBV0@@Z
??_5QRegion@@QEAAAEAV0@AEBV0@@Z
??_6QRegion@@QEAAAEAV0@AEBV0@@Z
??_7QAbstractButton@@6BQObject@@@
??_7QAbstractButton@@6BQPaintDevice@@@
??_7QAbstractGraphicsShapeItem@@6B@
??_7QAbstractItemDelegate@@6B@
??_7QAbstractItemView@@6BQObject@@@
??_7QAbstractItemView@@6BQPaintDevice@@@
??_7QAbstractItemViewPrivate@@6B@
??_7QAbstractPageSetupDialog@@6BQObject@@@
??_7QAbstractPageSetupDialog@@6BQPaintDevice@@@
??_7QAbstractPrintDialog@@6BQObject@@@
??_7QAbstractPrintDialog@@6BQPaintDevice@@@
??_7QAbstractProxyModel@@6B@
??_7QAbstractScrollArea@@6BQObject@@@
??_7QAbstractScrollArea@@6BQPaintDevice@@@
??_7QAbstractScrollAreaPrivate@@6B@
??_7QAbstractSlider@@6BQObject@@@
??_7QAbstractSlider@@6BQPaintDevice@@@
??_7QAbstractSpinBox@@6BQObject@@@
??_7QAbstractSpinBox@@6BQPaintDevice@@@
??_7QAbstractTextDocumentLayout@@6B@
??_7QAbstractUndoItem@@6B@
??_7QAccessible2Interface@@6B@
??_7QAccessibleActionInterface@@6B@
??_7QAccessibleApplication@@6B@
??_7QAccessibleEditableTextInterface@@6B@
??_7QAccessibleEvent@@6B@
??_7QAccessibleFactoryInterface@@6B@
??_7QAccessibleImageInterface@@6B@
??_7QAccessibleInterface@@6B@
??_7QAccessibleInterfaceEx@@6B@
??_7QAccessibleObject@@6B@
??_7QAccessibleObjectEx@@6B@
??_7QAccessiblePlugin@@6BQAccessibleFactoryInterface@@@
??_7QAccessiblePlugin@@6BQObject@@@
??_7QAccessibleSimpleEditableTextInterface@@6B@
??_7QAccessibleTable2CellInterface@@6B@
??_7QAccessibleTable2Interface@@6B@
??_7QAccessibleTableInterface@@6B@
??_7QAccessibleTextInterface@@6B@
??_7QAccessibleValueInterface@@6B@
??_7QAccessibleWidget@@6B@
??_7QAccessibleWidgetEx@@6B@
??_7QAction@@6B@
??_7QActionEvent@@6B@
??_7QActionGroup@@6B@
??_7QActionPrivate@@6B@
??_7QApplication@@6B@
??_7QApplicationPrivate@@6B@
??_7QBalloonTip@@6BQObject@@@
??_7QBalloonTip@@6BQPaintDevice@@@
??_7QBasicKeyEventTransition@@6B@
??_7QBasicMouseEventTransition@@6B@
??_7QBitmap@@6B@
??_7QBlittable@@6B@
??_7QBlittablePixmapData@@6B@
??_7QBlitterPaintEngine@@6B@
??_7QBoxLayout@@6BQLayoutItem@@@
??_7QBoxLayout@@6BQObject@@@
??_7QButtonGroup@@6B@
??_7QCDEStyle@@6B@
??_7QCalendarWidget@@6BQObject@@@
??_7QCalendarWidget@@6BQPaintDevice@@@
??_7QCheckBox@@6BQObject@@@
??_7QCheckBox@@6BQPaintDevice@@@
??_7QCleanlooksStyle@@6B@
??_7QClipboard@@6B@
??_7QClipboardEvent@@6B@
??_7QCloseEvent@@6B@
??_7QColorDialog@@6BQObject@@@
??_7QColorDialog@@6BQPaintDevice@@@
??_7QColumnView@@6BQObject@@@
??_7QColumnView@@6BQPaintDevice@@@
??_7QColumnViewGrip@@6BQObject@@@
??_7QColumnViewGrip@@6BQPaintDevice@@@
??_7QColumnViewPrivate@@6B@
??_7QComboBox@@6BQObject@@@
??_7QComboBox@@6BQPaintDevice@@@
??_7QComboBoxPrivate@@6B@
??_7QComboBoxPrivateContainer@@6BQObject@@@
??_7QComboBoxPrivateContainer@@6BQPaintDevice@@@
??_7QComboBoxPrivateScroller@@6BQObject@@@
??_7QComboBoxPrivateScroller@@6BQPaintDevice@@@
??_7QCommandLinkButton@@6BQObject@@@
??_7QCommandLinkButton@@6BQPaintDevice@@@
??_7QCommonStyle@@6B@
??_7QCompleter@@6B@
??_7QContextMenuEvent@@6B@
??_7QDashStroker@@6B@
??_7QDataWidgetMapper@@6B@
??_7QDateEdit@@6BQObject@@@
??_7QDateEdit@@6BQPaintDevice@@@
??_7QDateTimeEdit@@6BQObject@@@
??_7QDateTimeEdit@@6BQPaintDevice@@@
??_7QDesktopWidget@@6BQObject@@@
??_7QDesktopWidget@@6BQPaintDevice@@@
??_7QDial@@6BQObject@@@
??_7QDial@@6BQPaintDevice@@@
??_7QDialog@@6BQObject@@@
??_7QDialog@@6BQPaintDevice@@@
??_7QDialogButtonBox@@6BQObject@@@
??_7QDialogButtonBox@@6BQPaintDevice@@@
??_7QDirModel@@6B@
??_7QDockWidget@@6BQObject@@@
??_7QDockWidget@@6BQPaintDevice@@@
??_7QDockWidgetLayout@@6BQLayoutItem@@@
??_7QDockWidgetLayout@@6BQObject@@@
??_7QDoubleSpinBox@@6BQObject@@@
??_7QDoubleSpinBox@@6BQPaintDevice@@@
??_7QDoubleValidator@@6B@
??_7QDrag@@6B@
??_7QDragEnterEvent@@6BQEvent@@@
??_7QDragEnterEvent@@6BQMimeSource@@@
??_7QDragLeaveEvent@@6B@
??_7QDragMoveEvent@@6BQEvent@@@
??_7QDragMoveEvent@@6BQMimeSource@@@
??_7QDragResponseEvent@@6B@
??_7QDropEvent@@6BQEvent@@@
??_7QDropEvent@@6BQMimeSource@@@
??_7QErrorMessage@@6BQObject@@@
??_7QErrorMessage@@6BQPaintDevice@@@
??_7QFileDialog@@6BQObject@@@
??_7QFileDialog@@6BQPaintDevice@@@
??_7QFileDialogPrivate@@6B@
??_7QFileIconProvider@@6B@
??_7QFileInfoGatherer@@6B@
??_7QFileOpenEvent@@6B@
??_7QFileSystemModel@@6B@
??_7QFileSystemModelPrivate@@6B@
??_7QFocusEvent@@6B@
??_7QFocusFrame@@6BQObject@@@
??_7QFocusFrame@@6BQPaintDevice@@@
??_7QFontComboBox@@6BQObject@@@
??_7QFontComboBox@@6BQPaintDevice@@@
??_7QFontDialog@@6BQObject@@@
??_7QFontDialog@@6BQPaintDevice@@@
??_7QFontEngine@@6B@
??_7QFormLayout@@6BQLayoutItem@@@
??_7QFormLayout@@6BQObject@@@
??_7QFrame@@6BQObject@@@
??_7QFrame@@6BQPaintDevice@@@
??_7QGesture@@6B@
??_7QGestureEvent@@6B@
??_7QGestureRecognizer@@6B@
??_7QGraphicsAnchor@@6B@
??_7QGraphicsAnchorLayout@@6B@
??_7QGraphicsAnchorLayoutPrivate@@6B@
??_7QGraphicsBlurEffect@@6B@
??_7QGraphicsColorizeEffect@@6B@
??_7QGraphicsDropShadowEffect@@6B@
??_7QGraphicsEffect@@6B@
??_7QGraphicsEffectPrivate@@6B@
??_7QGraphicsEffectSource@@6B@
??_7QGraphicsEllipseItem@@6B@
??_7QGraphicsGridLayout@@6B@
??_7QGraphicsItem@@6B@
??_7QGraphicsItemAnimation@@6B@
??_7QGraphicsItemGroup@@6B@
??_7QGraphicsItemPrivate@@6B@
??_7QGraphicsLayout@@6B@
??_7QGraphicsLayoutItem@@6B@
??_7QGraphicsLayoutItemPrivate@@6B@
??_7QGraphicsLayoutPrivate@@6B@
??_7QGraphicsLineItem@@6B@
??_7QGraphicsLinearLayout@@6B@
??_7QGraphicsObject@@6BQGraphicsItem@@@
??_7QGraphicsObject@@6BQObject@@@
??_7QGraphicsOpacityEffect@@6B@
??_7QGraphicsPathItem@@6B@
??_7QGraphicsPixmapItem@@6B@
??_7QGraphicsPolygonItem@@6B@
??_7QGraphicsProxyWidget@@6B@
??_7QGraphicsProxyWidget@@6BQGraphicsItem@@@
??_7QGraphicsProxyWidget@@6BQObject@@@
??_7QGraphicsRectItem@@6B@
??_7QGraphicsRotation@@6B@
??_7QGraphicsScale@@6B@
??_7QGraphicsScene@@6B@
??_7QGraphicsSceneBspTreeIndex@@6B@
??_7QGraphicsSceneContextMenuEvent@@6B@
??_7QGraphicsSceneDragDropEvent@@6B@
??_7QGraphicsSceneEvent@@6B@
??_7QGraphicsSceneHelpEvent@@6B@
??_7QGraphicsSceneHoverEvent@@6B@
??_7QGraphicsSceneIndex@@6B@
??_7QGraphicsSceneLinearIndex@@6B@
??_7QGraphicsSceneMouseEvent@@6B@
??_7QGraphicsSceneMoveEvent@@6B@
??_7QGraphicsScenePrivate@@6B@
??_7QGraphicsSceneResizeEvent@@6B@
??_7QGraphicsSceneWheelEvent@@6B@
??_7QGraphicsSimpleTextItem@@6B@
??_7QGraphicsSystem@@6B@
??_7QGraphicsSystemPlugin@@6BQGraphicsSystemFactoryInterface@@@
??_7QGraphicsSystemPlugin@@6BQObject@@@
??_7QGraphicsTextItem@@6BQGraphicsItem@@@
??_7QGraphicsTextItem@@6BQObject@@@
??_7QGraphicsTransform@@6B@
??_7QGraphicsView@@6BQObject@@@
??_7QGraphicsView@@6BQPaintDevice@@@
??_7QGraphicsViewPrivate@@6B@
??_7QGraphicsWidget@@6B@
??_7QGraphicsWidget@@6BQGraphicsItem@@@
??_7QGraphicsWidget@@6BQObject@@@
??_7QGridLayout@@6BQLayoutItem@@@
??_7QGridLayout@@6BQObject@@@
??_7QGroupBox@@6BQObject@@@
??_7QGroupBox@@6BQPaintDevice@@@
??_7QGuiPlatformPlugin@@6BQGuiPlatformPluginInterface@@@
??_7QGuiPlatformPlugin@@6BQObject@@@
??_7QGuiPlatformPluginInterface@@6B@
??_7QHBoxLayout@@6BQLayoutItem@@@
??_7QHBoxLayout@@6BQObject@@@
??_7QHeaderView@@6BQObject@@@
??_7QHeaderView@@6BQPaintDevice@@@
??_7QHelpEvent@@6B@
??_7QHideEvent@@6B@
??_7QHoverEvent@@6B@
??_7QIconDragEvent@@6B@
??_7QIconEngine@@6B@
??_7QIconEngineFactoryInterface@@6B@
??_7QIconEngineFactoryInterfaceV2@@6B@
??_7QIconEnginePlugin@@6BQIconEngineFactoryInterface@@@
??_7QIconEnginePlugin@@6BQObject@@@
??_7QIconEnginePluginV2@@6BQIconEngineFactoryInterfaceV2@@@
??_7QIconEnginePluginV2@@6BQObject@@@
??_7QIconEngineV2@@6B@
??_7QIdentityProxyModel@@6B@
??_7QImage@@6B@
??_7QImageIOHandler@@6B@
??_7QImageIOHandlerFactoryInterface@@6B@
??_7QImageIOPlugin@@6BQImageIOHandlerFactoryInterface@@@
??_7QImageIOPlugin@@6BQObject@@@
??_7QImageTextureGlyphCache@@6B@
??_7QInputContext@@6B@
??_7QInputContextFactoryInterface@@6B@
??_7QInputContextPlugin@@6BQInputContextFactoryInterface@@@
??_7QInputContextPlugin@@6BQObject@@@
??_7QInputDialog@@6BQObject@@@
??_7QInputDialog@@6BQPaintDevice@@@
??_7QInputEvent@@6B@
??_7QInputMethodEvent@@6B@
??_7QIntValidator@@6B@
??_7QInternalMimeData@@6B@
??_7QItemDelegate@@6B@
??_7QItemEditorCreatorBase@@6B@
??_7QItemEditorFactory@@6B@
??_7QItemSelectionModel@@6B@
??_7QKeyEvent@@6B@
??_7QKeyEventTransition@@6B@
??_7QLCDNumber@@6BQObject@@@
??_7QLCDNumber@@6BQPaintDevice@@@
??_7QLabel@@6BQObject@@@
??_7QLabel@@6BQPaintDevice@@@
??_7QLayout@@6BQLayoutItem@@@
??_7QLayout@@6BQObject@@@
??_7QLayoutItem@@6B@
??_7QLayoutPrivate@@6B@
??_7QLineControl@@6B@
??_7QLineEdit@@6BQObject@@@
??_7QLineEdit@@6BQPaintDevice@@@
??_7QListModel@@6B@
??_7QListView@@6BQObject@@@
??_7QListView@@6BQPaintDevice@@@
??_7QListWidget@@6BQObject@@@
??_7QListWidget@@6BQPaintDevice@@@
??_7QListWidgetItem@@6B@
??_7QMainWindow@@6BQObject@@@
??_7QMainWindow@@6BQPaintDevice@@@
??_7QMainWindowLayout@@6BQLayoutItem@@@
??_7QMainWindowLayout@@6BQObject@@@
??_7QMdiArea@@6BQObject@@@
??_7QMdiArea@@6BQPaintDevice@@@
??_7QMdiSubWindow@@6BQObject@@@
??_7QMdiSubWindow@@6BQPaintDevice@@@
??_7QMenu@@6BQObject@@@
??_7QMenu@@6BQPaintDevice@@@
??_7QMenuBar@@6BQObject@@@
??_7QMenuBar@@6BQPaintDevice@@@
??_7QMessageBox@@6BQObject@@@
??_7QMessageBox@@6BQPaintDevice@@@
??_7QMimeSource@@6B@
??_7QMotifStyle@@6B@
??_7QMouseEvent@@6B@
??_7QMouseEventTransition@@6B@
??_7QMoveEvent@@6B@
??_7QMovie@@6B@
??_7QPageSetupDialog@@6BQObject@@@
??_7QPageSetupDialog@@6BQPaintDevice@@@
??_7QPaintBuffer@@6B@
??_7QPaintBufferResource@@6B@
??_7QPaintBufferSignalProxy@@6B@
??_7QPaintDevice@@6B@
??_7QPaintEngine@@6B@
??_7QPaintEngineEx@@6B@
??_7QPaintEngineExPrivate@@6B@
??_7QPaintEngineExReplayer@@6B@
??_7QPaintEvent@@6B@
??_7QPainterReplayer@@6B@
??_7QPainterState@@6B@
??_7QPanGesture@@6B@
??_7QPicture@@6B@
??_7QPictureFormatInterface@@6B@
??_7QPictureFormatPlugin@@6BQObject@@@
??_7QPictureFormatPlugin@@6BQPictureFormatInterface@@@
??_7QPinchGesture@@6B@
??_7QPixmap@@6B@
??_7QPixmapBlurFilter@@6B@
??_7QPixmapColorizeFilter@@6B@
??_7QPixmapConvolutionFilter@@6B@
??_7QPixmapData@@6B@
??_7QPixmapDropShadowFilter@@6B@
??_7QPixmapFilter@@6B@
??_7QPlainTextDocumentLayout@@6B@
??_7QPlainTextEdit@@6BQObject@@@
??_7QPlainTextEdit@@6BQPaintDevice@@@
??_7QPlastiqueStyle@@6B@
??_7QPrintDialog@@6BQObject@@@
??_7QPrintDialog@@6BQPaintDevice@@@
??_7QPrintEngine@@6B@
??_7QPrintPreviewDialog@@6BQObject@@@
??_7QPrintPreviewDialog@@6BQPaintDevice@@@
??_7QPrintPreviewWidget@@6BQObject@@@
??_7QPrintPreviewWidget@@6BQPaintDevice@@@
??_7QPrinter@@6B@
??_7QProgressBar@@6BQObject@@@
??_7QProgressBar@@6BQPaintDevice@@@
??_7QProgressDialog@@6BQObject@@@
??_7QProgressDialog@@6BQPaintDevice@@@
??_7QProxyModel@@6B@
??_7QProxyStyle@@6B@
??_7QPushButton@@6BQObject@@@
??_7QPushButton@@6BQPaintDevice@@@
??_7QRadioButton@@6BQObject@@@
??_7QRadioButton@@6BQPaintDevice@@@
??_7QRasterPixmapData@@6B@
??_7QRasterWindowSurface@@6B@
??_7QRegExpValidator@@6B@
??_7QResizeEvent@@6B@
??_7QRubberBand@@6BQObject@@@
??_7QRubberBand@@6BQPaintDevice@@@
??_7QRuntimePixmapData@@6B@
??_7QScrollArea@@6BQObject@@@
??_7QScrollArea@@6BQPaintDevice@@@
??_7QScrollBar@@6BQObject@@@
??_7QScrollBar@@6BQPaintDevice@@@
??_7QSessionManager@@6B@
??_7QShortcut@@6B@
??_7QShortcutEvent@@6B@
??_7QShowEvent@@6B@
??_7QSidebar@@6BQObject@@@
??_7QSidebar@@6BQPaintDevice@@@
??_7QSizeGrip@@6BQObject@@@
??_7QSizeGrip@@6BQPaintDevice@@@
??_7QSlider@@6BQObject@@@
??_7QSlider@@6BQPaintDevice@@@
??_7QSoftKeyManager@@6B@
??_7QSortFilterProxyModel@@6B@
??_7QSound@@6B@
??_7QSpacerItem@@6B@
??_7QSpinBox@@6BQObject@@@
??_7QSpinBox@@6BQPaintDevice@@@
??_7QSplashScreen@@6BQObject@@@
??_7QSplashScreen@@6BQPaintDevice@@@
??_7QSplitter@@6BQObject@@@
??_7QSplitter@@6BQPaintDevice@@@
??_7QSplitterHandle@@6BQObject@@@
??_7QSplitterHandle@@6BQPaintDevice@@@
??_7QStackedLayout@@6BQLayoutItem@@@
??_7QStackedLayout@@6BQObject@@@
??_7QStackedWidget@@6BQObject@@@
??_7QStackedWidget@@6BQPaintDevice@@@
??_7QStandardItem@@6B@
??_7QStandardItemModel@@6B@
??_7QStatePrivate@@6B@
??_7QStatusBar@@6BQObject@@@
??_7QStatusBar@@6BQPaintDevice@@@
??_7QStatusTipEvent@@6B@
??_7QStringListModel@@6B@
??_7QStroker@@6B@
??_7QStrokerOps@@6B@
??_7QStyle@@6B@
??_7QStyleFactoryInterface@@6B@
??_7QStylePlugin@@6BQObject@@@
??_7QStylePlugin@@6BQStyleFactoryInterface@@@
??_7QStyleSheetStyle@@6B@
??_7QStyledItemDelegate@@6B@
??_7QSwipeGesture@@6B@
??_7QSyntaxHighlighter@@6B@
??_7QSystemTrayIcon@@6B@
??_7QTabBar@@6BQObject@@@
??_7QTabBar@@6BQPaintDevice@@@
??_7QTabWidget@@6BQObject@@@
??_7QTabWidget@@6BQPaintDevice@@@
??_7QTableView@@6BQObject@@@
??_7QTableView@@6BQPaintDevice@@@
??_7QTableWidget@@6BQObject@@@
??_7QTableWidget@@6BQPaintDevice@@@
??_7QTableWidgetItem@@6B@
??_7QTabletEvent@@6B@
??_7QTapAndHoldGesture@@6B@
??_7QTapGesture@@6B@
??_7QTessellator@@6B@
??_7QTextBlockGroup@@6B@
??_7QTextBlockUserData@@6B@
??_7QTextBrowser@@6BQObject@@@
??_7QTextBrowser@@6BQPaintDevice@@@
??_7QTextControl@@6B@
??_7QTextDocument@@6B@
??_7QTextDocumentLayout@@6B@
??_7QTextDocumentPrivate@@6B@
??_7QTextEdit@@6BQObject@@@
??_7QTextEdit@@6BQPaintDevice@@@
??_7QTextFrame@@6B@
??_7QTextFrameLayoutData@@6B@
??_7QTextList@@6B@
??_7QTextObject@@6B@
??_7QTextObjectInterface@@6B@
??_7QTextTable@@6B@
??_7QTextureGlyphCache@@6B@
??_7QTimeEdit@@6BQObject@@@
??_7QTimeEdit@@6BQPaintDevice@@@
??_7QToolBar@@6BQObject@@@
??_7QToolBar@@6BQPaintDevice@@@
??_7QToolBarChangeEvent@@6B@
??_7QToolBarExtension@@6BQObject@@@
??_7QToolBarExtension@@6BQPaintDevice@@@
??_7QToolBox@@6BQObject@@@
??_7QToolBox@@6BQPaintDevice@@@
??_7QToolButton@@6BQObject@@@
??_7QToolButton@@6BQPaintDevice@@@
??_7QTouchEvent@@6B@
??_7QTreeView@@6BQObject@@@
??_7QTreeView@@6BQPaintDevice@@@
??_7QTreeViewPrivate@@6B@
??_7QTreeWidget@@6BQObject@@@
??_7QTreeWidget@@6BQPaintDevice@@@
??_7QTreeWidgetItem@@6B@
??_7QUndoCommand@@6B@
??_7QUndoGroup@@6B@
??_7QUndoStack@@6B@
??_7QUndoView@@6BQObject@@@
??_7QUndoView@@6BQPaintDevice@@@
??_7QUrlModel@@6B@
??_7QVBoxLayout@@6BQLayoutItem@@@
??_7QVBoxLayout@@6BQObject@@@
??_7QValidator@@6B@
??_7QWhatsThisClickedEvent@@6B@
??_7QWheelEvent@@6B@
??_7QWidget@@6BQObject@@@
??_7QWidget@@6BQPaintDevice@@@
??_7QWidgetAction@@6B@
??_7QWidgetItem@@6B@
??_7QWidgetItemV2@@6B@
??_7QWidgetPrivate@@6B@
??_7QWidgetResizeHandler@@6B@
??_7QWindowStateChangeEvent@@6B@
??_7QWindowSurface@@6B@
??_7QWindowsMime@@6B@
??_7QWindowsStyle@@6B@
??_7QWindowsVistaStyle@@6B@
??_7QWindowsXPStyle@@6B@
??_7QWizard@@6BQObject@@@
??_7QWizard@@6BQPaintDevice@@@
??_7QWizardPage@@6BQObject@@@
??_7QWizardPage@@6BQPaintDevice@@@
??_7QWorkspace@@6BQObject@@@
??_7QWorkspace@@6BQPaintDevice@@@
??_7StyleSelector@QCss@@6B@
??_FQAbstractButton@@QEAAXXZ
??_FQAbstractGraphicsShapeItem@@QEAAXXZ
??_FQAbstractItemDelegate@@QEAAXXZ
??_FQAbstractItemView@@QEAAXXZ
??_FQAbstractProxyModel@@QEAAXXZ
??_FQAbstractScrollArea@@QEAAXXZ
??_FQAbstractSlider@@QEAAXXZ
??_FQAbstractSpinBox@@QEAAXXZ
??_FQAccessiblePlugin@@QEAAXXZ
??_FQBasicKeyEventTransition@@QEAAXXZ
??_FQBasicMouseEventTransition@@QEAAXXZ
??_FQButtonGroup@@QEAAXXZ
??_FQCDEStyle@@QEAAXXZ
??_FQCalendarWidget@@QEAAXXZ
??_FQCheckBox@@QEAAXXZ
??_FQColorDialog@@QEAAXXZ
??_FQColumnView@@QEAAXXZ
??_FQColumnViewGrip@@QEAAXXZ
??_FQComboBox@@QEAAXXZ
??_FQCommandLinkButton@@QEAAXXZ
??_FQCompleter@@QEAAXXZ
??_FQDataWidgetMapper@@QEAAXXZ
??_FQDateEdit@@QEAAXXZ
??_FQDateTimeEdit@@QEAAXXZ
??_FQDial@@QEAAXXZ
??_FQDialog@@QEAAXXZ
??_FQDialogButtonBox@@QEAAXXZ
??_FQDirModel@@QEAAXXZ
??_FQDockWidget@@QEAAXXZ
??_FQDockWidgetLayout@@QEAAXXZ
??_FQDoubleSpinBox@@QEAAXXZ
??_FQDoubleValidator@@QEAAXXZ
??_FQErrorMessage@@QEAAXXZ
??_FQFileDialog@@QEAAXXZ
??_FQFileInfoGatherer@@QEAAXXZ
??_FQFileSystemModel@@QEAAXXZ
??_FQFocusFrame@@QEAAXXZ
??_FQFontComboBox@@QEAAXXZ
??_FQFontDialog@@QEAAXXZ
??_FQFormLayout@@QEAAXXZ
??_FQFrame@@QEAAXXZ
??_FQGesture@@QEAAXXZ
??_FQGraphicsAnchorLayout@@QEAAXXZ
??_FQGraphicsBlurEffect@@QEAAXXZ
??_FQGraphicsColorizeEffect@@QEAAXXZ
??_FQGraphicsDropShadowEffect@@QEAAXXZ
??_FQGraphicsEffect@@QEAAXXZ
??_FQGraphicsEllipseItem@@QEAAXXZ
??_FQGraphicsGridLayout@@QEAAXXZ
??_FQGraphicsItem@@QEAAXXZ
??_FQGraphicsItemAnimation@@QEAAXXZ
??_FQGraphicsItemGroup@@QEAAXXZ
??_FQGraphicsLayout@@QEAAXXZ
??_FQGraphicsLayoutItem@@QEAAXXZ
??_FQGraphicsLineItem@@QEAAXXZ
??_FQGraphicsLinearLayout@@QEAAXXZ
??_FQGraphicsObject@@QEAAXXZ
??_FQGraphicsOpacityEffect@@QEAAXXZ
??_FQGraphicsPathItem@@QEAAXXZ
??_FQGraphicsPixmapItem@@QEAAXXZ
??_FQGraphicsPolygonItem@@QEAAXXZ
??_FQGraphicsProxyWidget@@QEAAXXZ
??_FQGraphicsRectItem@@QEAAXXZ
??_FQGraphicsRotation@@QEAAXXZ
??_FQGraphicsScale@@QEAAXXZ
??_FQGraphicsScene@@QEAAXXZ
??_FQGraphicsSceneBspTreeIndex@@QEAAXXZ
??_FQGraphicsSceneContextMenuEvent@@QEAAXXZ
??_FQGraphicsSceneDragDropEvent@@QEAAXXZ
??_FQGraphicsSceneHelpEvent@@QEAAXXZ
??_FQGraphicsSceneHoverEvent@@QEAAXXZ
??_FQGraphicsSceneIndex@@QEAAXXZ
??_FQGraphicsSceneLinearIndex@@QEAAXXZ
??_FQGraphicsSceneMouseEvent@@QEAAXXZ
??_FQGraphicsSceneWheelEvent@@QEAAXXZ
??_FQGraphicsSimpleTextItem@@QEAAXXZ
??_FQGraphicsSystemPlugin@@QEAAXXZ
??_FQGraphicsTextItem@@QEAAXXZ
??_FQGraphicsTransform@@QEAAXXZ
??_FQGraphicsView@@QEAAXXZ
??_FQGraphicsWidget@@QEAAXXZ
??_FQGroupBox@@QEAAXXZ
??_FQGuiPlatformPlugin@@QEAAXXZ
??_FQIconEnginePlugin@@QEAAXXZ
??_FQIconEnginePluginV2@@QEAAXXZ
??_FQIdentityProxyModel@@QEAAXXZ
??_FQImageIOPlugin@@QEAAXXZ
??_FQInputContext@@QEAAXXZ
??_FQInputContextPlugin@@QEAAXXZ
??_FQInputDialog@@QEAAXXZ
??_FQIntValidator@@QEAAXXZ
??_FQItemDelegate@@QEAAXXZ
??_FQKeyEventTransition@@QEAAXXZ
??_FQLCDNumber@@QEAAXXZ
??_FQLabel@@QEAAXXZ
??_FQLayoutItem@@QEAAXXZ
??_FQLineControl@@QEAAXXZ
??_FQLineEdit@@QEAAXXZ
??_FQListView@@QEAAXXZ
??_FQListWidget@@QEAAXXZ
??_FQListWidgetItem@@QEAAXXZ
??_FQMainWindow@@QEAAXXZ
??_FQMdiArea@@QEAAXXZ
??_FQMdiSubWindow@@QEAAXXZ
??_FQMenu@@QEAAXXZ
??_FQMenuBar@@QEAAXXZ
??_FQMessageBox@@QEAAXXZ
??_FQMotifStyle@@QEAAXXZ
??_FQMouseEventTransition@@QEAAXXZ
??_FQMovie@@QEAAXXZ
??_FQPageSetupDialog@@QEAAXXZ
??_FQPaintEngine@@QEAAXXZ
??_FQPanGesture@@QEAAXXZ
??_FQPicture@@QEAAXXZ
??_FQPictureFormatPlugin@@QEAAXXZ
??_FQPinchGesture@@QEAAXXZ
??_FQPixmapBlurFilter@@QEAAXXZ
??_FQPixmapColorizeFilter@@QEAAXXZ
??_FQPixmapConvolutionFilter@@QEAAXXZ
??_FQPixmapDropShadowFilter@@QEAAXXZ
??_FQPlainTextEdit@@QEAAXXZ
??_FQPrintDialog@@QEAAXXZ
??_FQPrintPreviewDialog@@QEAAXXZ
??_FQPrintPreviewWidget@@QEAAXXZ
??_FQPrinter@@QEAAXXZ
??_FQProgressBar@@QEAAXXZ
??_FQProgressDialog@@QEAAXXZ
??_FQProxyModel@@QEAAXXZ
??_FQProxyStyle@@QEAAXXZ
??_FQPushButton@@QEAAXXZ
??_FQRadioButton@@QEAAXXZ
??_FQRegExpValidator@@QEAAXXZ
??_FQScrollArea@@QEAAXXZ
??_FQScrollBar@@QEAAXXZ
??_FQSidebar@@QEAAXXZ
??_FQSlider@@QEAAXXZ
??_FQSortFilterProxyModel@@QEAAXXZ
??_FQSpinBox@@QEAAXXZ
??_FQSplashScreen@@QEAAXXZ
??_FQSplitter@@QEAAXXZ
??_FQStackedWidget@@QEAAXXZ
??_FQStandardItemModel@@QEAAXXZ
??_FQStatusBar@@QEAAXXZ
??_FQStringListModel@@QEAAXXZ
??_FQStyleHintReturn@@QEAAXXZ
??_FQStyleOption@@QEAAXXZ
??_FQStyleOptionComplex@@QEAAXXZ
??_FQStylePlugin@@QEAAXXZ
??_FQStyledItemDelegate@@QEAAXXZ
??_FQSwipeGesture@@QEAAXXZ
??_FQSystemTrayIcon@@QEAAXXZ
??_FQTabBar@@QEAAXXZ
??_FQTabWidget@@QEAAXXZ
??_FQTableView@@QEAAXXZ
??_FQTableWidget@@QEAAXXZ
??_FQTableWidgetItem@@QEAAXXZ
??_FQTapAndHoldGesture@@QEAAXXZ
??_FQTapGesture@@QEAAXXZ
??_FQTextBrowser@@QEAAXXZ
??_FQTextControl@@QEAAXXZ
??_FQTextDocument@@QEAAXXZ
??_FQTextEdit@@QEAAXXZ
??_FQTimeEdit@@QEAAXXZ
??_FQToolBar@@QEAAXXZ
??_FQToolBox@@QEAAXXZ
??_FQToolButton@@QEAAXXZ
??_FQTreeView@@QEAAXXZ
??_FQTreeWidget@@QEAAXXZ
??_FQTreeWidgetItem@@QEAAXXZ
??_FQUndoCommand@@QEAAXXZ
??_FQUndoGroup@@QEAAXXZ
??_FQUndoStack@@QEAAXXZ
??_FQUndoView@@QEAAXXZ
??_FQUrlModel@@QEAAXXZ
??_FQValidator@@QEAAXXZ
??_FQWidget@@QEAAXXZ
??_FQWidgetPrivate@@QEAAXXZ
??_FQWizard@@QEAAXXZ
??_FQWizardPage@@QEAAXXZ
??_FQWorkspace@@QEAAXXZ
??_FTouchPoint@QTouchEvent@@QEAAXXZ
?CloseTouchInputHandle@QApplicationPrivate@@2P6AHPEAX@ZEA
?GetTouchInputInfo@QApplicationPrivate@@2P6AHPEAXI0H@ZEA
?HasTouchSupport@QApplicationPrivate@@2_NA
?RegisterTouchWindow@QApplicationPrivate@@2P6AHPEAUHWND__@@K@ZEA
?_q_autoCompleteFileName@QFileDialogPrivate@@QEAAXAEBVQString@@@Z
?_q_changeCurrentColumn@QColumnViewPrivate@@QEAAXXZ
?_q_clicked@QColumnViewPrivate@@QEAAXAEBVQModelIndex@@@Z
?_q_clipboardChanged@QLineControl@@AEAAXXZ
?_q_columnsAboutToBeRemoved@QAbstractItemViewPrivate@@UEAAXAEBVQModelIndex@@HH@Z
?_q_columnsAboutToBeRemoved@QTreeViewPrivate@@UEAAXAEBVQModelIndex@@HH@Z
?_q_columnsInserted@QAbstractItemViewPrivate@@UEAAXAEBVQModelIndex@@HH@Z
?_q_columnsInserted@QColumnViewPrivate@@UEAAXAEBVQModelIndex@@HH@Z
?_q_columnsRemoved@QAbstractItemViewPrivate@@UEAAXAEBVQModelIndex@@HH@Z
?_q_columnsRemoved@QTreeViewPrivate@@UEAAXAEBVQModelIndex@@HH@Z
?_q_copyCurrent@QFileDialogPrivate@@QEAAXXZ
?_q_createDirectory@QFileDialogPrivate@@QEAAXXZ
?_q_currentChanged@QFileDialogPrivate@@QEAAXAEBVQModelIndex@@@Z
?_q_dataChanged@QComboBoxPrivate@@QEAAXAEBVQModelIndex@@0@Z
?_q_deleteCurrent@QFileDialogPrivate@@QEAAXXZ
?_q_deleteSelected@QLineControl@@AEAAXXZ
?_q_directoryChanged@QFileSystemModelPrivate@@QEAAXAEBVQString@@AEBVQStringList@@@Z
?_q_editingFinished@QComboBoxPrivate@@QEAAXXZ
?_q_emitCurrentIndexChanged@QComboBoxPrivate@@QEAAXAEBVQModelIndex@@@Z
?_q_emitHighlighted@QComboBoxPrivate@@QEAAXAEBVQModelIndex@@@Z
?_q_emitUpdated@QGraphicsScenePrivate@@QEAAXXZ
?_q_endAnimatedOperation@QTreeViewPrivate@@QEAAXXZ
?_q_enterDirectory@QFileDialogPrivate@@QEAAXAEBVQModelIndex@@@Z
?_q_fileRenamed@QFileDialogPrivate@@QEAAXAEBVQString@@V2@1@Z
?_q_fileSystemChanged@QFileSystemModelPrivate@@QEAAXAEBVQString@@AEBV?$QList@U?$QPair@VQString@@VQFileInfo@@@@@@@Z
?_q_goHome@QFileDialogPrivate@@QEAAXXZ
?_q_goToDirectory@QFileDialogPrivate@@QEAAXAEBVQString@@@Z
?_q_goToUrl@QFileDialogPrivate@@QEAAXAEBVQUrl@@@Z
?_q_gripMoved@QColumnViewPrivate@@QEAAXH@Z
?_q_headerDataChanged@QAbstractItemViewPrivate@@QEAAXXZ
?_q_hslide@QAbstractScrollAreaPrivate@@QEAAXH@Z
?_q_itemSelected@QComboBoxPrivate@@QEAAXAEBVQModelIndex@@@Z
?_q_layoutChanged@QAbstractItemViewPrivate@@UEAAXXZ
?_q_modelAboutToBeReset@QTreeViewPrivate@@QEAAXXZ
?_q_modelDestroyed@QAbstractItemViewPrivate@@UEAAXXZ
?_q_modelDestroyed@QComboBoxPrivate@@QEAAXXZ
?_q_modelDestroyed@QTreeViewPrivate@@UEAAXXZ
?_q_modelReset@QComboBoxPrivate@@QEAAXXZ
?_q_navigateBackward@QFileDialogPrivate@@QEAAXXZ
?_q_navigateForward@QFileDialogPrivate@@QEAAXXZ
?_q_navigateToParent@QFileDialogPrivate@@QEAAXXZ
?_q_pasteFromClipboard@QFileDialogPrivate@@QEAAXXZ
?_q_pathChanged@QFileDialogPrivate@@QEAAXAEBVQString@@@Z
?_q_performDelayedSort@QFileSystemModelPrivate@@QEAAXXZ
?_q_polishItems@QGraphicsScenePrivate@@QEAAXXZ
?_q_processDirtyItems@QGraphicsScenePrivate@@QEAAXXZ
?_q_renameCurrent@QFileDialogPrivate@@QEAAXXZ
?_q_resetButton@QComboBoxPrivate@@QEAAXXZ
?_q_resolvedName@QFileSystemModelPrivate@@QEAAXAEBVQString@@0@Z
?_q_returnPressed@QComboBoxPrivate@@QEAAXXZ
?_q_rowsInserted@QAbstractItemViewPrivate@@UEAAXAEBVQModelIndex@@HH@Z
?_q_rowsInserted@QComboBoxPrivate@@QEAAXAEBVQModelIndex@@HH@Z
?_q_rowsInserted@QFileDialogPrivate@@QEAAXAEBVQModelIndex@@@Z
?_q_rowsRemoved@QAbstractItemViewPrivate@@UEAAXAEBVQModelIndex@@HH@Z
?_q_rowsRemoved@QComboBoxPrivate@@QEAAXAEBVQModelIndex@@HH@Z
?_q_selectionChanged@QFileDialogPrivate@@QEAAXXZ
?_q_setViewportCursor@QGraphicsViewPrivate@@QEAAXAEBVQCursor@@@Z
?_q_showContextMenu@QFileDialogPrivate@@QEAAXAEBVQPoint@@@Z
?_q_showDetailsView@QFileDialogPrivate@@QEAAXXZ
?_q_showHeader@QFileDialogPrivate@@QEAAXPEAVQAction@@@Z
?_q_showHidden@QFileDialogPrivate@@QEAAXXZ
?_q_showIfNotHidden@QWidgetPrivate@@QEAAXXZ
?_q_showListView@QFileDialogPrivate@@QEAAXXZ
?_q_showOrHideScrollBars@QAbstractScrollAreaPrivate@@QEAAXXZ
?_q_sortIndicatorChanged@QTreeViewPrivate@@QEAAXHW4SortOrder@Qt@@@Z
?_q_unsetViewportCursor@QGraphicsViewPrivate@@QEAAXXZ
?_q_updateIndexBeforeChange@QComboBoxPrivate@@QEAAXXZ
?_q_updateOkButton@QFileDialogPrivate@@QEAAXXZ
?_q_updateScenePosDescendants@QGraphicsScenePrivate@@QEAAXXZ
?_q_useNameFilter@QFileDialogPrivate@@QEAAXH@Z
?_q_vslide@QAbstractScrollAreaPrivate@@QEAAXH@Z
?abort@QPrinter@@QEAA_NXZ
?about@QMessageBox@@SAXPEAVQWidget@@AEBVQString@@1@Z
?aboutQt@QApplication@@SAXXZ
?aboutQt@QMessageBox@@SAXPEAVQWidget@@AEBVQString@@@Z
?aboutToActivate@QMdiSubWindow@@IEAAXXZ
?aboutToDestroy@QPaintBufferSignalProxy@@IEAAXPEBVQPaintBufferPrivate@@@Z
?aboutToDestroy@QWidgetPrivate@@UEAAXXZ
?aboutToHide@QMenu@@IEAAXXZ
?aboutToRemoveCell@QTextDocumentPrivate@@QEAAXHH@Z
?aboutToShow@QMenu@@IEAAXXZ
?above@QTreeViewPrivate@@QEBAHH@Z
?acceleration@QPanGesture@@QEBANXZ
?accept@QDialog@@UEAAXXZ
?accept@QDragMoveEvent@@QEAAXAEBVQRect@@@Z
?accept@QDragMoveEvent@@QEAAXXZ
?accept@QFileDialog@@MEAAXXZ
?accept@QGestureEvent@@QEAAXPEAVQGesture@@@Z
?accept@QGestureEvent@@QEAAXW4GestureType@Qt@@@Z
?acceptDrops@QGraphicsItem@@QEBA_NXZ
?acceptDrops@QWidget@@QEBA_NXZ
?acceptHoverEvents@QGraphicsItem@@QEBA_NXZ
?acceptMode@QFileDialog@@QEBA?AW4AcceptMode@1@XZ
?acceptProposedAction@QDropEvent@@QEAAXXZ
?acceptProposedAction@QGraphicsSceneDragDropEvent@@QEAAXXZ
?acceptRichText@QTextControl@@QEBA_NXZ
?acceptRichText@QTextEdit@@QEBA_NXZ
?acceptTouchEvents@QGraphicsItem@@QEBA_NXZ
?accepted@QDialog@@IEAAXXZ
?accepted@QDialogButtonBox@@IEAAXXZ
?accepted@QLineControl@@IEAAXXZ
?accepted@QPrintDialog@@IEAAXPEAVQPrinter@@@Z
?acceptedMouseButtons@QGraphicsItem@@QEBA?AV?$QFlags@W4MouseButton@Qt@@@@XZ
?acceptsHoverEvents@QGraphicsItem@@QEBA_NXZ
?accessibleDescription@QStandardItem@@QEBA?AVQString@@XZ
?accessibleDescription@QWidget@@QEBA?AVQString@@XZ
?accessibleName@QWidget@@QEBA?AVQString@@XZ
?accessibleTable2Index@QTreeViewPrivate@@QEBAHAEBVQModelIndex@@@Z
?accessibleText@QStandardItem@@QEBA?AVQString@@XZ
?acquireGraphicsAnchor@QGraphicsAnchorLayoutPrivate@@QEAAPEAVQGraphicsAnchor@@PEAUAnchorData@@@Z
?action@QActionEvent@@QEBAPEAVQAction@@XZ
?actionAt@QMenu@@QEBAPEAVQAction@@AEBVQPoint@@@Z
?actionAt@QMenuBar@@QEBAPEAVQAction@@AEBVQPoint@@@Z
?actionAt@QToolBar@@QEBAPEAVQAction@@AEBVQPoint@@@Z
?actionAt@QToolBar@@QEBAPEAVQAction@@HH@Z
?actionChanged@QDrag@@IEAAXW4DropAction@Qt@@@Z
?actionEvent@QMenu@@MEAAXPEAVQActionEvent@@@Z
?actionEvent@QMenuBar@@MEAAXPEAVQActionEvent@@@Z
?actionEvent@QToolBar@@MEAAXPEAVQActionEvent@@@Z
?actionEvent@QToolButton@@MEAAXPEAVQActionEvent@@@Z
?actionEvent@QWidget@@MEAAXPEAVQActionEvent@@@Z
?actionGeometry@QMenu@@QEBA?AVQRect@@PEAVQAction@@@Z
?actionGeometry@QMenuBar@@QEBA?AVQRect@@PEAVQAction@@@Z
?actionGeometry@QToolBar@@QEBA?AVQRect@@PEAVQAction@@@Z
?actionGroup@QAction@@QEBAPEAVQActionGroup@@XZ
?actionInterface@QAccessibleInterface@@QEAAPEAVQAccessibleActionInterface@@XZ
?actionText@QAccessibleApplication@@UEBA?AVQString@@HW4Text@QAccessible@@H@Z
?actionText@QAccessibleObject@@UEBA?AVQString@@HW4Text@QAccessible@@H@Z
?actionText@QAccessibleObjectEx@@UEBA?AVQString@@HW4Text@QAccessible@@H@Z
?actionText@QAccessibleWidget@@UEBA?AVQString@@HW4Text@QAccessible@@H@Z
?actionText@QAccessibleWidgetEx@@UEBA?AVQString@@HW4Text@QAccessible@@H@Z
?actionText@QUndoCommand@@QEBA?AVQString@@XZ
?actionTriggered@QAbstractSlider@@IEAAXH@Z
?actionTriggered@QToolBar@@IEAAXPEAVQAction@@@Z
?actions@QActionGroup@@QEBA?AV?$QList@PEAVQAction@@@@XZ
?actions@QGraphicsWidget@@QEBA?AV?$QList@PEAVQAction@@@@XZ
?actions@QInputContext@@UEAA?AV?$QList@PEAVQAction@@@@XZ
?actions@QWidget@@QEBA?AV?$QList@PEAVQAction@@@@XZ
?activate@QAction@@QEAAXW4ActionEvent@1@@Z
?activate@QGraphicsLayout@@QEAAXXZ
?activate@QLayout@@QEAA_NXZ
?activate@QWidgetResizeHandler@@IEAAXXZ
?activateChildLayoutsRecursively@QWidgetPrivate@@QEAAXXZ
?activateNextSubWindow@QMdiArea@@QEAAXXZ
?activateNextWindow@QWorkspace@@QEAAXXZ
?activatePreviousSubWindow@QMdiArea@@QEAAXXZ
?activatePreviousWindow@QWorkspace@@QEAAXXZ
?activateRecursive@QGraphicsLayoutPrivate@@QEAAXPEAVQGraphicsLayoutItem@@@Z
?activateRecursiveHelper@QLayout@@CAXPEAVQLayoutItem@@@Z
?activateWindow@QWidget@@QEAAXXZ
?activated@QAbstractItemView@@IEAAXAEBVQModelIndex@@@Z
?activated@QCalendarWidget@@IEAAXAEBVQDate@@@Z
?activated@QComboBox@@IEAAXAEBVQString@@@Z
?activated@QComboBox@@IEAAXH@Z
?activated@QCompleter@@IEAAXAEBVQModelIndex@@@Z
?activated@QCompleter@@IEAAXAEBVQString@@@Z
?activated@QShortcut@@IEAAXXZ
?activated@QSystemTrayIcon@@IEAAXW4ActivationReason@1@@Z
?activatedAmbiguously@QShortcut@@IEAAXXZ
?activationOrder@QMdiArea@@QEBA?AW4WindowOrder@1@XZ
?activeAction@QMenu@@QEBAPEAVQAction@@XZ
?activeAction@QMenuBar@@QEBAPEAVQAction@@XZ
?activeGestures@QGestureEvent@@QEBA?AV?$QList@PEAVQGesture@@@@XZ
?activeModalWidget@QApplication@@SAPEAVQWidget@@XZ
?activePanel@QGraphicsScene@@QEBAPEAVQGraphicsItem@@XZ
?activePopupWidget@QApplication@@SAPEAVQWidget@@XZ
?activeStack@QUndoGroup@@QEBAPEAVQUndoStack@@XZ
?activeStackChanged@QUndoGroup@@IEAAXPEAVQUndoStack@@@Z
?activeSubWindow@QMdiArea@@QEBAPEAVQMdiSubWindow@@XZ
?activeWindow@QApplication@@SAPEAVQWidget@@XZ
?activeWindow@QGraphicsScene@@QEBAPEAVQGraphicsWidget@@XZ
?activeWindow@QWorkspace@@QEBAPEAVQWidget@@XZ
?active_window@QApplicationPrivate@@2PEAVQWidget@@EA
?actualNumCopies@QPrinter@@QEBAHXZ
?actualSize@QIcon@@QEBA?AVQSize@@AEBV2@W4Mode@1@W4State@1@@Z
?actualSize@QIconEngine@@UEAA?AVQSize@@AEBV2@W4Mode@QIcon@@W4State@4@@Z
?add@QTextList@@QEAAXAEBVQTextBlock@@@Z
?addAction@QActionGroup@@QEAAPEAVQAction@@AEBVQIcon@@AEBVQString@@@Z
?addAction@QActionGroup@@QEAAPEAVQAction@@AEBVQString@@@Z
?addAction@QActionGroup@@QEAAPEAVQAction@@PEAV2@@Z
?addAction@QGraphicsWidget@@QEAAXPEAVQAction@@@Z
?addAction@QMenu@@QEAAPEAVQAction@@AEBVQIcon@@AEBVQString@@@Z
?addAction@QMenu@@QEAAPEAVQAction@@AEBVQIcon@@AEBVQString@@PEBVQObject@@PEBDAEBVQKeySequence@@@Z
?addAction@QMenu@@QEAAPEAVQAction@@AEBVQString@@@Z
?addAction@QMenu@@QEAAPEAVQAction@@AEBVQString@@PEBVQObject@@PEBDAEBVQKeySequence@@@Z
?addAction@QMenuBar@@QEAAPEAVQAction@@AEBVQString@@@Z
?addAction@QMenuBar@@QEAAPEAVQAction@@AEBVQString@@PEBVQObject@@PEBD@Z
?addAction@QToolBar@@QEAAPEAVQAction@@AEBVQIcon@@AEBVQString@@@Z
?addAction@QToolBar@@QEAAPEAVQAction@@AEBVQIcon@@AEBVQString@@PEBVQObject@@PEBD@Z
?addAction@QToolBar@@QEAAPEAVQAction@@AEBVQString@@@Z
?addAction@QToolBar@@QEAAPEAVQAction@@AEBVQString@@PEBVQObject@@PEBD@Z
?addAction@QWidget@@QEAAXPEAVQAction@@@Z
?addActions@QGraphicsWidget@@QEAAXV?$QList@PEAVQAction@@@@@Z
?addActions@QWidget@@QEAAXV?$QList@PEAVQAction@@@@@Z
?addAnchor@QGraphicsAnchorLayout@@QEAAPEAVQGraphicsAnchor@@PEAVQGraphicsLayoutItem@@W4AnchorPoint@Qt@@01@Z
?addAnchor@QGraphicsAnchorLayoutPrivate@@QEAAPEAVQGraphicsAnchor@@PEAVQGraphicsLayoutItem@@W4AnchorPoint@Qt@@01PEAN@Z
?addAnchorMaybeParallel@QGraphicsAnchorLayoutPrivate@@QEAAPEAUAnchorData@@PEAU2@PEA_N@Z
?addAnchor_helper@QGraphicsAnchorLayoutPrivate@@QEAAXPEAVQGraphicsLayoutItem@@W4AnchorPoint@Qt@@01PEAUAnchorData@@@Z
?addAnchors@QGraphicsAnchorLayout@@QEAAXPEAVQGraphicsLayoutItem@@0V?$QFlags@W4Orientation@Qt@@@@@Z
?addApplicationFont@QFontDatabase@@SAHAEBVQString@@@Z
?addApplicationFontFromData@QFontDatabase@@SAHAEBVQByteArray@@@Z
?addBitmapFontToPath@QFontEngine@@QEAAXNNAEBUQGlyphLayout@@PEAVQPainterPath@@V?$QFlags@W4RenderFlag@QTextItem@@@@@Z
?addButton@QButtonGroup@@QEAAXPEAVQAbstractButton@@@Z
?addButton@QButtonGroup@@QEAAXPEAVQAbstractButton@@H@Z
?addButton@QDialogButtonBox@@QEAAPEAVQPushButton@@AEBVQString@@W4ButtonRole@1@@Z
?addButton@QDialogButtonBox@@QEAAPEAVQPushButton@@W4StandardButton@1@@Z
?addButton@QDialogButtonBox@@QEAAXPEAVQAbstractButton@@W4ButtonRole@1@@Z
?addButton@QMessageBox@@QEAAPEAVQPushButton@@AEBVQString@@W4ButtonRole@1@@Z
?addButton@QMessageBox@@QEAAPEAVQPushButton@@W4StandardButton@1@@Z
?addButton@QMessageBox@@QEAAXPEAVQAbstractButton@@W4ButtonRole@1@@Z
?addCacheData@QVectorPath@@QEBAPEAUCacheEntry@1@PEAVQPaintEngineEx@@PEAXP6AX01@Z@Z
?addChild@QGraphicsItemPrivate@@QEAAXPEAVQGraphicsItem@@@Z
?addChild@QTreeWidgetItem@@QEAAXPEAV1@@Z
?addChildLayout@QLayout@@IEAAXPEAV1@@Z
?addChildLayoutItem@QGraphicsLayout@@IEAAXPEAVQGraphicsLayoutItem@@@Z
?addChildLayoutItem@QGraphicsLayoutPrivate@@QEAAXPEAVQGraphicsLayoutItem@@@Z
?addChildWidget@QLayout@@IEAAXPEAVQWidget@@@Z
?addChildren@QTreeWidgetItem@@QEAAXAEBV?$QList@PEAVQTreeWidgetItem@@@@@Z
?addCommand@QLineControl@@AEAAXAEBUCommand@1@@Z
?addControllingSignal@QAccessibleWidget@@IEAAXAEBVQString@@@Z
?addControllingSignal@QAccessibleWidgetEx@@IEAAXAEBVQString@@@Z
?addCornerAnchors@QGraphicsAnchorLayout@@QEAAXPEAVQGraphicsLayoutItem@@W4Corner@Qt@@01@Z
?addCursor@QTextDocumentPrivate@@QEAAXPEAVQTextCursorPrivate@@@Z
?addDefaultSuffixToFiles@QFileDialogPrivate@@QEBA?AVQStringList@@V2@@Z
?addDirectory@QZipWriter@@QEAAXAEBVQString@@@Z
?addDirtyWidget@QWidgetBackingStore@@AEAAXPEAVQWidget@@AEBVQRegion@@@Z
?addDockWidget@QDockAreaLayout@@QEAAXW4DockPosition@QInternal@@PEAVQDockWidget@@W4Orientation@Qt@@@Z
?addDockWidget@QMainWindow@@QEAAXW4DockWidgetArea@Qt@@PEAVQDockWidget@@@Z
?addDockWidget@QMainWindow@@QEAAXW4DockWidgetArea@Qt@@PEAVQDockWidget@@W4Orientation@3@@Z
?addDockWidget@QMainWindowLayout@@QEAAXW4DockWidgetArea@Qt@@PEAVQDockWidget@@W4Orientation@3@@Z
?addEdge@QWingedEdge@@QEAAHAEBVQPointF@@0@Z
?addEdge@QWingedEdge@@QEAAHHH@Z
?addEditor@QAbstractItemViewPrivate@@QEAAXAEBVQModelIndex@@PEAVQWidget@@_N@Z
?addEllipse@QGraphicsScene@@QEAAPEAVQGraphicsEllipseItem@@AEBVQRectF@@AEBVQPen@@AEBVQBrush@@@Z
?addEllipse@QGraphicsScene@@QEAAPEAVQGraphicsEllipseItem@@NNNNAEBVQPen@@AEBVQBrush@@@Z
?addEllipse@QPainterPath@@QEAAXAEBVQPointF@@NN@Z
?addEllipse@QPainterPath@@QEAAXAEBVQRectF@@@Z
?addEllipse@QPainterPath@@QEAAXNNNN@Z
?addEnabledOption@QAbstractPrintDialog@@QEAAXW4PrintDialogOption@1@@Z
?addEnabledOption@QPageSetupDialog@@QEAAXW4PageSetupDialogOption@1@@Z
?addFile@QIcon@@QEAAXAEBVQString@@AEBVQSize@@W4Mode@1@W4State@1@@Z
?addFile@QIconEngine@@UEAAXAEBVQString@@AEBVQSize@@W4Mode@QIcon@@W4State@5@@Z
?addFile@QZipWriter@@QEAAXAEBVQString@@AEBVQByteArray@@@Z
?addFile@QZipWriter@@QEAAXAEBVQString@@PEAVQIODevice@@@Z
?addGlyphsToPath@QFontEngine@@UEAAXPEAIPEAUQFixedPoint@@HPEAVQPainterPath@@V?$QFlags@W4RenderFlag@QTextItem@@@@@Z
?addIfClose@QBezier@@QEBAXPEANN@Z
?addImageHook@QImagePixmapCleanupHooks@@QEAAXP6AX_J@Z@Z
?addInternalVertex@QGraphicsAnchorLayoutPrivate@@QEAAPEAUAnchorVertex@@PEAVQGraphicsLayoutItem@@W4AnchorPoint@Qt@@@Z
?addItem@QBoxLayout@@UEAAXPEAVQLayoutItem@@@Z
?addItem@QComboBox@@QEAAXAEBVQIcon@@AEBVQString@@AEBVQVariant@@@Z
?addItem@QComboBox@@QEAAXAEBVQString@@AEBVQVariant@@@Z
?addItem@QDockWidgetLayout@@UEAAXPEAVQLayoutItem@@@Z
?addItem@QFormLayout@@UEAAXPEAVQLayoutItem@@@Z
?addItem@QGraphicsGridLayout@@QEAAXPEAVQGraphicsLayoutItem@@HHHHV?$QFlags@W4AlignmentFlag@Qt@@@@@Z
?addItem@QGraphicsGridLayout@@QEAAXPEAVQGraphicsLayoutItem@@HHV?$QFlags@W4AlignmentFlag@Qt@@@@@Z
?addItem@QGraphicsLinearLayout@@QEAAXPEAVQGraphicsLayoutItem@@@Z
?addItem@QGraphicsScene@@QEAAXPEAVQGraphicsItem@@@Z
?addItem@QGraphicsSceneBspTreeIndex@@MEAAXPEAVQGraphicsItem@@@Z
?addItem@QGraphicsSceneLinearIndex@@MEAAXPEAVQGraphicsItem@@@Z
?addItem@QGridLayout@@MEAAXPEAVQLayoutItem@@@Z
?addItem@QGridLayout@@QEAAXPEAVQLayoutItem@@HHHHV?$QFlags@W4AlignmentFlag@Qt@@@@@Z
?addItem@QListWidget@@QEAAXAEBVQString@@@Z
?addItem@QListWidget@@QEAAXPEAVQListWidgetItem@@@Z
?addItem@QMainWindowLayout@@UEAAXPEAVQLayoutItem@@@Z
?addItem@QStackedLayout@@UEAAXPEAVQLayoutItem@@@Z
?addItem@QToolBox@@QEAAHPEAVQWidget@@AEBVQIcon@@AEBVQString@@@Z
?addItem@QToolBox@@QEAAHPEAVQWidget@@AEBVQString@@@Z
?addItems@QComboBox@@QEAAXAEBVQStringList@@@Z
?addItems@QListWidget@@QEAAXAEBVQStringList@@@Z
?addLayout@QBoxLayout@@QEAAXPEAVQLayout@@H@Z
?addLayout@QGridLayout@@QEAAXPEAVQLayout@@HHHHV?$QFlags@W4AlignmentFlag@Qt@@@@@Z
?addLayout@QGridLayout@@QEAAXPEAVQLayout@@HHV?$QFlags@W4AlignmentFlag@Qt@@@@@Z
?addLine@QGraphicsScene@@QEAAPEAVQGraphicsLineItem@@AEBVQLineF@@AEBVQPen@@@Z
?addLine@QGraphicsScene@@QEAAPEAVQGraphicsLineItem@@NNNNAEBVQPen@@@Z
?addMapping@QDataWidgetMapper@@QEAAXPEAVQWidget@@H@Z
?addMapping@QDataWidgetMapper@@QEAAXPEAVQWidget@@HAEBVQByteArray@@@Z
?addMenu@QMenu@@QEAAPEAV1@AEBVQIcon@@AEBVQString@@@Z
?addMenu@QMenu@@QEAAPEAV1@AEBVQString@@@Z
?addMenu@QMenu@@QEAAPEAVQAction@@PEAV1@@Z
?addMenu@QMenuBar@@QEAAPEAVQAction@@PEAVQMenu@@@Z
?addMenu@QMenuBar@@QEAAPEAVQMenu@@AEBVQIcon@@AEBVQString@@@Z
?addMenu@QMenuBar@@QEAAPEAVQMenu@@AEBVQString@@@Z
?addNode@QFileSystemModelPrivate@@QEAAPEAVQFileSystemNode@1@PEAV21@AEBVQString@@AEBVQFileInfo@@@Z
?addOutlineToPath@QFontEngine@@UEAAXNNAEBUQGlyphLayout@@PEAVQPainterPath@@V?$QFlags@W4RenderFlag@QTextItem@@@@@Z
?addPage@QWizard@@QEAAHPEAVQWizardPage@@@Z
?addPath@QGraphicsScene@@QEAAPEAVQGraphicsPathItem@@AEBVQPainterPath@@AEBVQPen@@AEBVQBrush@@@Z
?addPath@QPainterPath@@QEAAXAEBV1@@Z
?addPermanentWidget@QStatusBar@@QEAAXPEAVQWidget@@H@Z
?addPixmap@QGraphicsScene@@QEAAPEAVQGraphicsPixmapItem@@AEBVQPixmap@@@Z
?addPixmap@QIcon@@QEAAXAEBVQPixmap@@W4Mode@1@W4State@1@@Z
?addPixmap@QIconEngine@@UEAAXAEBVQPixmap@@W4Mode@QIcon@@W4State@4@@Z
?addPixmapDataDestructionHook@QImagePixmapCleanupHooks@@QEAAXP6AXPEAVQPixmapData@@@Z@Z
?addPixmapDataModificationHook@QImagePixmapCleanupHooks@@QEAAXP6AXPEAVQPixmapData@@@Z@Z
?addPolygon@QGraphicsScene@@QEAAPEAVQGraphicsPolygonItem@@AEBVQPolygonF@@AEBVQPen@@AEBVQBrush@@@Z
?addPolygon@QPainterPath@@QEAAXAEBVQPolygonF@@@Z
?addPopup@QGraphicsScenePrivate@@QEAAXPEAVQGraphicsWidget@@@Z
?addRect@QGraphicsScene@@QEAAPEAVQGraphicsRectItem@@AEBVQRectF@@AEBVQPen@@AEBVQBrush@@@Z
?addRect@QGraphicsScene@@QEAAPEAVQGraphicsRectItem@@NNNNAEBVQPen@@AEBVQBrush@@@Z
?addRect@QPainterPath@@QEAAXAEBVQRectF@@@Z
?addRect@QPainterPath@@QEAAXNNNN@Z
?addRegion@QPainterPath@@QEAAXAEBVQRegion@@@Z
?addRequiredBoundaries@QTextEngine@@AEBAXXZ
?addResource@QTextDocument@@QEAAXHAEBVQUrl@@AEBVQVariant@@@Z
?addRoundRect@QPainterPath@@QEAAXAEBVQRectF@@H@Z
?addRoundRect@QPainterPath@@QEAAXAEBVQRectF@@HH@Z
?addRoundRect@QPainterPath@@QEAAXNNNNH@Z
?addRoundRect@QPainterPath@@QEAAXNNNNHH@Z
?addRoundedRect@QPainterPath@@QEAAXAEBVQRectF@@NNW4SizeMode@Qt@@@Z
?addRoundedRect@QPainterPath@@QEAAXNNNNNNW4SizeMode@Qt@@@Z
?addRow@QFormLayout@@QEAAXAEBVQString@@PEAVQLayout@@@Z
?addRow@QFormLayout@@QEAAXAEBVQString@@PEAVQWidget@@@Z
?addRow@QFormLayout@@QEAAXPEAVQLayout@@@Z
?addRow@QFormLayout@@QEAAXPEAVQWidget@@0@Z
?addRow@QFormLayout@@QEAAXPEAVQWidget@@@Z
?addRow@QFormLayout@@QEAAXPEAVQWidget@@PEAVQLayout@@@Z
?addScrollBarWidget@QAbstractScrollArea@@QEAAXPEAVQWidget@@V?$QFlags@W4AlignmentFlag@Qt@@@@@Z
?addSeparator@QMenu@@QEAAPEAVQAction@@XZ
?addSeparator@QMenuBar@@QEAAPEAVQAction@@XZ
?addSeparator@QToolBar@@QEAAPEAVQAction@@XZ
?addSimpleText@QGraphicsScene@@QEAAPEAVQGraphicsSimpleTextItem@@AEBVQString@@AEBVQFont@@@Z
?addSpacerItem@QBoxLayout@@QEAAXPEAVQSpacerItem@@@Z
?addSpacing@QBoxLayout@@QEAAXH@Z
?addSpan@QSpanCollection@@QEAAXPEAUSpan@1@@Z
?addStack@QUndoGroup@@QEAAXPEAVQUndoStack@@@Z
?addStaticWidget@QWidgetBackingStore@@AEAAXPEAVQWidget@@@Z
?addStretch@QBoxLayout@@QEAAXH@Z
?addStretch@QGraphicsLinearLayout@@QEAAXH@Z
?addStrut@QBoxLayout@@QEAAXH@Z
?addSubWindow@QMdiArea@@QEAAPEAVQMdiSubWindow@@PEAVQWidget@@V?$QFlags@W4WindowType@Qt@@@@@Z
?addSymLink@QZipWriter@@QEAAXAEBVQString@@0@Z
?addTab@QTabBar@@QEAAHAEBVQIcon@@AEBVQString@@@Z
?addTab@QTabBar@@QEAAHAEBVQString@@@Z
?addTab@QTabWidget@@QEAAHPEAVQWidget@@AEBVQIcon@@AEBVQString@@@Z
?addTab@QTabWidget@@QEAAHPEAVQWidget@@AEBVQString@@@Z
?addText@QGraphicsScene@@QEAAPEAVQGraphicsTextItem@@AEBVQString@@AEBVQFont@@@Z
?addText@QPainterPath@@QEAAXAEBVQPointF@@AEBVQFont@@AEBVQString@@@Z
?addText@QPainterPath@@QEAAXNNAEBVQFont@@AEBVQString@@@Z
?addToGroup@QGraphicsItemGroup@@QEAAXPEAVQGraphicsItem@@@Z
?addToIndex@QGraphicsItem@@IEAAXXZ
?addToPolygon@QBezier@@QEBAXPEAVQPolygonF@@N@Z
?addToolBar@QMainWindow@@QEAAPEAVQToolBar@@AEBVQString@@@Z
?addToolBar@QMainWindow@@QEAAXPEAVQToolBar@@@Z
?addToolBar@QMainWindow@@QEAAXW4ToolBarArea@Qt@@PEAVQToolBar@@@Z
?addToolBar@QMainWindowLayout@@QEAAXW4ToolBarArea@Qt@@PEAVQToolBar@@_N@Z
?addToolBarBreak@QMainWindow@@QEAAXW4ToolBarArea@Qt@@@Z
?addToolBarBreak@QMainWindowLayout@@QEAAXW4ToolBarArea@Qt@@@Z
?addTopLevelItem@QTreeWidget@@QEAAXPEAVQTreeWidgetItem@@@Z
?addTopLevelItems@QTreeWidget@@QEAAXAEBV?$QList@PEAVQTreeWidgetItem@@@@@Z
?addUrls@QSidebar@@QEAAXAEBV?$QList@VQUrl@@@@H@Z
?addUrls@QUrlModel@@QEAAXAEBV?$QList@VQUrl@@@@H_N@Z
?addVertex@QWingedEdge@@QEAAHAEBVQPointF@@@Z
?addView@QGraphicsScenePrivate@@QEAAXPEAVQGraphicsView@@@Z
?addVisibleFiles@QFileSystemModelPrivate@@QEAAXPEAVQFileSystemNode@1@AEBVQStringList@@@Z
?addWidget@QBoxLayout@@QEAAXPEAVQWidget@@HV?$QFlags@W4AlignmentFlag@Qt@@@@@Z
?addWidget@QGraphicsScene@@QEAAPEAVQGraphicsProxyWidget@@PEAVQWidget@@V?$QFlags@W4WindowType@Qt@@@@@Z
?addWidget@QGridLayout@@QEAAXPEAVQWidget@@@Z
?addWidget@QGridLayout@@QEAAXPEAVQWidget@@HHHHV?$QFlags@W4AlignmentFlag@Qt@@@@@Z
?addWidget@QGridLayout@@QEAAXPEAVQWidget@@HHV?$QFlags@W4AlignmentFlag@Qt@@@@@Z
?addWidget@QLayout@@QEAAXPEAVQWidget@@@Z
?addWidget@QSplitter@@QEAAXPEAVQWidget@@@Z
?addWidget@QStackedLayout@@QEAAHPEAVQWidget@@@Z
?addWidget@QStackedWidget@@QEAAHPEAVQWidget@@@Z
?addWidget@QStatusBar@@QEAAXPEAVQWidget@@H@Z
?addWidget@QToolBar@@QEAAPEAVQAction@@PEAVQWidget@@@Z
?addWindow@QWorkspace@@QEAAPEAVQWidget@@PEAV2@V?$QFlags@W4WindowType@Qt@@@@@Z
?additionalFormats@QTextLayout@@QEBA?AV?$QList@UFormatRange@QTextLayout@@@@XZ
?adjoint@QTransform@@QEBA?AV1@XZ
?adjustComboBoxSize@QComboBoxPrivate@@QEAAXXZ
?adjustDocumentChangesAndCursors@QTextDocumentPrivate@@AEAAXHHW4Operation@QTextUndoCommand@@@Z
?adjustFlags@QWidgetPrivate@@SAXAEAV?$QFlags@W4WindowType@Qt@@@@PEAVQWidget@@@Z
?adjustPosition@QDialog@@IEAAXPEAVQWidget@@@Z
?adjustQuitOnCloseAttribute@QWidgetPrivate@@QEAAXXZ
?adjustSize@QGraphicsTextItem@@QEAAXXZ
?adjustSize@QGraphicsWidget@@QEAAXXZ
?adjustSize@QTextControl@@QEAAXXZ
?adjustSize@QTextDocument@@QEAAXXZ
?adjustSize@QWidget@@QEAAXXZ
?adjustViewOptionsForIndex@QAbstractItemViewPrivate@@UEBAXPEAVQStyleOptionViewItemV4@@AEBVQModelIndex@@@Z
?adjustViewOptionsForIndex@QTreeViewPrivate@@UEBAXPEAVQStyleOptionViewItemV4@@AEBVQModelIndex@@@Z
?adjustedSize@QWidgetPrivate@@QEBA?AVQSize@@XZ
?adoptLayout@QLayout@@IEAA_NPEAV1@@Z
?advance@QGraphicsItem@@UEAAXH@Z
?advance@QGraphicsScene@@QEAAXXZ
?advanceToEnabledItem@QLineControl@@AEAA_NH@Z
?advancesForGlyphIndexes@QRawFont@@QEBA?AV?$QVector@VQPointF@@@@AEBV?$QVector@I@@@Z
?advancesForGlyphIndexes@QRawFont@@QEBA_NPEBIPEAVQPointF@@H@Z
?afterAnimationStep@QGraphicsItemAnimation@@MEAAXN@Z
?alert@QApplication@@SAXPEAVQWidget@@H@Z
?alignLine@QTextEngine@@QEAA?AUQFixed@@AEBUQScriptLine@@@Z
?alignedRect@QStyle@@SA?AVQRect@@W4LayoutDirection@Qt@@V?$QFlags@W4AlignmentFlag@Qt@@@@AEBVQSize@@AEBV2@@Z
?alignment@QAbstractSpinBox@@QEBA?AV?$QFlags@W4AlignmentFlag@Qt@@@@XZ
?alignment@QGraphicsGridLayout@@QEBA?AV?$QFlags@W4AlignmentFlag@Qt@@@@PEAVQGraphicsLayoutItem@@@Z
?alignment@QGraphicsLinearLayout@@QEBA?AV?$QFlags@W4AlignmentFlag@Qt@@@@PEAVQGraphicsLayoutItem@@@Z
?alignment@QGraphicsView@@QEBA?AV?$QFlags@W4AlignmentFlag@Qt@@@@XZ
?alignment@QGroupBox@@QEBA?AV?$QFlags@W4AlignmentFlag@Qt@@@@XZ
?alignment@QLabel@@QEBA?AV?$QFlags@W4AlignmentFlag@Qt@@@@XZ
?alignment@QLayoutItem@@QEBA?AV?$QFlags@W4AlignmentFlag@Qt@@@@XZ
?alignment@QLineEdit@@QEBA?AV?$QFlags@W4AlignmentFlag@Qt@@@@XZ
?alignment@QProgressBar@@QEBA?AV?$QFlags@W4AlignmentFlag@Qt@@@@XZ
?alignment@QScrollArea@@QEBA?AV?$QFlags@W4AlignmentFlag@Qt@@@@XZ
?alignment@QTextBlockFormat@@QEBA?AV?$QFlags@W4AlignmentFlag@Qt@@@@XZ
?alignment@QTextEdit@@QEBA?AV?$QFlags@W4AlignmentFlag@Qt@@@@XZ
?alignment@QTextOption@@QEBA?AV?$QFlags@W4AlignmentFlag@Qt@@@@XZ
?alignment@QTextTableFormat@@QEBA?AV?$QFlags@W4AlignmentFlag@Qt@@@@XZ
?alignmentRect@QLayout@@IEBA?AVQRect@@AEBV2@@Z
?alignmentValue@Declaration@QCss@@QEBA?AV?$QFlags@W4AlignmentFlag@Qt@@@@XZ
?allColumnsShowFocus@QTreeView@@QEBA_NXZ
?allFormats@QTextDocument@@QEBA?AV?$QVector@VQTextFormat@@@@XZ
?allFormatsForMime@QWindowsMime@@CA?AV?$QVector@UtagFORMATETC@@@@PEBVQMimeData@@@Z
?allGray@QImage@@QEBA_NXZ
?allMimesForFormats@QWindowsMime@@CA?AVQStringList@@PEAUIDataObject@@@Z
?allPixmaps@QPixmapCache@@SA?AV?$QList@U?$QPair@VQString@@VQPixmap@@@@@@XZ
?allSelected@QLineControl@@QEBA_NXZ
?allWidgets@QApplication@@SA?AV?$QList@PEAVQWidget@@@@XZ
?allWidgets@QWidgetPrivate@@2PEAV?$QSet@PEAVQWidget@@@@EA
?allocStyleOptionsArray@QGraphicsViewPrivate@@QEAAPEAVQStyleOptionGraphicsItem@@H@Z
?allowedAreas@QDockWidget@@QEBA?AV?$QFlags@W4DockWidgetArea@Qt@@@@XZ
?allowedAreas@QToolBar@@QEBA?AV?$QFlags@W4ToolBarArea@Qt@@@@XZ
?allowedAreasChanged@QDockWidget@@IEAAXV?$QFlags@W4DockWidgetArea@Qt@@@@@Z
?allowedAreasChanged@QToolBar@@IEAAXV?$QFlags@W4ToolBarArea@Qt@@@@@Z
?allowsErrorInteraction@QSessionManager@@QEAA_NXZ
?allowsInteraction@QSessionManager@@QEAA_NXZ
?alpha@QColor@@QEBAHXZ
?alphaChannel@QImage@@QEBA?AV1@XZ
?alphaChannel@QPixmap@@QEBA?AV1@XZ
?alphaChannel@QPixmapData@@UEBA?AVQPixmap@@XZ
?alphaChannel@QRuntimePixmapData@@UEBA?AVQPixmap@@XZ
?alphaF@QColor@@QEBANXZ
?alphaFillRect@QBlittable@@UEAAXAEBVQRectF@@AEBVQColor@@W4CompositionMode@QPainter@@@Z
?alphaMapBoundingBox@QFontEngine@@UEAA?AUglyph_metrics_t@@IUQFixed@@AEBVQTransform@@W4GlyphFormat@1@@Z
?alphaMapForGlyph@QFontEngine@@UEAA?AVQImage@@I@Z
?alphaMapForGlyph@QFontEngine@@UEAA?AVQImage@@IAEBVQTransform@@@Z
?alphaMapForGlyph@QFontEngine@@UEAA?AVQImage@@IUQFixed@@@Z
?alphaMapForGlyph@QFontEngine@@UEAA?AVQImage@@IUQFixed@@AEBVQTransform@@@Z
?alphaMapForGlyph@QRawFont@@QEBA?AVQImage@@IW4AntialiasingType@1@AEBVQTransform@@@Z
?alphaRGBMapForGlyph@QFontEngine@@UEAA?AVQImage@@IUQFixed@@HAEBVQTransform@@@Z
?alterCharForCapitalization@QFontPrivate@@QEBAXAEAVQChar@@@Z
?alternateBase@QPalette@@QEBAAEBVQBrush@@XZ
?alternatingRowColors@QAbstractItemView@@QEBA_NXZ
?anchor@QGraphicsAnchorLayout@@QEAAPEAVQGraphicsAnchor@@PEAVQGraphicsLayoutItem@@W4AnchorPoint@Qt@@01@Z
?anchor@QTextCursor@@QEBAHXZ
?anchorAt@QAbstractTextDocumentLayout@@QEBA?AVQString@@AEBVQPointF@@@Z
?anchorAt@QPlainTextEdit@@QEBA?AVQString@@AEBVQPoint@@@Z
?anchorAt@QTextControl@@QEBA?AVQString@@AEBVQPointF@@@Z
?anchorAt@QTextEdit@@QEBA?AVQString@@AEBVQPoint@@@Z
?anchorAtCursor@QTextControl@@QEBA?AVQString@@XZ
?anchorClicked@QTextBrowser@@IEAAXAEBVQUrl@@@Z
?anchorHref@QTextCharFormat@@QEBA?AVQString@@XZ
?anchorName@QTextCharFormat@@QEBA?AVQString@@XZ
?anchorNames@QTextCharFormat@@QEBA?AVQStringList@@XZ
?anchorPosition@QTextControl@@QEBA?AVQPointF@@AEBVQString@@@Z
?angle@QConicalGradient@@QEBANXZ
?angle@QGraphicsRotation@@QEBANXZ
?angleAtPercent@QPainterPath@@QEBANN@Z
?angleChanged@QGraphicsRotation@@IEAAXXZ
?animateClick@QAbstractButton@@QEAAXH@Z
?animate_combo@QApplicationPrivate@@2_NA
?animate_menu@QApplicationPrivate@@2_NA
?animate_toolbox@QApplicationPrivate@@2_NA
?animate_tooltip@QApplicationPrivate@@2_NA
?animate_ui@QApplicationPrivate@@2_NA
?animationFinished@QMainWindowLayout@@QEAAXPEAVQWidget@@@Z
?answerRect@QDragMoveEvent@@QEBA?AVQRect@@XZ
?appName@QApplicationPrivate@@UEBA?AVQString@@XZ
?app_cspec@QApplicationPrivate@@2HA
?app_font@QApplicationPrivate@@0PEAVQFont@@EA
?app_icon@QApplicationPrivate@@2PEAVQIcon@@EA
?app_pal@QApplicationPrivate@@2PEAVQPalette@@EA
?app_strut@QApplicationPrivate@@2VQSize@@A
?app_style@QApplicationPrivate@@2PEAVQStyle@@EA
?append@?$QList@VQItemSelectionRange@@@@QEAAXAEBV1@@Z
?append@?$QList@VQItemSelectionRange@@@@QEAAXAEBVQItemSelectionRange@@@Z
?append@QTextControl@@QEAAXAEBVQString@@@Z
?append@QTextEdit@@QEAAXAEBVQString@@@Z
?appendColumn@QStandardItem@@QEAAXAEBV?$QList@PEAVQStandardItem@@@@@Z
?appendColumn@QStandardItemModel@@QEAAXAEBV?$QList@PEAVQStandardItem@@@@@Z
?appendColumns@QTextTable@@QEAAXH@Z
?appendDirtyOnScreenWidget@QWidgetBackingStore@@AEAAXPEAVQWidget@@@Z
?appendGraphicsTransform@QGraphicsItemPrivate@@QEAAXPEAVQGraphicsTransform@@@Z
?appendHtml@QPlainTextEdit@@QEAAXAEBVQString@@@Z
?appendHtml@QTextControl@@QEAAXAEBVQString@@@Z
?appendPlainText@QPlainTextEdit@@QEAAXAEBVQString@@@Z
?appendPlainText@QTextControl@@QEAAXAEBVQString@@@Z
?appendRow@QStandardItem@@QEAAXAEBV?$QList@PEAVQStandardItem@@@@@Z
?appendRow@QStandardItem@@QEAAXPEAV1@@Z
?appendRow@QStandardItemModel@@QEAAXAEBV?$QList@PEAVQStandardItem@@@@@Z
?appendRow@QStandardItemModel@@QEAAXPEAVQStandardItem@@@Z
?appendRows@QStandardItem@@QEAAXAEBV?$QList@PEAVQStandardItem@@@@@Z
?appendRows@QTextTable@@QEAAXH@Z
?appendSoftkeys@QSoftKeyManager@@AEAA_NAEBVQWidget@@H@Z
?appendUndoItem@QTextDocument@@QEAAXPEAVQAbstractUndoItem@@@Z
?appendUndoItem@QTextDocumentPrivate@@AEAAXAEBVQTextUndoCommand@@@Z
?appendUndoItem@QTextDocumentPrivate@@QEAAXPEAVQAbstractUndoItem@@@Z
?applicationFontFamilies@QFontDatabase@@SA?AVQStringList@@H@Z
?apply@QDockAreaLayout@@QEAAX_N@Z
?apply@QDockAreaLayoutInfo@@QEAAX_N@Z
?applyState@QMainWindowLayout@@QEAAXAEAVQMainWindowLayoutState@@_N@Z
?applyTo@QGraphicsRotation@@UEBAXPEAVQMatrix4x4@@@Z
?applyTo@QGraphicsScale@@UEBAXPEAVQMatrix4x4@@@Z
?arcMoveTo@QPainterPath@@QEAAXAEBVQRectF@@N@Z
?arcMoveTo@QPainterPath@@QEAAXNNNNN@Z
?arcTo@QPainterPath@@QEAAXAEBVQRectF@@NN@Z
?arcTo@QPainterPath@@QEAAXNNNNNN@Z
?arrangeIcons@QWorkspace@@QEAAXXZ
?arrowType@QToolButton@@QEBA?AW4ArrowType@Qt@@XZ
?ascent@QFontMetrics@@QEBAHXZ
?ascent@QFontMetricsF@@QEBANXZ
?ascent@QLineControl@@QEBAHXZ
?ascent@QRawFont@@QEBANXZ
?ascent@QTextInlineObject@@QEBANXZ
?ascent@QTextItem@@QEBANXZ
?ascent@QTextLine@@QEBANXZ
?assign@QKeySequence@@AEAAHAEBVQString@@@Z
?assign@QKeySequence@@AEAAHAEBVQString@@W4SequenceFormat@1@@Z
?assignedInputContext@QWidgetPrivate@@QEBAPEAVQInputContext@@XZ
?associatedGraphicsWidgets@QAction@@QEBA?AV?$QList@PEAVQGraphicsWidget@@@@XZ
?associatedWidgets@QAction@@QEBA?AV?$QList@PEAVQWidget@@@@XZ
?at@?$QList@VQItemSelectionRange@@@@QEBAAEBVQItemSelectionRange@@H@Z
?at@QListModel@@QEBAPEAVQListWidgetItem@@H@Z
?atBlockEnd@QTextCursor@@QEBA_NXZ
?atBlockStart@QTextCursor@@QEBA_NXZ
?atEnd@QTextCursor@@QEBA_NXZ
?atEnd@iterator@QTextBlock@@QEBA_NXZ
?atEnd@iterator@QTextFrame@@QEBA_NXZ
?atSpace@QTextEngine@@QEBA_NH@Z
?atStart@QTextCursor@@QEBA_NXZ
?atWordSeparator@QTextEngine@@QEBA_NH@Z
?attachmentValue@Declaration@QCss@@QEBA?AW4Attachment@2@XZ
?attributes@QInputMethodEvent@@QEBAAEBV?$QList@VAttribute@QInputMethodEvent@@@@XZ
?attributes@QTextEngine@@QEBAPEBUHB_CharAttributes@@XZ
?autoClose@QProgressDialog@@QEBA_NXZ
?autoCompletion@QComboBox@@QEBA_NXZ
?autoCompletionCaseSensitivity@QComboBox@@QEBA?AW4CaseSensitivity@Qt@@XZ
?autoDefault@QPushButton@@QEBA_NXZ
?autoDestruct@QPaintEngine@@AEBA_NXZ
?autoDetectImageFormat@QImageReader@@QEBA_NXZ
?autoExclusive@QAbstractButton@@QEBA_NXZ
?autoExpandDelay@QTreeView@@QEBAHXZ
?autoFillBackground@QGraphicsWidget@@QEBA_NXZ
?autoFillBackground@QWidget@@QEBA_NXZ
?autoFormatting@QTextEdit@@QEBA?AV?$QFlags@W4AutoFormattingFlag@QTextEdit@@@@XZ
?autoRaise@QToolButton@@QEBA_NXZ
?autoRepeat@QAbstractButton@@QEBA_NXZ
?autoRepeat@QAction@@QEBA_NXZ
?autoRepeat@QShortcut@@QEBA_NXZ
?autoRepeatDelay@QAbstractButton@@QEBAHXZ
?autoRepeatInterval@QAbstractButton@@QEBAHXZ
?autoReset@QProgressDialog@@QEBA_NXZ
?autoScrollMargin@QAbstractItemView@@QEBAHXZ
?autoSipEnabled@QApplication@@QEBA_NXZ
?autoSipEnabled@QApplicationPrivate@@2_NA
?availableGeometry@QDesktopWidget@@QEBA?BVQRect@@AEBVQPoint@@@Z
?availableGeometry@QDesktopWidget@@QEBA?BVQRect@@H@Z
?availableGeometry@QDesktopWidget@@QEBA?BVQRect@@PEBVQWidget@@@Z
?availableGlyphs@QTextEngine@@QEBA?AUQGlyphLayout@@PEBUQScriptItem@@@Z
?availablePrinters@QPrinterInfo@@SA?AV?$QList@VQPrinterInfo@@@@XZ
?availableRedoSteps@QTextDocument@@QEBAHXZ
?availableRedoSteps@QTextDocumentPrivate@@QEBAHXZ
?availableSizes@QIcon@@QEBA?AV?$QList@VQSize@@@@W4Mode@1@W4State@1@@Z
?availableSizes@QIconEngineV2@@QEAA?AV?$QList@VQSize@@@@W4Mode@QIcon@@W4State@4@@Z
?availableUndoSteps@QTextDocument@@QEBAHXZ
?availableUndoSteps@QTextDocumentPrivate@@QEBAHXZ
?averageCharWidth@QFontEngine@@UEBA?AUQFixed@@XZ
?averageCharWidth@QFontMetrics@@QEBAHXZ
?averageCharWidth@QFontMetricsF@@QEBANXZ
?averageCharWidth@QRawFont@@QEBANXZ
?axis@QGraphicsRotation@@QEBA?AVQVector3D@@XZ
?axisChanged@QGraphicsRotation@@IEAAXXZ
?back@?$QList@VQItemSelectionRange@@@@QEAAAEAVQItemSelectionRange@@XZ
?back@?$QList@VQItemSelectionRange@@@@QEBAAEBVQItemSelectionRange@@XZ
?back@QWizard@@QEAAXXZ
?background@QListWidgetItem@@QEBA?AVQBrush@@XZ
?background@QMdiArea@@QEBA?AVQBrush@@XZ
?background@QPainter@@QEBAAEBVQBrush@@XZ
?background@QPalette@@QEBAAEBVQBrush@@XZ
?background@QStandardItem@@QEBA?AVQBrush@@XZ
?background@QTableWidgetItem@@QEBA?AVQBrush@@XZ
?background@QTextFormat@@QEBA?AVQBrush@@XZ
?background@QTreeWidgetItem@@QEBA?AVQBrush@@H@Z
?background@QWorkspace@@QEBA?AVQBrush@@XZ
?backgroundBrush@QGraphicsScene@@QEBA?AVQBrush@@XZ
?backgroundBrush@QGraphicsView@@QEBA?AVQBrush@@XZ
?backgroundBrush@QPaintEngineState@@QEBA?AVQBrush@@XZ
?backgroundColor@QAccessibleInterface@@QEAA?AVQColor@@XZ
?backgroundColor@QImageReader@@QEBA?AVQColor@@XZ
?backgroundColor@QListWidgetItem@@QEBA?AVQColor@@XZ
?backgroundColor@QMovie@@QEBA?AVQColor@@XZ
?backgroundColor@QTableWidgetItem@@QEBA?AVQColor@@XZ
?backgroundColor@QTreeWidgetItem@@QEBA?AVQColor@@H@Z
?backgroundMode@QPaintEngineState@@QEBA?AW4BGMode@Qt@@XZ
?backgroundMode@QPainter@@QEBA?AW4BGMode@Qt@@XZ
?backgroundRole@QWidget@@QEBA?AW4ColorRole@QPalette@@XZ
?backgroundVisible@QPlainTextEdit@@QEBA_NXZ
?backspace@QLineControl@@QEAAXXZ
?backspace@QLineEdit@@QEAAXXZ
?backward@QTextBrowser@@UEAAXXZ
?backwardAvailable@QTextBrowser@@IEAAX_N@Z
?backwardHistoryCount@QTextBrowser@@QEBAHXZ
?balloon@QBalloonTip@@EEAAXAEBVQPoint@@H_N@Z
?base@QPalette@@QEBAAEBVQBrush@@XZ
?base@QScriptLine@@QEBA?AUQFixed@@XZ
?baseSize@QWidget@@QEBA?AVQSize@@XZ
?baseStyle@QProxyStyle@@QEBAPEAVQStyle@@XZ
?baseStyle@QStyleSheetStyle@@QEBAPEAVQStyle@@XZ
?basename@QFileDialogPrivate@@QEBA?AVQString@@AEBV2@@Z
?basicSelectorMatches@StyleSelector@QCss@@AEAA_NAEBUBasicSelector@2@TNodePtr@12@@Z
?batchSize@QListView@@QEBAHXZ
?beep@QApplication@@SAXXZ
?before@QActionEvent@@QEBAPEAVQAction@@XZ
?beforeAnimationStep@QGraphicsItemAnimation@@MEAAXN@Z
?begin@?$QList@VQItemSelectionRange@@@@QEAA?AViterator@1@XZ
?begin@?$QList@VQItemSelectionRange@@@@QEBA?AVconst_iterator@1@XZ
?begin@QBlitterPaintEngine@@UEAA_NPEAVQPaintDevice@@@Z
?begin@QDashStroker@@UEAAXPEAX@Z
?begin@QPainter@@QEAA_NPEAVQPaintDevice@@@Z
?begin@QStrokerOps@@UEAAXPEAX@Z
?begin@QTextBlock@@QEBA?AViterator@1@XZ
?begin@QTextDocument@@QEBA?AVQTextBlock@@XZ
?begin@QTextDocumentPrivate@@QEBA?AVConstIterator@?$QFragmentMap@VQTextFragmentData@@@@XZ
?begin@QTextFrame@@QEBA?AViterator@1@XZ
?begin@QTextTableCell@@QEBA?AViterator@QTextFrame@@XZ
?beginAnimatedOperation@QTreeViewPrivate@@QEAAXXZ
?beginDataAccess@QVolatileImage@@QEBAXXZ
?beginEditBlock@QTextCursor@@QEAAXXZ
?beginEditBlock@QTextDocumentPrivate@@QEAAXXZ
?beginLayout@QTextLayout@@QEAAXXZ
?beginMacro@QUndoStack@@QEAAXAEBVQString@@@Z
?beginNativePainting@QPaintEngineEx@@UEAAXXZ
?beginNativePainting@QPainter@@QEAAXXZ
?beginNewFrame@QPaintBuffer@@QEAAXXZ
?beginPaint@QRasterWindowSurface@@UEAAXAEBVQRegion@@@Z
?beginPaint@QWidgetBackingStore@@AEAAXAEAVQRegion@@PEAVQWidget@@PEAVQWindowSurface@@PEAUBeginPaintInfo@@_N@Z
?beginPaint@QWindowSurface@@UEAAXAEBVQRegion@@@Z
?beginningOfLine@QTextEngine@@AEAAHH@Z
?below@QTreeViewPrivate@@QEBAHH@Z
?bezierOnInterval@QBezier@@QEBA?AV1@NN@Z
?bidiReorder@QTextEngine@@SAXHPEBEPEAH@Z
?bitPlaneCount@QImage@@QEBAHXZ
?bitmap@QCursor@@QEBAPEBVQBitmap@@XZ
?bits@QImage@@QEAAPEAEXZ
?bits@QImage@@QEBAPEBEXZ
?bits@QVolatileImage@@QEAAPEAEXZ
?black@QColor@@QEBAHXZ
?blackF@QColor@@QEBANXZ
?blittable@QBlittablePixmapData@@QEBAPEAVQBlittable@@XZ
?block@QTextCursor@@QEBA?AVQTextBlock@@XZ
?block@QTextDocumentPrivate@@SAPEBVQTextBlockData@@AEBVQTextBlock@@@Z
?blockBoundingGeometry@QPlainTextEdit@@IEBA?AVQRectF@@AEBVQTextBlock@@@Z
?blockBoundingRect@QPlainTextDocumentLayout@@UEBA?AVQRectF@@AEBVQTextBlock@@@Z
?blockBoundingRect@QPlainTextEdit@@IEBA?AVQRectF@@AEBVQTextBlock@@@Z
?blockBoundingRect@QTextControl@@UEBA?AVQRectF@@AEBVQTextBlock@@@Z
?blockBoundingRect@QTextDocumentLayout@@UEBA?AVQRectF@@AEBVQTextBlock@@@Z
?blockCharFormat@QTextCursor@@QEBA?AVQTextCharFormat@@XZ
?blockCharFormatIndex@QTextDocumentPrivate@@QEBAHH@Z
?blockCount@QPlainTextEdit@@QEBAHXZ
?blockCount@QTextDocument@@QEBAHXZ
?blockCountChanged@QPlainTextEdit@@IEAAXH@Z
?blockCountChanged@QTextControl@@IEAAXH@Z
?blockCountChanged@QTextDocument@@IEAAXH@Z
?blockFormat@QTextBlock@@QEBA?AVQTextBlockFormat@@XZ
?blockFormat@QTextCursor@@QEBA?AVQTextBlockFormat@@XZ
?blockFormat@QTextFormatCollection@@QEBA?AVQTextBlockFormat@@H@Z
?blockFormatChanged@QTextBlockGroup@@MEAAXAEBVQTextBlock@@@Z
?blockFormatIndex@QTextBlock@@QEBAHXZ
?blockInserted@QTextBlockGroup@@MEAAXAEBVQTextBlock@@@Z
?blockList@QTextBlockGroup@@IEBA?AV?$QList@VQTextBlock@@@@XZ
?blockMap@QTextDocumentPrivate@@QEAAAEAV?$QFragmentMap@VQTextBlockData@@@@XZ
?blockMap@QTextDocumentPrivate@@QEBAAEBV?$QFragmentMap@VQTextBlockData@@@@XZ
?blockNumber@QTextBlock@@QEBAHXZ
?blockNumber@QTextCursor@@QEBAHXZ
?blockRemoved@QTextBlockGroup@@MEAAXAEBVQTextBlock@@@Z
?blockWidth@QPlainTextDocumentLayout@@AEAANAEBVQTextBlock@@@Z
?blocksBegin@QTextDocumentPrivate@@QEBA?AVQTextBlock@@XZ
?blocksEnd@QTextDocumentPrivate@@QEBA?AVQTextBlock@@XZ
?blocksFind@QTextDocumentPrivate@@QEBA?AVQTextBlock@@H@Z
?bltRect@QWidgetBackingStore@@AEAA_NAEBVQRect@@HHPEAVQWidget@@@Z
?blue@QColor@@QEBAHXZ
?blueF@QColor@@QEBANXZ
?blurHints@QGraphicsBlurEffect@@QEBA?AV?$QFlags@W4BlurHint@QGraphicsBlurEffect@@@@XZ
?blurHints@QPixmapBlurFilter@@QEBA?AV?$QFlags@W4BlurHint@QGraphicsBlurEffect@@@@XZ
?blurHintsChanged@QGraphicsBlurEffect@@IEAAXV?$QFlags@W4BlurHint@QGraphicsBlurEffect@@@@@Z
?blurRadius@QGraphicsBlurEffect@@QEBANXZ
?blurRadius@QGraphicsDropShadowEffect@@QEBANXZ
?blurRadius@QPixmapDropShadowFilter@@QEBANXZ
?blurRadiusChanged@QGraphicsBlurEffect@@IEAAXN@Z
?blurRadiusChanged@QGraphicsDropShadowEffect@@IEAAXN@Z
?bold@QFont@@QEBA_NXZ
?bold@QFontDatabase@@QEBA_NAEBVQString@@0@Z
?bold@QFontInfo@@QEBA_NXZ
?boolProperty@QTextFormat@@QEBA_NH@Z
?border@QTextFrameFormat@@QEBANXZ
?borderBrush@QTextFrameFormat@@QEBA?AVQBrush@@XZ
?borderImageValue@Declaration@QCss@@QEBAXPEAVQString@@PEAHPEAW4TileMode@2@2@Z
?borderStyle@QTextFrameFormat@@QEBA?AW4BorderStyle@1@XZ
?borderValue@ValueExtractor@QCss@@AEAAXAEBUDeclaration@2@PEAHPEAW4BorderStyle@2@PEAVQBrush@@@Z
?bottom@QDoubleValidator@@QEBANXZ
?bottom@QIntValidator@@QEBAHXZ
?bottom@QItemSelectionRange@@QEBAHXZ
?bottomMargin@QTextBlockFormat@@QEBANXZ
?bottomMargin@QTextFrameFormat@@QEBANXZ
?bottomPadding@QTextTableCellFormat@@QEBANXZ
?bottomRight@QItemSelectionRange@@QEBA?AVQModelIndex@@XZ
?bottomRow@QTableWidgetSelectionRange@@QEBAHXZ
?boundingBox@QFontEngine@@UEAA?AUglyph_metrics_t@@IAEBVQTransform@@@Z
?boundingBox@QTextEngine@@QEBA?AUglyph_metrics_t@@HH@Z
?boundingRect@QFontMetrics@@QEBA?AVQRect@@AEBV2@HAEBVQString@@HPEAH@Z
?boundingRect@QFontMetrics@@QEBA?AVQRect@@AEBVQString@@@Z
?boundingRect@QFontMetrics@@QEBA?AVQRect@@HHHHHAEBVQString@@HPEAH@Z
?boundingRect@QFontMetrics@@QEBA?AVQRect@@VQChar@@@Z
?boundingRect@QFontMetricsF@@QEBA?AVQRectF@@AEBV2@HAEBVQString@@HPEAH@Z
?boundingRect@QFontMetricsF@@QEBA?AVQRectF@@AEBVQString@@@Z
?boundingRect@QFontMetricsF@@QEBA?AVQRectF@@VQChar@@@Z
?boundingRect@QGraphicsEffect@@QEBA?AVQRectF@@XZ
?boundingRect@QGraphicsEffectSource@@QEBA?AVQRectF@@W4CoordinateSystem@Qt@@@Z
?boundingRect@QGraphicsEllipseItem@@UEBA?AVQRectF@@XZ
?boundingRect@QGraphicsItemGroup@@UEBA?AVQRectF@@XZ
?boundingRect@QGraphicsLineItem@@UEBA?AVQRectF@@XZ
?boundingRect@QGraphicsPathItem@@UEBA?AVQRectF@@XZ
?boundingRect@QGraphicsPixmapItem@@UEBA?AVQRectF@@XZ
?boundingRect@QGraphicsPolygonItem@@UEBA?AVQRectF@@XZ
?boundingRect@QGraphicsRectItem@@UEBA?AVQRectF@@XZ
?boundingRect@QGraphicsSimpleTextItem@@UEBA?AVQRectF@@XZ
?boundingRect@QGraphicsTextItem@@UEBA?AVQRectF@@XZ
?boundingRect@QGraphicsWidget@@UEBA?AVQRectF@@XZ
?boundingRect@QPaintBuffer@@QEBA?AVQRectF@@XZ
?boundingRect@QPainter@@QEAA?AVQRect@@AEBV2@HAEBVQString@@@Z
?boundingRect@QPainter@@QEAA?AVQRect@@HHHHHAEBVQString@@@Z
?boundingRect@QPainter@@QEAA?AVQRectF@@AEBV2@AEBVQString@@AEBVQTextOption@@@Z
?boundingRect@QPainter@@QEAA?AVQRectF@@AEBV2@HAEBVQString@@@Z
?boundingRect@QPainterPath@@QEBA?AVQRectF@@XZ
?boundingRect@QPicture@@QEBA?AVQRect@@XZ
?boundingRect@QPolygon@@QEBA?AVQRect@@XZ
?boundingRect@QPolygonF@@QEBA?AVQRectF@@XZ
?boundingRect@QRegion@@QEBA?AVQRect@@XZ
?boundingRect@QTextLayout@@QEBA?AVQRectF@@XZ
?boundingRectFor@QGraphicsBlurEffect@@UEBA?AVQRectF@@AEBV2@@Z
?boundingRectFor@QGraphicsDropShadowEffect@@UEBA?AVQRectF@@AEBV2@@Z
?boundingRectFor@QGraphicsEffect@@UEBA?AVQRectF@@AEBV2@@Z
?boundingRectFor@QPixmapBlurFilter@@UEBA?AVQRectF@@AEBV2@@Z
?boundingRectFor@QPixmapConvolutionFilter@@UEBA?AVQRectF@@AEBV2@@Z
?boundingRectFor@QPixmapDropShadowFilter@@UEBA?AVQRectF@@AEBV2@@Z
?boundingRectFor@QPixmapFilter@@UEBA?AVQRectF@@AEBV2@@Z
?boundingRegion@QGraphicsItem@@QEBA?AVQRegion@@AEBVQTransform@@@Z
?boundingRegionGranularity@QGraphicsItem@@QEBANXZ
?bounds@QBezier@@QEBA?AVQRectF@@XZ
?brightText@QPalette@@QEBAAEBVQBrush@@XZ
?brush@QAbstractGraphicsShapeItem@@QEBA?AVQBrush@@XZ
?brush@QPaintEngineState@@QEBA?AVQBrush@@XZ
?brush@QPainter@@QEBAAEBVQBrush@@XZ
?brush@QPalette@@QEBAAEBVQBrush@@W4ColorGroup@1@W4ColorRole@1@@Z
?brush@QPalette@@QEBAAEBVQBrush@@W4ColorRole@1@@Z
?brush@QPen@@QEBA?AVQBrush@@XZ
?brushChanged@QBlitterPaintEngine@@UEAAXXZ
?brushNeedsResolving@QPaintEngineState@@QEBA_NXZ
?brushOrigin@QPaintEngineState@@QEBA?AVQPointF@@XZ
?brushOrigin@QPainter@@QEBA?AVQPoint@@XZ
?brushProperty@QTextFormat@@QEBA?AVQBrush@@H@Z
?brushValue@Declaration@QCss@@QEBA?AVQBrush@@AEBVQPalette@@@Z
?brushValues@Declaration@QCss@@QEBAXPEAVQBrush@@AEBVQPalette@@@Z
?bspTreeDepth@QGraphicsScene@@QEBAHXZ
?bspTreeDepth@QGraphicsSceneBspTreeIndex@@QEAAHXZ
?buddy@QAbstractProxyModel@@UEBA?AVQModelIndex@@AEBV2@@Z
?buddy@QLabel@@QEBAPEAVQWidget@@XZ
?buddy@QSortFilterProxyModel@@UEBA?AVQModelIndex@@AEBV2@@Z
?buffer@QBlittablePixmapData@@UEAAPEAVQImage@@XZ
?buffer@QPixmapData@@UEAAPEAVQImage@@XZ
?buffer@QRasterPixmapData@@UEAAPEAVQImage@@XZ
?buffer@QRuntimePixmapData@@UEAAPEAVQImage@@XZ
?buffer@QTextDocumentPrivate@@QEBA?AVQString@@XZ
?buffer@QWindowSurface@@UEAAPEAVQImage@@PEBVQWidget@@@Z
?button@QBasicMouseEventTransition@@QEBA?AW4MouseButton@Qt@@XZ
?button@QButtonGroup@@QEBAPEAVQAbstractButton@@H@Z
?button@QDialogButtonBox@@QEBAPEAVQPushButton@@W4StandardButton@1@@Z
?button@QGraphicsSceneMouseEvent@@QEBA?AW4MouseButton@Qt@@XZ
?button@QMessageBox@@QEBAPEAVQAbstractButton@@W4StandardButton@1@@Z
?button@QMouseEvent@@QEBA?AW4MouseButton@Qt@@XZ
?button@QMouseEventTransition@@QEBA?AW4MouseButton@Qt@@XZ
?button@QPalette@@QEBAAEBVQBrush@@XZ
?button@QWizard@@QEBAPEAVQAbstractButton@@W4WizardButton@1@@Z
?buttonClicked@QButtonGroup@@IEAAXH@Z
?buttonClicked@QButtonGroup@@IEAAXPEAVQAbstractButton@@@Z
?buttonClicked@QMessageBox@@IEAAXPEAVQAbstractButton@@@Z
?buttonDownPos@QGraphicsSceneMouseEvent@@QEBA?AVQPointF@@W4MouseButton@Qt@@@Z
?buttonDownScenePos@QGraphicsSceneMouseEvent@@QEBA?AVQPointF@@W4MouseButton@Qt@@@Z
?buttonDownScreenPos@QGraphicsSceneMouseEvent@@QEBA?AVQPoint@@W4MouseButton@Qt@@@Z
?buttonPressed@QButtonGroup@@IEAAXH@Z
?buttonPressed@QButtonGroup@@IEAAXPEAVQAbstractButton@@@Z
?buttonReleased@QButtonGroup@@IEAAXH@Z
?buttonReleased@QButtonGroup@@IEAAXPEAVQAbstractButton@@@Z
?buttonRole@QDialogButtonBox@@QEBA?AW4ButtonRole@1@PEAVQAbstractButton@@@Z
?buttonRole@QMessageBox@@QEBA?AW4ButtonRole@1@PEAVQAbstractButton@@@Z
?buttonSymbols@QAbstractSpinBox@@QEBA?AW4ButtonSymbols@1@XZ
?buttonText@QMessageBox@@QEBA?AVQString@@H@Z
?buttonText@QPalette@@QEBAAEBVQBrush@@XZ
?buttonText@QWizard@@QEBA?AVQString@@W4WizardButton@1@@Z
?buttonText@QWizardPage@@QEBA?AVQString@@W4WizardButton@QWizard@@@Z
?buttons@QButtonGroup@@QEBA?AV?$QList@PEAVQAbstractButton@@@@XZ
?buttons@QDialogButtonBox@@QEBA?AV?$QList@PEAVQAbstractButton@@@@XZ
?buttons@QGraphicsSceneDragDropEvent@@QEBA?AV?$QFlags@W4MouseButton@Qt@@@@XZ
?buttons@QGraphicsSceneMouseEvent@@QEBA?AV?$QFlags@W4MouseButton@Qt@@@@XZ
?buttons@QGraphicsSceneWheelEvent@@QEBA?AV?$QFlags@W4MouseButton@Qt@@@@XZ
?buttons@QMessageBox@@QEBA?AV?$QList@PEAVQAbstractButton@@@@XZ
?buttons@QMouseEvent@@QEBA?AV?$QFlags@W4MouseButton@Qt@@@@XZ
?buttons@QWheelEvent@@QEBA?AV?$QFlags@W4MouseButton@Qt@@@@XZ
?byteCount@QImage@@QEBAHXZ
?byteCount@QVolatileImage@@QEBAHXZ
?bytesPerLine@QImage@@QEBAHXZ
?bytesPerLine@QVolatileImage@@QEBAHXZ
?cacheEnabled@QTextLayout@@QEBA_NXZ
?cacheKey@QIcon@@QEBA_JXZ
?cacheKey@QImage@@QEBA_JXZ
?cacheKey@QPalette@@QEBA_JXZ
?cacheKey@QPixmap@@QEBA_JXZ
?cacheKey@QPixmapData@@QEBA_JXZ
?cacheLimit@QPixmapCache@@SAHXZ
?cacheMode@QGraphicsItem@@QEBA?AW4CacheMode@1@XZ
?cacheMode@QGraphicsView@@QEBA?AV?$QFlags@W4CacheModeFlag@QGraphicsView@@@@XZ
?cacheMode@QMovie@@QEAA?AW4CacheMode@1@XZ
?cacheMode@QMovie@@QEBA?AW4CacheMode@1@XZ
?cacheStatistics@QFont@@SAXXZ
?calcEffectiveOpacity@QGraphicsItemPrivate@@QEBANXZ
?calcLogicalIndices@QTreeViewPrivate@@QEBAXPEAV?$QVector@H@@PEAV?$QVector@W4ViewItemPosition@QStyleOptionViewItemV4@@@@HH@Z
?calculateGraphs@QGraphicsAnchorLayoutPrivate@@QEAAXW4Orientation@1@@Z
?calculateGraphs@QGraphicsAnchorLayoutPrivate@@QEAAXXZ
?calculateNonTrunk@QGraphicsAnchorLayoutPrivate@@QEAA_NAEBV?$QList@PEAUQSimplexConstraint@@@@AEBV?$QList@PEAUAnchorData@@@@@Z
?calculateSubPixelPositionCount@QTextureGlyphCache@@IEBAHI@Z
?calculateTabWidth@QTextEngine@@QEBA?AUQFixed@@HU2@@Z
?calculateTrunk@QGraphicsAnchorLayoutPrivate@@QEAA_NW4Orientation@1@AEBVGraphPath@@AEBV?$QList@PEAUQSimplexConstraint@@@@AEBV?$QList@PEAUAnchorData@@@@@Z
?calculateVertexPositions@QGraphicsAnchorLayoutPrivate@@QEAAXW4Orientation@1@@Z
?calendarPopup@QDateTimeEdit@@QEBA_NXZ
?calendarWidget@QDateTimeEdit@@QEBAPEAVQCalendarWidget@@XZ
?canBeNativeDialog@QFileDialogPrivate@@QEAA_NXZ
?canDecode@QAbstractItemViewPrivate@@QEBA_NPEAVQDropEvent@@@Z
?canDrop@QUrlModel@@QEAA_NPEAVQDragEnterEvent@@@Z
?canFetchMore@QAbstractProxyModel@@UEBA_NAEBVQModelIndex@@@Z
?canFetchMore@QFileSystemModel@@UEBA_NAEBVQModelIndex@@@Z
?canFetchMore@QSortFilterProxyModel@@UEBA_NAEBVQModelIndex@@@Z
?canInsertFromMimeData@QPlainTextEdit@@MEBA_NPEBVQMimeData@@@Z
?canInsertFromMimeData@QTextControl@@UEBA_NPEBVQMimeData@@@Z
?canInsertFromMimeData@QTextEdit@@MEBA_NPEBVQMimeData@@@Z
?canPaste@QPlainTextEdit@@QEBA_NXZ
?canPaste@QTextControl@@QEBA_NXZ
?canPaste@QTextEdit@@QEBA_NXZ
?canRead@QImageReader@@QEBA_NXZ
?canReadData@QInternalMimeData@@SA_NAEBVQString@@@Z
?canRedo@QUndoGroup@@QEBA_NXZ
?canRedo@QUndoStack@@QEBA_NXZ
?canRedoChanged@QUndoGroup@@IEAAX_N@Z
?canRedoChanged@QUndoStack@@IEAAX_N@Z
?canUndo@QUndoGroup@@QEBA_NXZ
?canUndo@QUndoStack@@QEBA_NXZ
?canUndoChanged@QUndoGroup@@IEAAX_N@Z
?canUndoChanged@QUndoStack@@IEAAX_N@Z
?canWrite@QImageWriter@@QEBA_NXZ
?cancel@QProgressDialog@@QEAAXXZ
?cancel@QSessionManager@@QEAAXXZ
?cancelButtonText@QInputDialog@@QEBA?AVQString@@XZ
?cancelGesturesForChildren@QGraphicsScenePrivate@@QEAAXPEAVQGesture@@@Z
?cancelPasswordEchoTimer@QLineControl@@AEAAXXZ
?cancelText@QLineControl@@QEBA?AVQString@@XZ
?canceled@QProgressDialog@@IEAAXXZ
?canceledGestures@QGestureEvent@@QEBA?AV?$QList@PEAVQGesture@@@@XZ
?capForJoinMode@QStroker@@KA?AW4PenCapStyle@Qt@@W4LineJoinMode@1@@Z
?capStyle@QPainterPathStroker@@QEBA?AW4PenCapStyle@Qt@@XZ
?capStyle@QPen@@QEBA?AW4PenCapStyle@Qt@@XZ
?capStyle@QStroker@@QEBA?AW4PenCapStyle@Qt@@XZ
?capStyleMode@QStroker@@QEBA?AW4LineJoinMode@1@XZ
?capabilities@QBlittable@@QEBA?AV?$QFlags@W4Capability@QBlittable@@@@XZ
?capitalization@QFont@@QEBA?AW4Capitalization@1@XZ
?cascade@QWorkspace@@QEAAXXZ
?cascadeSubWindows@QMdiArea@@QEAAXXZ
?cascadingSectionResizes@QHeaderView@@QEBA_NXZ
?caseInsensitiveLessThan@QFileSystemModelPrivate@@SA_NAEBVQString@@0@Z
?caseSensitivity@QCompleter@@QEBA?AW4CaseSensitivity@Qt@@XZ
?cast_helper@QAccessibleInterface@@AEAAPEAVQAccessible2Interface@@W4InterfaceType@QAccessible2@@@Z
?cellActivated@QTableWidget@@IEAAXHH@Z
?cellAt@QTextTable@@QEBA?AVQTextTableCell@@AEBVQTextCursor@@@Z
?cellAt@QTextTable@@QEBA?AVQTextTableCell@@H@Z
?cellAt@QTextTable@@QEBA?AVQTextTableCell@@HH@Z
?cellChanged@QTableWidget@@IEAAXHH@Z
?cellClicked@QTableWidget@@IEAAXHH@Z
?cellDoubleClicked@QTableWidget@@IEAAXHH@Z
?cellEntered@QTableWidget@@IEAAXHH@Z
?cellPadding@QTextTableFormat@@QEBANXZ
?cellPressed@QTableWidget@@IEAAXHH@Z
?cellRect@QGridLayout@@QEBA?AVQRect@@HH@Z
?cellSpacing@QTextTableFormat@@QEBANXZ
?cellWidget@QTableWidget@@QEBAPEAVQWidget@@HH@Z
?center@QConicalGradient@@QEBA?AVQPointF@@XZ
?center@QRadialGradient@@QEBA?AVQPointF@@XZ
?centerButtons@QDialogButtonBox@@QEBA_NXZ
?centerCursor@QPlainTextEdit@@QEAAXXZ
?centerOn@QGraphicsView@@QEAAXAEBVQPointF@@@Z
?centerOn@QGraphicsView@@QEAAXNN@Z
?centerOn@QGraphicsView@@QEAAXPEBVQGraphicsItem@@@Z
?centerOnScroll@QPlainTextEdit@@QEBA_NXZ
?centerPoint@QPinchGesture@@QEBA?AVQPointF@@XZ
?centerRadius@QRadialGradient@@QEBANXZ
?centerView@QGraphicsViewPrivate@@QEAAXW4ViewportAnchor@QGraphicsView@@@Z
?centralWidget@QMainWindow@@QEBAPEAVQWidget@@XZ
?centralWidget@QMainWindowLayout@@QEBAPEAVQWidget@@XZ
?changeEvent@QAbstractButton@@MEAAXPEAVQEvent@@@Z
?changeEvent@QAbstractSlider@@MEAAXPEAVQEvent@@@Z
?changeEvent@QAbstractSpinBox@@MEAAXPEAVQEvent@@@Z
?changeEvent@QColorDialog@@MEAAXPEAVQEvent@@@Z
?changeEvent@QComboBox@@MEAAXPEAVQEvent@@@Z
?changeEvent@QComboBoxPrivateContainer@@MEAAXPEAVQEvent@@@Z
?changeEvent@QDialogButtonBox@@MEAAXPEAVQEvent@@@Z
?changeEvent@QDockWidget@@MEAAXPEAVQEvent@@@Z
?changeEvent@QErrorMessage@@MEAAXPEAVQEvent@@@Z
?changeEvent@QFileDialog@@MEAAXPEAVQEvent@@@Z
?changeEvent@QFontDialog@@MEAAXPEAVQEvent@@@Z
?changeEvent@QFrame@@MEAAXPEAVQEvent@@@Z
?changeEvent@QGraphicsWidget@@MEAAXPEAVQEvent@@@Z
?changeEvent@QGroupBox@@MEAAXPEAVQEvent@@@Z
?changeEvent@QLabel@@MEAAXPEAVQEvent@@@Z
?changeEvent@QLineEdit@@MEAAXPEAVQEvent@@@Z
?changeEvent@QMdiSubWindow@@MEAAXPEAVQEvent@@@Z
?changeEvent@QMenu@@MEAAXPEAVQEvent@@@Z
?changeEvent@QMenuBar@@MEAAXPEAVQEvent@@@Z
?changeEvent@QMessageBox@@MEAAXPEAVQEvent@@@Z
?changeEvent@QPlainTextEdit@@MEAAXPEAVQEvent@@@Z
?changeEvent@QProgressDialog@@MEAAXPEAVQEvent@@@Z
?changeEvent@QRubberBand@@MEAAXPEAVQEvent@@@Z
?changeEvent@QSplitter@@MEAAXPEAVQEvent@@@Z
?changeEvent@QTabBar@@MEAAXPEAVQEvent@@@Z
?changeEvent@QTabWidget@@MEAAXPEAVQEvent@@@Z
?changeEvent@QTextEdit@@MEAAXPEAVQEvent@@@Z
?changeEvent@QToolBar@@MEAAXPEAVQEvent@@@Z
?changeEvent@QToolBox@@MEAAXPEAVQEvent@@@Z
?changeEvent@QToolButton@@MEAAXPEAVQEvent@@@Z
?changeEvent@QWidget@@MEAAXPEAVQEvent@@@Z
?changeEvent@QWorkspace@@MEAAXPEAVQEvent@@@Z
?changeFlags@QPinchGesture@@QEBA?AV?$QFlags@W4ChangeFlag@QPinchGesture@@@@XZ
?changeLayoutVertex@QGraphicsAnchorLayoutPrivate@@QEAAXW4Orientation@1@PEAUAnchorVertex@@1@Z
?changeObjectFormat@QTextDocumentPrivate@@QEAAXPEAVQTextObject@@H@Z
?changeOverrideCursor@QApplication@@SAXAEBVQCursor@@@Z
?changeSize@QSpacerItem@@QEAAXHHW4Policy@QSizePolicy@@0@Z
?changed@QAction@@IEAAXXZ
?changed@QClipboard@@IEAAXW4Mode@1@@Z
?changed@QGraphicsScene@@IEAAXAEBV?$QList@VQRectF@@@@@Z
?changed@QUrlModel@@AEAAXAEBVQString@@@Z
?charFormat@QTextBlock@@QEBA?AVQTextCharFormat@@XZ
?charFormat@QTextCursor@@QEBA?AVQTextCharFormat@@XZ
?charFormat@QTextFormatCollection@@QEBA?AVQTextCharFormat@@H@Z
?charFormat@QTextFragment@@QEBA?AVQTextCharFormat@@XZ
?charFormatIndex@QTextBlock@@QEBAHXZ
?charFormatIndex@QTextFragment@@QEBAHXZ
?charWidth@QFontMetrics@@QEBAHAEBVQString@@H@Z
?characterAt@QTextDocument@@QEBA?AVQChar@@H@Z
?characterCount@QTextDocument@@QEBAHXZ
?check@QItemDelegate@@IEBA?AVQRect@@AEBVQStyleOptionViewItem@@AEBV2@AEBVQVariant@@@Z
?checkColumnCreation@QColumnViewPrivate@@QEAAXAEBVQModelIndex@@@Z
?checkConsistency@QSpanCollection@@QEBA_NXZ
?checkForAlphaPixels@QImageData@@QEBA_NXZ
?checkMouseMove@QAbstractItemViewPrivate@@QEAAXAEBVQPersistentModelIndex@@@Z
?checkMouseMove@QAbstractItemViewPrivate@@QEAAXAEBVQPoint@@@Z
?checkOverflow@QLCDNumber@@QEBA_NH@Z
?checkOverflow@QLCDNumber@@QEBA_NN@Z
?checkPersistentEditorFocus@QAbstractItemViewPrivate@@QEAAXXZ
?checkState@QCheckBox@@QEBA?AW4CheckState@Qt@@XZ
?checkState@QListWidgetItem@@QEBA?AW4CheckState@Qt@@XZ
?checkState@QStandardItem@@QEBA?AW4CheckState@Qt@@XZ
?checkState@QTableWidgetItem@@QEBA?AW4CheckState@Qt@@XZ
?checkState@QTreeWidgetItem@@QEBA?AW4CheckState@Qt@@H@Z
?checkStateSet@QAbstractButton@@MEAAXXZ
?checkStateSet@QCheckBox@@MEAAXXZ
?checkedAction@QActionGroup@@QEBAPEAVQAction@@XZ
?checkedButton@QButtonGroup@@QEBAPEAVQAbstractButton@@XZ
?checkedId@QButtonGroup@@QEBAHXZ
?child@QAccessibleEvent@@QEBAHXZ
?child@QStandardItem@@QEBAPEAV1@HH@Z
?child@QTreeWidgetItem@@QEBAPEAV1@H@Z
?child@QUndoCommand@@QEBAPEBV1@H@Z
?childAt@QAccessibleApplication@@UEBAHHH@Z
?childAt@QAccessibleWidget@@UEBAHHH@Z
?childAt@QAccessibleWidgetEx@@UEBAHHH@Z
?childAt@QWidget@@QEBAPEAV1@AEBVQPoint@@@Z
?childAt@QWidget@@QEBAPEAV1@HH@Z
?childAtRecursiveHelper@QWidgetPrivate@@QEBAPEAVQWidget@@AEBVQPoint@@_N1@Z
?childAt_helper@QWidgetPrivate@@QEBAPEAVQWidget@@AEBVQPoint@@_N@Z
?childCount@QAccessibleApplication@@UEBAHXZ
?childCount@QAccessibleWidget@@UEBAHXZ
?childCount@QAccessibleWidgetEx@@UEBAHXZ
?childCount@QTreeWidgetItem@@QEBAHXZ
?childCount@QUndoCommand@@QEBAHXZ
?childEvent@QGroupBox@@MEAAXPEAVQChildEvent@@@Z
?childEvent@QLayout@@MEAAXPEAVQChildEvent@@@Z
?childEvent@QMdiArea@@MEAAXPEAVQChildEvent@@@Z
?childEvent@QMdiSubWindow@@MEAAXPEAVQChildEvent@@@Z
?childEvent@QSplitter@@MEAAXPEAVQChildEvent@@@Z
?childEvent@QToolBar@@MEAAXPEAVQChildEvent@@@Z
?childEvent@QWorkspace@@MEAAXPEAVQChildEvent@@@Z
?childFrames@QTextFrame@@QEBA?AV?$QList@PEAVQTextFrame@@@@XZ
?childIndicatorPolicy@QTreeWidgetItem@@QEBA?AW4ChildIndicatorPolicy@1@XZ
?childItems@QGraphicsItem@@QEBA?AV?$QList@PEAVQGraphicsItem@@@@XZ
?children@QGraphicsItem@@QEBA?AV?$QList@PEAVQGraphicsItem@@@@XZ
?childrenBoundingRect@QGraphicsItem@@QEBA?AVQRectF@@XZ
?childrenBoundingRectHelper@QGraphicsItemPrivate@@QEAAXPEAVQTransform@@PEAVQRectF@@PEAVQGraphicsItem@@@Z
?childrenChanged@QGraphicsObject@@IEAAXXZ
?childrenCheckState@QTreeWidgetItem@@AEBA?AVQVariant@@H@Z
?childrenClippedToShape@QGraphicsItemPrivate@@QEBA_NXZ
?childrenCollapsible@QSplitter@@QEBA_NXZ
?childrenCombineOpacity@QGraphicsItemPrivate@@QEBA_NXZ
?childrenList@QGraphicsItemPrivate@@QEAA?AV?$QDeclarativeListProperty@VQGraphicsObject@@@@XZ
?childrenRect@QWidget@@QEBA?AVQRect@@XZ
?childrenRegion@QWidget@@QEBA?AVQRegion@@XZ
?children_append@QGraphicsItemPrivate@@SAXPEAV?$QDeclarativeListProperty@VQGraphicsObject@@@@PEAVQGraphicsObject@@@Z
?children_at@QGraphicsItemPrivate@@SAPEAVQGraphicsObject@@PEAV?$QDeclarativeListProperty@VQGraphicsObject@@@@H@Z
?children_clear@QGraphicsItemPrivate@@SAXPEAV?$QDeclarativeListProperty@VQGraphicsObject@@@@@Z
?children_count@QGraphicsItemPrivate@@SAHPEAV?$QDeclarativeListProperty@VQGraphicsObject@@@@@Z
?classId@QPixmapData@@QEBA?AW4ClassId@1@XZ
?cleanChanged@QUndoGroup@@IEAAX_N@Z
?cleanChanged@QUndoStack@@IEAAX_N@Z
?cleanIcon@QUndoView@@QEBA?AVQIcon@@XZ
?cleanIndex@QUndoStack@@QEBAHXZ
?cleanSpanSubIndex@QSpanCollection@@AEAA_NAEAV?$QMap@HPEAUSpan@QSpanCollection@@@@H_N@Z
?cleanText@QDoubleSpinBox@@QEBA?AVQString@@XZ
?cleanText@QSpinBox@@QEBA?AVQString@@XZ
?cleanUp@QBrush@@AEAAXPEAUQBrushData@@@Z
?cleanUp@QRawFontPrivate@@QEAAXXZ
?cleanUp@QRegion@@CAXPEAUQRegionData@1@@Z
?cleanup@QAccessible@@SAXXZ
?cleanup@QColormap@@SAXXZ
?cleanup@QFont@@SAXXZ
?cleanupHash@QSoftKeyManager@@AEAAXPEAVQObject@@@Z
?cleanupMultitouch@QApplicationPrivate@@QEAAXXZ
?cleanupMultitouch_sys@QApplicationPrivate@@QEAAXXZ
?cleanupPage@QWizard@@MEAAXH@Z
?cleanupPage@QWizardPage@@UEAAXXZ
?clear@?$QList@VQItemSelectionRange@@@@QEAAXXZ
?clear@QAbstractSpinBox@@UEAAXXZ
?clear@QBitmap@@QEAAXXZ
?clear@QClipboard@@QEAAXW4Mode@1@@Z
?clear@QComboBox@@QEAAXXZ
?clear@QDateTimeEdit@@UEAAXXZ
?clear@QDialogButtonBox@@QEAAXXZ
?clear@QDockAreaLayout@@QEAAXXZ
?clear@QDockAreaLayoutInfo@@QEAAXXZ
?clear@QFileInfoGatherer@@QEAAXXZ
?clear@QGlyphRun@@QEAAXXZ
?clear@QGraphicsItemAnimation@@QEAAXXZ
?clear@QGraphicsScene@@QEAAXXZ
?clear@QGraphicsSceneBspTreeIndex@@MEAAXXZ
?clear@QGraphicsSceneIndex@@MEAAXXZ
?clear@QGraphicsSceneLinearIndex@@MEAAXXZ
?clear@QItemSelectionModel@@UEAAXXZ
?clear@QLabel@@QEAAXXZ
?clear@QLineControl@@QEAAXXZ
?clear@QLineEdit@@QEAAXXZ
?clear@QListModel@@QEAAXXZ
?clear@QListWidget@@QEAAXXZ
?clear@QMenu@@QEAAXXZ
?clear@QMenuBar@@QEAAXXZ
?clear@QPixmapCache@@SAXXZ
?clear@QPlainTextEdit@@QEAAXXZ
?clear@QSortFilterProxyModel@@QEAAXXZ
?clear@QSpanCollection@@QEAAXXZ
?clear@QStandardItemModel@@QEAAXXZ
?clear@QTabWidget@@QEAAXXZ
?clear@QTableWidget@@QEAAXXZ
?clear@QTextControl@@QEAAXXZ
?clear@QTextDocument@@UEAAXXZ
?clear@QTextDocumentPrivate@@QEAAXXZ
?clear@QTextEdit@@QEAAXXZ
?clear@QToolBar@@QEAAXXZ
?clear@QTreeWidget@@QEAAXXZ
?clear@QUndoStack@@QEAAXXZ
?clearAdditionalFormats@QTextLayout@@QEAAXXZ
?clearBackground@QTextFormat@@QEAAXXZ
?clearColumnWidthConstraints@QTextTableFormat@@QEAAXXZ
?clearContents@QTableWidget@@QEAAXXZ
?clearDirty@QPaintEngine@@QEAAXV?$QFlags@W4DirtyFlag@QPaintEngine@@@@@Z
?clearEditText@QComboBox@@QEAAXXZ
?clearFocus@QGraphicsItem@@QEAAXXZ
?clearFocus@QGraphicsScene@@QEAAXXZ
?clearFocus@QWidget@@QEAAXXZ
?clearFocusHelper@QGraphicsItemPrivate@@QEAAX_N@Z
?clearForeground@QTextFormat@@QEAAXXZ
?clearFrame@QTextDocumentPrivate@@CAXPEAVQTextFrame@@@Z
?clearHistory@QTextBrowser@@QEAAXXZ
?clearKeyboardGrabber@QGraphicsScenePrivate@@QEAAXXZ
?clearLayout@QTextBlock@@QEAAXXZ
?clearLayout@QTextLayout@@QEAAXXZ
?clearLineData@QTextEngine@@QEAAXXZ
?clearMapping@QDataWidgetMapper@@QEAAXXZ
?clearMask@QWidget@@QEAAXXZ
?clearMaximumDate@QDateTimeEdit@@QEAAXXZ
?clearMaximumDateTime@QDateTimeEdit@@QEAAXXZ
?clearMaximumTime@QDateTimeEdit@@QEAAXXZ
?clearMessage@QSplashScreen@@QEAAXXZ
?clearMessage@QStatusBar@@QEAAXXZ
?clearMinimumDate@QDateTimeEdit@@QEAAXXZ
?clearMinimumDateTime@QDateTimeEdit@@QEAAXXZ
?clearMinimumTime@QDateTimeEdit@@QEAAXXZ
?clearMouseGrabber@QGraphicsScenePrivate@@QEAAXXZ
?clearOrRemove@QAbstractItemViewPrivate@@QEAAXXZ
?clearProperty@QTextFormat@@QEAAXH@Z
?clearPropertyFlags@QListView@@QEAAXXZ
?clearSelection@QAbstractItemView@@QEAAXXZ
?clearSelection@QGraphicsScene@@QEAAXXZ
?clearSelection@QItemSelectionModel@@QEAAXXZ
?clearSelection@QTextCursor@@QEAAXXZ
?clearSpans@QTableView@@QEAAXXZ
?clearString@QLineControl@@AEBA?AVQString@@II@Z
?clearSubFocus@QGraphicsItemPrivate@@QEAAXPEAVQGraphicsItem@@0@Z
?clearUndo@QLineControl@@QEAAXXZ
?clearUndoRedoStacks@QTextDocument@@QEAAXW4Stacks@1@@Z
?clearUndoRedoStacks@QTextDocumentPrivate@@QEAAXW4Stacks@QTextDocument@@_N@Z
?clearWidgetFont@QStyleSheetStyle@@QEBAXPEAVQWidget@@@Z
?click@QAbstractButton@@QEAAXXZ
?clicked@QAbstractButton@@IEAAX_N@Z
?clicked@QAbstractItemView@@IEAAXAEBVQModelIndex@@@Z
?clicked@QCalendarWidget@@IEAAXAEBVQDate@@@Z
?clicked@QDialogButtonBox@@IEAAXPEAVQAbstractButton@@@Z
?clicked@QGroupBox@@IEAAX_N@Z
?clicked@QSidebar@@AEAAXAEBVQModelIndex@@@Z
?clickedButton@QMessageBox@@QEBAPEAVQAbstractButton@@XZ
?clip@QPaintEngineEx@@UEAAXAEBVQPainterPath@@W4ClipOperation@Qt@@@Z
?clip@QPaintEngineEx@@UEAAXAEBVQRect@@W4ClipOperation@Qt@@@Z
?clip@QPaintEngineEx@@UEAAXAEBVQRegion@@W4ClipOperation@Qt@@@Z
?clip@QPathClipper@@QEAA?AVQPainterPath@@W4Operation@1@@Z
?clipBoundingRect@QPainter@@QEBA?AVQRectF@@XZ
?clipEnabledChanged@QBlitterPaintEngine@@UEAAXXZ
?clipOperation@QPaintEngineState@@QEBA?AW4ClipOperation@Qt@@XZ
?clipPath@QGraphicsItem@@QEBA?AVQPainterPath@@XZ
?clipPath@QPaintEngineState@@QEBA?AVQPainterPath@@XZ
?clipPath@QPainter@@QEBA?AVQPainterPath@@XZ
?clipRect@QImageReader@@QEBA?AVQRect@@XZ
?clipRect@QStrokerOps@@QEBA?AVQRectF@@XZ
?clipRect@QWidgetPrivate@@QEBA?AVQRect@@XZ
?clipRegion@QPaintEngineState@@QEBA?AVQRegion@@XZ
?clipRegion@QPainter@@QEBA?AVQRegion@@XZ
?clipRegion@QWidgetPrivate@@QEBA?AVQRegion@@XZ
?clipToEffectiveMask@QWidgetPrivate@@QEBAXAEAVQRegion@@@Z
?clipboard@QApplication@@SAPEAVQClipboard@@XZ
?clone@QIconEngineV2@@UEBAPEAV1@XZ
?clone@QListWidgetItem@@UEBAPEAV1@XZ
?clone@QStandardItem@@UEBAPEAV1@XZ
?clone@QTableWidgetItem@@UEBAPEAV1@XZ
?clone@QTextDocument@@QEBAPEAV1@PEAVQObject@@@Z
?clone@QTreeWidgetItem@@UEBAPEAV1@XZ
?cloneDragDropEvent@QGraphicsScenePrivate@@QEAAXPEAVQGraphicsSceneDragDropEvent@@0@Z
?cloneWithSize@QFontEngine@@UEBAPEAV1@N@Z
?close@QGraphicsWidget@@QEAA_NXZ
?close@QWidget@@QEAA_NXZ
?close@QZipReader@@QEAAXXZ
?close@QZipWriter@@QEAAXXZ
?closeActiveSubWindow@QMdiArea@@QEAAXXZ
?closeActiveWindow@QWorkspace@@QEAAXXZ
?closeAllSubWindows@QMdiArea@@QEAAXXZ
?closeAllWindows@QApplication@@SAXXZ
?closeAllWindows@QWorkspace@@QEAAXXZ
?closeColumns@QColumnViewPrivate@@QEAAXAEBVQModelIndex@@_N@Z
?closeEditor@QAbstractItemDelegate@@IEAAXPEAVQWidget@@W4EndEditHint@1@@Z
?closeEditor@QAbstractItemView@@MEAAXPEAVQWidget@@W4EndEditHint@QAbstractItemDelegate@@@Z
?closeEvent@QAbstractSpinBox@@MEAAXPEAVQCloseEvent@@@Z
?closeEvent@QBalloonTip@@MEAAXPEAVQCloseEvent@@@Z
?closeEvent@QDialog@@MEAAXPEAVQCloseEvent@@@Z
?closeEvent@QDockWidget@@MEAAXPEAVQCloseEvent@@@Z
?closeEvent@QGraphicsWidget@@MEAAXPEAVQCloseEvent@@@Z
?closeEvent@QMdiSubWindow@@MEAAXPEAVQCloseEvent@@@Z
?closeEvent@QMessageBox@@MEAAXPEAVQCloseEvent@@@Z
?closeEvent@QProgressDialog@@MEAAXPEAVQCloseEvent@@@Z
?closeEvent@QWidget@@MEAAXPEAVQCloseEvent@@@Z
?closePersistentEditor@QAbstractItemView@@QEAAXAEBVQModelIndex@@@Z
?closePersistentEditor@QListWidget@@QEAAXPEAVQListWidgetItem@@@Z
?closePersistentEditor@QTableWidget@@QEAAXPEAVQTableWidgetItem@@@Z
?closePersistentEditor@QTreeWidget@@QEAAXPEAVQTreeWidgetItem@@H@Z
?closePopup@QApplicationPrivate@@QEAAXPEAVQWidget@@@Z
?closeSubpath@QPainterPath@@QEAAXXZ
?close_helper@QWidgetPrivate@@QEAA_NW4CloseMode@1@@Z
?closestAcceptableSize@QLayout@@SA?AVQSize@@PEBVQWidget@@AEBV2@@Z
?closestLegalPosition@QSplitter@@IEAAHHH@Z
?closestLegalPosition@QSplitterHandle@@IEAAHH@Z
?codec@QTextDocumentWriter@@QEBAPEAVQTextCodec@@XZ
?codecForHtml@Qt@@YAPEAVQTextCodec@@AEBVQByteArray@@@Z
?coefficients@QBezier@@SAXNAEAN000@Z
?collapse@QTreeView@@QEAAXAEBVQModelIndex@@@Z
?collapse@QTreeViewPrivate@@QEAAXH_N@Z
?collapseAll@QTreeView@@QEAAXXZ
?collapseItem@QTreeWidget@@QEAAXPEBVQTreeWidgetItem@@@Z
?collapsed@QTreeView@@IEAAXAEBVQModelIndex@@@Z
?collateCopies@QPrinter@@QEBA_NXZ
?collidesWithItem@QGraphicsItem@@UEBA_NPEBV1@W4ItemSelectionMode@Qt@@@Z
?collidesWithPath@QGraphicsItem@@UEBA_NAEBVQPainterPath@@W4ItemSelectionMode@Qt@@@Z
?collidingItems@QGraphicsItem@@QEBA?AV?$QList@PEAVQGraphicsItem@@@@W4ItemSelectionMode@Qt@@@Z
?collidingItems@QGraphicsScene@@QEBA?AV?$QList@PEAVQGraphicsItem@@@@PEBVQGraphicsItem@@W4ItemSelectionMode@Qt@@@Z
?color@QBrush@@QEBAAEBVQColor@@XZ
?color@QColorDialog@@AEBA?AVQColor@@XZ
?color@QGraphicsColorizeEffect@@QEBA?AVQColor@@XZ
?color@QGraphicsDropShadowEffect@@QEBA?AVQColor@@XZ
?color@QImage@@QEBAIH@Z
?color@QPalette@@QEBAAEBVQColor@@W4ColorGroup@1@W4ColorRole@1@@Z
?color@QPalette@@QEBAAEBVQColor@@W4ColorRole@1@@Z
?color@QPen@@QEBA?AVQColor@@XZ
?color@QPixmapColorizeFilter@@QEBA?AVQColor@@XZ
?color@QPixmapDropShadowFilter@@QEBA?AVQColor@@XZ
?colorAt@QColormap@@QEBA?BVQColor@@I@Z
?colorChanged@QGraphicsColorizeEffect@@IEAAXAEBVQColor@@@Z
?colorChanged@QGraphicsDropShadowEffect@@IEAAXAEBVQColor@@@Z
?colorCount@QImage@@QEBAHXZ
?colorCount@QPaintDevice@@QEBAHXZ
?colorCount@QPixmapData@@QEBAHXZ
?colorDialogDelete@QGuiPlatformPlugin@@UEAAXPEAVQColorDialog@@@Z
?colorDialogSetCurrentColor@QGuiPlatformPlugin@@UEAAXPEAVQColorDialog@@AEBVQColor@@@Z
?colorDialogSetVisible@QGuiPlatformPlugin@@UEAA_NPEAVQColorDialog@@_N@Z
?colorMode@QPrinter@@QEBA?AW4ColorMode@1@XZ
?colorNames@QColor@@SA?AVQStringList@@XZ
?colorProperty@QTextFormat@@QEBA?AVQColor@@H@Z
?colorSelected@QColorDialog@@IEAAXAEBVQColor@@@Z
?colorSpec@QApplication@@SAHXZ
?colorTable@QImage@@QEBA?AV?$QVector@I@@XZ
?colorValue@Declaration@QCss@@QEBA?AVQColor@@AEBVQPalette@@@Z
?colorValues@Declaration@QCss@@QEBAXPEAVQColor@@AEBVQPalette@@@Z
?colormap@QColormap@@QEBA?BV?$QVector@VQColor@@@@XZ
?column@QMatrix4x4@@QEBA?AVQVector4D@@H@Z
?column@QStandardItem@@QEBAHXZ
?column@QTableWidget@@QEBAHPEBVQTableWidgetItem@@@Z
?column@QTableWidgetItem@@QEBAHXZ
?column@QTextTableCell@@QEBAHXZ
?columnAlignment@QGraphicsGridLayout@@QEBA?AV?$QFlags@W4AlignmentFlag@Qt@@@@H@Z
?columnAt@QTableView@@QEBAHH@Z
?columnAt@QTreeView@@QEBAHH@Z
?columnAt@QTreeViewPrivate@@QEBAHH@Z
?columnCount@QDirModel@@UEBAHAEBVQModelIndex@@@Z
?columnCount@QFileSystemModel@@UEBAHAEBVQModelIndex@@@Z
?columnCount@QGraphicsGridLayout@@QEBAHXZ
?columnCount@QGridLayout@@QEBAHXZ
?columnCount@QIdentityProxyModel@@UEBAHAEBVQModelIndex@@@Z
?columnCount@QMenu@@IEBAHXZ
?columnCount@QProxyModel@@UEBAHAEBVQModelIndex@@@Z
?columnCount@QSortFilterProxyModel@@UEBAHAEBVQModelIndex@@@Z
?columnCount@QStandardItem@@QEBAHXZ
?columnCount@QStandardItemModel@@UEBAHAEBVQModelIndex@@@Z
?columnCount@QTableWidget@@QEBAHXZ
?columnCount@QTableWidgetSelectionRange@@QEBAHXZ
?columnCount@QTreeWidget@@QEBAHXZ
?columnCount@QTreeWidgetItem@@QEBAHXZ
?columnCountChanged@QTableView@@IEAAXHH@Z
?columnCountChanged@QTreeView@@IEAAXHH@Z
?columnIntersectsSelection@QItemSelectionModel@@QEBA_NHAEBVQModelIndex@@@Z
?columnMaximumWidth@QGraphicsGridLayout@@QEBANH@Z
?columnMinimumWidth@QGraphicsGridLayout@@QEBANH@Z
?columnMinimumWidth@QGridLayout@@QEBAHH@Z
?columnMoved@QTableView@@IEAAXHHH@Z
?columnMoved@QTreeView@@IEAAXXZ
?columnNumber@QTextCursor@@QEBAHXZ
?columnPreferredWidth@QGraphicsGridLayout@@QEBANH@Z
?columnRanges@QTreeViewPrivate@@QEBA?AV?$QList@U?$QPair@HH@@@@AEBVQModelIndex@@0@Z
?columnResized@QTableView@@IEAAXHHH@Z
?columnResized@QTreeView@@IEAAXHHH@Z
?columnSpacing@QGraphicsGridLayout@@QEBANH@Z
?columnSpan@QTableView@@QEBAHHH@Z
?columnSpan@QTextTableCell@@QEBAHXZ
?columnStretch@QGridLayout@@QEBAHH@Z
?columnStretchFactor@QGraphicsGridLayout@@QEBAHH@Z
?columnViewportPosition@QTableView@@QEBAHH@Z
?columnViewportPosition@QTreeView@@QEBAHH@Z
?columnWidth@QTableView@@QEBAHH@Z
?columnWidth@QTreeView@@QEBAHH@Z
?columnWidthConstraints@QTextTableFormat@@QEBA?AV?$QVector@VQTextLength@@@@XZ
?columnWidths@QColumnView@@QEBA?AV?$QList@H@@XZ
?columns@QPixmapConvolutionFilter@@AEBAHXZ
?columns@QTextTable@@QEBAHXZ
?columns@QTextTableFormat@@QEBAHXZ
?combineOpacityFromParent@QGraphicsItemPrivate@@QEBANN@Z
?combineTransformFromParent@QGraphicsItemPrivate@@QEBAXPEAVQTransform@@PEBV2@@Z
?combineTransformToParent@QGraphicsItemPrivate@@QEBAXPEAVQTransform@@PEBV2@@Z
?combinedLayoutSpacing@QStyle@@QEBAHV?$QFlags@W4ControlType@QSizePolicy@@@@0W4Orientation@Qt@@PEAVQStyleOption@@PEAVQWidget@@@Z
?combinedMatrix@QPainter@@QEBA?AVQMatrix@@XZ
?combinedTransform@QPainter@@QEBA?AVQTransform@@XZ
?comboBoxItems@QInputDialog@@QEBA?AVQStringList@@XZ
?comboStyleOption@QComboBoxPrivateContainer@@IEBA?AVQStyleOptionComboBox@@XZ
?command@QUndoStack@@QEBAPEBVQUndoCommand@@H@Z
?commandDescription@QPaintBuffer@@QEBA?AVQString@@H@Z
?commitData@QAbstractItemDelegate@@IEAAXPEAVQWidget@@@Z
?commitData@QAbstractItemView@@MEAAXPEAVQWidget@@@Z
?commitData@QApplication@@UEAAXAEAVQSessionManager@@@Z
?commitDataRequest@QApplication@@IEAAXAEAVQSessionManager@@@Z
?commitString@QInputMethodEvent@@QEBAAEBVQString@@XZ
?commonAncestorItem@QGraphicsItem@@QEBAPEAV1@PEBV1@@Z
?complete@QCompleter@@QEAAXAEBVQRect@@@Z
?complete@QLineControl@@QEAAXH@Z
?completeChanged@QWizardPage@@IEAAXXZ
?completer@QComboBox@@QEBAPEAVQCompleter@@XZ
?completer@QLineControl@@QEBAPEAVQCompleter@@XZ
?completer@QLineEdit@@QEBAPEAVQCompleter@@XZ
?completionColumn@QCompleter@@QEBAHXZ
?completionCount@QCompleter@@QEBAHXZ
?completionMode@QCompleter@@QEBA?AW4CompletionMode@1@XZ
?completionModel@QCompleter@@QEBAPEAVQAbstractItemModel@@XZ
?completionPrefix@QCompleter@@QEBA?AVQString@@XZ
?completionRole@QCompleter@@QEBAHXZ
?composeMode@QLineControl@@QEBA_NXZ
?compositionMode@QPaintEngineState@@QEBA?AW4CompositionMode@QPainter@@XZ
?compositionMode@QPainter@@QEBA?AW4CompositionMode@1@XZ
?compositionModeChanged@QBlitterPaintEngine@@UEAAXXZ
?compressEvent@QApplication@@MEAA_NPEAVQEvent@@PEAVQObject@@PEAVQPostEventList@@@Z
?compressPieceTable@QTextDocumentPrivate@@AEAAXXZ
?compression@QImageWriter@@QEBAHXZ
?compressionPolicy@QZipWriter@@QEBA?AW4CompressionPolicy@1@XZ
?computeBoundingRect@QPainterPath@@AEBAXXZ
?computeControlPointRect@QPainterPath@@AEBAXXZ
?computeWidthHint@QComboBoxPrivate@@QEBAHXZ
?confirmOverwrite@QFileDialog@@QEBA_NXZ
?conjugate@QQuaternion@@QEBA?AV1@XZ
?connectNotify@QClipboard@@MEAAXPEBD@Z
?connectPath@QPainterPath@@QEAAXAEBV1@@Z
?connectToModel@QProxyModel@@IEBAXPEBVQAbstractItemModel@@@Z
?constBegin@?$QList@VQItemSelectionRange@@@@QEBA?AVconst_iterator@1@XZ
?constBits@QImage@@QEBAPEBEXZ
?constBits@QVolatileImage@@QEBAPEBEXZ
?constData@QMatrix4x4@@QEBAPEBNXZ
?constEnd@?$QList@VQItemSelectionRange@@@@QEBA?AVconst_iterator@1@XZ
?constImageRef@QVolatileImage@@QEBAAEBVQImage@@XZ
?constScanLine@QImage@@QEBAPEBEH@Z
?constraintsFromPaths@QGraphicsAnchorLayoutPrivate@@QEAAXW4Orientation@1@@Z
?constraintsFromSizeHints@QGraphicsAnchorLayoutPrivate@@QEAA?AV?$QList@PEAUQSimplexConstraint@@@@AEBV?$QList@PEAUAnchorData@@@@@Z
?construct@QApplicationPrivate@@QEAAXXZ
?contains@?$QList@VQItemSelectionRange@@@@QEBA?AVQBool@@AEBVQItemSelectionRange@@@Z
?contains@QGraphicsEllipseItem@@UEBA_NAEBVQPointF@@@Z
?contains@QGraphicsItem@@UEBA_NAEBVQPointF@@@Z
?contains@QGraphicsLineItem@@UEBA_NAEBVQPointF@@@Z
?contains@QGraphicsPathItem@@UEBA_NAEBVQPointF@@@Z
?contains@QGraphicsPixmapItem@@UEBA_NAEBVQPointF@@@Z
?contains@QGraphicsPolygonItem@@UEBA_NAEBVQPointF@@@Z
?contains@QGraphicsRectItem@@UEBA_NAEBVQPointF@@@Z
?contains@QGraphicsSimpleTextItem@@UEBA_NAEBVQPointF@@@Z
?contains@QGraphicsTextItem@@UEBA_NAEBVQPointF@@@Z
?contains@QItemSelection@@QEBA_NAEBVQModelIndex@@@Z
?contains@QItemSelectionRange@@QEBA_NAEBVQModelIndex@@@Z
?contains@QItemSelectionRange@@QEBA_NHHAEBVQModelIndex@@@Z
?contains@QPainterPath@@QEBA_NAEBV1@@Z
?contains@QPainterPath@@QEBA_NAEBVQPointF@@@Z
?contains@QPainterPath@@QEBA_NAEBVQRectF@@@Z
?contains@QPathClipper@@QEAA_NXZ
?contains@QRegion@@QEBA_NAEBVQPoint@@@Z
?contains@QRegion@@QEBA_NAEBVQRect@@@Z
?contains@QTextBlock@@QEBA_NH@Z
?contains@QTextFragment@@QEBA_NH@Z
?containsPoint@QPolygon@@QEBA_NAEBVQPoint@@W4FillRule@Qt@@@Z
?containsPoint@QPolygonF@@QEBA_NAEBVQPointF@@W4FillRule@Qt@@@Z
?contentHasAlignment@QTextDocumentLayout@@QEBA_NXZ
?contentOffset@QPlainTextEdit@@IEBA?AVQPointF@@XZ
?contentsChange@QTextDocument@@IEAAXHHH@Z
?contentsChanged@QTextDocument@@IEAAXXZ
?contentsChanged@QTextDocumentPrivate@@AEAAXXZ
?contentsMargins@QLayout@@QEBA?AVQMargins@@XZ
?contentsMargins@QWidget@@QEBA?AVQMargins@@XZ
?contentsOffset@QAbstractItemViewPrivate@@UEBA?AVQPoint@@XZ
?contentsOffset@QAbstractScrollAreaPrivate@@UEBA?AVQPoint@@XZ
?contentsRect@QGraphicsLayoutItem@@QEBA?AVQRectF@@XZ
?contentsRect@QLayout@@QEBA?AVQRect@@XZ
?contentsRect@QWidget@@QEBA?AVQRect@@XZ
?contentsSize@QListView@@IEBA?AVQSize@@XZ
?context@QShortcut@@QEAA?AW4ShortcutContext@Qt@@XZ
?contextMenu@QSystemTrayIcon@@QEBAPEAVQMenu@@XZ
?contextMenuEvent@QAbstractScrollArea@@MEAAXPEAVQContextMenuEvent@@@Z
?contextMenuEvent@QAbstractSpinBox@@MEAAXPEAVQContextMenuEvent@@@Z
?contextMenuEvent@QComboBox@@MEAAXPEAVQContextMenuEvent@@@Z
?contextMenuEvent@QDialog@@MEAAXPEAVQContextMenuEvent@@@Z
?contextMenuEvent@QGraphicsItem@@MEAAXPEAVQGraphicsSceneContextMenuEvent@@@Z
?contextMenuEvent@QGraphicsProxyWidget@@MEAAXPEAVQGraphicsSceneContextMenuEvent@@@Z
?contextMenuEvent@QGraphicsScene@@MEAAXPEAVQGraphicsSceneContextMenuEvent@@@Z
?contextMenuEvent@QGraphicsTextItem@@MEAAXPEAVQGraphicsSceneContextMenuEvent@@@Z
?contextMenuEvent@QGraphicsView@@MEAAXPEAVQContextMenuEvent@@@Z
?contextMenuEvent@QLabel@@MEAAXPEAVQContextMenuEvent@@@Z
?contextMenuEvent@QLineEdit@@MEAAXPEAVQContextMenuEvent@@@Z
?contextMenuEvent@QMainWindow@@MEAAXPEAVQContextMenuEvent@@@Z
?contextMenuEvent@QMdiSubWindow@@MEAAXPEAVQContextMenuEvent@@@Z
?contextMenuEvent@QPlainTextEdit@@MEAAXPEAVQContextMenuEvent@@@Z
?contextMenuEvent@QScrollBar@@MEAAXPEAVQContextMenuEvent@@@Z
?contextMenuEvent@QTextEdit@@MEAAXPEAVQContextMenuEvent@@@Z
?contextMenuEvent@QWidget@@MEAAXPEAVQContextMenuEvent@@@Z
?contextMenuPolicy@QWidget@@QEBA?AW4ContextMenuPolicy@Qt@@XZ
?contiguousSelectionCommand@QAbstractItemViewPrivate@@QEBA?AV?$QFlags@W4SelectionFlag@QItemSelectionModel@@@@AEBVQModelIndex@@PEBVQEvent@@@Z
?controlPointRect@QPainterPath@@QEBA?AVQRectF@@XZ
?controlPointRect@QVectorPath@@QEBA?AVQRectF@@XZ
?controlType@QSizePolicy@@QEBA?AW4ControlType@1@XZ
?controlTypes@QLayoutItem@@QEBA?AV?$QFlags@W4ControlType@QSizePolicy@@@@XZ
?convertFromImage@QPixmap@@QEAA_NAEBVQImage@@V?$QFlags@W4ImageConversionFlag@Qt@@@@@Z
?convertFromPlainText@Qt@@YA?AVQString@@AEBV2@W4WhiteSpaceMode@1@@Z
?convertInPlace@QImageData@@QEAA_NW4Format@QImage@@V?$QFlags@W4ImageConversionFlag@Qt@@@@@Z
?convertTo@QColor@@QEBA?AV1@W4Spec@1@@Z
?convertToFormat@QImage@@QEBA?AV1@W4Format@1@AEBV?$QVector@I@@V?$QFlags@W4ImageConversionFlag@Qt@@@@@Z
?convertToFormat@QImage@@QEBA?AV1@W4Format@1@V?$QFlags@W4ImageConversionFlag@Qt@@@@@Z
?convertToPainterPath@QVectorPath@@QEBA?BVQPainterPath@@XZ
?convertToPostscriptFontFamilyName@QFontEngine@@SA?AVQByteArray@@AEBV2@@Z
?converterFromMime@QWindowsMime@@CAPEAV1@AEBUtagFORMATETC@@PEBVQMimeData@@@Z
?converterToMime@QWindowsMime@@CAPEAV1@AEBVQString@@PEAUIDataObject@@@Z
?convolutionKernel@QPixmapConvolutionFilter@@AEBAPEBNXZ
?coordinateForItem@QTreeViewPrivate@@QEBAHH@Z
?coordinateMode@QGradient@@QEBA?AW4CoordinateMode@1@XZ
?coordinateOffset@QPaintEngine@@UEBA?AVQPoint@@XZ
?copy@QImage@@QEBA?AV1@AEBVQRect@@@Z
?copy@QImage@@QEBA?AV1@HHHH@Z
?copy@QLineControl@@QEBAXW4Mode@QClipboard@@@Z
?copy@QLineEdit@@QEBAXXZ
?copy@QPixmap@@QEBA?AV1@AEBVQRect@@@Z
?copy@QPixmap@@QEBA?AV1@HHHH@Z
?copy@QPixmapData@@UEAAXPEBV1@AEBVQRect@@@Z
?copy@QPlainTextEdit@@QEAAXXZ
?copy@QRasterPixmapData@@UEAAXPEBVQPixmapData@@AEBVQRect@@@Z
?copy@QRegion@@AEBA?AV1@XZ
?copy@QRuntimePixmapData@@UEAAXPEBVQPixmapData@@AEBVQRect@@@Z
?copy@QTextControl@@QEAAXXZ
?copy@QTextEdit@@QEAAXXZ
?copyAvailable@QPlainTextEdit@@IEAAX_N@Z
?copyAvailable@QTextControl@@IEAAX_N@Z
?copyAvailable@QTextEdit@@IEAAX_N@Z
?copyCount@QPrinter@@QEBAHXZ
?copyDataTo@QMatrix4x4@@QEBAXPEAN@Z
?copyFrom@QVolatileImage@@QEAAXPEAV1@AEBVQRect@@@Z
?copyText@QAccessibleSimpleEditableTextInterface@@UEAAXHH@Z
?corner@QMainWindow@@QEBA?AW4DockWidgetArea@Qt@@W4Corner@3@@Z
?corner@QMainWindowLayout@@QEBA?AW4DockWidgetArea@Qt@@W4Corner@3@@Z
?cornerWidget@QAbstractScrollArea@@QEBAPEAVQWidget@@XZ
?cornerWidget@QMenuBar@@QEBAPEAVQWidget@@W4Corner@Qt@@@Z
?cornerWidget@QTabWidget@@QEBAPEAVQWidget@@W4Corner@Qt@@@Z
?correctEdgeDirection@QGraphicsAnchorLayoutPrivate@@QEAAXAEAPEAVQGraphicsLayoutItem@@AEAW4AnchorPoint@Qt@@01@Z
?correctionMode@QAbstractSpinBox@@QEBA?AW4CorrectionMode@1@XZ
?count@?$QList@VQItemSelectionRange@@@@QEBAHAEBVQItemSelectionRange@@@Z
?count@?$QList@VQItemSelectionRange@@@@QEBAHXZ
?count@QBoxLayout@@UEBAHXZ
?count@QComboBox@@QEBAHXZ
?count@QDockWidgetLayout@@UEBAHXZ
?count@QFormLayout@@UEBAHXZ
?count@QGraphicsAnchorLayout@@UEBAHXZ
?count@QGraphicsGridLayout@@UEBAHXZ
?count@QGraphicsLinearLayout@@UEBAHXZ
?count@QGridLayout@@UEBAHXZ
?count@QHeaderView@@QEBAHXZ
?count@QKeyEvent@@QEBAHXZ
?count@QKeySequence@@QEBAIXZ
?count@QListWidget@@QEBAHXZ
?count@QMainWindowLayout@@UEBAHXZ
?count@QSplitter@@QEBAHXZ
?count@QStackedLayout@@UEBAHXZ
?count@QStackedWidget@@QEBAHXZ
?count@QTabBar@@QEBAHXZ
?count@QTabWidget@@QEBAHXZ
?count@QTextList@@QEBAHXZ
?count@QToolBox@@QEBAHXZ
?count@QUndoStack@@QEBAHXZ
?count@QZipReader@@QEBAHXZ
?create@PixmapFragment@QPainter@@SA?AV12@AEBVQPointF@@AEBVQRectF@@NNNN@Z
?create@QGestureRecognizer@@UEAAPEAVQGesture@@PEAVQObject@@@Z
?create@QImageData@@SAPEAU1@AEBVQSize@@W4Format@QImage@@H@Z
?create@QImageData@@SAPEAU1@PEAEHHHW4Format@QImage@@_N@Z
?create@QInputContextFactory@@SAPEAVQInputContext@@AEBVQString@@PEAVQObject@@@Z
?create@QPixmapData@@SAPEAV1@HHW4PixelType@1@@Z
?create@QStyleFactory@@SAPEAVQStyle@@AEBVQString@@@Z
?create@QWidget@@IEAAXPEAUHWND__@@_N1@Z
?create@QWidgetBackingStoreTracker@@QEAAXPEAVQWidget@@@Z
?createAction@QSoftKeyManager@@SAPEAVQAction@@W4StandardSoftKey@1@PEAVQWidget@@@Z
?createAction@QWhatsThis@@SAPEAVQAction@@PEAVQObject@@@Z
?createAlphaMask@QImage@@QEBA?AV1@V?$QFlags@W4ImageConversionFlag@Qt@@@@@Z
?createArchive@QTextOdfWriter@@QEBA_NXZ
?createCache@QTextureGlyphCache@@QEAAXHH@Z
?createCenterAnchors@QGraphicsAnchorLayoutPrivate@@QEAAXPEAVQGraphicsLayoutItem@@W4AnchorPoint@Qt@@@Z
?createColumn@QColumnView@@MEAAPEAVQAbstractItemView@@AEBVQModelIndex@@@Z
?createColumn@QColumnViewPrivate@@QEAAPEAVQAbstractItemView@@AEBVQModelIndex@@_N@Z
?createCompatiblePixmapData@QPixmapData@@UEBAPEAV1@XZ
?createCompatiblePixmapData@QRasterPixmapData@@UEBAPEAVQPixmapData@@XZ
?createCompatiblePixmapData@QRuntimePixmapData@@UEBAPEAVQPixmapData@@XZ
?createDatabase@QFontDatabase@@CAXXZ
?createDefaultPixmapData@QGraphicsSystem@@SAPEAVQPixmapData@@W4PixelType@2@@Z
?createDefaultWindowSurface@QWidgetPrivate@@QEAAPEAVQWindowSurface@@XZ
?createDefaultWindowSurface_sys@QWidgetPrivate@@QEAAPEAVQWindowSurface@@XZ
?createEditor@QAbstractItemDelegate@@UEBAPEAVQWidget@@PEAV2@AEBVQStyleOptionViewItem@@AEBVQModelIndex@@@Z
?createEditor@QItemDelegate@@UEBAPEAVQWidget@@PEAV2@AEBVQStyleOptionViewItem@@AEBVQModelIndex@@@Z
?createEditor@QItemEditorFactory@@UEBAPEAVQWidget@@W4Type@QVariant@@PEAV2@@Z
?createEditor@QStyledItemDelegate@@UEBAPEAVQWidget@@PEAV2@AEBVQStyleOptionViewItem@@AEBVQModelIndex@@@Z
?createEventDispatcher@QApplicationPrivate@@UEAAXXZ
?createExtendedKeyEvent@QKeyEvent@@SAPEAV1@W4Type@QEvent@@HV?$QFlags@W4KeyboardModifier@Qt@@@@IIIAEBVQString@@_NG@Z
?createExtendedMouseEvent@QMouseEvent@@SAPEAV1@W4Type@QEvent@@AEBVQPointF@@AEBVQPoint@@W4MouseButton@Qt@@V?$QFlags@W4MouseButton@Qt@@@@V?$QFlags@W4KeyboardModifier@Qt@@@@@Z
?createExtra@QWidgetPrivate@@QEAAXXZ
?createHandle@QSplitter@@MEAAPEAVQSplitterHandle@@XZ
?createHeuristicMask@QImage@@QEBA?AV1@_N@Z
?createHeuristicMask@QPixmap@@QEBA?AVQBitmap@@_N@Z
?createItemEdges@QGraphicsAnchorLayoutPrivate@@QEAAXPEAVQGraphicsLayoutItem@@@Z
?createItemGroup@QGraphicsScene@@QEAAPEAVQGraphicsItemGroup@@AEBV?$QList@PEAVQGraphicsItem@@@@@Z
?createKeyedAction@QSoftKeyManager@@SAPEAVQAction@@W4StandardSoftKey@1@W4Key@Qt@@PEAVQWidget@@@Z
?createLayoutEdges@QGraphicsAnchorLayoutPrivate@@QEAAXXZ
?createLine@QTextLayout@@QEAA?AVQTextLine@@XZ
?createList@QTextCursor@@QEAAPEAVQTextList@@AEBVQTextListFormat@@@Z
?createList@QTextCursor@@QEAAPEAVQTextList@@W4Style@QTextListFormat@@@Z
?createMaskFromColor@QImage@@QEBA?AV1@IW4MaskMode@Qt@@@Z
?createMaskFromColor@QPixmap@@QEBA?AVQBitmap@@AEBVQColor@@@Z
?createMaskFromColor@QPixmap@@QEBA?AVQBitmap@@AEBVQColor@@W4MaskMode@Qt@@@Z
?createMenuActions@QFileDialogPrivate@@QEAAXXZ
?createMimeDataFromSelection@QPlainTextEdit@@MEBAPEAVQMimeData@@XZ
?createMimeDataFromSelection@QTextControl@@UEBAPEAVQMimeData@@XZ
?createMimeDataFromSelection@QTextEdit@@MEBAPEAVQMimeData@@XZ
?createObject@QTextDocument@@MEAAPEAVQTextObject@@AEBVQTextFormat@@@Z
?createObject@QTextDocumentPrivate@@QEAAPEAVQTextObject@@AEBVQTextFormat@@H@Z
?createObjectIndex@QTextFormatCollection@@QEAAHAEBVQTextFormat@@@Z
?createPixmapData@QGraphicsSystem@@UEAAPEAVQPixmapData@@PEAV2@@Z
?createPixmapForImage@QRasterPixmapData@@IEAAXAEAVQImage@@V?$QFlags@W4ImageConversionFlag@Qt@@@@_N@Z
?createPopupMenu@QMainWindow@@UEAAPEAVQMenu@@XZ
?createProxyForChildWidget@QGraphicsProxyWidget@@QEAAPEAV1@PEAVQWidget@@@Z
?createRecursively@QWidgetPrivate@@QEAAXXZ
?createRedoAction@QUndoGroup@@QEBAPEAVQAction@@PEAVQObject@@AEBVQString@@@Z
?createRedoAction@QUndoStack@@QEBAPEAVQAction@@PEAVQObject@@AEBVQString@@@Z
?createSpacerItem@QLayoutPrivate@@SAPEAVQSpacerItem@@PEBVQLayout@@HHW4Policy@QSizePolicy@@1@Z
?createStandardContextMenu@QLineEdit@@QEAAPEAVQMenu@@XZ
?createStandardContextMenu@QPlainTextEdit@@QEAAPEAVQMenu@@XZ
?createStandardContextMenu@QTextControl@@QEAAPEAVQMenu@@AEBVQPointF@@PEAVQWidget@@@Z
?createStandardContextMenu@QTextEdit@@QEAAPEAVQMenu@@AEBVQPoint@@@Z
?createStandardContextMenu@QTextEdit@@QEAAPEAVQMenu@@XZ
?createState@QPaintEngineEx@@UEBAPEAVQPainterState@@PEAV2@@Z
?createStroke@QPainterPathStroker@@QEBA?AVQPainterPath@@AEBV2@@Z
?createSysExtra@QWidgetPrivate@@QEAAXXZ
?createTLExtra@QWidgetPrivate@@QEAAXXZ
?createTLSysExtra@QWidgetPrivate@@QEAAXXZ
?createTextureData@QImageTextureGlyphCache@@UEAAXHH@Z
?createToolButtons@QFileDialogPrivate@@QEAAXXZ
?createUndoAction@QUndoGroup@@QEBAPEAVQAction@@PEAVQObject@@AEBVQString@@@Z
?createUndoAction@QUndoStack@@QEBAPEAVQAction@@PEAVQObject@@AEBVQString@@@Z
?createWidget@QWidgetAction@@MEAAPEAVQWidget@@PEAV2@@Z
?createWidgetItem@QLayoutPrivate@@SAPEAVQWidgetItem@@PEBVQLayout@@PEAVQWidget@@@Z
?createWidgets@QFileDialogPrivate@@QEAAXXZ
?createWinId@QWidget@@QEAAXXZ
?createWinId@QWidgetPrivate@@QEAAXPEAUHWND__@@@Z
?create_sys@QWidgetPrivate@@QEAAXPEAUHWND__@@_N1@Z
?createdWidgets@QWidgetAction@@IEBA?AV?$QList@PEAVQWidget@@@@XZ
?creationPermissions@QZipWriter@@QEBA?AV?$QFlags@W4Permission@QFile@@@@XZ
?creator@QPrinter@@QEBA?AVQString@@XZ
?critical@QMessageBox@@SA?AW4StandardButton@1@PEAVQWidget@@AEBVQString@@1V?$QFlags@W4StandardButton@QMessageBox@@@@W421@@Z
?critical@QMessageBox@@SAHPEAVQWidget@@AEBVQString@@1111HH@Z
?critical@QMessageBox@@SAHPEAVQWidget@@AEBVQString@@1HHH@Z
?critical@QMessageBox@@SAHPEAVQWidget@@AEBVQString@@1W4StandardButton@1@2@Z
?crossProduct@QVector3D@@SA?AV1@AEBV1@0@Z
?cubicTo@QPainterPath@@QEAAXAEBVQPointF@@00@Z
?cubicTo@QPainterPath@@QEAAXNNNNNN@Z
?cubicTo@QStrokerOps@@QEAAXNNNNNN@Z
?currentBlock@QSyntaxHighlighter@@IEBA?AVQTextBlock@@XZ
?currentBlock@iterator@QTextFrame@@QEBA?AVQTextBlock@@XZ
?currentBlockState@QSyntaxHighlighter@@IEBAHXZ
?currentBlockUserData@QSyntaxHighlighter@@IEBAPEAVQTextBlockUserData@@XZ
?currentCellChanged@QTableWidget@@IEAAXHHHH@Z
?currentChanged@QAbstractItemView@@MEAAXAEBVQModelIndex@@0@Z
?currentChanged@QColumnView@@MEAAXAEBVQModelIndex@@0@Z
?currentChanged@QFileDialog@@IEAAXAEBVQString@@@Z
?currentChanged@QHeaderView@@MEAAXAEBVQModelIndex@@0@Z
?currentChanged@QItemSelectionModel@@IEAAXAEBVQModelIndex@@0@Z
?currentChanged@QListView@@MEAAXAEBVQModelIndex@@0@Z
?currentChanged@QStackedLayout@@IEAAXH@Z
?currentChanged@QStackedWidget@@IEAAXH@Z
?currentChanged@QTabBar@@IEAAXH@Z
?currentChanged@QTabWidget@@IEAAXH@Z
?currentChanged@QTableView@@MEAAXAEBVQModelIndex@@0@Z
?currentChanged@QToolBox@@IEAAXH@Z
?currentChanged@QTreeView@@MEAAXAEBVQModelIndex@@0@Z
?currentCharFormat@QPlainTextEdit@@QEBA?AVQTextCharFormat@@XZ
?currentCharFormat@QTextControl@@QEBA?AVQTextCharFormat@@XZ
?currentCharFormat@QTextEdit@@QEBA?AVQTextCharFormat@@XZ
?currentCharFormatChanged@QTextControl@@IEAAXAEBVQTextCharFormat@@@Z
?currentCharFormatChanged@QTextEdit@@IEAAXAEBVQTextCharFormat@@@Z
?currentColor@QColorDialog@@QEBA?AVQColor@@XZ
?currentColorChanged@QColorDialog@@IEAAXAEBVQColor@@@Z
?currentColorGroup@QPalette@@QEBA?AW4ColorGroup@1@XZ
?currentColumn@QTableWidget@@QEBAHXZ
?currentColumn@QTreeWidget@@QEBAHXZ
?currentColumnChanged@QItemSelectionModel@@IEAAXAEBVQModelIndex@@0@Z
?currentCompletion@QCompleter@@QEBA?AVQString@@XZ
?currentFont@QFontComboBox@@QEBA?AVQFont@@XZ
?currentFont@QFontDialog@@QEBA?AVQFont@@XZ
?currentFont@QTextEdit@@QEBA?AVQFont@@XZ
?currentFontChanged@QFontComboBox@@IEAAXAEBVQFont@@@Z
?currentFontChanged@QFontDialog@@IEAAXAEBVQFont@@@Z
?currentFrame@QTextCursor@@QEBAPEAVQTextFrame@@XZ
?currentFrame@iterator@QTextFrame@@QEBAPEAV2@XZ
?currentFrameNumber@QMovie@@QEBAHXZ
?currentId@QWizard@@QEBAHXZ
?currentIdChanged@QWizard@@IEAAXH@Z
?currentImage@QMovie@@QEBA?AVQImage@@XZ
?currentImageNumber@QImageIOHandler@@UEBAHXZ
?currentImageNumber@QImageReader@@QEBAHXZ
?currentImageRect@QImageIOHandler@@UEBA?AVQRect@@XZ
?currentImageRect@QImageReader@@QEBA?AVQRect@@XZ
?currentIndex@QAbstractItemView@@QEBA?AVQModelIndex@@XZ
?currentIndex@QComboBox@@QEBAHXZ
?currentIndex@QCompleter@@QEBA?AVQModelIndex@@XZ
?currentIndex@QDataWidgetMapper@@QEBAHXZ
?currentIndex@QItemSelectionModel@@QEBA?AVQModelIndex@@XZ
?currentIndex@QStackedLayout@@QEBAHXZ
?currentIndex@QStackedWidget@@QEBAHXZ
?currentIndex@QTabBar@@QEBAHXZ
?currentIndex@QTabWidget@@QEBAHXZ
?currentIndex@QToolBox@@QEBAHXZ
?currentIndexChanged@QComboBox@@IEAAXAEBVQString@@@Z
?currentIndexChanged@QComboBox@@IEAAXH@Z
?currentIndexChanged@QDataWidgetMapper@@IEAAXH@Z
?currentItem@QListWidget@@QEBAPEAVQListWidgetItem@@XZ
?currentItem@QTableWidget@@QEBAPEAVQTableWidgetItem@@XZ
?currentItem@QTreeWidget@@QEBAPEAVQTreeWidgetItem@@XZ
?currentItemChanged@QListWidget@@IEAAXPEAVQListWidgetItem@@0@Z
?currentItemChanged@QTableWidget@@IEAAXPEAVQTableWidgetItem@@0@Z
?currentItemChanged@QTreeWidget@@IEAAXPEAVQTreeWidgetItem@@0@Z
?currentList@QTextCursor@@QEBAPEAVQTextList@@XZ
?currentMessage@QStatusBar@@QEBA?AVQString@@XZ
?currentPage@QPrintPreviewWidget@@QEBAHXZ
?currentPage@QWizard@@QEBAPEAVQWizardPage@@XZ
?currentPageChanged@QCalendarWidget@@IEAAXHH@Z
?currentPixmap@QMovie@@QEBA?AVQPixmap@@XZ
?currentPlatform@QApplicationPrivate@@SAIXZ
?currentPosition@QPainterPath@@QEBA?AVQPointF@@XZ
?currentReselected@QTabBar@@IEAAXXZ
?currentRow@QCompleter@@QEBAHXZ
?currentRow@QListWidget@@QEBAHXZ
?currentRow@QTableWidget@@QEBAHXZ
?currentRowChanged@QItemSelectionModel@@IEAAXAEBVQModelIndex@@0@Z
?currentRowChanged@QListWidget@@IEAAXH@Z
?currentSection@QDateTimeEdit@@QEBA?AW4Section@1@XZ
?currentSectionIndex@QDateTimeEdit@@QEBAHXZ
?currentSubWindow@QMdiArea@@QEBAPEAVQMdiSubWindow@@XZ
?currentTabId@QDockAreaLayoutInfo@@QEBA_KXZ
?currentTable@QTextCursor@@QEBAPEAVQTextTable@@XZ
?currentText@QComboBox@@QEBA?AVQString@@XZ
?currentTextChanged@QListWidget@@IEAAXAEBVQString@@@Z
?currentView@QFileDialogPrivate@@QEBAPEAVQAbstractItemView@@XZ
?currentWidget@QStackedLayout@@QEBAPEAVQWidget@@XZ
?currentWidget@QStackedWidget@@QEBAPEAVQWidget@@XZ
?currentWidget@QTabWidget@@QEBAPEAVQWidget@@XZ
?currentWidget@QToolBox@@QEBAPEAVQWidget@@XZ
?cursor@QGraphicsItem@@QEBA?AVQCursor@@XZ
?cursor@QLineControl@@QEBAHXZ
?cursor@QWidget@@QEBA?AVQCursor@@XZ
?cursorBackward@QLineEdit@@QEAAX_NH@Z
?cursorBlinkPeriod@QLineControl@@QEBAHXZ
?cursorFlashTime@QApplication@@SAHXZ
?cursorForPosition@QPlainTextEdit@@QEBA?AVQTextCursor@@AEBVQPoint@@@Z
?cursorForPosition@QTextControl@@QEBA?AVQTextCursor@@AEBVQPointF@@@Z
?cursorForPosition@QTextEdit@@QEBA?AVQTextCursor@@AEBVQPoint@@@Z
?cursorForward@QLineControl@@QEAAX_NH@Z
?cursorForward@QLineEdit@@QEAAX_NH@Z
?cursorIsFocusIndicator@QTextControl@@QEBA_NXZ
?cursorMoveStyle@QLineControl@@QEBA?AW4CursorMoveStyle@Qt@@XZ
?cursorMoveStyle@QLineEdit@@QEBA?AW4CursorMoveStyle@Qt@@XZ
?cursorMoveStyle@QTextLayout@@QEBA?AW4CursorMoveStyle@Qt@@XZ
?cursorPosition@QLineControl@@QEBAHXZ
?cursorPosition@QLineEdit@@QEBAHXZ
?cursorPositionAt@QLineEdit@@QEAAHAEBVQPoint@@@Z
?cursorPositionChanged@QLineControl@@IEAAXHH@Z
?cursorPositionChanged@QLineEdit@@IEAAXHH@Z
?cursorPositionChanged@QPlainTextEdit@@IEAAXXZ
?cursorPositionChanged@QTextControl@@IEAAXXZ
?cursorPositionChanged@QTextDocument@@IEAAXAEBVQTextCursor@@@Z
?cursorPositionChanged@QTextEdit@@IEAAXXZ
?cursorRect@QLineControl@@QEBA?AVQRect@@XZ
?cursorRect@QLineEdit@@IEBA?AVQRect@@XZ
?cursorRect@QPlainTextEdit@@QEBA?AVQRect@@AEBVQTextCursor@@@Z
?cursorRect@QPlainTextEdit@@QEBA?AVQRect@@XZ
?cursorRect@QTextControl@@QEBA?AVQRectF@@AEBVQTextCursor@@@Z
?cursorRect@QTextControl@@QEBA?AVQRectF@@XZ
?cursorRect@QTextEdit@@QEBA?AVQRect@@AEBVQTextCursor@@@Z
?cursorRect@QTextEdit@@QEBA?AVQRect@@XZ
?cursorToX@QLineControl@@QEBANH@Z
?cursorToX@QLineControl@@QEBANXZ
?cursorToX@QTextLine@@QEBANHW4Edge@1@@Z
?cursorToX@QTextLine@@QEBANPEAHW4Edge@1@@Z
?cursorWidth@QLineControl@@QEBAHXZ
?cursorWidth@QPlainTextDocumentLayout@@QEBAHXZ
?cursorWidth@QPlainTextEdit@@QEBAHXZ
?cursorWidth@QTextControl@@QEBAHXZ
?cursorWidth@QTextDocumentLayout@@QEBAHXZ
?cursorWidth@QTextEdit@@QEBAHXZ
?cursorWordBackward@QLineControl@@QEAAX_N@Z
?cursorWordBackward@QLineEdit@@QEAAX_N@Z
?cursorWordForward@QLineControl@@QEAAX_N@Z
?cursorWordForward@QLineEdit@@QEAAX_N@Z
?cursor_flash_time@QApplicationPrivate@@2HA
?curveThreshold@QPainterPathStroker@@QEBANXZ
?curveThreshold@QStrokerOps@@QEBANXZ
?customButtonClicked@QWizard@@IEAAXH@Z
?customColor@QColorDialog@@SAIH@Z
?customContextMenuRequested@QWidget@@IEAAXAEBVQPoint@@@Z
?customCount@QColorDialog@@SAHXZ
?customDpiOverride@QApplication@@QEBAHXZ
?customDpiOverride@QApplicationPrivate@@2HA
?cut@QLineEdit@@QEAAXXZ
?cut@QPlainTextEdit@@QEAAXXZ
?cut@QTextControl@@QEAAXXZ
?cut@QTextEdit@@QEAAXXZ
?cutText@QAccessibleSimpleEditableTextInterface@@UEAAXHH@Z
?cyan@QColor@@QEBAHXZ
?cyanF@QColor@@QEBANXZ
?d_func@QAbstractButton@@AEAAPEAVQAbstractButtonPrivate@@XZ
?d_func@QAbstractButton@@AEBAPEBVQAbstractButtonPrivate@@XZ
?d_func@QAbstractGraphicsShapeItem@@AEAAPEAVQAbstractGraphicsShapeItemPrivate@@XZ
?d_func@QAbstractGraphicsShapeItem@@AEBAPEBVQAbstractGraphicsShapeItemPrivate@@XZ
?d_func@QAbstractItemView@@AEAAPEAVQAbstractItemViewPrivate@@XZ
?d_func@QAbstractItemView@@AEBAPEBVQAbstractItemViewPrivate@@XZ
?d_func@QAbstractPageSetupDialog@@AEAAPEAVQAbstractPageSetupDialogPrivate@@XZ
?d_func@QAbstractPageSetupDialog@@AEBAPEBVQAbstractPageSetupDialogPrivate@@XZ
?d_func@QAbstractPrintDialog@@AEAAPEAVQAbstractPrintDialogPrivate@@XZ
?d_func@QAbstractPrintDialog@@AEBAPEBVQAbstractPrintDialogPrivate@@XZ
?d_func@QAbstractProxyModel@@AEAAPEAVQAbstractProxyModelPrivate@@XZ
?d_func@QAbstractProxyModel@@AEBAPEBVQAbstractProxyModelPrivate@@XZ
?d_func@QAbstractScrollArea@@AEAAPEAVQAbstractScrollAreaPrivate@@XZ
?d_func@QAbstractScrollArea@@AEBAPEBVQAbstractScrollAreaPrivate@@XZ
?d_func@QAbstractSlider@@AEAAPEAVQAbstractSliderPrivate@@XZ
?d_func@QAbstractSlider@@AEBAPEBVQAbstractSliderPrivate@@XZ
?d_func@QAbstractSpinBox@@AEAAPEAVQAbstractSpinBoxPrivate@@XZ
?d_func@QAbstractSpinBox@@AEBAPEBVQAbstractSpinBoxPrivate@@XZ
?d_func@QAbstractTextDocumentLayout@@AEAAPEAVQAbstractTextDocumentLayoutPrivate@@XZ
?d_func@QAbstractTextDocumentLayout@@AEBAPEBVQAbstractTextDocumentLayoutPrivate@@XZ
?d_func@QAction@@AEAAPEAVQActionPrivate@@XZ
?d_func@QAction@@AEBAPEBVQActionPrivate@@XZ
?d_func@QActionGroup@@AEAAPEAVQActionGroupPrivate@@XZ
?d_func@QActionGroup@@AEBAPEBVQActionGroupPrivate@@XZ
?d_func@QApplication@@AEAAPEAVQApplicationPrivate@@XZ
?d_func@QApplication@@AEBAPEBVQApplicationPrivate@@XZ
?d_func@QBasicKeyEventTransition@@AEAAPEAVQBasicKeyEventTransitionPrivate@@XZ
?d_func@QBasicKeyEventTransition@@AEBAPEBVQBasicKeyEventTransitionPrivate@@XZ
?d_func@QBasicMouseEventTransition@@AEAAPEAVQBasicMouseEventTransitionPrivate@@XZ
?d_func@QBasicMouseEventTransition@@AEBAPEBVQBasicMouseEventTransitionPrivate@@XZ
?d_func@QBlittable@@AEAAPEAVQBlittablePrivate@@XZ
?d_func@QBlittable@@AEBAPEBVQBlittablePrivate@@XZ
?d_func@QBlitterPaintEngine@@AEAAPEAVQBlitterPaintEnginePrivate@@XZ
?d_func@QBlitterPaintEngine@@AEBAPEBVQBlitterPaintEnginePrivate@@XZ
?d_func@QBoxLayout@@AEAAPEAVQBoxLayoutPrivate@@XZ
?d_func@QBoxLayout@@AEBAPEBVQBoxLayoutPrivate@@XZ
?d_func@QButtonGroup@@AEAAPEAVQButtonGroupPrivate@@XZ
?d_func@QButtonGroup@@AEBAPEBVQButtonGroupPrivate@@XZ
?d_func@QCalendarWidget@@AEAAPEAVQCalendarWidgetPrivate@@XZ
?d_func@QCalendarWidget@@AEBAPEBVQCalendarWidgetPrivate@@XZ
?d_func@QCheckBox@@AEAAPEAVQCheckBoxPrivate@@XZ
?d_func@QCheckBox@@AEBAPEBVQCheckBoxPrivate@@XZ
?d_func@QCleanlooksStyle@@AEAAPEAVQCleanlooksStylePrivate@@XZ
?d_func@QCleanlooksStyle@@AEBAPEBVQCleanlooksStylePrivate@@XZ
?d_func@QClipboard@@AEAAPEAVQClipboardPrivate@@XZ
?d_func@QClipboard@@AEBAPEBVQClipboardPrivate@@XZ
?d_func@QColorDialog@@AEAAPEAVQColorDialogPrivate@@XZ
?d_func@QColorDialog@@AEBAPEBVQColorDialogPrivate@@XZ
?d_func@QColumnView@@AEAAPEAVQColumnViewPrivate@@XZ
?d_func@QColumnView@@AEBAPEBVQColumnViewPrivate@@XZ
?d_func@QColumnViewGrip@@AEAAPEAVQColumnViewGripPrivate@@XZ
?d_func@QColumnViewGrip@@AEBAPEBVQColumnViewGripPrivate@@XZ
?d_func@QComboBox@@AEAAPEAVQComboBoxPrivate@@XZ
?d_func@QComboBox@@AEBAPEBVQComboBoxPrivate@@XZ
?d_func@QCommandLinkButton@@AEAAPEAVQCommandLinkButtonPrivate@@XZ
?d_func@QCommandLinkButton@@AEBAPEBVQCommandLinkButtonPrivate@@XZ
?d_func@QCommonStyle@@AEAAPEAVQCommonStylePrivate@@XZ
?d_func@QCommonStyle@@AEBAPEBVQCommonStylePrivate@@XZ
?d_func@QCompleter@@AEAAPEAVQCompleterPrivate@@XZ
?d_func@QCompleter@@AEBAPEBVQCompleterPrivate@@XZ
?d_func@QDataWidgetMapper@@AEAAPEAVQDataWidgetMapperPrivate@@XZ
?d_func@QDataWidgetMapper@@AEBAPEBVQDataWidgetMapperPrivate@@XZ
?d_func@QDateTimeEdit@@AEAAPEAVQDateTimeEditPrivate@@XZ
?d_func@QDateTimeEdit@@AEBAPEBVQDateTimeEditPrivate@@XZ
?d_func@QDesktopWidget@@AEAAPEAVQDesktopWidgetPrivate@@XZ
?d_func@QDesktopWidget@@AEBAPEBVQDesktopWidgetPrivate@@XZ
?d_func@QDial@@AEAAPEAVQDialPrivate@@XZ
?d_func@QDial@@AEBAPEBVQDialPrivate@@XZ
?d_func@QDialog@@AEAAPEAVQDialogPrivate@@XZ
?d_func@QDialog@@AEBAPEBVQDialogPrivate@@XZ
?d_func@QDialogButtonBox@@AEAAPEAVQDialogButtonBoxPrivate@@XZ
?d_func@QDialogButtonBox@@AEBAPEBVQDialogButtonBoxPrivate@@XZ
?d_func@QDirModel@@AEAAPEAVQDirModelPrivate@@XZ
?d_func@QDirModel@@AEBAPEBVQDirModelPrivate@@XZ
?d_func@QDockWidget@@AEAAPEAVQDockWidgetPrivate@@XZ
?d_func@QDockWidget@@AEBAPEBVQDockWidgetPrivate@@XZ
?d_func@QDoubleSpinBox@@AEAAPEAVQDoubleSpinBoxPrivate@@XZ
?d_func@QDoubleSpinBox@@AEBAPEBVQDoubleSpinBoxPrivate@@XZ
?d_func@QDoubleValidator@@AEAAPEAVQDoubleValidatorPrivate@@XZ
?d_func@QDoubleValidator@@AEBAPEBVQDoubleValidatorPrivate@@XZ
?d_func@QDrag@@AEAAPEAVQDragPrivate@@XZ
?d_func@QDrag@@AEBAPEBVQDragPrivate@@XZ
?d_func@QErrorMessage@@AEAAPEAVQErrorMessagePrivate@@XZ
?d_func@QErrorMessage@@AEBAPEBVQErrorMessagePrivate@@XZ
?d_func@QFileDialog@@AEAAPEAVQFileDialogPrivate@@XZ
?d_func@QFileDialog@@AEBAPEBVQFileDialogPrivate@@XZ
?d_func@QFileIconProvider@@AEAAPEAVQFileIconProviderPrivate@@XZ
?d_func@QFileIconProvider@@AEBAPEBVQFileIconProviderPrivate@@XZ
?d_func@QFileSystemModel@@AEAAPEAVQFileSystemModelPrivate@@XZ
?d_func@QFileSystemModel@@AEBAPEBVQFileSystemModelPrivate@@XZ
?d_func@QFocusFrame@@AEAAPEAVQFocusFramePrivate@@XZ
?d_func@QFocusFrame@@AEBAPEBVQFocusFramePrivate@@XZ
?d_func@QFontComboBox@@AEAAPEAVQFontComboBoxPrivate@@XZ
?d_func@QFontComboBox@@AEBAPEBVQFontComboBoxPrivate@@XZ
?d_func@QFontDialog@@AEAAPEAVQFontDialogPrivate@@XZ
?d_func@QFontDialog@@AEBAPEBVQFontDialogPrivate@@XZ
?d_func@QFormLayout@@AEAAPEAVQFormLayoutPrivate@@XZ
?d_func@QFormLayout@@AEBAPEBVQFormLayoutPrivate@@XZ
?d_func@QFrame@@AEAAPEAVQFramePrivate@@XZ
?d_func@QFrame@@AEBAPEBVQFramePrivate@@XZ
?d_func@QGesture@@AEAAPEAVQGesturePrivate@@XZ
?d_func@QGesture@@AEBAPEBVQGesturePrivate@@XZ
?d_func@QGestureEvent@@AEAAPEAVQGestureEventPrivate@@XZ
?d_func@QGestureEvent@@AEBAPEBVQGestureEventPrivate@@XZ
?d_func@QGraphicsAnchor@@AEAAPEAVQGraphicsAnchorPrivate@@XZ
?d_func@QGraphicsAnchor@@AEBAPEBVQGraphicsAnchorPrivate@@XZ
?d_func@QGraphicsAnchorLayout@@AEAAPEAVQGraphicsAnchorLayoutPrivate@@XZ
?d_func@QGraphicsAnchorLayout@@AEBAPEBVQGraphicsAnchorLayoutPrivate@@XZ
?d_func@QGraphicsBlurEffect@@AEAAPEAVQGraphicsBlurEffectPrivate@@XZ
?d_func@QGraphicsBlurEffect@@AEBAPEBVQGraphicsBlurEffectPrivate@@XZ
?d_func@QGraphicsColorizeEffect@@AEAAPEAVQGraphicsColorizeEffectPrivate@@XZ
?d_func@QGraphicsColorizeEffect@@AEBAPEBVQGraphicsColorizeEffectPrivate@@XZ
?d_func@QGraphicsDropShadowEffect@@AEAAPEAVQGraphicsDropShadowEffectPrivate@@XZ
?d_func@QGraphicsDropShadowEffect@@AEBAPEBVQGraphicsDropShadowEffectPrivate@@XZ
?d_func@QGraphicsEffect@@AEAAPEAVQGraphicsEffectPrivate@@XZ
?d_func@QGraphicsEffect@@AEBAPEBVQGraphicsEffectPrivate@@XZ
?d_func@QGraphicsEffectSource@@AEAAPEAVQGraphicsEffectSourcePrivate@@XZ
?d_func@QGraphicsEffectSource@@AEBAPEBVQGraphicsEffectSourcePrivate@@XZ
?d_func@QGraphicsEllipseItem@@AEAAPEAVQGraphicsEllipseItemPrivate@@XZ
?d_func@QGraphicsEllipseItem@@AEBAPEBVQGraphicsEllipseItemPrivate@@XZ
?d_func@QGraphicsGridLayout@@AEAAPEAVQGraphicsGridLayoutPrivate@@XZ
?d_func@QGraphicsGridLayout@@AEBAPEBVQGraphicsGridLayoutPrivate@@XZ
?d_func@QGraphicsItem@@AEAAPEAVQGraphicsItemPrivate@@XZ
?d_func@QGraphicsItem@@AEBAPEBVQGraphicsItemPrivate@@XZ
?d_func@QGraphicsItemGroup@@AEAAPEAVQGraphicsItemGroupPrivate@@XZ
?d_func@QGraphicsItemGroup@@AEBAPEBVQGraphicsItemGroupPrivate@@XZ
?d_func@QGraphicsLayout@@AEAAPEAVQGraphicsLayoutPrivate@@XZ
?d_func@QGraphicsLayout@@AEBAPEBVQGraphicsLayoutPrivate@@XZ
?d_func@QGraphicsLayoutItem@@AEAAPEAVQGraphicsLayoutItemPrivate@@XZ
?d_func@QGraphicsLayoutItem@@AEBAPEBVQGraphicsLayoutItemPrivate@@XZ
?d_func@QGraphicsLineItem@@AEAAPEAVQGraphicsLineItemPrivate@@XZ
?d_func@QGraphicsLineItem@@AEBAPEBVQGraphicsLineItemPrivate@@XZ
?d_func@QGraphicsLinearLayout@@AEAAPEAVQGraphicsLinearLayoutPrivate@@XZ
?d_func@QGraphicsLinearLayout@@AEBAPEBVQGraphicsLinearLayoutPrivate@@XZ
?d_func@QGraphicsOpacityEffect@@AEAAPEAVQGraphicsOpacityEffectPrivate@@XZ
?d_func@QGraphicsOpacityEffect@@AEBAPEBVQGraphicsOpacityEffectPrivate@@XZ
?d_func@QGraphicsPathItem@@AEAAPEAVQGraphicsPathItemPrivate@@XZ
?d_func@QGraphicsPathItem@@AEBAPEBVQGraphicsPathItemPrivate@@XZ
?d_func@QGraphicsPixmapItem@@AEAAPEAVQGraphicsPixmapItemPrivate@@XZ
?d_func@QGraphicsPixmapItem@@AEBAPEBVQGraphicsPixmapItemPrivate@@XZ
?d_func@QGraphicsPolygonItem@@AEAAPEAVQGraphicsPolygonItemPrivate@@XZ
?d_func@QGraphicsPolygonItem@@AEBAPEBVQGraphicsPolygonItemPrivate@@XZ
?d_func@QGraphicsProxyWidget@@AEAAPEAVQGraphicsProxyWidgetPrivate@@XZ
?d_func@QGraphicsProxyWidget@@AEBAPEBVQGraphicsProxyWidgetPrivate@@XZ
?d_func@QGraphicsRectItem@@AEAAPEAVQGraphicsRectItemPrivate@@XZ
?d_func@QGraphicsRectItem@@AEBAPEBVQGraphicsRectItemPrivate@@XZ
?d_func@QGraphicsRotation@@AEAAPEAVQGraphicsRotationPrivate@@XZ
?d_func@QGraphicsRotation@@AEBAPEBVQGraphicsRotationPrivate@@XZ
?d_func@QGraphicsScale@@AEAAPEAVQGraphicsScalePrivate@@XZ
?d_func@QGraphicsScale@@AEBAPEBVQGraphicsScalePrivate@@XZ
?d_func@QGraphicsScene@@AEAAPEAVQGraphicsScenePrivate@@XZ
?d_func@QGraphicsScene@@AEBAPEBVQGraphicsScenePrivate@@XZ
?d_func@QGraphicsSceneBspTreeIndex@@AEAAPEAVQGraphicsSceneBspTreeIndexPrivate@@XZ
?d_func@QGraphicsSceneBspTreeIndex@@AEBAPEBVQGraphicsSceneBspTreeIndexPrivate@@XZ
?d_func@QGraphicsSceneContextMenuEvent@@AEAAPEAVQGraphicsSceneContextMenuEventPrivate@@XZ
?d_func@QGraphicsSceneContextMenuEvent@@AEBAPEBVQGraphicsSceneContextMenuEventPrivate@@XZ
?d_func@QGraphicsSceneDragDropEvent@@AEAAPEAVQGraphicsSceneDragDropEventPrivate@@XZ
?d_func@QGraphicsSceneDragDropEvent@@AEBAPEBVQGraphicsSceneDragDropEventPrivate@@XZ
?d_func@QGraphicsSceneEvent@@IEAAPEAVQGraphicsSceneEventPrivate@@XZ
?d_func@QGraphicsSceneEvent@@IEBAPEBVQGraphicsSceneEventPrivate@@XZ
?d_func@QGraphicsSceneHelpEvent@@AEAAPEAVQGraphicsSceneHelpEventPrivate@@XZ
?d_func@QGraphicsSceneHelpEvent@@AEBAPEBVQGraphicsSceneHelpEventPrivate@@XZ
?d_func@QGraphicsSceneHoverEvent@@AEAAPEAVQGraphicsSceneHoverEventPrivate@@XZ
?d_func@QGraphicsSceneHoverEvent@@AEBAPEBVQGraphicsSceneHoverEventPrivate@@XZ
?d_func@QGraphicsSceneIndex@@AEAAPEAVQGraphicsSceneIndexPrivate@@XZ
?d_func@QGraphicsSceneIndex@@AEBAPEBVQGraphicsSceneIndexPrivate@@XZ
?d_func@QGraphicsSceneMouseEvent@@AEAAPEAVQGraphicsSceneMouseEventPrivate@@XZ
?d_func@QGraphicsSceneMouseEvent@@AEBAPEBVQGraphicsSceneMouseEventPrivate@@XZ
?d_func@QGraphicsSceneMoveEvent@@AEAAPEAVQGraphicsSceneMoveEventPrivate@@XZ
?d_func@QGraphicsSceneMoveEvent@@AEBAPEBVQGraphicsSceneMoveEventPrivate@@XZ
?d_func@QGraphicsSceneResizeEvent@@AEAAPEAVQGraphicsSceneResizeEventPrivate@@XZ
?d_func@QGraphicsSceneResizeEvent@@AEBAPEBVQGraphicsSceneResizeEventPrivate@@XZ
?d_func@QGraphicsSceneWheelEvent@@AEAAPEAVQGraphicsSceneWheelEventPrivate@@XZ
?d_func@QGraphicsSceneWheelEvent@@AEBAPEBVQGraphicsSceneWheelEventPrivate@@XZ
?d_func@QGraphicsSimpleTextItem@@AEAAPEAVQGraphicsSimpleTextItemPrivate@@XZ
?d_func@QGraphicsSimpleTextItem@@AEBAPEBVQGraphicsSimpleTextItemPrivate@@XZ
?d_func@QGraphicsTransform@@AEAAPEAVQGraphicsTransformPrivate@@XZ
?d_func@QGraphicsTransform@@AEBAPEBVQGraphicsTransformPrivate@@XZ
?d_func@QGraphicsView@@AEAAPEAVQGraphicsViewPrivate@@XZ
?d_func@QGraphicsView@@AEBAPEBVQGraphicsViewPrivate@@XZ
?d_func@QGraphicsWidget@@AEAAPEAVQGraphicsWidgetPrivate@@XZ
?d_func@QGraphicsWidget@@AEBAPEBVQGraphicsWidgetPrivate@@XZ
?d_func@QGridLayout@@AEAAPEAVQGridLayoutPrivate@@XZ
?d_func@QGridLayout@@AEBAPEBVQGridLayoutPrivate@@XZ
?d_func@QGroupBox@@AEAAPEAVQGroupBoxPrivate@@XZ
?d_func@QGroupBox@@AEBAPEBVQGroupBoxPrivate@@XZ
?d_func@QHeaderView@@AEAAPEAVQHeaderViewPrivate@@XZ
?d_func@QHeaderView@@AEBAPEBVQHeaderViewPrivate@@XZ
?d_func@QIdentityProxyModel@@AEAAPEAVQIdentityProxyModelPrivate@@XZ
?d_func@QIdentityProxyModel@@AEBAPEBVQIdentityProxyModelPrivate@@XZ
?d_func@QImageIOHandler@@AEAAPEAVQImageIOHandlerPrivate@@XZ
?d_func@QImageIOHandler@@AEBAPEBVQImageIOHandlerPrivate@@XZ
?d_func@QInputContext@@AEAAPEAVQInputContextPrivate@@XZ
?d_func@QInputContext@@AEBAPEBVQInputContextPrivate@@XZ
?d_func@QInputDialog@@AEAAPEAVQInputDialogPrivate@@XZ
?d_func@QInputDialog@@AEBAPEBVQInputDialogPrivate@@XZ
?d_func@QItemDelegate@@AEAAPEAVQItemDelegatePrivate@@XZ
?d_func@QItemDelegate@@AEBAPEBVQItemDelegatePrivate@@XZ
?d_func@QItemSelectionModel@@AEAAPEAVQItemSelectionModelPrivate@@XZ
?d_func@QItemSelectionModel@@AEBAPEBVQItemSelectionModelPrivate@@XZ
?d_func@QKeyEventTransition@@AEAAPEAVQKeyEventTransitionPrivate@@XZ
?d_func@QKeyEventTransition@@AEBAPEBVQKeyEventTransitionPrivate@@XZ
?d_func@QLCDNumber@@AEAAPEAVQLCDNumberPrivate@@XZ
?d_func@QLCDNumber@@AEBAPEBVQLCDNumberPrivate@@XZ
?d_func@QLabel@@AEAAPEAVQLabelPrivate@@XZ
?d_func@QLabel@@AEBAPEBVQLabelPrivate@@XZ
?d_func@QLayout@@AEAAPEAVQLayoutPrivate@@XZ
?d_func@QLayout@@AEBAPEBVQLayoutPrivate@@XZ
?d_func@QLineEdit@@AEAAPEAVQLineEditPrivate@@XZ
?d_func@QLineEdit@@AEBAPEBVQLineEditPrivate@@XZ
?d_func@QListView@@AEAAPEAVQListViewPrivate@@XZ
?d_func@QListView@@AEBAPEBVQListViewPrivate@@XZ
?d_func@QListWidget@@AEAAPEAVQListWidgetPrivate@@XZ
?d_func@QListWidget@@AEBAPEBVQListWidgetPrivate@@XZ
?d_func@QMainWindow@@AEAAPEAVQMainWindowPrivate@@XZ
?d_func@QMainWindow@@AEBAPEBVQMainWindowPrivate@@XZ
?d_func@QMdiArea@@AEAAPEAVQMdiAreaPrivate@@XZ
?d_func@QMdiArea@@AEBAPEBVQMdiAreaPrivate@@XZ
?d_func@QMdiSubWindow@@AEAAPEAVQMdiSubWindowPrivate@@XZ
?d_func@QMdiSubWindow@@AEBAPEBVQMdiSubWindowPrivate@@XZ
?d_func@QMenu@@AEAAPEAVQMenuPrivate@@XZ
?d_func@QMenu@@AEBAPEBVQMenuPrivate@@XZ
?d_func@QMenuBar@@AEAAPEAVQMenuBarPrivate@@XZ
?d_func@QMenuBar@@AEBAPEBVQMenuBarPrivate@@XZ
?d_func@QMessageBox@@AEAAPEAVQMessageBoxPrivate@@XZ
?d_func@QMessageBox@@AEBAPEBVQMessageBoxPrivate@@XZ
?d_func@QMotifStyle@@AEAAPEAVQMotifStylePrivate@@XZ
?d_func@QMotifStyle@@AEBAPEBVQMotifStylePrivate@@XZ
?d_func@QMouseEventTransition@@AEAAPEAVQMouseEventTransitionPrivate@@XZ
?d_func@QMouseEventTransition@@AEBAPEBVQMouseEventTransitionPrivate@@XZ
?d_func@QMovie@@AEAAPEAVQMoviePrivate@@XZ
?d_func@QMovie@@AEBAPEBVQMoviePrivate@@XZ
?d_func@QPageSetupDialog@@AEAAPEAVQPageSetupDialogPrivate@@XZ
?d_func@QPageSetupDialog@@AEBAPEBVQPageSetupDialogPrivate@@XZ
?d_func@QPaintBuffer@@AEAAPEAVQPaintBufferPrivate@@XZ
?d_func@QPaintBuffer@@AEBAPEBVQPaintBufferPrivate@@XZ
?d_func@QPaintEngine@@AEAAPEAVQPaintEnginePrivate@@XZ
?d_func@QPaintEngine@@AEBAPEBVQPaintEnginePrivate@@XZ
?d_func@QPaintEngineEx@@AEAAPEAVQPaintEngineExPrivate@@XZ
?d_func@QPaintEngineEx@@AEBAPEBVQPaintEngineExPrivate@@XZ
?d_func@QPainter@@AEAAPEAVQPainterPrivate@@XZ
?d_func@QPainter@@AEBAPEBVQPainterPrivate@@XZ
?d_func@QPainterPath@@AEBAPEAVQPainterPathData@@XZ
?d_func@QPainterPathStroker@@AEAAPEAVQPainterPathStrokerPrivate@@XZ
?d_func@QPainterPathStroker@@AEBAPEBVQPainterPathStrokerPrivate@@XZ
?d_func@QPanGesture@@AEAAPEAVQPanGesturePrivate@@XZ
?d_func@QPanGesture@@AEBAPEBVQPanGesturePrivate@@XZ
?d_func@QPicture@@AEAAPEAVQPicturePrivate@@XZ
?d_func@QPicture@@AEBAPEBVQPicturePrivate@@XZ
?d_func@QPinchGesture@@AEAAPEAVQPinchGesturePrivate@@XZ
?d_func@QPinchGesture@@AEBAPEBVQPinchGesturePrivate@@XZ
?d_func@QPixmapBlurFilter@@AEAAPEAVQPixmapBlurFilterPrivate@@XZ
?d_func@QPixmapBlurFilter@@AEBAPEBVQPixmapBlurFilterPrivate@@XZ
?d_func@QPixmapColorizeFilter@@AEAAPEAVQPixmapColorizeFilterPrivate@@XZ
?d_func@QPixmapColorizeFilter@@AEBAPEBVQPixmapColorizeFilterPrivate@@XZ
?d_func@QPixmapConvolutionFilter@@AEAAPEAVQPixmapConvolutionFilterPrivate@@XZ
?d_func@QPixmapConvolutionFilter@@AEBAPEBVQPixmapConvolutionFilterPrivate@@XZ
?d_func@QPixmapDropShadowFilter@@AEAAPEAVQPixmapDropShadowFilterPrivate@@XZ
?d_func@QPixmapDropShadowFilter@@AEBAPEBVQPixmapDropShadowFilterPrivate@@XZ
?d_func@QPixmapFilter@@AEAAPEAVQPixmapFilterPrivate@@XZ
?d_func@QPixmapFilter@@AEBAPEBVQPixmapFilterPrivate@@XZ
?d_func@QPlainTextDocumentLayout@@AEAAPEAVQPlainTextDocumentLayoutPrivate@@XZ
?d_func@QPlainTextDocumentLayout@@AEBAPEBVQPlainTextDocumentLayoutPrivate@@XZ
?d_func@QPlainTextEdit@@AEAAPEAVQPlainTextEditPrivate@@XZ
?d_func@QPlainTextEdit@@AEBAPEBVQPlainTextEditPrivate@@XZ
?d_func@QPlastiqueStyle@@AEAAPEAVQPlastiqueStylePrivate@@XZ
?d_func@QPlastiqueStyle@@AEBAPEBVQPlastiqueStylePrivate@@XZ
?d_func@QPrintDialog@@AEAAPEAVQPrintDialogPrivate@@XZ
?d_func@QPrintDialog@@AEBAPEBVQPrintDialogPrivate@@XZ
?d_func@QPrintPreviewDialog@@AEAAPEAVQPrintPreviewDialogPrivate@@XZ
?d_func@QPrintPreviewDialog@@AEBAPEBVQPrintPreviewDialogPrivate@@XZ
?d_func@QPrintPreviewWidget@@AEAAPEAVQPrintPreviewWidgetPrivate@@XZ
?d_func@QPrintPreviewWidget@@AEBAPEBVQPrintPreviewWidgetPrivate@@XZ
?d_func@QPrinter@@AEAAPEAVQPrinterPrivate@@XZ
?d_func@QPrinter@@AEBAPEBVQPrinterPrivate@@XZ
?d_func@QPrinterInfo@@AEAAPEAVQPrinterInfoPrivate@@XZ
?d_func@QPrinterInfo@@AEBAPEBVQPrinterInfoPrivate@@XZ
?d_func@QProgressBar@@AEAAPEAVQProgressBarPrivate@@XZ
?d_func@QProgressBar@@AEBAPEBVQProgressBarPrivate@@XZ
?d_func@QProgressDialog@@AEAAPEAVQProgressDialogPrivate@@XZ
?d_func@QProgressDialog@@AEBAPEBVQProgressDialogPrivate@@XZ
?d_func@QProxyModel@@AEAAPEAVQProxyModelPrivate@@XZ
?d_func@QProxyModel@@AEBAPEBVQProxyModelPrivate@@XZ
?d_func@QProxyStyle@@AEAAPEAVQProxyStylePrivate@@XZ
?d_func@QProxyStyle@@AEBAPEBVQProxyStylePrivate@@XZ
?d_func@QPushButton@@AEAAPEAVQPushButtonPrivate@@XZ
?d_func@QPushButton@@AEBAPEBVQPushButtonPrivate@@XZ
?d_func@QRadioButton@@AEAAPEAVQRadioButtonPrivate@@XZ
?d_func@QRadioButton@@AEBAPEBVQRadioButtonPrivate@@XZ
?d_func@QRasterWindowSurface@@AEAAPEAVQRasterWindowSurfacePrivate@@XZ
?d_func@QRasterWindowSurface@@AEBAPEBVQRasterWindowSurfacePrivate@@XZ
?d_func@QRubberBand@@AEAAPEAVQRubberBandPrivate@@XZ
?d_func@QRubberBand@@AEBAPEBVQRubberBandPrivate@@XZ
?d_func@QScrollArea@@AEAAPEAVQScrollAreaPrivate@@XZ
?d_func@QScrollArea@@AEBAPEBVQScrollAreaPrivate@@XZ
?d_func@QScrollBar@@AEAAPEAVQScrollBarPrivate@@XZ
?d_func@QScrollBar@@AEBAPEBVQScrollBarPrivate@@XZ
?d_func@QSessionManager@@AEAAPEAVQSessionManagerPrivate@@XZ
?d_func@QSessionManager@@AEBAPEBVQSessionManagerPrivate@@XZ
?d_func@QShortcut@@AEAAPEAVQShortcutPrivate@@XZ
?d_func@QShortcut@@AEBAPEBVQShortcutPrivate@@XZ
?d_func@QSizeGrip@@AEAAPEAVQSizeGripPrivate@@XZ
?d_func@QSizeGrip@@AEBAPEBVQSizeGripPrivate@@XZ
?d_func@QSlider@@AEAAPEAVQSliderPrivate@@XZ
?d_func@QSlider@@AEBAPEBVQSliderPrivate@@XZ
?d_func@QSoftKeyManager@@AEAAPEAVQSoftKeyManagerPrivate@@XZ
?d_func@QSoftKeyManager@@AEBAPEBVQSoftKeyManagerPrivate@@XZ
?d_func@QSortFilterProxyModel@@AEAAPEAVQSortFilterProxyModelPrivate@@XZ
?d_func@QSortFilterProxyModel@@AEBAPEBVQSortFilterProxyModelPrivate@@XZ
?d_func@QSound@@AEAAPEAVQSoundPrivate@@XZ
?d_func@QSound@@AEBAPEBVQSoundPrivate@@XZ
?d_func@QSpinBox@@AEAAPEAVQSpinBoxPrivate@@XZ
?d_func@QSpinBox@@AEBAPEBVQSpinBoxPrivate@@XZ
?d_func@QSplashScreen@@AEAAPEAVQSplashScreenPrivate@@XZ
?d_func@QSplashScreen@@AEBAPEBVQSplashScreenPrivate@@XZ
?d_func@QSplitter@@AEAAPEAVQSplitterPrivate@@XZ
?d_func@QSplitter@@AEBAPEBVQSplitterPrivate@@XZ
?d_func@QSplitterHandle@@AEAAPEAVQSplitterHandlePrivate@@XZ
?d_func@QSplitterHandle@@AEBAPEBVQSplitterHandlePrivate@@XZ
?d_func@QStackedLayout@@AEAAPEAVQStackedLayoutPrivate@@XZ
?d_func@QStackedLayout@@AEBAPEBVQStackedLayoutPrivate@@XZ
?d_func@QStackedWidget@@AEAAPEAVQStackedWidgetPrivate@@XZ
?d_func@QStackedWidget@@AEBAPEBVQStackedWidgetPrivate@@XZ
?d_func@QStandardItem@@AEAAPEAVQStandardItemPrivate@@XZ
?d_func@QStandardItem@@AEBAPEBVQStandardItemPrivate@@XZ
?d_func@QStandardItemModel@@AEAAPEAVQStandardItemModelPrivate@@XZ
?d_func@QStandardItemModel@@AEBAPEBVQStandardItemModelPrivate@@XZ
?d_func@QStatusBar@@AEAAPEAVQStatusBarPrivate@@XZ
?d_func@QStatusBar@@AEBAPEBVQStatusBarPrivate@@XZ
?d_func@QStyle@@AEAAPEAVQStylePrivate@@XZ
?d_func@QStyle@@AEBAPEBVQStylePrivate@@XZ
?d_func@QStyleSheetStyle@@AEAAPEAVQStyleSheetStylePrivate@@XZ
?d_func@QStyleSheetStyle@@AEBAPEBVQStyleSheetStylePrivate@@XZ
?d_func@QStyledItemDelegate@@AEAAPEAVQStyledItemDelegatePrivate@@XZ
?d_func@QStyledItemDelegate@@AEBAPEBVQStyledItemDelegatePrivate@@XZ
?d_func@QSwipeGesture@@AEAAPEAVQSwipeGesturePrivate@@XZ
?d_func@QSwipeGesture@@AEBAPEBVQSwipeGesturePrivate@@XZ
?d_func@QSyntaxHighlighter@@AEAAPEAVQSyntaxHighlighterPrivate@@XZ
?d_func@QSyntaxHighlighter@@AEBAPEBVQSyntaxHighlighterPrivate@@XZ
?d_func@QSystemTrayIcon@@AEAAPEAVQSystemTrayIconPrivate@@XZ
?d_func@QSystemTrayIcon@@AEBAPEBVQSystemTrayIconPrivate@@XZ
?d_func@QTabBar@@AEAAPEAVQTabBarPrivate@@XZ
?d_func@QTabBar@@AEBAPEBVQTabBarPrivate@@XZ
?d_func@QTabWidget@@AEAAPEAVQTabWidgetPrivate@@XZ
?d_func@QTabWidget@@AEBAPEBVQTabWidgetPrivate@@XZ
?d_func@QTableView@@AEAAPEAVQTableViewPrivate@@XZ
?d_func@QTableView@@AEBAPEBVQTableViewPrivate@@XZ
?d_func@QTableWidget@@AEAAPEAVQTableWidgetPrivate@@XZ
?d_func@QTableWidget@@AEBAPEBVQTableWidgetPrivate@@XZ
?d_func@QTapAndHoldGesture@@AEAAPEAVQTapAndHoldGesturePrivate@@XZ
?d_func@QTapAndHoldGesture@@AEBAPEBVQTapAndHoldGesturePrivate@@XZ
?d_func@QTapGesture@@AEAAPEAVQTapGesturePrivate@@XZ
?d_func@QTapGesture@@AEBAPEBVQTapGesturePrivate@@XZ
?d_func@QTextBlockGroup@@AEAAPEAVQTextBlockGroupPrivate@@XZ
?d_func@QTextBlockGroup@@AEBAPEBVQTextBlockGroupPrivate@@XZ
?d_func@QTextBrowser@@AEAAPEAVQTextBrowserPrivate@@XZ
?d_func@QTextBrowser@@AEBAPEBVQTextBrowserPrivate@@XZ
?d_func@QTextControl@@AEAAPEAVQTextControlPrivate@@XZ
?d_func@QTextControl@@AEBAPEBVQTextControlPrivate@@XZ
?d_func@QTextDocument@@AEAAPEAVQTextDocumentPrivate@@XZ
?d_func@QTextDocument@@AEBAPEBVQTextDocumentPrivate@@XZ
?d_func@QTextDocumentLayout@@AEAAPEAVQTextDocumentLayoutPrivate@@XZ
?d_func@QTextDocumentLayout@@AEBAPEBVQTextDocumentLayoutPrivate@@XZ
?d_func@QTextEdit@@AEAAPEAVQTextEditPrivate@@XZ
?d_func@QTextEdit@@AEBAPEBVQTextEditPrivate@@XZ
?d_func@QTextFrame@@AEAAPEAVQTextFramePrivate@@XZ
?d_func@QTextFrame@@AEBAPEBVQTextFramePrivate@@XZ
?d_func@QTextList@@AEAAPEAVQTextListPrivate@@XZ
?d_func@QTextList@@AEBAPEBVQTextListPrivate@@XZ
?d_func@QTextObject@@AEAAPEAVQTextObjectPrivate@@XZ
?d_func@QTextObject@@AEBAPEBVQTextObjectPrivate@@XZ
?d_func@QTextTable@@AEAAPEAVQTextTablePrivate@@XZ
?d_func@QTextTable@@AEBAPEBVQTextTablePrivate@@XZ
?d_func@QToolBar@@AEAAPEAVQToolBarPrivate@@XZ
?d_func@QToolBar@@AEBAPEBVQToolBarPrivate@@XZ
?d_func@QToolBox@@AEAAPEAVQToolBoxPrivate@@XZ
?d_func@QToolBox@@AEBAPEBVQToolBoxPrivate@@XZ
?d_func@QToolButton@@AEAAPEAVQToolButtonPrivate@@XZ
?d_func@QToolButton@@AEBAPEBVQToolButtonPrivate@@XZ
?d_func@QTreeView@@AEAAPEAVQTreeViewPrivate@@XZ
?d_func@QTreeView@@AEBAPEBVQTreeViewPrivate@@XZ
?d_func@QTreeWidget@@AEAAPEAVQTreeWidgetPrivate@@XZ
?d_func@QTreeWidget@@AEBAPEBVQTreeWidgetPrivate@@XZ
?d_func@QTreeWidgetItemIterator@@AEAAPEAVQTreeWidgetItemIteratorPrivate@@XZ
?d_func@QTreeWidgetItemIterator@@AEBAPEBVQTreeWidgetItemIteratorPrivate@@XZ
?d_func@QUndoGroup@@AEAAPEAVQUndoGroupPrivate@@XZ
?d_func@QUndoGroup@@AEBAPEBVQUndoGroupPrivate@@XZ
?d_func@QUndoStack@@AEAAPEAVQUndoStackPrivate@@XZ
?d_func@QUndoStack@@AEBAPEBVQUndoStackPrivate@@XZ
?d_func@QUndoView@@AEAAPEAVQUndoViewPrivate@@XZ
?d_func@QUndoView@@AEBAPEBVQUndoViewPrivate@@XZ
?d_func@QValidator@@AEAAPEAVQValidatorPrivate@@XZ
?d_func@QValidator@@AEBAPEBVQValidatorPrivate@@XZ
?d_func@QWidget@@AEAAPEAVQWidgetPrivate@@XZ
?d_func@QWidget@@AEBAPEBVQWidgetPrivate@@XZ
?d_func@QWidgetAction@@AEAAPEAVQWidgetActionPrivate@@XZ
?d_func@QWidgetAction@@AEBAPEBVQWidgetActionPrivate@@XZ
?d_func@QWindowsStyle@@AEAAPEAVQWindowsStylePrivate@@XZ
?d_func@QWindowsStyle@@AEBAPEBVQWindowsStylePrivate@@XZ
?d_func@QWindowsVistaStyle@@AEAAPEAVQWindowsVistaStylePrivate@@XZ
?d_func@QWindowsVistaStyle@@AEBAPEBVQWindowsVistaStylePrivate@@XZ
?d_func@QWindowsXPStyle@@AEAAPEAVQWindowsXPStylePrivate@@XZ
?d_func@QWindowsXPStyle@@AEBAPEBVQWindowsXPStylePrivate@@XZ
?d_func@QWizard@@AEAAPEAVQWizardPrivate@@XZ
?d_func@QWizard@@AEBAPEBVQWizardPrivate@@XZ
?d_func@QWizardPage@@AEAAPEAVQWizardPagePrivate@@XZ
?d_func@QWizardPage@@AEBAPEBVQWizardPagePrivate@@XZ
?d_func@QWorkspace@@AEAAPEAVQWorkspacePrivate@@XZ
?d_func@QWorkspace@@AEBAPEBVQWorkspacePrivate@@XZ
?dark@QColor@@QEBA?AV1@H@Z
?dark@QPalette@@QEBAAEBVQBrush@@XZ
?darker@QColor@@QEBA?AV1@H@Z
?dashOffset@QDashStroker@@QEBANXZ
?dashOffset@QPainterPathStroker@@QEBANXZ
?dashOffset@QPen@@QEBANXZ
?dashPattern@QDashStroker@@QEBA?AV?$QVector@N@@XZ
?dashPattern@QPainterPathStroker@@QEBA?AV?$QVector@N@@XZ
?dashPattern@QPen@@QEBA?AV?$QVector@N@@XZ
?data@QAbstractProxyModel@@UEBA?AVQVariant@@AEBVQModelIndex@@H@Z
?data@QAction@@QEBA?AVQVariant@@XZ
?data@QClipboardEvent@@QEAAPEAVQEventPrivate@@XZ
?data@QDirModel@@UEBA?AVQVariant@@AEBVQModelIndex@@H@Z
?data@QFileSystemModel@@UEBA?AVQVariant@@AEBVQModelIndex@@H@Z
?data@QGraphicsItem@@QEBA?AVQVariant@@H@Z
?data@QListModel@@UEBA?AVQVariant@@AEBVQModelIndex@@H@Z
?data@QListWidgetItem@@UEBA?AVQVariant@@H@Z
?data@QMatrix4x4@@QEAAPEANXZ
?data@QMatrix4x4@@QEBAPEBNXZ
?data@QPicture@@QEBAPEBDXZ
?data@QProxyModel@@UEBA?AVQVariant@@AEBVQModelIndex@@H@Z
?data@QSortFilterProxyModel@@UEBA?AVQVariant@@AEBVQModelIndex@@H@Z
?data@QStandardItem@@UEBA?AVQVariant@@H@Z
?data@QStandardItemModel@@UEBA?AVQVariant@@AEBVQModelIndex@@H@Z
?data@QStringListModel@@UEBA?AVQVariant@@AEBVQModelIndex@@H@Z
?data@QTableWidgetItem@@UEBA?AVQVariant@@H@Z
?data@QTreeWidgetItem@@UEBA?AVQVariant@@HH@Z
?data@QWidgetBackingStoreTracker@@QEAAPEAVQWidgetBackingStore@@XZ
?dataChanged@QAbstractItemView@@MEAAXAEBVQModelIndex@@0@Z
?dataChanged@QClipboard@@IEAAXXZ
?dataChanged@QHeaderView@@MEAAXAEBVQModelIndex@@0@Z
?dataChanged@QListView@@MEAAXAEBVQModelIndex@@0@Z
?dataChanged@QTreeView@@UEAAXAEBVQModelIndex@@0@Z
?dataChanged@QUrlModel@@AEAAXAEBVQModelIndex@@0@Z
?data_ptr@QBrush@@QEAAAEAV?$QScopedPointer@UQBrushData@@UQBrushDataPointerDeleter@@@@XZ
?data_ptr@QIcon@@QEAAAEAPEAVQIconPrivate@@XZ
?data_ptr@QImage@@QEAAAEAPEAUQImageData@@XZ
?data_ptr@QKeySequence@@QEAAAEAPEAVQKeySequencePrivate@@XZ
?data_ptr@QPen@@QEAAAEAPEAVQPenPrivate@@XZ
?data_ptr@QPicture@@QEAAAEAV?$QExplicitlySharedDataPointer@VQPicturePrivate@@@@XZ
?data_ptr@QPixmap@@QEAAAEAV?$QExplicitlySharedDataPointer@VQPixmapData@@@@XZ
?date@QDateTimeEdit@@QEBA?AVQDate@@XZ
?dateChanged@QDateTimeEdit@@IEAAXAEBVQDate@@@Z
?dateEditAcceptDelay@QCalendarWidget@@QEBAHXZ
?dateTextFormat@QCalendarWidget@@QEBA?AV?$QMap@VQDate@@VQTextCharFormat@@@@XZ
?dateTextFormat@QCalendarWidget@@QEBA?AVQTextCharFormat@@AEBVQDate@@@Z
?dateTime@QDateTimeEdit@@QEBA?AVQDateTime@@XZ
?dateTimeChanged@QDateTimeEdit@@IEAAXAEBVQDateTime@@@Z
?dateTimeFromText@QDateTimeEdit@@MEBA?AVQDateTime@@AEBVQString@@@Z
?deactivateWidgetCleanup@QWidgetPrivate@@QEAAXXZ
?decideFormatFromContent@QImageReader@@QEBA_NXZ
?decimals@QDoubleSpinBox@@QEBAHXZ
?decimals@QDoubleValidator@@QEBAHXZ
?declarationsForNode@StyleSelector@QCss@@QEAA?AV?$QVector@UDeclaration@QCss@@@@TNodePtr@12@PEBD@Z
?decodeString@QKeySequence@@CAHAEBVQString@@@Z
?decodeString@QKeySequencePrivate@@SAHAEBVQString@@W4SequenceFormat@QKeySequence@@@Z
?decoration@QItemDelegate@@IEBA?AVQPixmap@@AEBVQStyleOptionViewItem@@AEBVQVariant@@@Z
?defaultAction@QMenu@@QEBAPEAVQAction@@XZ
?defaultAction@QToolButton@@QEBAPEAVQAction@@XZ
?defaultAlignment@QHeaderView@@QEBA?AV?$QFlags@W4AlignmentFlag@Qt@@@@XZ
?defaultButton@QMessageBox@@QEBAPEAVQPushButton@@XZ
?defaultCursorMoveStyle@QTextDocument@@QEBA?AW4CursorMoveStyle@Qt@@XZ
?defaultDepth@QPixmap@@SAHXZ
?defaultDropAction@QAbstractItemView@@QEBA?AW4DropAction@Qt@@XZ
?defaultFactory@QItemEditorFactory@@SAPEBV1@XZ
?defaultFamily@QFont@@QEBA?AVQString@@XZ
?defaultFont@QTextDocument@@QEBA?AVQFont@@XZ
?defaultFont@QTextDocumentPrivate@@QEBA?AVQFont@@XZ
?defaultFont@QTextFormatCollection@@QEBA?AVQFont@@XZ
?defaultPrinter@QPrinterInfo@@SA?AV1@XZ
?defaultSectionSize@QHeaderView@@QEBAHXZ
?defaultSize@QStyleSheetStyle@@AEBA?AVQSize@@PEBVQWidget@@V2@AEBVQRect@@H@Z
?defaultStyleSheet@QTextDocument@@QEBA?AVQString@@XZ
?defaultSuffix@QFileDialog@@QEBA?AVQString@@XZ
?defaultTextColor@QGraphicsTextItem@@QEBA?AVQColor@@XZ
?defaultTextOption@QTextDocument@@QEBA?AVQTextOption@@XZ
?defaultWidget@QWidgetAction@@QEBAPEAVQWidget@@XZ
?defineIOHandler@QPictureIO@@SAXPEBD00P6AXPEAV1@@Z2@Z
?del@QLineControl@@QEAAXXZ
?del@QLineEdit@@QEAAXXZ
?delayedSort@QFileSystemModelPrivate@@QEAAXXZ
?delegateForIndex@QAbstractItemViewPrivate@@QEBAPEAVQAbstractItemDelegate@@AEBVQModelIndex@@@Z
?delegateRefCount@QAbstractItemViewPrivate@@QEBAHPEBVQAbstractItemDelegate@@@Z
?deleteAllLayoutItems@QDockAreaLayout@@QEAAXXZ
?deleteAllLayoutItems@QDockAreaLayoutInfo@@QEAAXXZ
?deleteChar@QTextCursor@@QEAAXXZ
?deleteExtra@QWidgetPrivate@@QEAAXXZ
?deleteItem@QGraphicsSceneIndex@@MEAAXPEAVQGraphicsItem@@@Z
?deleteLayoutEdges@QGraphicsAnchorLayoutPrivate@@QEAAXXZ
?deleteNativeDialog_sys@QFileDialogPrivate@@QEAAXXZ
?deleteObject@QTextDocumentPrivate@@QEAAXPEAVQTextObject@@@Z
?deletePreviousChar@QTextCursor@@QEAAXXZ
?deleteSysExtra@QWidgetPrivate@@QEAAXXZ
?deleteTLSysExtra@QWidgetPrivate@@QEAAXXZ
?deleteText@QAccessibleSimpleEditableTextInterface@@UEAAXHH@Z
?deleteWidget@QWidgetAction@@MEAAXPEAVQWidget@@@Z
?delta@QGraphicsSceneWheelEvent@@QEBAHXZ
?delta@QPanGesture@@QEBA?AVQPointF@@XZ
?delta@QWheelEvent@@QEBAHXZ
?delta@QWingedEdge@@AEBANHHH@Z
?depth@QColormap@@QEBAHXZ
?depth@QGraphicsItemPrivate@@QEBAHXZ
?depth@QImage@@QEBAHXZ
?depth@QPaintDevice@@QEBAHXZ
?depth@QPixmap@@QEBAHXZ
?depth@QPixmapData@@QEBAHXZ
?depth@QVolatileImage@@QEBAHXZ
?deref@QPixmap@@AEAAXXZ
?deref@QStyleSheetStyle@@QEAAXXZ
?derivedAt@QBezier@@QEBA?AVQPointF@@N@Z
?descent@QFontMetrics@@QEBAHXZ
?descent@QFontMetricsF@@QEBANXZ
?descent@QRawFont@@QEBANXZ
?descent@QTextInlineObject@@QEBANXZ
?descent@QTextItem@@QEBANXZ
?descent@QTextLine@@QEBANXZ
?description@QCommandLinkButton@@QEBA?AVQString@@XZ
?description@QImageWriter@@QEBA?AVQString@@XZ
?description@QInputContextFactory@@SA?AVQString@@AEBV2@@Z
?description@QPictureIO@@QEBA?AVQString@@XZ
?deselect@QLineControl@@QEAAXXZ
?deselect@QLineEdit@@QEAAXXZ
?desktop@QApplication@@SAPEAVQDesktopWidget@@XZ
?desktopSettingsAware@QApplication@@SA_NXZ
?desktopStyleKey@QApplicationPrivate@@SA?AVQString@@XZ
?destroy@QWidget@@IEAAX_N0@Z
?destroy@QWidgetBackingStoreTracker@@QEAAXXZ
?destroyItemGroup@QGraphicsScene@@QEAAXPEAVQGraphicsItemGroup@@@Z
?det@QMatrix@@QEBANXZ
?det@QTransform@@QEBANXZ
?detach@?$QList@VQItemSelectionRange@@@@QEAAXXZ
?detach@QBrush@@AEAAXW4BrushStyle@Qt@@@Z
?detach@QFont@@AEAAXXZ
?detach@QGlyphRun@@AEAAXXZ
?detach@QIcon@@QEAAXXZ
?detach@QImage@@QEAAXXZ
?detach@QPainterPath@@AEAAXXZ
?detach@QPalette@@AEAAXXZ
?detach@QPen@@AEAAXXZ
?detach@QPicture@@QEAAXXZ
?detach@QPixmap@@QEAAXXZ
?detach@QRegion@@AEAAXXZ
?detach@QStaticText@@AEAAXXZ
?detachShared@?$QList@VQItemSelectionRange@@@@QEAAXXZ
?detach_helper@?$QList@VQItemSelectionRange@@@@AEAAXH@Z
?detach_helper@?$QList@VQItemSelectionRange@@@@AEAAXXZ
?detach_helper@QPainterPath@@AEAAXXZ
?detach_helper@QPicture@@AEAAXXZ
?detach_helper_grow@?$QList@VQItemSelectionRange@@@@AEAAPEAUNode@1@HH@Z
?detailedText@QMessageBox@@QEBA?AVQString@@XZ
?determinant@QMatrix4x4@@QEBANXZ
?determinant@QMatrix@@QEBANXZ
?determinant@QTransform@@QEBANXZ
?devType@QImage@@UEBAHXZ
?devType@QPaintBuffer@@UEBAHXZ
?devType@QPaintDevice@@UEBAHXZ
?devType@QPicture@@UEBAHXZ
?devType@QPixmap@@UEBAHXZ
?devType@QPrinter@@UEBAHXZ
?devType@QWidget@@UEBAHXZ
?device@QImageIOHandler@@QEBAPEAVQIODevice@@XZ
?device@QImageReader@@QEBAPEAVQIODevice@@XZ
?device@QImageWriter@@QEBAPEAVQIODevice@@XZ
?device@QMovie@@QEBAPEAVQIODevice@@XZ
?device@QPainter@@QEBAPEAVQPaintDevice@@XZ
?device@QTabletEvent@@QEBA?AW4TabletDevice@1@XZ
?device@QTextDocumentWriter@@QEBAPEAVQIODevice@@XZ
?device@QZipReader@@QEBAPEAVQIODevice@@XZ
?device@QZipWriter@@QEBAPEAVQIODevice@@XZ
?deviceMatrix@QPainter@@QEBAAEBVQMatrix@@XZ
?devicePixelRatio@QImage@@QEBANXZ
?devicePixelRatio@QPixmap@@QEBANXZ
?deviceTransform@QGraphicsItem@@QEBA?AVQTransform@@AEBV2@@Z
?deviceTransform@QPainter@@QEBAAEBVQTransform@@XZ
?deviceType@QTouchEvent@@QEBA?AW4DeviceType@1@XZ
?dialogResultCode_sys@QFileDialogPrivate@@QEAA?AW4DialogCode@QDialog@@XZ
?digitCount@QLCDNumber@@QEBAHXZ
?direction@QBoxLayout@@QEBA?AW4Direction@1@XZ
?directory@QFileDialog@@QEBA?AVQDir@@XZ
?directoryEntered@QFileDialog@@IEAAXAEBVQString@@@Z
?directoryLoaded@QFileInfoGatherer@@IEAAXAEBVQString@@@Z
?directoryLoaded@QFileSystemModel@@IEAAXAEBVQString@@@Z
?directory_sys@QFileDialogPrivate@@QEBA?AVQString@@XZ
?dirtyOnScreenWidgetsRemoveAll@QWidgetBackingStore@@AEAAXPEAVQWidget@@@Z
?dirtyRegion@QWidgetBackingStore@@AEBA?AVQRegion@@PEAVQWidget@@@Z
?dirtyRegionOffset@QAbstractItemView@@IEBA?AVQPoint@@XZ
?dirtyWidgetsRemoveAll@QWidgetBackingStore@@AEAAXPEAVQWidget@@@Z
?discardCommand@QSessionManager@@QEBA?AVQStringList@@XZ
?discardUpdateRequest@QGraphicsItemPrivate@@QEBA_N_N00@Z
?disconnectFromModel@QProxyModel@@IEBAXPEBVQAbstractItemModel@@@Z
?dispatchEnterLeave@QApplicationPrivate@@SAXPEAVQWidget@@0@Z
?dispatchHoverEvent@QGraphicsScenePrivate@@QEAA_NPEAVQGraphicsSceneHoverEvent@@@Z
?dispatchPendingUpdateRequests@QGraphicsViewPrivate@@QEAAXXZ
?display@QLCDNumber@@QEAAXAEBVQString@@@Z
?display@QLCDNumber@@QEAAXH@Z
?display@QLCDNumber@@QEAAXN@Z
?displayFormat@QDateTimeEdit@@QEBA?AVQString@@XZ
?displayName@QDesktopServices@@SA?AVQString@@W4StandardLocation@1@@Z
?displayName@QFileSystemModelPrivate@@QEBA?AVQString@@AEBVQModelIndex@@@Z
?displayName@QInputContextFactory@@SA?AVQString@@AEBV2@@Z
?displayText@QLineControl@@QEBA?AVQString@@XZ
?displayText@QLineEdit@@QEBA?AVQString@@XZ
?displayText@QStyledItemDelegate@@UEBA?AVQString@@AEBVQVariant@@AEBVQLocale@@@Z
?displayTextChanged@QLineControl@@IEAAXAEBVQString@@@Z
?displayedSections@QDateTimeEdit@@QEBA?AV?$QFlags@W4Section@QDateTimeEdit@@@@XZ
?distanceToLine@QVector3D@@QEBANAEBV1@0@Z
?distanceToPlane@QVector3D@@QEBANAEBV1@00@Z
?distanceToPlane@QVector3D@@QEBANAEBV1@0@Z
?doAction@QAccessibleApplication@@UEAA_NHHAEBV?$QList@VQVariant@@@@@Z
?doAction@QAccessibleObject@@UEAA_NHHAEBV?$QList@VQVariant@@@@@Z
?doAction@QAccessibleObjectEx@@UEAA_NHHAEBV?$QList@VQVariant@@@@@Z
?doAction@QAccessibleWidget@@UEAA_NHHAEBV?$QList@VQVariant@@@@@Z
?doAction@QAccessibleWidgetEx@@UEAA_NHHAEBV?$QList@VQVariant@@@@@Z
?doAutoScroll@QAbstractItemView@@IEAAXXZ
?doClip@QPathClipper@@AEAA_NAEAVQWingedEdge@@W4ClipperMode@1@@Z
?doDelayedItemsLayout@QAbstractItemViewPrivate@@QEAAXH@Z
?doDelayedReset@QAbstractItemViewPrivate@@QEAAXXZ
?doImageIO@QImageData@@QEBA_NPEBVQImage@@PEAVQImageWriter@@H@Z
?doImageIO@QPixmap@@AEBA_NPEAVQImageWriter@@H@Z
?doItemsLayout@QAbstractItemView@@UEAAXXZ
?doItemsLayout@QHeaderView@@UEAAXXZ
?doItemsLayout@QListView@@UEAAXXZ
?doItemsLayout@QTableView@@UEAAXXZ
?doItemsLayout@QTreeView@@UEAAXXZ
?doKerning@QFontEngine@@UEBAXPEAUQGlyphLayout@@V?$QFlags@W4ShaperFlag@QTextEngine@@@@@Z
?doLayout@QColumnViewPrivate@@QEAAXXZ
?doLayout@QItemDelegate@@IEBAXAEBVQStyleOptionViewItem@@PEAVQRect@@11_N@Z
?doLayout@QTextDocumentLayout@@AEAA?AVQRectF@@HHH@Z
?doMove@QWidgetResizeHandler@@QEAAXXZ
?doResize@QLayoutPrivate@@QEAAXAEBVQSize@@@Z
?doResize@QWidgetResizeHandler@@QEAAXXZ
?doScroll@QComboBoxPrivateScroller@@IEAAXH@Z
?docHandle@QTextBlock@@QEBAPEAVQTextDocumentPrivate@@XZ
?docHandle@QTextDocument@@QEBAPEAVQTextDocumentPrivate@@XZ
?docHandle@QTextObject@@QEBAPEAVQTextDocumentPrivate@@XZ
?docLayout@QTextEngine@@QEBAPEAVQAbstractTextDocumentLayout@@XZ
?docName@QPrinter@@QEBA?AVQString@@XZ
?dockLocationChanged@QDockWidget@@IEAAXW4DockWidgetArea@Qt@@@Z
?dockOptions@QMainWindow@@QEBA?AV?$QFlags@W4DockOption@QMainWindow@@@@XZ
?dockWidgetArea@QMainWindow@@QEBA?AW4DockWidgetArea@Qt@@PEAVQDockWidget@@@Z
?dockWidgetArea@QMainWindowLayout@@QEBA?AW4DockWidgetArea@Qt@@PEAVQDockWidget@@@Z
?document@QAbstractTextDocumentLayout@@QEBAPEAVQTextDocument@@XZ
?document@QGraphicsTextItem@@QEBAPEAVQTextDocument@@XZ
?document@QPlainTextEdit@@QEBAPEAVQTextDocument@@XZ
?document@QSyntaxHighlighter@@QEBAPEAVQTextDocument@@XZ
?document@QTextBlock@@QEBAPEBVQTextDocument@@XZ
?document@QTextControl@@QEBAPEAVQTextDocument@@XZ
?document@QTextCursor@@QEBAPEAVQTextDocument@@XZ
?document@QTextDocumentPrivate@@QEAAPEAVQTextDocument@@XZ
?document@QTextDocumentPrivate@@QEBAPEBVQTextDocument@@XZ
?document@QTextEdit@@QEBAPEAVQTextDocument@@XZ
?document@QTextObject@@QEBAPEAVQTextDocument@@XZ
?documentChange@QTextDocumentPrivate@@QEAAXHH@Z
?documentChanged@QPlainTextDocumentLayout@@MEAAXHHH@Z
?documentChanged@QTextDocumentLayout@@MEAAXHHH@Z
?documentLayout@QTextDocument@@QEBAPEAVQAbstractTextDocumentLayout@@XZ
?documentLayoutChanged@QTextDocument@@IEAAXXZ
?documentMargin@QTextDocument@@QEBANXZ
?documentMode@QMainWindow@@QEBA_NXZ
?documentMode@QMainWindowLayout@@QEBA_NXZ
?documentMode@QMdiArea@@QEBA_NXZ
?documentMode@QTabBar@@QEBA_NXZ
?documentMode@QTabWidget@@QEBA_NXZ
?documentSize@QPlainTextDocumentLayout@@UEBA?AVQSizeF@@XZ
?documentSize@QTextDocumentLayout@@UEBA?AVQSizeF@@XZ
?documentSizeChanged@QAbstractTextDocumentLayout@@IEAAXAEBVQSizeF@@@Z
?documentSizeChanged@QTextControl@@IEAAXAEBVQSizeF@@@Z
?documentTitle@QPlainTextEdit@@QEBA?AVQString@@XZ
?documentTitle@QTextEdit@@QEBA?AVQString@@XZ
?done@QAbstractPageSetupDialog@@UEAAXH@Z
?done@QColorDialog@@MEAAXH@Z
?done@QDialog@@UEAAXH@Z
?done@QErrorMessage@@MEAAXH@Z
?done@QFileDialog@@MEAAXH@Z
?done@QFontDialog@@MEAAXH@Z
?done@QInputDialog@@UEAAXH@Z
?done@QPrintDialog@@UEAAXH@Z
?done@QPrintPreviewDialog@@UEAAXH@Z
?done@QWizard@@MEAAXH@Z
?dotProduct@QVector2D@@SANAEBV1@0@Z
?dotProduct@QVector3D@@SANAEBV1@0@Z
?dotProduct@QVector4D@@SANAEBV1@0@Z
?dotsPerMeterX@QImage@@QEBAHXZ
?dotsPerMeterY@QImage@@QEBAHXZ
?doubleClickInterval@QApplication@@SAHXZ
?doubleClicked@QAbstractItemView@@IEAAXAEBVQModelIndex@@@Z
?doubleDecimals@QInputDialog@@QEBAHXZ
?doubleMaximum@QInputDialog@@QEBANXZ
?doubleMinimum@QInputDialog@@QEBANXZ
?doubleProperty@QTextFormat@@QEBANH@Z
?doubleSidedPrinting@QPrinter@@QEBA_NXZ
?doubleValue@QInputDialog@@QEBANXZ
?doubleValueChanged@QInputDialog@@IEAAXN@Z
?doubleValueSelected@QInputDialog@@IEAAXN@Z
?dragAccepted@QDragResponseEvent@@QEBA_NXZ
?dragDropMode@QAbstractItemView@@QEBA?AW4DragDropMode@1@XZ
?dragDropOverwriteMode@QAbstractItemView@@QEBA_NXZ
?dragEnabled@QAbstractItemView@@QEBA_NXZ
?dragEnabled@QLineEdit@@QEBA_NXZ
?dragEnterEvent@QAbstractItemView@@MEAAXPEAVQDragEnterEvent@@@Z
?dragEnterEvent@QAbstractScrollArea@@MEAAXPEAVQDragEnterEvent@@@Z
?dragEnterEvent@QGraphicsItem@@MEAAXPEAVQGraphicsSceneDragDropEvent@@@Z
?dragEnterEvent@QGraphicsProxyWidget@@MEAAXPEAVQGraphicsSceneDragDropEvent@@@Z
?dragEnterEvent@QGraphicsScene@@MEAAXPEAVQGraphicsSceneDragDropEvent@@@Z
?dragEnterEvent@QGraphicsTextItem@@MEAAXPEAVQGraphicsSceneDragDropEvent@@@Z
?dragEnterEvent@QGraphicsView@@MEAAXPEAVQDragEnterEvent@@@Z
?dragEnterEvent@QLineEdit@@MEAAXPEAVQDragEnterEvent@@@Z
?dragEnterEvent@QPlainTextEdit@@MEAAXPEAVQDragEnterEvent@@@Z
?dragEnterEvent@QSidebar@@MEAAXPEAVQDragEnterEvent@@@Z
?dragEnterEvent@QTextEdit@@MEAAXPEAVQDragEnterEvent@@@Z
?dragEnterEvent@QWidget@@MEAAXPEAVQDragEnterEvent@@@Z
?dragLeaveEvent@QAbstractItemView@@MEAAXPEAVQDragLeaveEvent@@@Z
?dragLeaveEvent@QAbstractScrollArea@@MEAAXPEAVQDragLeaveEvent@@@Z
?dragLeaveEvent@QGraphicsItem@@MEAAXPEAVQGraphicsSceneDragDropEvent@@@Z
?dragLeaveEvent@QGraphicsProxyWidget@@MEAAXPEAVQGraphicsSceneDragDropEvent@@@Z
?dragLeaveEvent@QGraphicsScene@@MEAAXPEAVQGraphicsSceneDragDropEvent@@@Z
?dragLeaveEvent@QGraphicsTextItem@@MEAAXPEAVQGraphicsSceneDragDropEvent@@@Z
?dragLeaveEvent@QGraphicsView@@MEAAXPEAVQDragLeaveEvent@@@Z
?dragLeaveEvent@QLineEdit@@MEAAXPEAVQDragLeaveEvent@@@Z
?dragLeaveEvent@QListView@@MEAAXPEAVQDragLeaveEvent@@@Z
?dragLeaveEvent@QPlainTextEdit@@MEAAXPEAVQDragLeaveEvent@@@Z
?dragLeaveEvent@QTextEdit@@MEAAXPEAVQDragLeaveEvent@@@Z
?dragLeaveEvent@QWidget@@MEAAXPEAVQDragLeaveEvent@@@Z
?dragMode@QGraphicsView@@QEBA?AW4DragMode@1@XZ
?dragMoveEvent@QAbstractItemView@@MEAAXPEAVQDragMoveEvent@@@Z
?dragMoveEvent@QAbstractScrollArea@@MEAAXPEAVQDragMoveEvent@@@Z
?dragMoveEvent@QGraphicsItem@@MEAAXPEAVQGraphicsSceneDragDropEvent@@@Z
?dragMoveEvent@QGraphicsProxyWidget@@MEAAXPEAVQGraphicsSceneDragDropEvent@@@Z
?dragMoveEvent@QGraphicsScene@@MEAAXPEAVQGraphicsSceneDragDropEvent@@@Z
?dragMoveEvent@QGraphicsTextItem@@MEAAXPEAVQGraphicsSceneDragDropEvent@@@Z
?dragMoveEvent@QGraphicsView@@MEAAXPEAVQDragMoveEvent@@@Z
?dragMoveEvent@QLineEdit@@MEAAXPEAVQDragMoveEvent@@@Z
?dragMoveEvent@QListView@@MEAAXPEAVQDragMoveEvent@@@Z
?dragMoveEvent@QPlainTextEdit@@MEAAXPEAVQDragMoveEvent@@@Z
?dragMoveEvent@QTextEdit@@MEAAXPEAVQDragMoveEvent@@@Z
?dragMoveEvent@QTreeView@@MEAAXPEAVQDragMoveEvent@@@Z
?dragMoveEvent@QWidget@@MEAAXPEAVQDragMoveEvent@@@Z
?draggablePaintPairs@QAbstractItemViewPrivate@@UEBA?AV?$QList@U?$QPair@VQRect@@VQModelIndex@@@@@@AEBV?$QList@VQModelIndex@@@@PEAVQRect@@@Z
?draggablePaintPairs@QTreeViewPrivate@@UEBA?AV?$QList@U?$QPair@VQRect@@VQModelIndex@@@@@@AEBV?$QList@VQModelIndex@@@@PEAVQRect@@@Z
?draw@QGraphicsBlurEffect@@MEAAXPEAVQPainter@@@Z
?draw@QGraphicsColorizeEffect@@MEAAXPEAVQPainter@@@Z
?draw@QGraphicsDropShadowEffect@@MEAAXPEAVQPainter@@@Z
?draw@QGraphicsEffectSource@@QEAAXPEAVQPainter@@@Z
?draw@QGraphicsOpacityEffect@@MEAAXPEAVQPainter@@@Z
?draw@QGraphicsScenePrivate@@QEAAXPEAVQGraphicsItem@@PEAVQPainter@@QEBVQTransform@@2PEAVQRegion@@PEAVQWidget@@N2_N5@Z
?draw@QLineControl@@QEAAXPEAVQPainter@@AEBVQPoint@@AEBVQRect@@H@Z
?draw@QPaintBuffer@@QEBAXPEAVQPainter@@H@Z
?draw@QPaintEngineEx@@UEAAXAEBVQVectorPath@@@Z
?draw@QPixmapBlurFilter@@UEBAXPEAVQPainter@@AEBVQPointF@@AEBVQPixmap@@AEBVQRectF@@@Z
?draw@QPixmapColorizeFilter@@UEBAXPEAVQPainter@@AEBVQPointF@@AEBVQPixmap@@AEBVQRectF@@@Z
?draw@QPixmapConvolutionFilter@@UEBAXPEAVQPainter@@AEBVQPointF@@AEBVQPixmap@@AEBVQRectF@@@Z
?draw@QPixmapDropShadowFilter@@UEBAXPEAVQPainter@@AEBVQPointF@@AEBVQPixmap@@AEBVQRectF@@@Z
?draw@QPlainTextDocumentLayout@@UEAAXPEAVQPainter@@AEBUPaintContext@QAbstractTextDocumentLayout@@@Z
?draw@QTextDocumentLayout@@UEAAXPEAVQPainter@@AEBUPaintContext@QAbstractTextDocumentLayout@@@Z
?draw@QTextLayout@@QEBAXPEAVQPainter@@AEBVQPointF@@AEBV?$QVector@UFormatRange@QTextLayout@@@@AEBVQRectF@@@Z
?draw@QTextLine@@QEBAXPEAVQPainter@@AEBVQPointF@@PEBUFormatRange@QTextLayout@@@Z
?drawAnimatedOperation@QTreeViewPrivate@@QEBAXPEAVQPainter@@@Z
?drawArc@QPainter@@QEAAXAEBVQRect@@HH@Z
?drawArc@QPainter@@QEAAXAEBVQRectF@@HH@Z
?drawArc@QPainter@@QEAAXHHHHHH@Z
?drawBackground@QGraphicsScene@@MEAAXPEAVQPainter@@AEBVQRectF@@@Z
?drawBackground@QGraphicsView@@MEAAXPEAVQPainter@@AEBVQRectF@@@Z
?drawBackground@QItemDelegate@@IEBAXPEAVQPainter@@AEBVQStyleOptionViewItem@@AEBVQModelIndex@@@Z
?drawBase@QTabBar@@QEBA_NXZ
?drawBranches@QTreeView@@MEBAXPEAVQPainter@@AEBVQRect@@AEBVQModelIndex@@@Z
?drawCheck@QItemDelegate@@MEBAXPEAVQPainter@@AEBVQStyleOptionViewItem@@AEBVQRect@@W4CheckState@Qt@@@Z
?drawChord@QPainter@@QEAAXAEBVQRect@@HH@Z
?drawChord@QPainter@@QEAAXAEBVQRectF@@HH@Z
?drawChord@QPainter@@QEAAXHHHHHH@Z
?drawComplexControl@QCleanlooksStyle@@UEBAXW4ComplexControl@QStyle@@PEBVQStyleOptionComplex@@PEAVQPainter@@PEBVQWidget@@@Z
?drawComplexControl@QCommonStyle@@UEBAXW4ComplexControl@QStyle@@PEBVQStyleOptionComplex@@PEAVQPainter@@PEBVQWidget@@@Z
?drawComplexControl@QMotifStyle@@UEBAXW4ComplexControl@QStyle@@PEBVQStyleOptionComplex@@PEAVQPainter@@PEBVQWidget@@@Z
?drawComplexControl@QPlastiqueStyle@@UEBAXW4ComplexControl@QStyle@@PEBVQStyleOptionComplex@@PEAVQPainter@@PEBVQWidget@@@Z
?drawComplexControl@QProxyStyle@@UEBAXW4ComplexControl@QStyle@@PEBVQStyleOptionComplex@@PEAVQPainter@@PEBVQWidget@@@Z
?drawComplexControl@QStyleSheetStyle@@UEBAXW4ComplexControl@QStyle@@PEBVQStyleOptionComplex@@PEAVQPainter@@PEBVQWidget@@@Z
?drawComplexControl@QWindowsStyle@@UEBAXW4ComplexControl@QStyle@@PEBVQStyleOptionComplex@@PEAVQPainter@@PEBVQWidget@@@Z
?drawComplexControl@QWindowsVistaStyle@@UEBAXW4ComplexControl@QStyle@@PEBVQStyleOptionComplex@@PEAVQPainter@@PEBVQWidget@@@Z
?drawComplexControl@QWindowsXPStyle@@UEBAXW4ComplexControl@QStyle@@PEBVQStyleOptionComplex@@PEAVQPainter@@PEBVQWidget@@@Z
?drawContents@QSplashScreen@@MEAAXPEAVQPainter@@@Z
?drawContents@QTextControl@@QEAAXPEAVQPainter@@AEBVQRectF@@PEAVQWidget@@@Z
?drawContents@QTextDocument@@QEAAXPEAVQPainter@@AEBVQRectF@@@Z
?drawControl@QCDEStyle@@UEBAXW4ControlElement@QStyle@@PEBVQStyleOption@@PEAVQPainter@@PEBVQWidget@@@Z
?drawControl@QCleanlooksStyle@@UEBAXW4ControlElement@QStyle@@PEBVQStyleOption@@PEAVQPainter@@PEBVQWidget@@@Z
?drawControl@QCommonStyle@@UEBAXW4ControlElement@QStyle@@PEBVQStyleOption@@PEAVQPainter@@PEBVQWidget@@@Z
?drawControl@QMotifStyle@@UEBAXW4ControlElement@QStyle@@PEBVQStyleOption@@PEAVQPainter@@PEBVQWidget@@@Z
?drawControl@QPlastiqueStyle@@UEBAXW4ControlElement@QStyle@@PEBVQStyleOption@@PEAVQPainter@@PEBVQWidget@@@Z
?drawControl@QProxyStyle@@UEBAXW4ControlElement@QStyle@@PEBVQStyleOption@@PEAVQPainter@@PEBVQWidget@@@Z
?drawControl@QStyleSheetStyle@@UEBAXW4ControlElement@QStyle@@PEBVQStyleOption@@PEAVQPainter@@PEBVQWidget@@@Z
?drawControl@QWindowsStyle@@UEBAXW4ControlElement@QStyle@@PEBVQStyleOption@@PEAVQPainter@@PEBVQWidget@@@Z
?drawControl@QWindowsVistaStyle@@UEBAXW4ControlElement@QStyle@@PEBVQStyleOption@@PEAVQPainter@@PEBVQWidget@@@Z
?drawControl@QWindowsXPStyle@@UEBAXW4ControlElement@QStyle@@PEBVQStyleOption@@PEAVQPainter@@PEBVQWidget@@@Z
?drawConvexPolygon@QPainter@@QEAAXAEBVQPolygon@@@Z
?drawConvexPolygon@QPainter@@QEAAXAEBVQPolygonF@@@Z
?drawConvexPolygon@QPainter@@QEAAXPEBVQPoint@@H@Z
?drawConvexPolygon@QPainter@@QEAAXPEBVQPointF@@H@Z
?drawCursor@QTextLayout@@QEBAXPEAVQPainter@@AEBVQPointF@@H@Z
?drawCursor@QTextLayout@@QEBAXPEAVQPainter@@AEBVQPointF@@HH@Z
?drawDecoration@QItemDelegate@@MEBAXPEAVQPainter@@AEBVQStyleOptionViewItem@@AEBVQRect@@AEBVQPixmap@@@Z
?drawDisplay@QItemDelegate@@MEBAXPEAVQPainter@@AEBVQStyleOptionViewItem@@AEBVQRect@@AEBVQString@@@Z
?drawEllipse@QBlitterPaintEngine@@UEAAXAEBVQRectF@@@Z
?drawEllipse@QPaintEngine@@UEAAXAEBVQRect@@@Z
?drawEllipse@QPaintEngine@@UEAAXAEBVQRectF@@@Z
?drawEllipse@QPaintEngineEx@@UEAAXAEBVQRect@@@Z
?drawEllipse@QPaintEngineEx@@UEAAXAEBVQRectF@@@Z
?drawEllipse@QPainter@@QEAAXAEBVQPoint@@HH@Z
?drawEllipse@QPainter@@QEAAXAEBVQPointF@@NN@Z
?drawEllipse@QPainter@@QEAAXAEBVQRect@@@Z
?drawEllipse@QPainter@@QEAAXAEBVQRectF@@@Z
?drawEllipse@QPainter@@QEAAXHHHH@Z
?drawFocus@QItemDelegate@@MEBAXPEAVQPainter@@AEBVQStyleOptionViewItem@@AEBVQRect@@@Z
?drawForeground@QGraphicsScene@@MEAAXPEAVQPainter@@AEBVQRectF@@@Z
?drawForeground@QGraphicsView@@MEAAXPEAVQPainter@@AEBVQRectF@@@Z
?drawFrame@QFrame@@IEAAXPEAVQPainter@@@Z
?drawGlyphRun@QPainter@@QEAAXAEBVQPointF@@AEBVQGlyphRun@@@Z
?drawImage@QBlitterPaintEngine@@UEAAXAEBVQPointF@@AEBVQImage@@@Z
?drawImage@QBlitterPaintEngine@@UEAAXAEBVQRectF@@AEBVQImage@@0V?$QFlags@W4ImageConversionFlag@Qt@@@@@Z
?drawImage@QPaintEngine@@UEAAXAEBVQRectF@@AEBVQImage@@0V?$QFlags@W4ImageConversionFlag@Qt@@@@@Z
?drawImage@QPaintEngineEx@@UEAAXAEBVQPointF@@AEBVQImage@@@Z
?drawImage@QPainter@@QEAAXAEBVQPoint@@AEBVQImage@@@Z
?drawImage@QPainter@@QEAAXAEBVQPoint@@AEBVQImage@@AEBVQRect@@V?$QFlags@W4ImageConversionFlag@Qt@@@@@Z
?drawImage@QPainter@@QEAAXAEBVQPointF@@AEBVQImage@@@Z
?drawImage@QPainter@@QEAAXAEBVQPointF@@AEBVQImage@@AEBVQRectF@@V?$QFlags@W4ImageConversionFlag@Qt@@@@@Z
?drawImage@QPainter@@QEAAXAEBVQRect@@AEBVQImage@@0V?$QFlags@W4ImageConversionFlag@Qt@@@@@Z
?drawImage@QPainter@@QEAAXAEBVQRect@@AEBVQImage@@@Z
?drawImage@QPainter@@QEAAXAEBVQRectF@@AEBVQImage@@0V?$QFlags@W4ImageConversionFlag@Qt@@@@@Z
?drawImage@QPainter@@QEAAXAEBVQRectF@@AEBVQImage@@@Z
?drawImage@QPainter@@QEAAXHHAEBVQImage@@HHHHV?$QFlags@W4ImageConversionFlag@Qt@@@@@Z
?drawInlineObject@QAbstractTextDocumentLayout@@MEAAXPEAVQPainter@@AEBVQRectF@@VQTextInlineObject@@HAEBVQTextFormat@@@Z
?drawInlineObject@QTextDocumentLayout@@MEAAXPEAVQPainter@@AEBVQRectF@@VQTextInlineObject@@HAEBVQTextFormat@@@Z
?drawItemHelper@QGraphicsScenePrivate@@QEAAXPEAVQGraphicsItem@@PEAVQPainter@@PEBVQStyleOptionGraphicsItem@@PEAVQWidget@@_N@Z
?drawItemPixmap@QCleanlooksStyle@@UEBAXPEAVQPainter@@AEBVQRect@@HAEBVQPixmap@@@Z
?drawItemPixmap@QProxyStyle@@UEBAXPEAVQPainter@@AEBVQRect@@HAEBVQPixmap@@@Z
?drawItemPixmap@QStyle@@UEBAXPEAVQPainter@@AEBVQRect@@HAEBVQPixmap@@@Z
?drawItemPixmap@QStyleSheetStyle@@UEBAXPEAVQPainter@@AEBVQRect@@HAEBVQPixmap@@@Z
?drawItemText@QCleanlooksStyle@@UEBAXPEAVQPainter@@AEBVQRect@@HAEBVQPalette@@_NAEBVQString@@W4ColorRole@4@@Z
?drawItemText@QProxyStyle@@UEBAXPEAVQPainter@@AEBVQRect@@HAEBVQPalette@@_NAEBVQString@@W4ColorRole@4@@Z
?drawItemText@QStyle@@UEBAXPEAVQPainter@@AEBVQRect@@HAEBVQPalette@@_NAEBVQString@@W4ColorRole@4@@Z
?drawItemText@QStyleSheetStyle@@UEBAXPEAVQPainter@@AEBVQRect@@HAEBVQPalette@@_NAEBVQString@@W4ColorRole@4@@Z
?drawItems@QGraphicsScene@@MEAAXPEAVQPainter@@HQEAPEAVQGraphicsItem@@QEBVQStyleOptionGraphicsItem@@PEAVQWidget@@@Z
?drawItems@QGraphicsScenePrivate@@QEAAXPEAVQPainter@@QEBVQTransform@@PEAVQRegion@@PEAVQWidget@@@Z
?drawItems@QGraphicsView@@MEAAXPEAVQPainter@@HQEAPEAVQGraphicsItem@@QEBVQStyleOptionGraphicsItem@@@Z
?drawLine@QPainter@@QEAAXAEBVQLine@@@Z
?drawLine@QPainter@@QEAAXAEBVQLineF@@@Z
?drawLine@QPainter@@QEAAXAEBVQPoint@@0@Z
?drawLine@QPainter@@QEAAXAEBVQPointF@@0@Z
?drawLine@QPainter@@QEAAXHHHH@Z
?drawLines@QPaintEngine@@UEAAXPEBVQLine@@H@Z
?drawLines@QPaintEngine@@UEAAXPEBVQLineF@@H@Z
?drawLines@QPaintEngineEx@@UEAAXPEBVQLine@@H@Z
?drawLines@QPaintEngineEx@@UEAAXPEBVQLineF@@H@Z
?drawLines@QPainter@@QEAAXAEBV?$QVector@VQLine@@@@@Z
?drawLines@QPainter@@QEAAXAEBV?$QVector@VQLineF@@@@@Z
?drawLines@QPainter@@QEAAXAEBV?$QVector@VQPoint@@@@@Z
?drawLines@QPainter@@QEAAXAEBV?$QVector@VQPointF@@@@@Z
?drawLines@QPainter@@QEAAXPEBVQLine@@H@Z
?drawLines@QPainter@@QEAAXPEBVQLineF@@H@Z
?drawLines@QPainter@@QEAAXPEBVQPoint@@H@Z
?drawLines@QPainter@@QEAAXPEBVQPointF@@H@Z
?drawPath@QPaintEngine@@UEAAXAEBVQPainterPath@@@Z
?drawPath@QPaintEngineEx@@UEAAXAEBVQPainterPath@@@Z
?drawPath@QPainter@@QEAAXAEBVQPainterPath@@@Z
?drawPicture@QPainter@@QEAAXAEBVQPoint@@AEBVQPicture@@@Z
?drawPicture@QPainter@@QEAAXAEBVQPointF@@AEBVQPicture@@@Z
?drawPicture@QPainter@@QEAAXHHAEBVQPicture@@@Z
?drawPie@QPainter@@QEAAXAEBVQRect@@HH@Z
?drawPie@QPainter@@QEAAXAEBVQRectF@@HH@Z
?drawPie@QPainter@@QEAAXHHHHHH@Z
?drawPixmap@QBlitterPaintEngine@@UEAAXAEBVQPointF@@AEBVQPixmap@@@Z
?drawPixmap@QBlitterPaintEngine@@UEAAXAEBVQRectF@@AEBVQPixmap@@0@Z
?drawPixmap@QPaintEngineEx@@UEAAXAEBVQPointF@@AEBVQPixmap@@@Z
?drawPixmap@QPainter@@QEAAXAEBVQPoint@@AEBVQPixmap@@@Z
?drawPixmap@QPainter@@QEAAXAEBVQPoint@@AEBVQPixmap@@AEBVQRect@@@Z
?drawPixmap@QPainter@@QEAAXAEBVQPointF@@AEBVQPixmap@@@Z
?drawPixmap@QPainter@@QEAAXAEBVQPointF@@AEBVQPixmap@@AEBVQRectF@@@Z
?drawPixmap@QPainter@@QEAAXAEBVQRect@@AEBVQPixmap@@0@Z
?drawPixmap@QPainter@@QEAAXAEBVQRect@@AEBVQPixmap@@@Z
?drawPixmap@QPainter@@QEAAXAEBVQRectF@@AEBVQPixmap@@0@Z
?drawPixmap@QPainter@@QEAAXHHAEBVQPixmap@@@Z
?drawPixmap@QPainter@@QEAAXHHAEBVQPixmap@@HHHH@Z
?drawPixmap@QPainter@@QEAAXHHHHAEBVQPixmap@@@Z
?drawPixmap@QPainter@@QEAAXHHHHAEBVQPixmap@@HHHH@Z
?drawPixmapFragments@QPaintEngineEx@@UEAAXPEBVPixmapFragment@QPainter@@HAEBVQPixmap@@V?$QFlags@W4PixmapFragmentHint@QPainter@@@@@Z
?drawPixmapFragments@QPaintEngineEx@@UEAAXPEBVQRectF@@0HAEBVQPixmap@@V?$QFlags@W4PixmapFragmentHint@QPainter@@@@@Z
?drawPixmapFragments@QPainter@@QEAAXPEBVPixmapFragment@1@HAEBVQPixmap@@V?$QFlags@W4PixmapFragmentHint@QPainter@@@@@Z
?drawPixmapFragments@QPainter@@QEAAXPEBVQRectF@@0HAEBVQPixmap@@V?$QFlags@W4PixmapFragmentHint@QPainter@@@@@Z
?drawPixmapOpacity@QBlittable@@UEAAXAEBVQRectF@@AEBVQPixmap@@0W4CompositionMode@QPainter@@N@Z
?drawPoint@QPainter@@QEAAXAEBVQPoint@@@Z
?drawPoint@QPainter@@QEAAXAEBVQPointF@@@Z
?drawPoint@QPainter@@QEAAXHH@Z
?drawPoints@QBlitterPaintEngine@@UEAAXPEBVQPoint@@H@Z
?drawPoints@QBlitterPaintEngine@@UEAAXPEBVQPointF@@H@Z
?drawPoints@QPaintEngine@@UEAAXPEBVQPoint@@H@Z
?drawPoints@QPaintEngine@@UEAAXPEBVQPointF@@H@Z
?drawPoints@QPaintEngineEx@@UEAAXPEBVQPoint@@H@Z
?drawPoints@QPaintEngineEx@@UEAAXPEBVQPointF@@H@Z
?drawPoints@QPainter@@QEAAXAEBVQPolygon@@@Z
?drawPoints@QPainter@@QEAAXAEBVQPolygonF@@@Z
?drawPoints@QPainter@@QEAAXPEBVQPoint@@H@Z
?drawPoints@QPainter@@QEAAXPEBVQPointF@@H@Z
?drawPolygon@QBlitterPaintEngine@@UEAAXPEBVQPoint@@HW4PolygonDrawMode@QPaintEngine@@@Z
?drawPolygon@QBlitterPaintEngine@@UEAAXPEBVQPointF@@HW4PolygonDrawMode@QPaintEngine@@@Z
?drawPolygon@QPaintEngine@@UEAAXPEBVQPoint@@HW4PolygonDrawMode@1@@Z
?drawPolygon@QPaintEngine@@UEAAXPEBVQPointF@@HW4PolygonDrawMode@1@@Z
?drawPolygon@QPaintEngineEx@@UEAAXPEBVQPoint@@HW4PolygonDrawMode@QPaintEngine@@@Z
?drawPolygon@QPaintEngineEx@@UEAAXPEBVQPointF@@HW4PolygonDrawMode@QPaintEngine@@@Z
?drawPolygon@QPainter@@QEAAXAEBVQPolygon@@W4FillRule@Qt@@@Z
?drawPolygon@QPainter@@QEAAXAEBVQPolygonF@@W4FillRule@Qt@@@Z
?drawPolygon@QPainter@@QEAAXPEBVQPoint@@HW4FillRule@Qt@@@Z
?drawPolygon@QPainter@@QEAAXPEBVQPointF@@HW4FillRule@Qt@@@Z
?drawPolyline@QPainter@@QEAAXAEBVQPolygon@@@Z
?drawPolyline@QPainter@@QEAAXAEBVQPolygonF@@@Z
?drawPolyline@QPainter@@QEAAXPEBVQPoint@@H@Z
?drawPolyline@QPainter@@QEAAXPEBVQPointF@@H@Z
?drawPrimitive@QCDEStyle@@UEBAXW4PrimitiveElement@QStyle@@PEBVQStyleOption@@PEAVQPainter@@PEBVQWidget@@@Z
?drawPrimitive@QCleanlooksStyle@@UEBAXW4PrimitiveElement@QStyle@@PEBVQStyleOption@@PEAVQPainter@@PEBVQWidget@@@Z
?drawPrimitive@QCommonStyle@@UEBAXW4PrimitiveElement@QStyle@@PEBVQStyleOption@@PEAVQPainter@@PEBVQWidget@@@Z
?drawPrimitive@QMotifStyle@@UEBAXW4PrimitiveElement@QStyle@@PEBVQStyleOption@@PEAVQPainter@@PEBVQWidget@@@Z
?drawPrimitive@QPlastiqueStyle@@UEBAXW4PrimitiveElement@QStyle@@PEBVQStyleOption@@PEAVQPainter@@PEBVQWidget@@@Z
?drawPrimitive@QProxyStyle@@UEBAXW4PrimitiveElement@QStyle@@PEBVQStyleOption@@PEAVQPainter@@PEBVQWidget@@@Z
?drawPrimitive@QStyleSheetStyle@@UEBAXW4PrimitiveElement@QStyle@@PEBVQStyleOption@@PEAVQPainter@@PEBVQWidget@@@Z
?drawPrimitive@QWindowsStyle@@UEBAXW4PrimitiveElement@QStyle@@PEBVQStyleOption@@PEAVQPainter@@PEBVQWidget@@@Z
?drawPrimitive@QWindowsVistaStyle@@UEBAXW4PrimitiveElement@QStyle@@PEBVQStyleOption@@PEAVQPainter@@PEBVQWidget@@@Z
?drawPrimitive@QWindowsXPStyle@@UEBAXW4PrimitiveElement@QStyle@@PEBVQStyleOption@@PEAVQPainter@@PEBVQWidget@@@Z
?drawRect@QPainter@@QEAAXAEBVQRect@@@Z
?drawRect@QPainter@@QEAAXAEBVQRectF@@@Z
?drawRect@QPainter@@QEAAXHHHH@Z
?drawRects@QBlitterPaintEngine@@UEAAXPEBVQRect@@H@Z
?drawRects@QBlitterPaintEngine@@UEAAXPEBVQRectF@@H@Z
?drawRects@QPaintEngine@@UEAAXPEBVQRect@@H@Z
?drawRects@QPaintEngine@@UEAAXPEBVQRectF@@H@Z
?drawRects@QPaintEngineEx@@UEAAXPEBVQRect@@H@Z
?drawRects@QPaintEngineEx@@UEAAXPEBVQRectF@@H@Z
?drawRects@QPainter@@QEAAXAEBV?$QVector@VQRect@@@@@Z
?drawRects@QPainter@@QEAAXAEBV?$QVector@VQRectF@@@@@Z
?drawRects@QPainter@@QEAAXPEBVQRect@@H@Z
?drawRects@QPainter@@QEAAXPEBVQRectF@@H@Z
?drawRoundRect@QPainter@@QEAAXAEBVQRect@@HH@Z
?drawRoundRect@QPainter@@QEAAXAEBVQRectF@@HH@Z
?drawRoundRect@QPainter@@QEAAXHHHHHH@Z
?drawRoundedRect@QPaintEngineEx@@UEAAXAEBVQRectF@@NNW4SizeMode@Qt@@@Z
?drawRoundedRect@QPainter@@QEAAXAEBVQRect@@NNW4SizeMode@Qt@@@Z
?drawRoundedRect@QPainter@@QEAAXAEBVQRectF@@NNW4SizeMode@Qt@@@Z
?drawRoundedRect@QPainter@@QEAAXHHHHNNW4SizeMode@Qt@@@Z
?drawRow@QTreeView@@MEBAXPEAVQPainter@@AEBVQStyleOptionViewItem@@AEBVQModelIndex@@@Z
?drawSource@QGraphicsEffect@@IEAAXPEAVQPainter@@@Z
?drawStaticText@QPainter@@QEAAXAEBVQPoint@@AEBVQStaticText@@@Z
?drawStaticText@QPainter@@QEAAXAEBVQPointF@@AEBVQStaticText@@@Z
?drawStaticText@QPainter@@QEAAXHHAEBVQStaticText@@@Z
?drawStaticTextItem@QBlitterPaintEngine@@UEAAXPEAVQStaticTextItem@@@Z
?drawStaticTextItem@QPaintEngineEx@@UEAAXPEAVQStaticTextItem@@@Z
?drawSubtreeRecursive@QGraphicsScenePrivate@@QEAAXPEAVQGraphicsItem@@PEAVQPainter@@QEBVQTransform@@PEAVQRegion@@PEAVQWidget@@N2@Z
?drawText@QPainter@@QEAAXAEBVQPoint@@AEBVQString@@@Z
?drawText@QPainter@@QEAAXAEBVQPointF@@AEBVQString@@@Z
?drawText@QPainter@@QEAAXAEBVQPointF@@AEBVQString@@HH@Z
?drawText@QPainter@@QEAAXAEBVQRect@@HAEBVQString@@PEAV2@@Z
?drawText@QPainter@@QEAAXAEBVQRectF@@AEBVQString@@AEBVQTextOption@@@Z
?drawText@QPainter@@QEAAXAEBVQRectF@@HAEBVQString@@PEAV2@@Z
?drawText@QPainter@@QEAAXHHAEBVQString@@@Z
?drawText@QPainter@@QEAAXHHHHHAEBVQString@@PEAVQRect@@@Z
?drawTextItem@QBlitterPaintEngine@@UEAAXAEBVQPointF@@AEBVQTextItem@@@Z
?drawTextItem@QPaintEngine@@UEAAXAEBVQPointF@@AEBVQTextItem@@@Z
?drawTextItem@QPainter@@QEAAXAEBVQPoint@@AEBVQTextItem@@@Z
?drawTextItem@QPainter@@QEAAXAEBVQPointF@@AEBVQTextItem@@@Z
?drawTextItem@QPainter@@QEAAXHHAEBVQTextItem@@@Z
?drawTiledPixmap@QBlitterPaintEngine@@UEAAXAEBVQRectF@@AEBVQPixmap@@AEBVQPointF@@@Z
?drawTiledPixmap@QPaintEngine@@UEAAXAEBVQRectF@@AEBVQPixmap@@AEBVQPointF@@@Z
?drawTiledPixmap@QPaintEngineEx@@UEAAXAEBVQRectF@@AEBVQPixmap@@AEBVQPointF@@@Z
?drawTiledPixmap@QPainter@@QEAAXAEBVQRect@@AEBVQPixmap@@AEBVQPoint@@@Z
?drawTiledPixmap@QPainter@@QEAAXAEBVQRectF@@AEBVQPixmap@@AEBVQPointF@@@Z
?drawTiledPixmap@QPainter@@QEAAXHHHHAEBVQPixmap@@HH@Z
?drawTree@QTreeView@@IEBAXPEAVQPainter@@AEBVQRegion@@@Z
?drawWidget@QWidgetPrivate@@QEAAXPEAVQPaintDevice@@AEBVQRegion@@AEBVQPoint@@HPEAVQPainter@@PEAVQWidgetBackingStore@@@Z
?dropAction@QDropEvent@@QEBA?AW4DropAction@Qt@@XZ
?dropAction@QGraphicsSceneDragDropEvent@@QEBA?AW4DropAction@Qt@@XZ
?dropEvent@QAbstractItemView@@MEAAXPEAVQDropEvent@@@Z
?dropEvent@QAbstractScrollArea@@MEAAXPEAVQDropEvent@@@Z
?dropEvent@QGraphicsItem@@MEAAXPEAVQGraphicsSceneDragDropEvent@@@Z
?dropEvent@QGraphicsProxyWidget@@MEAAXPEAVQGraphicsSceneDragDropEvent@@@Z
?dropEvent@QGraphicsScene@@MEAAXPEAVQGraphicsSceneDragDropEvent@@@Z
?dropEvent@QGraphicsTextItem@@MEAAXPEAVQGraphicsSceneDragDropEvent@@@Z
?dropEvent@QGraphicsView@@MEAAXPEAVQDropEvent@@@Z
?dropEvent@QLineEdit@@MEAAXPEAVQDropEvent@@@Z
?dropEvent@QListView@@MEAAXPEAVQDropEvent@@@Z
?dropEvent@QListWidget@@UEAAXPEAVQDropEvent@@@Z
?dropEvent@QPlainTextEdit@@MEAAXPEAVQDropEvent@@@Z
?dropEvent@QTableWidget@@MEAAXPEAVQDropEvent@@@Z
?dropEvent@QTextEdit@@MEAAXPEAVQDropEvent@@@Z
?dropEvent@QTreeWidget@@MEAAXPEAVQDropEvent@@@Z
?dropEvent@QWidget@@MEAAXPEAVQDropEvent@@@Z
?dropIndicatorPosition@QAbstractItemView@@IEBA?AW4DropIndicatorPosition@1@XZ
?dropMimeData@QDirModel@@UEAA_NPEBVQMimeData@@W4DropAction@Qt@@HHAEBVQModelIndex@@@Z
?dropMimeData@QFileSystemModel@@UEAA_NPEBVQMimeData@@W4DropAction@Qt@@HHAEBVQModelIndex@@@Z
?dropMimeData@QIdentityProxyModel@@UEAA_NPEBVQMimeData@@W4DropAction@Qt@@HHAEBVQModelIndex@@@Z
?dropMimeData@QListModel@@UEAA_NPEBVQMimeData@@W4DropAction@Qt@@HHAEBVQModelIndex@@@Z
?dropMimeData@QListWidget@@MEAA_NHPEBVQMimeData@@W4DropAction@Qt@@@Z
?dropMimeData@QProxyModel@@UEAA_NPEBVQMimeData@@W4DropAction@Qt@@HHAEBVQModelIndex@@@Z
?dropMimeData@QSortFilterProxyModel@@UEAA_NPEBVQMimeData@@W4DropAction@Qt@@HHAEBVQModelIndex@@@Z
?dropMimeData@QStandardItemModel@@UEAA_NPEBVQMimeData@@W4DropAction@Qt@@HHAEBVQModelIndex@@@Z
?dropMimeData@QTableWidget@@MEAA_NHHPEBVQMimeData@@W4DropAction@Qt@@@Z
?dropMimeData@QTreeWidget@@MEAA_NPEAVQTreeWidgetItem@@HPEBVQMimeData@@W4DropAction@Qt@@@Z
?dropMimeData@QUrlModel@@UEAA_NPEBVQMimeData@@W4DropAction@Qt@@HHAEBVQModelIndex@@@Z
?dropOn@QAbstractItemViewPrivate@@UEAA_NPEAVQDropEvent@@PEAH1PEAVQModelIndex@@@Z
?droppingOnItself@QAbstractItemViewPrivate@@QEAA_NPEAVQDropEvent@@AEBVQModelIndex@@@Z
?dump@QGraphicsLinearLayout@@QEBAXH@Z
?duplex@QPrinter@@QEBA?AW4DuplexMode@1@XZ
?duplicateNativeImage@QVolatileImage@@QEBAPEAXXZ
?duplicatesEnabled@QComboBox@@QEBA_NXZ
?dx@QMatrix@@QEBANXZ
?dx@QTransform@@QEBANXZ
?dy@QMatrix@@QEBANXZ
?dy@QTransform@@QEBANXZ
?dynamicDocumentSize@QTextDocumentLayout@@QEBA?AVQSizeF@@XZ
?dynamicPageCount@QTextDocumentLayout@@QEBAHXZ
?dynamicSortFilter@QSortFilterProxyModel@@QEBA_NXZ
?echoMode@QLineControl@@QEBAIXZ
?echoMode@QLineEdit@@QEBA?AW4EchoMode@1@XZ
?edge@QWingedEdge@@QEAAPEAVQPathEdge@@H@Z
?edge@QWingedEdge@@QEBAPEBVQPathEdge@@H@Z
?edgeCount@QWingedEdge@@QEBAHXZ
?edgeOrientation@QGraphicsAnchorLayoutPrivate@@SA?AW4Orientation@1@W4AnchorPoint@Qt@@@Z
?edit@QAbstractItemView@@MEAA_NAEBVQModelIndex@@W4EditTrigger@1@PEAVQEvent@@@Z
?edit@QAbstractItemView@@QEAAXAEBVQModelIndex@@@Z
?editItem@QListWidget@@QEAAXPEAVQListWidgetItem@@@Z
?editItem@QTableWidget@@QEAAXPEAVQTableWidgetItem@@@Z
?editItem@QTreeWidget@@QEAAXPEAVQTreeWidgetItem@@H@Z
?editTextChanged@QComboBox@@IEAAXAEBVQString@@@Z
?editTriggers@QAbstractItemView@@QEBA?AV?$QFlags@W4EditTrigger@QAbstractItemView@@@@XZ
?editableTextInterface@QAccessibleInterface@@QEAAPEAVQAccessibleEditableTextInterface@@XZ
?editingFinished@QAbstractSpinBox@@IEAAXXZ
?editingFinished@QLineControl@@IEAAXXZ
?editingFinished@QLineEdit@@IEAAXXZ
?editor@QAbstractItemViewPrivate@@QEAAPEAVQWidget@@AEBVQModelIndex@@AEBVQStyleOptionViewItem@@@Z
?editorDestroyed@QAbstractItemView@@MEAAXPEAVQObject@@@Z
?editorEvent@QAbstractItemDelegate@@UEAA_NPEAVQEvent@@PEAVQAbstractItemModel@@AEBVQStyleOptionViewItem@@AEBVQModelIndex@@@Z
?editorEvent@QItemDelegate@@MEAA_NPEAVQEvent@@PEAVQAbstractItemModel@@AEBVQStyleOptionViewItem@@AEBVQModelIndex@@@Z
?editorEvent@QStyledItemDelegate@@MEAA_NPEAVQEvent@@PEAVQAbstractItemModel@@AEBVQStyleOptionViewItem@@AEBVQModelIndex@@@Z
?editorForIndex@QAbstractItemViewPrivate@@QEBAAEBUQEditorInfo@@AEBVQModelIndex@@@Z
?effectiveBoundingRect@QGraphicsItemPrivate@@QEBA?AVQRectF@@AEBV2@@Z
?effectiveBoundingRect@QGraphicsItemPrivate@@QEBA?AVQRectF@@PEAVQGraphicsItem@@@Z
?effectiveFocusWidget@QWidgetPrivate@@QEAAPEAVQWidget@@XZ
?effectiveOpacity@QGraphicsItem@@QEBANXZ
?effectiveOpacity@QGraphicsItemPrivate@@QEBANXZ
?effectiveRectFor@QWidgetPrivate@@QEBA?AVQRect@@AEBV2@@Z
?effectiveSizeHint@QGraphicsLayoutItem@@QEBA?AVQSizeF@@W4SizeHint@Qt@@AEBV2@@Z
?effectiveSizeHints@QGraphicsLayoutItemPrivate@@QEBAPEAVQSizeF@@AEBV2@@Z
?effectiveWinId@QWidget@@QEBAPEAUHWND__@@XZ
?elementAt@QPainterPath@@QEBAAEBVElement@1@H@Z
?elementCount@QPainterPath@@QEBAHXZ
?elementCount@QVectorPath@@QEBAHXZ
?elements@QVectorPath@@QEBAPEBW4ElementType@QPainterPath@@XZ
?elideMode@QTabBar@@QEBA?AW4TextElideMode@Qt@@XZ
?elideMode@QTabWidget@@QEBA?AW4TextElideMode@Qt@@XZ
?elidedText@QAbstractItemDelegate@@SA?AVQString@@AEBVQFontMetrics@@HW4TextElideMode@Qt@@AEBV2@@Z
?elidedText@QFontMetrics@@QEBA?AVQString@@AEBV2@W4TextElideMode@Qt@@HH@Z
?elidedText@QFontMetricsF@@QEBA?AVQString@@AEBV2@W4TextElideMode@Qt@@NH@Z
?elidedText@QTextEngine@@QEBA?AVQString@@W4TextElideMode@Qt@@AEBUQFixed@@H@Z
?emSquareSize@QFontEngine@@UEBA?AUQFixed@@XZ
?emitAboutToDestroy@QPaintBufferSignalProxy@@QEAAXPEBVQPaintBufferPrivate@@@Z
?emitActivated@QComboBoxPrivate@@QEAAXAEBVQModelIndex@@@Z
?emitChanged@QClipboard@@AEAAXW4Mode@1@@Z
?emitCubicTo@QStroker@@QEAAXNNNNNN@Z
?emitCubicTo@QStrokerOps@@IEAAXNNNNNN@Z
?emitCursorPositionChanged@QLineControl@@AEAAXXZ
?emitDataChanged@QStandardItem@@IEAAXXZ
?emitDataChanged@QTreeWidgetItem@@IEAAXXZ
?emitFilesSelected@QFileDialogPrivate@@QEAAXAEBVQStringList@@@Z
?emitLastWindowClosed@QApplicationPrivate@@SAXXZ
?emitLineTo@QStroker@@QEAAXNN@Z
?emitLineTo@QStrokerOps@@IEAAXNN@Z
?emitMoveTo@QStroker@@QEAAXNN@Z
?emitMoveTo@QStrokerOps@@IEAAXNN@Z
?emitRedoAvailable@QTextDocumentPrivate@@QEAAX_N@Z
?emitSelectionChanged@QItemSelectionModel@@IEAAXAEBVQItemSelection@@0@Z
?emitUndoAvailable@QTextDocumentPrivate@@QEAAX_N@Z
?empty@?$QList@VQItemSelectionRange@@@@QEBA_NXZ
?emptyLabel@QUndoView@@QEBA?AVQString@@XZ
?enableCleanupHooks@QImagePixmapCleanupHooks@@SAXAEBVQImage@@@Z
?enableCleanupHooks@QImagePixmapCleanupHooks@@SAXAEBVQPixmap@@@Z
?enableCleanupHooks@QImagePixmapCleanupHooks@@SAXPEAVQPixmapData@@@Z
?enableMouseTrackingOnViews@QGraphicsScenePrivate@@QEAAXXZ
?enableRichText@QSystemTrayIcon@@QEAAX_N@Z
?enableTouchEventsOnViews@QGraphicsScenePrivate@@QEAAXXZ
?enableUndoRedo@QTextDocumentPrivate@@QEAAX_N@Z
?enabledChange@QWidget@@MEAAX_N@Z
?enabledChanged@QGraphicsEffect@@IEAAX_N@Z
?enabledChanged@QGraphicsObject@@IEAAXXZ
?enabledOptions@QAbstractPrintDialog@@QEBA?AV?$QFlags@W4PrintDialogOption@QAbstractPrintDialog@@@@XZ
?enabledOptions@QPageSetupDialog@@QEBA?AV?$QFlags@W4PageSetupDialogOption@QPageSetupDialog@@@@XZ
?encodeString@QKeySequence@@CA?AVQString@@H@Z
?encodeString@QKeySequencePrivate@@SA?AVQString@@HW4SequenceFormat@QKeySequence@@@Z
?encodedData@QDropEvent@@UEBA?AVQByteArray@@PEBD@Z
?end@?$QList@VQItemSelectionRange@@@@QEAA?AViterator@1@XZ
?end@?$QList@VQItemSelectionRange@@@@QEBA?AVconst_iterator@1@XZ
?end@QBlitterPaintEngine@@UEAA_NXZ
?end@QDashStroker@@UEAAXXZ
?end@QLineControl@@QEAAX_N@Z
?end@QLineControl@@QEBAHXZ
?end@QLineEdit@@QEAAX_N@Z
?end@QPainter@@QEAA_NXZ
?end@QStrokerOps@@UEAAXXZ
?end@QTextBlock@@QEBA?AViterator@1@XZ
?end@QTextDocument@@QEBA?AVQTextBlock@@XZ
?end@QTextDocumentPrivate@@QEBA?AVConstIterator@?$QFragmentMap@VQTextFragmentData@@@@XZ
?end@QTextFrame@@QEBA?AViterator@1@XZ
?end@QTextTableCell@@QEBA?AViterator@QTextFrame@@XZ
?endDataAccess@QVolatileImage@@QEBAX_N@Z
?endEditBlock@QTextCursor@@QEAAXXZ
?endEditBlock@QTextDocumentPrivate@@QEAAXXZ
?endLayout@QTextLayout@@QEAAXXZ
?endMacro@QUndoStack@@QEAAXXZ
?endNativePainting@QPaintEngineEx@@UEAAXXZ
?endNativePainting@QPainter@@QEAAXXZ
?endOfLine@QTextEngine@@AEAAHH@Z
?endPaint@QWidgetBackingStore@@AEAAXAEBVQRegion@@PEAVQWindowSurface@@PEAUBeginPaintInfo@@@Z
?endPaint@QWindowSurface@@UEAAXAEBVQRegion@@@Z
?endSeparatorMove@QMainWindowLayout@@QEAA_NAEBVQPoint@@@Z
?endTangent@QBezier@@QEBA?AVQLineF@@XZ
?endsWith@?$QList@VQItemSelectionRange@@@@QEBA_NAEBVQItemSelectionRange@@@Z
?enforceNativeChildren@QWidgetPrivate@@QEAAXXZ
?engine@QTextLayout@@QEBAPEAVQTextEngine@@XZ
?engineForScript@QFontPrivate@@QEBAPEAVQFontEngine@@H@Z
?ensureBlockLayout@QPlainTextDocumentLayout@@QEBAXAEBVQTextBlock@@@Z
?ensureCursorVisible@QPlainTextEdit@@QEAAXXZ
?ensureCursorVisible@QTextControl@@UEAAXXZ
?ensureCursorVisible@QTextEdit@@QEAAXXZ
?ensureData@QPainterPath@@AEAAXXZ
?ensureData_helper@QPainterPath@@AEAAXXZ
?ensureFormat@QVolatileImage@@QEAA_NW4Format@QImage@@@Z
?ensureHandle@QRegion@@AEBAXXZ
?ensureLayouted@QTextDocumentLayout@@QEAAXN@Z
?ensureMaximumBlockCount@QTextDocumentPrivate@@QEAA_NXZ
?ensurePolished@QWidget@@QEBAXXZ
?ensureSceneTransform@QGraphicsItemPrivate@@QEAAXXZ
?ensureSceneTransformRecursive@QGraphicsItemPrivate@@QEAAXPEAPEAVQGraphicsItem@@@Z
?ensureSequentialSiblingIndex@QGraphicsItemPrivate@@QEAAXXZ
?ensureSequentialTopLevelSiblingIndexes@QGraphicsScenePrivate@@QEAAXXZ
?ensureSorted@QListModel@@QEAAXHW4SortOrder@Qt@@HH@Z
?ensureSortedChildren@QGraphicsItemPrivate@@QEAAXXZ
?ensureSortedTopLevelItems@QGraphicsScenePrivate@@QEAAXXZ
?ensureSpace@QTextEngine@@QEBA_NH@Z
?ensureUserSizeHints@QGraphicsLayoutItemPrivate@@QEAAXXZ
?ensureVisible@QGraphicsItem@@QEAAXAEBVQRectF@@HH@Z
?ensureVisible@QGraphicsItem@@QEAAXNNNNHH@Z
?ensureVisible@QGraphicsView@@QEAAXAEBVQRectF@@HH@Z
?ensureVisible@QGraphicsView@@QEAAXNNNNHH@Z
?ensureVisible@QGraphicsView@@QEAAXPEBVQGraphicsItem@@HH@Z
?ensureVisible@QScrollArea@@QEAAXHHHH@Z
?ensureWidgetVisible@QScrollArea@@QEAAXPEAVQWidget@@HH@Z
?enterEvent@QComboBoxPrivateScroller@@MEAAXPEAVQEvent@@@Z
?enterEvent@QMenu@@MEAAXPEAVQEvent@@@Z
?enterEvent@QToolButton@@MEAAXPEAVQEvent@@@Z
?enterEvent@QWidget@@MEAAXPEAVQEvent@@@Z
?enterModal@QApplicationPrivate@@SAXPEAVQWidget@@@Z
?enterModal@QGraphicsScenePrivate@@QEAAXPEAVQGraphicsItem@@W4PanelModality@2@@Z
?enterModal_sys@QApplicationPrivate@@SAXPEAVQWidget@@@Z
?enterWhatsThisMode@QWhatsThis@@SAXXZ
?entered@QAbstractItemView@@IEAAXAEBVQModelIndex@@@Z
?entryInfoAt@QZipReader@@QEBA?AUFileInfo@1@H@Z
?eor@QRegion@@QEBA?AV1@AEBV1@@Z
?erase@?$QList@VQItemSelectionRange@@@@QEAA?AViterator@1@V21@0@Z
?erase@?$QList@VQItemSelectionRange@@@@QEAA?AViterator@1@V21@@Z
?eraseRect@QPainter@@QEAAXAEBVQRect@@@Z
?eraseRect@QPainter@@QEAAXAEBVQRectF@@@Z
?eraseRect@QPainter@@QEAAXHHHH@Z
?error@QImageReader@@QEBA?AW4ImageReaderError@1@XZ
?error@QImageWriter@@QEBA?AW4ImageWriterError@1@XZ
?error@QMovie@@IEAAXW4ImageReaderError@QImageReader@@@Z
?errorString@QImageReader@@QEBA?AVQString@@XZ
?errorString@QImageWriter@@QEBA?AVQString@@XZ
?errorSymbol@Parser@QCss@@QEAA?AUSymbol@2@XZ
?escape@Qt@@YA?AVQString@@AEBV2@@Z
?escapeButton@QMessageBox@@QEBAPEAVQAbstractButton@@XZ
?estimateItems@QGraphicsSceneBspTreeIndex@@UEBA?AV?$QList@PEAVQGraphicsItem@@@@AEBVQRectF@@W4SortOrder@Qt@@@Z
?estimateItems@QGraphicsSceneIndex@@UEBA?AV?$QList@PEAVQGraphicsItem@@@@AEBVQPointF@@W4SortOrder@Qt@@@Z
?estimateItems@QGraphicsSceneLinearIndex@@UEBA?AV?$QList@PEAVQGraphicsItem@@@@AEBVQRectF@@W4SortOrder@Qt@@@Z
?estimateTopLevelItems@QGraphicsSceneBspTreeIndex@@UEBA?AV?$QList@PEAVQGraphicsItem@@@@AEBVQRectF@@W4SortOrder@Qt@@@Z
?estimateTopLevelItems@QGraphicsSceneIndex@@UEBA?AV?$QList@PEAVQGraphicsItem@@@@AEBVQRectF@@W4SortOrder@Qt@@@Z
?event@QAbstractButton@@MEAA_NPEAVQEvent@@@Z
?event@QAbstractItemView@@MEAA_NPEAVQEvent@@@Z
?event@QAbstractScrollArea@@MEAA_NPEAVQEvent@@@Z
?event@QAbstractSlider@@MEAA_NPEAVQEvent@@@Z
?event@QAbstractSpinBox@@UEAA_NPEAVQEvent@@@Z
?event@QAction@@MEAA_NPEAVQEvent@@@Z
?event@QApplication@@MEAA_NPEAVQEvent@@@Z
?event@QCalendarWidget@@MEAA_NPEAVQEvent@@@Z
?event@QCheckBox@@MEAA_NPEAVQEvent@@@Z
?event@QClipboard@@MEAA_NPEAVQEvent@@@Z
?event@QComboBox@@UEAA_NPEAVQEvent@@@Z
?event@QCommandLinkButton@@MEAA_NPEAVQEvent@@@Z
?event@QCompleter@@MEAA_NPEAVQEvent@@@Z
?event@QDateTimeEdit@@UEAA_NPEAVQEvent@@@Z
?event@QDial@@MEAA_NPEAVQEvent@@@Z
?event@QDialogButtonBox@@MEAA_NPEAVQEvent@@@Z
?event@QDockWidget@@MEAA_NPEAVQEvent@@@Z
?event@QFileSystemModel@@MEAA_NPEAVQEvent@@@Z
?event@QFocusFrame@@MEAA_NPEAVQEvent@@@Z
?event@QFontComboBox@@MEAA_NPEAVQEvent@@@Z
?event@QFrame@@MEAA_NPEAVQEvent@@@Z
?event@QGraphicsProxyWidget@@MEAA_NPEAVQEvent@@@Z
?event@QGraphicsScene@@MEAA_NPEAVQEvent@@@Z
?event@QGraphicsSceneBspTreeIndex@@MEAA_NPEAVQEvent@@@Z
?event@QGraphicsView@@MEAA_NPEAVQEvent@@@Z
?event@QGraphicsWidget@@MEAA_NPEAVQEvent@@@Z
?event@QGroupBox@@MEAA_NPEAVQEvent@@@Z
?event@QHeaderView@@MEAA_NPEAVQEvent@@@Z
?event@QLCDNumber@@MEAA_NPEAVQEvent@@@Z
?event@QLabel@@MEAA_NPEAVQEvent@@@Z
?event@QLineEdit@@UEAA_NPEAVQEvent@@@Z
?event@QListView@@MEAA_NPEAVQEvent@@@Z
?event@QListWidget@@MEAA_NPEAVQEvent@@@Z
?event@QMainWindow@@MEAA_NPEAVQEvent@@@Z
?event@QMdiArea@@MEAA_NPEAVQEvent@@@Z
?event@QMdiSubWindow@@MEAA_NPEAVQEvent@@@Z
?event@QMenu@@MEAA_NPEAVQEvent@@@Z
?event@QMenuBar@@MEAA_NPEAVQEvent@@@Z
?event@QMessageBox@@MEAA_NPEAVQEvent@@@Z
?event@QMotifStyle@@UEAA_NPEAVQEvent@@@Z
?event@QPlainTextEdit@@MEAA_NPEAVQEvent@@@Z
?event@QProgressBar@@MEAA_NPEAVQEvent@@@Z
?event@QProxyStyle@@MEAA_NPEAVQEvent@@@Z
?event@QPushButton@@MEAA_NPEAVQEvent@@@Z
?event@QRadioButton@@MEAA_NPEAVQEvent@@@Z
?event@QRubberBand@@MEAA_NPEAVQEvent@@@Z
?event@QScrollArea@@MEAA_NPEAVQEvent@@@Z
?event@QScrollBar@@UEAA_NPEAVQEvent@@@Z
?event@QShortcut@@MEAA_NPEAVQEvent@@@Z
?event@QSidebar@@MEAA_NPEAVQEvent@@@Z
?event@QSizeGrip@@MEAA_NPEAVQEvent@@@Z
?event@QSlider@@UEAA_NPEAVQEvent@@@Z
?event@QSoftKeyManager@@MEAA_NPEAVQEvent@@@Z
?event@QSpinBox@@MEAA_NPEAVQEvent@@@Z
?event@QSplashScreen@@MEAA_NPEAVQEvent@@@Z
?event@QSplitter@@MEAA_NPEAVQEvent@@@Z
?event@QSplitterHandle@@MEAA_NPEAVQEvent@@@Z
?event@QStackedWidget@@MEAA_NPEAVQEvent@@@Z
?event@QStatusBar@@MEAA_NPEAVQEvent@@@Z
?event@QStyleSheetStyle@@MEAA_NPEAVQEvent@@@Z
?event@QSystemTrayIcon@@MEAA_NPEAVQEvent@@@Z
?event@QTabBar@@MEAA_NPEAVQEvent@@@Z
?event@QTabWidget@@MEAA_NPEAVQEvent@@@Z
?event@QTableWidget@@MEAA_NPEAVQEvent@@@Z
?event@QTextBrowser@@MEAA_NPEAVQEvent@@@Z
?event@QTextControl@@MEAA_NPEAVQEvent@@@Z
?event@QTextEdit@@MEAA_NPEAVQEvent@@@Z
?event@QToolBar@@MEAA_NPEAVQEvent@@@Z
?event@QToolBox@@MEAA_NPEAVQEvent@@@Z
?event@QToolButton@@MEAA_NPEAVQEvent@@@Z
?event@QTreeWidget@@MEAA_NPEAVQEvent@@@Z
?event@QWidget@@MEAA_NPEAVQEvent@@@Z
?event@QWidgetAction@@MEAA_NPEAVQEvent@@@Z
?event@QWindowsVistaStyle@@UEAA_NPEAVQEvent@@@Z
?event@QWizard@@MEAA_NPEAVQEvent@@@Z
?event@QWorkspace@@MEAA_NPEAVQEvent@@@Z
?eventFilter@QCalendarWidget@@MEAA_NPEAVQObject@@PEAVQEvent@@@Z
?eventFilter@QComboBoxPrivateContainer@@MEAA_NPEAVQObject@@PEAVQEvent@@@Z
?eventFilter@QCompleter@@MEAA_NPEAVQObject@@PEAVQEvent@@@Z
?eventFilter@QDialog@@MEAA_NPEAVQObject@@PEAVQEvent@@@Z
?eventFilter@QFocusFrame@@MEAA_NPEAVQObject@@PEAVQEvent@@@Z
?eventFilter@QFontDialog@@EEAA_NPEAVQObject@@PEAVQEvent@@@Z
?eventFilter@QGraphicsProxyWidget@@MEAA_NPEAVQObject@@PEAVQEvent@@@Z
?eventFilter@QGraphicsScene@@MEAA_NPEAVQObject@@PEAVQEvent@@@Z
?eventFilter@QItemDelegate@@MEAA_NPEAVQObject@@PEAVQEvent@@@Z
?eventFilter@QMdiArea@@MEAA_NPEAVQObject@@PEAVQEvent@@@Z
?eventFilter@QMdiSubWindow@@MEAA_NPEAVQObject@@PEAVQEvent@@@Z
?eventFilter@QMenuBar@@MEAA_NPEAVQObject@@PEAVQEvent@@@Z
?eventFilter@QMotifStyle@@MEAA_NPEAVQObject@@PEAVQEvent@@@Z
?eventFilter@QPlastiqueStyle@@MEAA_NPEAVQObject@@PEAVQEvent@@@Z
?eventFilter@QScrollArea@@MEAA_NPEAVQObject@@PEAVQEvent@@@Z
?eventFilter@QSizeGrip@@MEAA_NPEAVQObject@@PEAVQEvent@@@Z
?eventFilter@QStyledItemDelegate@@MEAA_NPEAVQObject@@PEAVQEvent@@@Z
?eventFilter@QWidgetAction@@MEAA_NPEAVQObject@@PEAVQEvent@@@Z
?eventFilter@QWidgetResizeHandler@@MEAA_NPEAVQObject@@PEAVQEvent@@@Z
?eventFilter@QWindowsStyle@@MEAA_NPEAVQObject@@PEAVQEvent@@@Z
?eventFilter@QWorkspace@@MEAA_NPEAVQObject@@PEAVQEvent@@@Z
?eventTest@QBasicKeyEventTransition@@MEAA_NPEAVQEvent@@@Z
?eventTest@QBasicMouseEventTransition@@MEAA_NPEAVQEvent@@@Z
?eventTest@QKeyEventTransition@@MEAA_NPEAVQEvent@@@Z
?eventTest@QMouseEventTransition@@MEAA_NPEAVQEvent@@@Z
?eventType@QBasicKeyEventTransition@@QEBA?AW4Type@QEvent@@XZ
?eventType@QBasicMouseEventTransition@@QEBA?AW4Type@QEvent@@XZ
?exactMatch@QFont@@QEBA_NXZ
?exactMatch@QFontInfo@@QEBA_NXZ
?exclusive@QButtonGroup@@QEBA_NXZ
?exec@QApplication@@SAHXZ
?exec@QDialog@@QEAAHXZ
?exec@QDrag@@QEAA?AW4DropAction@Qt@@V?$QFlags@W4DropAction@Qt@@@@@Z
?exec@QDrag@@QEAA?AW4DropAction@Qt@@V?$QFlags@W4DropAction@Qt@@@@W423@@Z
?exec@QMenu@@QEAAPEAVQAction@@AEBVQPoint@@PEAV2@@Z
?exec@QMenu@@QEAAPEAVQAction@@XZ
?exec@QMenu@@SAPEAVQAction@@V?$QList@PEAVQAction@@@@AEBVQPoint@@PEAV2@@Z
?exec@QMenu@@SAPEAVQAction@@V?$QList@PEAVQAction@@@@AEBVQPoint@@PEAV2@PEAVQWidget@@@Z
?exec@QPageSetupDialog@@UEAAHXZ
?exec@QPicture@@AEAA_NPEAVQPainter@@AEAVQDataStream@@H@Z
?exec@QPrintDialog@@UEAAHXZ
?exec@QRegion@@AEAAXAEBVQByteArray@@HW4ByteOrder@QDataStream@@@Z
?executeDelayedItemsLayout@QAbstractItemView@@IEAAXXZ
?executeImageHooks@QImagePixmapCleanupHooks@@SAX_J@Z
?executePendingSort@QTreeWidgetItem@@AEBAXXZ
?executePixmapDataDestructionHooks@QImagePixmapCleanupHooks@@SAXPEAVQPixmapData@@@Z
?executePixmapDataModificationHooks@QImagePixmapCleanupHooks@@SAXPEAVQPixmapData@@@Z
?executePostedLayout@QAbstractItemViewPrivate@@QEBAXXZ
?exists@QZipReader@@QEBA_NXZ
?exists@QZipWriter@@QEBA_NXZ
?expand@QTreeView@@QEAAXAEBVQModelIndex@@@Z
?expand@QTreeViewPrivate@@QEAAXH_N@Z
?expandAll@QTreeView@@QEAAXXZ
?expandItem@QTreeWidget@@QEAAXPEBVQTreeWidgetItem@@@Z
?expandOrCollapseItemAtPos@QTreeViewPrivate@@QEAA_NAEBVQPoint@@@Z
?expandToDepth@QTreeView@@QEAAXH@Z
?expanded@QTreeView@@IEAAXAEBVQModelIndex@@@Z
?expanding@QTabBar@@QEBA_NXZ
?expandingDirections@QBoxLayout@@UEBA?AV?$QFlags@W4Orientation@Qt@@@@XZ
?expandingDirections@QFormLayout@@UEBA?AV?$QFlags@W4Orientation@Qt@@@@XZ
?expandingDirections@QGridLayout@@UEBA?AV?$QFlags@W4Orientation@Qt@@@@XZ
?expandingDirections@QLayout@@UEBA?AV?$QFlags@W4Orientation@Qt@@@@XZ
?expandingDirections@QSizePolicy@@QEBA?AV?$QFlags@W4Orientation@Qt@@@@XZ
?expandingDirections@QSpacerItem@@UEBA?AV?$QFlags@W4Orientation@Qt@@@@XZ
?expandingDirections@QWidgetItem@@UEBA?AV?$QFlags@W4Orientation@Qt@@@@XZ
?expandsOnDoubleClick@QTreeView@@QEBA_NXZ
?expansive@QDockAreaLayoutInfo@@QEBA_NW4Orientation@Qt@@@Z
?extendedSelectionCommand@QAbstractItemViewPrivate@@QEBA?AV?$QFlags@W4SelectionFlag@QItemSelectionModel@@@@AEBVQModelIndex@@PEBVQEvent@@@Z
?extension@QDialog@@QEBAPEAVQWidget@@XZ
?extension@QGraphicsEllipseItem@@MEBA?AVQVariant@@AEBV2@@Z
?extension@QGraphicsItem@@MEBA?AVQVariant@@AEBV2@@Z
?extension@QGraphicsLineItem@@MEBA?AVQVariant@@AEBV2@@Z
?extension@QGraphicsPathItem@@MEBA?AVQVariant@@AEBV2@@Z
?extension@QGraphicsPixmapItem@@MEBA?AVQVariant@@AEBV2@@Z
?extension@QGraphicsPolygonItem@@MEBA?AVQVariant@@AEBV2@@Z
?extension@QGraphicsRectItem@@MEBA?AVQVariant@@AEBV2@@Z
?extension@QGraphicsSimpleTextItem@@MEBA?AVQVariant@@AEBV2@@Z
?extension@QGraphicsTextItem@@MEBA?AVQVariant@@AEBV2@@Z
?externalLoader@QTextImageHandler@@2P6A?AVQImage@@AEBVQString@@0@ZEA
?extra@QGraphicsItemPrivate@@QEBA?AVQVariant@@W4Extra@1@@Z
?extraData@QWidgetPrivate@@QEBAPEAUQWExtra@@XZ
?extraItemCache@QGraphicsItemPrivate@@QEBAPEAVQGraphicsItemCache@@XZ
?extraSelections@QPlainTextEdit@@QEBA?AV?$QList@UExtraSelection@QTextEdit@@@@XZ
?extraSelections@QTextControl@@QEBA?AV?$QList@UExtraSelection@QTextEdit@@@@XZ
?extraSelections@QTextEdit@@QEBA?AV?$QList@UExtraSelection@QTextEdit@@@@XZ
?extractAll@QZipReader@@QEBA_NAEBVQString@@@Z
?extractBackground@ValueExtractor@QCss@@QEAA_NPEAVQBrush@@PEAVQString@@PEAW4Repeat@2@PEAV?$QFlags@W4AlignmentFlag@Qt@@@@PEAW4Origin@2@PEAW4Attachment@2@4@Z
?extractBorder@ValueExtractor@QCss@@QEAA_NPEAHPEAVQBrush@@PEAW4BorderStyle@2@PEAVQSize@@@Z
?extractBox@ValueExtractor@QCss@@QEAA_NPEAH00@Z
?extractFont@ValueExtractor@QCss@@AEAAXXZ
?extractFont@ValueExtractor@QCss@@QEAA_NPEAVQFont@@PEAH@Z
?extractGeometry@ValueExtractor@QCss@@QEAA_NPEAH00000@Z
?extractImage@ValueExtractor@QCss@@QEAA_NPEAVQIcon@@PEAV?$QFlags@W4AlignmentFlag@Qt@@@@PEAVQSize@@@Z
?extractOutline@ValueExtractor@QCss@@QEAA_NPEAHPEAVQBrush@@PEAW4BorderStyle@2@PEAVQSize@@0@Z
?extractPalette@ValueExtractor@QCss@@QEAA_NPEAVQBrush@@000@Z
?extractPosition@ValueExtractor@QCss@@QEAA_NPEAH000PEAW4Origin@2@PEAV?$QFlags@W4AlignmentFlag@Qt@@@@PEAW4PositionMode@2@2@Z
?extractStyleFeatures@ValueExtractor@QCss@@QEAAHXZ
?faceId@QFontEngine@@UEBA?AUFaceId@1@XZ
?fade_menu@QApplicationPrivate@@2_NA
?fade_tooltip@QApplicationPrivate@@2_NA
?families@QFontDatabase@@QEBA?AVQStringList@@W4WritingSystem@1@@Z
?family@QFont@@QEBA?AVQString@@XZ
?family@QFontInfo@@QEBA?AVQString@@XZ
?familyName@QRawFont@@QEBA?AVQString@@XZ
?features@QDockWidget@@QEBA?AV?$QFlags@W4DockWidgetFeature@QDockWidget@@@@XZ
?features@QRasterWindowSurface@@UEBA?AV?$QFlags@W4WindowSurfaceFeature@QWindowSurface@@@@XZ
?features@QWindowSurface@@UEBA?AV?$QFlags@W4WindowSurfaceFeature@QWindowSurface@@@@XZ
?featuresChanged@QDockWidget@@IEAAXV?$QFlags@W4DockWidgetFeature@QDockWidget@@@@@Z
?fetch@QFileInfoGatherer@@AEAAXAEBVQFileInfo@@AEAVQElapsedTimer@@AEA_NAEAV?$QList@U?$QPair@VQString@@VQFileInfo@@@@@@AEBVQString@@@Z
?fetchExtendedInformation@QFileInfoGatherer@@QEAAXAEBVQString@@AEBVQStringList@@@Z
?fetchMore@QAbstractItemViewPrivate@@QEAAXXZ
?fetchMore@QAbstractProxyModel@@UEAAXAEBVQModelIndex@@@Z
?fetchMore@QFileSystemModel@@UEAAXAEBVQModelIndex@@@Z
?fetchMore@QProxyModel@@UEAAXAEBVQModelIndex@@@Z
?fetchMore@QSortFilterProxyModel@@UEAAXAEBVQModelIndex@@@Z
?field@QWizard@@QEBA?AVQVariant@@AEBVQString@@@Z
?field@QWizardPage@@IEBA?AVQVariant@@AEBVQString@@@Z
?fieldGrowthPolicy@QFormLayout@@QEBA?AW4FieldGrowthPolicy@1@XZ
?file@QFileOpenEvent@@QEBA?AVQString@@XZ
?fileData@QZipReader@@QEBA?AVQByteArray@@AEBVQString@@@Z
?fileDialogDelete@QGuiPlatformPlugin@@UEAAXPEAVQFileDialog@@@Z
?fileDialogDirectory@QGuiPlatformPlugin@@UEBA?AVQString@@PEBVQFileDialog@@@Z
?fileDialogResultCode@QGuiPlatformPlugin@@UEAA?AW4DialogCode@QDialog@@PEAVQFileDialog@@@Z
?fileDialogSelectFile@QGuiPlatformPlugin@@UEAAXPEAVQFileDialog@@AEBVQString@@@Z
?fileDialogSelectNameFilter@QGuiPlatformPlugin@@UEAAXPEAVQFileDialog@@AEBVQString@@@Z
?fileDialogSelectedFiles@QGuiPlatformPlugin@@UEBA?AVQStringList@@PEBVQFileDialog@@@Z
?fileDialogSelectedNameFilter@QGuiPlatformPlugin@@UEBA?AVQString@@PEBVQFileDialog@@@Z
?fileDialogSetDirectory@QGuiPlatformPlugin@@UEAAXPEAVQFileDialog@@AEBVQString@@@Z
?fileDialogSetFilter@QGuiPlatformPlugin@@UEAAXPEAVQFileDialog@@@Z
?fileDialogSetNameFilters@QGuiPlatformPlugin@@UEAAXPEAVQFileDialog@@AEBVQStringList@@@Z
?fileDialogSetVisible@QGuiPlatformPlugin@@UEAA_NPEAVQFileDialog@@_N@Z
?fileIcon@QDirModel@@QEBA?AVQIcon@@AEBVQModelIndex@@@Z
?fileIcon@QFileSystemModel@@QEBA?AVQIcon@@AEBVQModelIndex@@@Z
?fileInfo@QDirModel@@QEBA?AVQFileInfo@@AEBVQModelIndex@@@Z
?fileInfo@QFileSystemModel@@QEBA?AVQFileInfo@@AEBVQModelIndex@@@Z
?fileInfoList@QZipReader@@QEBA?AV?$QList@UFileInfo@QZipReader@@@@XZ
?fileMode@QFileDialog@@QEBA?AW4FileMode@1@XZ
?fileName@QDirModel@@QEBA?AVQString@@AEBVQModelIndex@@@Z
?fileName@QFileSystemModel@@QEBA?AVQString@@AEBVQModelIndex@@@Z
?fileName@QImageReader@@QEBA?AVQString@@XZ
?fileName@QImageWriter@@QEBA?AVQString@@XZ
?fileName@QMovie@@QEBA?AVQString@@XZ
?fileName@QPictureIO@@QEBA?AVQString@@XZ
?fileName@QSound@@QEBA?AVQString@@XZ
?fileName@QTextDocumentWriter@@QEBA?AVQString@@XZ
?filePath@QDirModel@@QEBA?AVQString@@AEBVQModelIndex@@@Z
?filePath@QFileSystemModel@@QEBA?AVQString@@AEBVQModelIndex@@@Z
?filePath@QFileSystemModelPrivate@@QEBA?AVQString@@AEBVQModelIndex@@@Z
?fileRenamed@QFileSystemModel@@IEAAXAEBVQString@@00@Z
?fileSelected@QFileDialog@@IEAAXAEBVQString@@@Z
?fileSystemIcon@QGuiPlatformPlugin@@UEAA?AVQIcon@@AEBVQFileInfo@@@Z
?filesSelected@QFileDialog@@IEAAXAEBVQStringList@@@Z
?fill@QBlittablePixmapData@@UEAAXAEBVQColor@@@Z
?fill@QBlitterPaintEngine@@UEAAXAEBVQVectorPath@@AEBVQBrush@@@Z
?fill@QImage@@QEAAXAEBVQColor@@@Z
?fill@QImage@@QEAAXI@Z
?fill@QImage@@QEAAXW4GlobalColor@Qt@@@Z
?fill@QMatrix4x4@@QEAAXN@Z
?fill@QPixmap@@QEAAXAEBVQColor@@@Z
?fill@QPixmap@@QEAAXPEBVQWidget@@AEBVQPoint@@@Z
?fill@QPixmap@@QEAAXPEBVQWidget@@HH@Z
?fill@QRasterPixmapData@@UEAAXAEBVQColor@@@Z
?fill@QRuntimePixmapData@@UEAAXAEBVQColor@@@Z
?fill@QVolatileImage@@QEAAXI@Z
?fillInPendingGlyphs@QTextureGlyphCache@@QEAAXXZ
?fillPath@QBlitterPaintEngine@@QEAAXAEBVQPainterPath@@PEAUQSpanData@@@Z
?fillPath@QPainter@@QEAAXAEBVQPainterPath@@AEBVQBrush@@@Z
?fillPolygon@QBlitterPaintEngine@@QEAAXPEBVQPointF@@HW4PolygonDrawMode@QPaintEngine@@@Z
?fillRect@QBlitterPaintEngine@@UEAAXAEBVQRectF@@AEBVQBrush@@@Z
?fillRect@QBlitterPaintEngine@@UEAAXAEBVQRectF@@AEBVQColor@@@Z
?fillRect@QPaintEngineEx@@UEAAXAEBVQRectF@@AEBVQBrush@@@Z
?fillRect@QPaintEngineEx@@UEAAXAEBVQRectF@@AEBVQColor@@@Z
?fillRect@QPainter@@QEAAXAEBVQRect@@AEBVQBrush@@@Z
?fillRect@QPainter@@QEAAXAEBVQRect@@AEBVQColor@@@Z
?fillRect@QPainter@@QEAAXAEBVQRect@@W4BrushStyle@Qt@@@Z
?fillRect@QPainter@@QEAAXAEBVQRect@@W4GlobalColor@Qt@@@Z
?fillRect@QPainter@@QEAAXAEBVQRectF@@AEBVQBrush@@@Z
?fillRect@QPainter@@QEAAXAEBVQRectF@@AEBVQColor@@@Z
?fillRect@QPainter@@QEAAXAEBVQRectF@@W4BrushStyle@Qt@@@Z
?fillRect@QPainter@@QEAAXAEBVQRectF@@W4GlobalColor@Qt@@@Z
?fillRect@QPainter@@QEAAXHHHHAEBVQBrush@@@Z
?fillRect@QPainter@@QEAAXHHHHAEBVQColor@@@Z
?fillRect@QPainter@@QEAAXHHHHW4BrushStyle@Qt@@@Z
?fillRect@QPainter@@QEAAXHHHHW4GlobalColor@Qt@@@Z
?fillRule@QGraphicsPolygonItem@@QEBA?AW4FillRule@Qt@@XZ
?fillRule@QPainterPath@@QEBA?AW4FillRule@Qt@@XZ
?fillTexture@QImageTextureGlyphCache@@UEAAXAEBUCoord@QTextureGlyphCache@@IUQFixed@@@Z
?filter@QDirModel@@QEBA?AV?$QFlags@W4Filter@QDir@@@@XZ
?filter@QFileDialog@@QEBA?AV?$QFlags@W4Filter@QDir@@@@XZ
?filter@QFileSystemModel@@QEBA?AV?$QFlags@W4Filter@QDir@@@@XZ
?filterAcceptsColumn@QSortFilterProxyModel@@MEBA_NHAEBVQModelIndex@@@Z
?filterAcceptsRow@QSortFilterProxyModel@@MEBA_NHAEBVQModelIndex@@@Z
?filterCaseSensitivity@QSortFilterProxyModel@@QEBA?AW4CaseSensitivity@Qt@@XZ
?filterChanged@QSortFilterProxyModel@@IEAAXXZ
?filterDescendantEvent@QGraphicsScenePrivate@@QEAA_NPEAVQGraphicsItem@@PEAVQEvent@@@Z
?filterEvent@QGraphicsScenePrivate@@QEAA_NPEAVQGraphicsItem@@PEAVQEvent@@@Z
?filterEvent@QInputContext@@UEAA_NPEBVQEvent@@@Z
?filterForMode@QFileDialogPrivate@@QEBA?AV?$QFlags@W4Filter@QDir@@@@V2@@Z
?filterKeyColumn@QSortFilterProxyModel@@QEBAHXZ
?filterRegExp@QSortFilterProxyModel@@QEBA?AVQRegExp@@XZ
?filterRole@QSortFilterProxyModel@@QEBAHXZ
?filterSelected@QFileDialog@@IEAAXAEBVQString@@@Z
?filters@QFileDialog@@QEBA?AVQStringList@@XZ
?filtersAcceptsNode@QFileSystemModelPrivate@@QEBA_NPEBVQFileSystemNode@1@@Z
?filtersChildEvents@QGraphicsItem@@QEBA_NXZ
?finalStop@QLinearGradient@@QEBA?AVQPointF@@XZ
?find@QPixmapCache@@SAPEAVQPixmap@@AEBVQString@@@Z
?find@QPixmapCache@@SA_NAEBVKey@1@PEAVQPixmap@@@Z
?find@QPixmapCache@@SA_NAEBVQString@@AEAVQPixmap@@@Z
?find@QPixmapCache@@SA_NAEBVQString@@PEAVQPixmap@@@Z
?find@QPlainTextEdit@@QEAA_NAEBVQString@@V?$QFlags@W4FindFlag@QTextDocument@@@@@Z
?find@QTextControl@@QEAA_NAEBVQString@@V?$QFlags@W4FindFlag@QTextDocument@@@@@Z
?find@QTextDocument@@QEBA?AVQTextCursor@@AEBVQRegExp@@AEBV2@V?$QFlags@W4FindFlag@QTextDocument@@@@@Z
?find@QTextDocument@@QEBA?AVQTextCursor@@AEBVQRegExp@@HV?$QFlags@W4FindFlag@QTextDocument@@@@@Z
?find@QTextDocument@@QEBA?AVQTextCursor@@AEBVQString@@AEBV2@V?$QFlags@W4FindFlag@QTextDocument@@@@@Z
?find@QTextDocument@@QEBA?AVQTextCursor@@AEBVQString@@HV?$QFlags@W4FindFlag@QTextDocument@@@@@Z
?find@QTextDocumentPrivate@@QEBA?AVConstIterator@?$QFragmentMap@VQTextFragmentData@@@@H@Z
?find@QTextEdit@@QEAA_NAEBVQString@@V?$QFlags@W4FindFlag@QTextDocument@@@@@Z
?find@QWidget@@SAPEAV1@PEAUHWND__@@@Z
?findBlock@QTextDocument@@QEBA?AVQTextBlock@@H@Z
?findBlockByLineNumber@QTextDocument@@QEBA?AVQTextBlock@@H@Z
?findBlockByNumber@QTextDocument@@QEBA?AVQTextBlock@@H@Z
?findBufferChanged@QClipboard@@IEAAXXZ
?findClosestTouchPointId@QApplicationPrivate@@QEAAHAEBVQPointF@@@Z
?findClosestTouchPointId@QGraphicsScenePrivate@@QEAAHAEBVQPointF@@@Z
?findData@QComboBox@@QEBAHAEBVQVariant@@HV?$QFlags@W4MatchFlag@Qt@@@@@Z
?findInMask@QLineControl@@AEBAHH_N0VQChar@@@Z
?findInsertStatus@QWingedEdge@@AEBA?AUTraversalStatus@1@HH@Z
?findItem@QTextEngine@@QEBAHH@Z
?findItems@QGraphicsViewPrivate@@QEBA?AV?$QList@PEAVQGraphicsItem@@@@AEBVQRegion@@PEA_NAEBVQTransform@@@Z
?findItems@QListWidget@@QEBA?AV?$QList@PEAVQListWidgetItem@@@@AEBVQString@@V?$QFlags@W4MatchFlag@Qt@@@@@Z
?findItems@QStandardItemModel@@QEBA?AV?$QList@PEAVQStandardItem@@@@AEBVQString@@V?$QFlags@W4MatchFlag@Qt@@@@H@Z
?findItems@QTableWidget@@QEBA?AV?$QList@PEAVQTableWidgetItem@@@@AEBVQString@@V?$QFlags@W4MatchFlag@Qt@@@@@Z
?findItems@QTreeWidget@@QEBA?AV?$QList@PEAVQTreeWidgetItem@@@@AEBVQString@@V?$QFlags@W4MatchFlag@Qt@@@@H@Z
?findNextPrevAnchor@QTextControl@@QEAA_NAEBVQTextCursor@@_NAEAV2@@Z
?findPaths@QGraphicsAnchorLayoutPrivate@@QEAAXW4Orientation@1@@Z
?findSeparator@QDockAreaLayout@@QEBA?AV?$QList@H@@AEBVQPoint@@@Z
?findSeparator@QDockAreaLayoutInfo@@QEBA?AV?$QList@H@@AEBVQPoint@@@Z
?findText@QComboBox@@QEBAHAEBVQString@@V?$QFlags@W4MatchFlag@Qt@@@@@Z
?finish@QSplashScreen@@QEAAXPEAVQWidget@@@Z
?finishChange@QLineControl@@AEAA_NH_N0@Z
?finishEdit@QTextDocumentPrivate@@QEAAXXZ
?finished@QDialog@@IEAAXH@Z
?finished@QMovie@@IEAAXXZ
?first@?$QList@VQItemSelectionRange@@@@QEAAAEAVQItemSelectionRange@@XZ
?first@?$QList@VQItemSelectionRange@@@@QEBAAEBVQItemSelectionRange@@XZ
?firstBlock@QTextDocument@@QEBA?AVQTextBlock@@XZ
?firstCursorPosition@QTextFrame@@QEBA?AVQTextCursor@@XZ
?firstCursorPosition@QTextTableCell@@QEBA?AVQTextCursor@@XZ
?firstDayOfWeek@QCalendarWidget@@QEBA?AW4DayOfWeek@Qt@@XZ
?firstLineNumber@QTextBlock@@QEBAHXZ
?firstPosition@QTextFrame@@QEBAHXZ
?firstPosition@QTextTableCell@@QEBAHXZ
?firstVisibleBlock@QPlainTextEdit@@IEBA?AVQTextBlock@@XZ
?firstVisibleItem@QTreeViewPrivate@@QEBAHPEAH@Z
?fitInView@QGraphicsView@@QEAAXAEBVQRectF@@W4AspectRatioMode@Qt@@@Z
?fitInView@QGraphicsView@@QEAAXNNNNW4AspectRatioMode@Qt@@@Z
?fitInView@QGraphicsView@@QEAAXPEBVQGraphicsItem@@W4AspectRatioMode@Qt@@@Z
?fitInView@QPrintPreviewWidget@@QEAAXXZ
?fitItems@QDockAreaLayoutInfo@@QEAAXXZ
?fitLayout@QDockAreaLayout@@QEAAXXZ
?fitToWidth@QPrintPreviewWidget@@QEAAXXZ
?fix_neg_rect@QPaintEngine@@QEAAXPEAH000@Z
?fixedPitch@QFont@@QEBA_NXZ
?fixedPitch@QFontInfo@@QEBA_NXZ
?fixup@QAbstractSpinBox@@UEBAXAEAVQString@@@Z
?fixup@QDateTimeEdit@@MEBAXAEAVQString@@@Z
?fixup@QDoubleSpinBox@@UEBAXAEAVQString@@@Z
?fixup@QIntValidator@@UEBAXAEAVQString@@@Z
?fixup@QLineControl@@QEAA_NXZ
?fixup@QSpinBox@@MEBAXAEAVQString@@@Z
?fixup@QValidator@@UEBAXAEAVQString@@@Z
?flags@QAbstractProxyModel@@UEBA?AV?$QFlags@W4ItemFlag@Qt@@@@AEBVQModelIndex@@@Z
?flags@QDirModel@@UEBA?AV?$QFlags@W4ItemFlag@Qt@@@@AEBVQModelIndex@@@Z
?flags@QFileSystemModel@@UEBA?AV?$QFlags@W4ItemFlag@Qt@@@@AEBVQModelIndex@@@Z
?flags@QGraphicsItem@@QEBA?AV?$QFlags@W4GraphicsItemFlag@QGraphicsItem@@@@XZ
?flags@QListModel@@UEBA?AV?$QFlags@W4ItemFlag@Qt@@@@AEBVQModelIndex@@@Z
?flags@QListWidgetItem@@QEBA?AV?$QFlags@W4ItemFlag@Qt@@@@XZ
?flags@QPaintEngineEx@@UEBAIXZ
?flags@QProxyModel@@UEBA?AV?$QFlags@W4ItemFlag@Qt@@@@AEBVQModelIndex@@@Z
?flags@QSortFilterProxyModel@@UEBA?AV?$QFlags@W4ItemFlag@Qt@@@@AEBVQModelIndex@@@Z
?flags@QStandardItem@@QEBA?AV?$QFlags@W4ItemFlag@Qt@@@@XZ
?flags@QStandardItemModel@@UEBA?AV?$QFlags@W4ItemFlag@Qt@@@@AEBVQModelIndex@@@Z
?flags@QStringListModel@@UEBA?AV?$QFlags@W4ItemFlag@Qt@@@@AEBVQModelIndex@@@Z
?flags@QTableWidgetItem@@QEBA?AV?$QFlags@W4ItemFlag@Qt@@@@XZ
?flags@QTextOption@@QEBA?AV?$QFlags@W4Flag@QTextOption@@@@XZ
?flags@QTreeWidgetItem@@QEBA?AV?$QFlags@W4ItemFlag@Qt@@@@XZ
?flags@QUrlModel@@UEBA?AV?$QFlags@W4ItemFlag@Qt@@@@AEBVQModelIndex@@@Z
?flip@QWingedEdge@@SA?AW4Direction@QPathEdge@@W423@@Z
?flip@QWingedEdge@@SA?AW4Traversal@QPathEdge@@W423@@Z
?flipCoordinates@QMatrix4x4@@QEAAXXZ
?flow@QListView@@QEBA?AW4Flow@1@XZ
?flush@QRasterWindowSurface@@UEAAXPEAVQWidget@@AEBVQRegion@@AEBVQPoint@@@Z
?flush@QWidgetBackingStore@@QEAAXPEAVQWidget@@PEAVQWindowSurface@@@Z
?flushDetachedPixmaps@QPixmapCache@@SAXXZ
?focalPoint@QRadialGradient@@QEBA?AVQPointF@@XZ
?focalRadius@QRadialGradient@@QEBANXZ
?focusChanged@QApplication@@IEAAXPEAVQWidget@@0@Z
?focusInEvent@QAbstractButton@@MEAAXPEAVQFocusEvent@@@Z
?focusInEvent@QAbstractItemView@@MEAAXPEAVQFocusEvent@@@Z
?focusInEvent@QAbstractSpinBox@@MEAAXPEAVQFocusEvent@@@Z
?focusInEvent@QComboBox@@MEAAXPEAVQFocusEvent@@@Z
?focusInEvent@QDateTimeEdit@@MEAAXPEAVQFocusEvent@@@Z
?focusInEvent@QGraphicsItem@@MEAAXPEAVQFocusEvent@@@Z
?focusInEvent@QGraphicsProxyWidget@@MEAAXPEAVQFocusEvent@@@Z
?focusInEvent@QGraphicsScene@@MEAAXPEAVQFocusEvent@@@Z
?focusInEvent@QGraphicsTextItem@@MEAAXPEAVQFocusEvent@@@Z
?focusInEvent@QGraphicsView@@MEAAXPEAVQFocusEvent@@@Z
?focusInEvent@QGraphicsWidget@@MEAAXPEAVQFocusEvent@@@Z
?focusInEvent@QGroupBox@@MEAAXPEAVQFocusEvent@@@Z
?focusInEvent@QLabel@@MEAAXPEAVQFocusEvent@@@Z
?focusInEvent@QLineEdit@@MEAAXPEAVQFocusEvent@@@Z
?focusInEvent@QMdiSubWindow@@MEAAXPEAVQFocusEvent@@@Z
?focusInEvent@QMenuBar@@MEAAXPEAVQFocusEvent@@@Z
?focusInEvent@QPlainTextEdit@@MEAAXPEAVQFocusEvent@@@Z
?focusInEvent@QPushButton@@MEAAXPEAVQFocusEvent@@@Z
?focusInEvent@QSidebar@@MEAAXPEAVQFocusEvent@@@Z
?focusInEvent@QTextEdit@@MEAAXPEAVQFocusEvent@@@Z
?focusInEvent@QWidget@@MEAAXPEAVQFocusEvent@@@Z
?focusItem@QGraphicsItem@@QEBAPEAV1@XZ
?focusItem@QGraphicsScene@@QEBAPEAVQGraphicsItem@@XZ
?focusNextChild@QWidget@@IEAA_NXZ
?focusNextPrevChild@QAbstractItemView@@MEAA_N_N@Z
?focusNextPrevChild@QDateTimeEdit@@MEAA_N_N@Z
?focusNextPrevChild@QGraphicsProxyWidget@@MEAA_N_N@Z
?focusNextPrevChild@QGraphicsScene@@IEAA_N_N@Z
?focusNextPrevChild@QGraphicsView@@MEAA_N_N@Z
?focusNextPrevChild@QGraphicsWidget@@MEAA_N_N@Z
?focusNextPrevChild@QLabel@@MEAA_N_N@Z
?focusNextPrevChild@QMenu@@MEAA_N_N@Z
?focusNextPrevChild@QPlainTextEdit@@MEAA_N_N@Z
?focusNextPrevChild@QScrollArea@@UEAA_N_N@Z
?focusNextPrevChild@QTextBrowser@@MEAA_N_N@Z
?focusNextPrevChild@QTextEdit@@MEAA_N_N@Z
?focusNextPrevChild@QWidget@@MEAA_N_N@Z
?focusNextPrevChild_helper@QApplicationPrivate@@SAPEAVQWidget@@PEAV2@_N@Z
?focusOutEvent@QAbstractButton@@MEAAXPEAVQFocusEvent@@@Z
?focusOutEvent@QAbstractItemView@@MEAAXPEAVQFocusEvent@@@Z
?focusOutEvent@QAbstractSpinBox@@MEAAXPEAVQFocusEvent@@@Z
?focusOutEvent@QComboBox@@MEAAXPEAVQFocusEvent@@@Z
?focusOutEvent@QGraphicsItem@@MEAAXPEAVQFocusEvent@@@Z
?focusOutEvent@QGraphicsProxyWidget@@MEAAXPEAVQFocusEvent@@@Z
?focusOutEvent@QGraphicsScene@@MEAAXPEAVQFocusEvent@@@Z
?focusOutEvent@QGraphicsTextItem@@MEAAXPEAVQFocusEvent@@@Z
?focusOutEvent@QGraphicsView@@MEAAXPEAVQFocusEvent@@@Z
?focusOutEvent@QGraphicsWidget@@MEAAXPEAVQFocusEvent@@@Z
?focusOutEvent@QLabel@@MEAAXPEAVQFocusEvent@@@Z
?focusOutEvent@QLineEdit@@MEAAXPEAVQFocusEvent@@@Z
?focusOutEvent@QMdiSubWindow@@MEAAXPEAVQFocusEvent@@@Z
?focusOutEvent@QMenuBar@@MEAAXPEAVQFocusEvent@@@Z
?focusOutEvent@QPlainTextEdit@@MEAAXPEAVQFocusEvent@@@Z
?focusOutEvent@QPushButton@@MEAAXPEAVQFocusEvent@@@Z
?focusOutEvent@QTextBrowser@@MEAAXPEAVQFocusEvent@@@Z
?focusOutEvent@QTextEdit@@MEAAXPEAVQFocusEvent@@@Z
?focusOutEvent@QWidget@@MEAAXPEAVQFocusEvent@@@Z
?focusPolicy@QGraphicsWidget@@QEBA?AW4FocusPolicy@Qt@@XZ
?focusPolicy@QWidget@@QEBA?AW4FocusPolicy@Qt@@XZ
?focusPreviousChild@QWidget@@IEAA_NXZ
?focusProxy@QGraphicsItem@@QEBAPEAV1@XZ
?focusProxy@QWidget@@QEBAPEAV1@XZ
?focusScopeItem@QGraphicsItem@@QEBAPEAV1@XZ
?focusScopeItemChange@QGraphicsItemPrivate@@UEAAX_N@Z
?focusWidget@QApplication@@SAPEAVQWidget@@XZ
?focusWidget@QGraphicsWidget@@QEBAPEAV1@XZ
?focusWidget@QInputContext@@QEBAPEAVQWidget@@XZ
?focusWidget@QWidget@@QEBAPEAV1@XZ
?focus_widget@QApplicationPrivate@@2PEAVQWidget@@EA
?font@QAction@@QEBA?AVQFont@@XZ
?font@QApplication@@SA?AVQFont@@PEBD@Z
?font@QApplication@@SA?AVQFont@@PEBVQWidget@@@Z
?font@QApplication@@SA?AVQFont@@XZ
?font@QFontDatabase@@QEBA?AVQFont@@AEBVQString@@0H@Z
?font@QFontDialog@@AEBA?AVQFont@@XZ
?font@QGraphicsScene@@QEBA?AVQFont@@XZ
?font@QGraphicsSimpleTextItem@@QEBA?AVQFont@@XZ
?font@QGraphicsTextItem@@QEBA?AVQFont@@XZ
?font@QGraphicsWidget@@QEBA?AVQFont@@XZ
?font@QInputContext@@UEBA?AVQFont@@XZ
?font@QListWidgetItem@@QEBA?AVQFont@@XZ
?font@QPaintEngineState@@QEBA?AVQFont@@XZ
?font@QPainter@@QEBAAEBVQFont@@XZ
?font@QStandardItem@@QEBA?AVQFont@@XZ
?font@QTableWidgetItem@@QEBA?AVQFont@@XZ
?font@QTextCharFormat@@QEBA?AVQFont@@XZ
?font@QTextEngine@@QEBA?AVQFont@@AEBUQScriptItem@@@Z
?font@QTextEngine@@QEBA?AVQFont@@XZ
?font@QTextItem@@QEBA?AVQFont@@XZ
?font@QTextLayout@@QEBA?AVQFont@@XZ
?font@QToolTip@@SA?AVQFont@@XZ
?font@QTreeWidgetItem@@QEBA?AVQFont@@H@Z
?font@QWidget@@QEBAAEBVQFont@@XZ
?fontCapitalization@QTextCharFormat@@QEBA?AW4Capitalization@QFont@@XZ
?fontChange@QWidget@@MEAAXAEBVQFont@@@Z
?fontDatabaseChanged@QApplication@@IEAAXXZ
?fontEmbeddingEnabled@QPrinter@@QEBA_NXZ
?fontEngine@QStaticTextItem@@QEBAPEAVQFontEngine@@XZ
?fontEngine@QTextEngine@@QEBAPEAVQFontEngine@@AEBUQScriptItem@@PEAUQFixed@@11@Z
?fontFamily@QTextCharFormat@@QEBA?AVQString@@XZ
?fontFamily@QTextEdit@@QEBA?AVQString@@XZ
?fontFilters@QFontComboBox@@QEBA?AV?$QFlags@W4FontFilter@QFontComboBox@@@@XZ
?fontFixedPitch@QTextCharFormat@@QEBA_NXZ
?fontHintingPreference@QTextCharFormat@@QEBA?AW4HintingPreference@QFont@@XZ
?fontInfo@QPainter@@QEBA?AVQFontInfo@@XZ
?fontInfo@QWidget@@QEBA?AVQFontInfo@@XZ
?fontItalic@QTextCharFormat@@QEBA_NXZ
?fontItalic@QTextEdit@@QEBA_NXZ
?fontKerning@QTextCharFormat@@QEBA_NXZ
?fontLetterSpacing@QTextCharFormat@@QEBANXZ
?fontMetrics@QApplication@@SA?AVQFontMetrics@@XZ
?fontMetrics@QPainter@@QEBA?AVQFontMetrics@@XZ
?fontMetrics@QWidget@@QEBA?AVQFontMetrics@@XZ
?fontOverline@QTextCharFormat@@QEBA_NXZ
?fontPointSize@QTextCharFormat@@QEBANXZ
?fontPointSize@QTextEdit@@QEBANXZ
?fontSelected@QFontDialog@@IEAAXAEBVQFont@@@Z
?fontStrikeOut@QTextCharFormat@@QEBA_NXZ
?fontStyleHint@QTextCharFormat@@QEBA?AW4StyleHint@QFont@@XZ
?fontStyleStrategy@QTextCharFormat@@QEBA?AW4StyleStrategy@QFont@@XZ
?fontTable@QRawFont@@QEBA?AVQByteArray@@PEBD@Z
?fontUnderline@QTextCharFormat@@QEBA_NXZ
?fontUnderline@QTextEdit@@QEBA_NXZ
?fontWeight@QTextCharFormat@@QEBAHXZ
?fontWeight@QTextEdit@@QEBAHXZ
?fontWordSpacing@QTextCharFormat@@QEBANXZ
?forceShow@QProgressDialog@@IEAAXXZ
?foreground@QListWidgetItem@@QEBA?AVQBrush@@XZ
?foreground@QPalette@@QEBAAEBVQBrush@@XZ
?foreground@QStandardItem@@QEBA?AVQBrush@@XZ
?foreground@QTableWidgetItem@@QEBA?AVQBrush@@XZ
?foreground@QTextFormat@@QEBA?AVQBrush@@XZ
?foreground@QTreeWidgetItem@@QEBA?AVQBrush@@H@Z
?foregroundBrush@QGraphicsScene@@QEBA?AVQBrush@@XZ
?foregroundBrush@QGraphicsView@@QEBA?AVQBrush@@XZ
?foregroundColor@QAccessibleInterface@@QEAA?AVQColor@@XZ
?foregroundRole@QWidget@@QEBA?AW4ColorRole@QPalette@@XZ
?formAlignment@QFormLayout@@QEBA?AV?$QFlags@W4AlignmentFlag@Qt@@@@XZ
?format@QAbstractTextDocumentLayout@@IEAA?AVQTextCharFormat@@H@Z
?format@QDropEvent@@UEBAPEBDH@Z
?format@QImage@@QEBA?AW4Format@1@XZ
?format@QImageIOHandler@@QEBA?AVQByteArray@@XZ
?format@QImageReader@@QEBA?AVQByteArray@@XZ
?format@QImageWriter@@QEBA?AVQByteArray@@XZ
?format@QMovie@@QEBA?AVQByteArray@@XZ
?format@QPictureIO@@QEBAPEBDXZ
?format@QProgressBar@@QEBA?AVQString@@XZ
?format@QSyntaxHighlighter@@IEBA?AVQTextCharFormat@@H@Z
?format@QTextDocumentWriter@@QEBA?AVQByteArray@@XZ
?format@QTextEngine@@QEBA?AVQTextCharFormat@@PEBUQScriptItem@@@Z
?format@QTextFormatCollection@@QEBA?AVQTextFormat@@H@Z
?format@QTextInlineObject@@QEBA?AVQTextFormat@@XZ
?format@QTextList@@QEBA?AVQTextListFormat@@XZ
?format@QTextObject@@QEBA?AVQTextFormat@@XZ
?format@QTextTable@@QEBA?AVQTextTableFormat@@XZ
?format@QTextTableCell@@QEBA?AVQTextCharFormat@@XZ
?format@QVolatileImage@@QEBA?AW4Format@QImage@@XZ
?formatCollection@QTextDocumentPrivate@@QEAAPEAVQTextFormatCollection@@XZ
?formatCollection@QTextDocumentPrivate@@QEBAPEBVQTextFormatCollection@@XZ
?formatIndex@QAbstractTextDocumentLayout@@IEAAHH@Z
?formatIndex@QTextEngine@@QEBAHPEBUQScriptItem@@@Z
?formatIndex@QTextInlineObject@@QEBAHXZ
?formatIndex@QTextObject@@QEBAHXZ
?formats@QInternalMimeData@@UEBA?AVQStringList@@XZ
?formats@QTextEngine@@QEBAPEAVQTextFormatCollection@@XZ
?formatsHelper@QInternalMimeData@@SA?AVQStringList@@PEBVQMimeData@@@Z
?forward@QTextBrowser@@UEAAXXZ
?forwardAvailable@QTextBrowser@@IEAAX_N@Z
?forwardHistoryCount@QTextBrowser@@QEBAHXZ
?fragment@iterator@QTextBlock@@QEBA?AVQTextFragment@@XZ
?fragmentIndex@QTextBlock@@QEBAHXZ
?fragmentMap@QTextDocumentPrivate@@QEAAAEAV?$QFragmentMap@VQTextFragmentData@@@@XZ
?fragmentMap@QTextDocumentPrivate@@QEBAAEBV?$QFragmentMap@VQTextFragmentData@@@@XZ
?frameAt@QTextDocument@@QEBAPEAVQTextFrame@@H@Z
?frameAt@QTextDocumentPrivate@@QEBAPEAVQTextFrame@@H@Z
?frameBoundingRect@QPlainTextDocumentLayout@@UEBA?AVQRectF@@PEAVQTextFrame@@@Z
?frameBoundingRect@QTextDocumentLayout@@UEBA?AVQRectF@@PEAVQTextFrame@@@Z
?frameChanged@QMovie@@IEAAXH@Z
?frameCount@QMovie@@QEBAHXZ
?frameEndIndex@QPaintBuffer@@QEBAHH@Z
?frameFormat@QTextFrame@@QEBA?AVQTextFrameFormat@@XZ
?frameGeometry@QWidget@@QEBA?AVQRect@@XZ
?frameRect@QFrame@@QEBA?AVQRect@@XZ
?frameRect@QMovie@@QEBA?AVQRect@@XZ
?frameShadow@QFrame@@QEBA?AW4Shadow@1@XZ
?frameShape@QFrame@@QEBA?AW4Shape@1@XZ
?frameSize@QWidget@@QEBA?AVQSize@@XZ
?frameStartIndex@QPaintBuffer@@QEBAHH@Z
?frameStrut@QWidgetPrivate@@QEBA?AVQRect@@XZ
?frameStyle@QFrame@@QEBAHXZ
?frameWidth@QFrame@@QEBAHXZ
?free@?$QList@VQItemSelectionRange@@@@AEAAXPEAUData@QListData@@@Z
?freeMemory@QTextEngine@@QEAAXXZ
?freeStyleOptionsArray@QGraphicsViewPrivate@@QEAAXPEAVQStyleOptionGraphicsItem@@@Z
?fromAxisAndAngle@QQuaternion@@SA?AV1@AEBVQVector3D@@N@Z
?fromAxisAndAngle@QQuaternion@@SA?AV1@NNNN@Z
?fromCmyk@QColor@@SA?AV1@HHHHH@Z
?fromCmykF@QColor@@SA?AV1@NNNNN@Z
?fromData@QBitmap@@SA?AV1@AEBVQSize@@PEBEW4Format@QImage@@@Z
?fromData@QImage@@SA?AV1@AEBVQByteArray@@PEBD@Z
?fromData@QImage@@SA?AV1@PEBEHPEBD@Z
?fromData@QPixmapData@@UEAA_NPEBEIPEBDV?$QFlags@W4ImageConversionFlag@Qt@@@@@Z
?fromData@QRasterPixmapData@@UEAA_NPEBEIPEBDV?$QFlags@W4ImageConversionFlag@Qt@@@@@Z
?fromData@QRuntimePixmapData@@UEAA_NPEBEIPEBDV?$QFlags@W4ImageConversionFlag@Qt@@@@@Z
?fromFile@QPixmapData@@UEAA_NAEBVQString@@PEBDV?$QFlags@W4ImageConversionFlag@Qt@@@@@Z
?fromFile@QRuntimePixmapData@@UEAA_NAEBVQString@@PEBDV?$QFlags@W4ImageConversionFlag@Qt@@@@@Z
?fromFont@QRawFont@@SA?AV1@AEBVQFont@@W4WritingSystem@QFontDatabase@@@Z
?fromHsl@QColor@@SA?AV1@HHHH@Z
?fromHslF@QColor@@SA?AV1@NNNN@Z
?fromHsv@QColor@@SA?AV1@HHHH@Z
?fromHsvF@QColor@@SA?AV1@NNNN@Z
?fromHtml@QTextDocumentFragment@@SA?AV1@AEBVQString@@@Z
?fromHtml@QTextDocumentFragment@@SA?AV1@AEBVQString@@PEBVQTextDocument@@@Z
?fromImage@QBitmap@@SA?AV1@AEBVQImage@@V?$QFlags@W4ImageConversionFlag@Qt@@@@@Z
?fromImage@QBlittablePixmapData@@UEAAXAEBVQImage@@V?$QFlags@W4ImageConversionFlag@Qt@@@@@Z
?fromImage@QPixmap@@SA?AV1@AEBVQImage@@V?$QFlags@W4ImageConversionFlag@Qt@@@@@Z
?fromImage@QRasterPixmapData@@UEAAXAEBVQImage@@V?$QFlags@W4ImageConversionFlag@Qt@@@@@Z
?fromImage@QRuntimePixmapData@@UEAAXAEBVQImage@@V?$QFlags@W4ImageConversionFlag@Qt@@@@@Z
?fromImageReader@QPixmap@@SA?AV1@PEAVQImageReader@@V?$QFlags@W4ImageConversionFlag@Qt@@@@@Z
?fromImageReader@QPixmapData@@UEAAXPEAVQImageReader@@V?$QFlags@W4ImageConversionFlag@Qt@@@@@Z
?fromImageReader@QRasterPixmapData@@UEAAXPEAVQImageReader@@V?$QFlags@W4ImageConversionFlag@Qt@@@@@Z
?fromPage@QAbstractPrintDialog@@QEBAHXZ
?fromPage@QPrinter@@QEBAHXZ
?fromPlainText@QTextDocumentFragment@@SA?AV1@AEBVQString@@@Z
?fromPoints@QBezier@@SA?AV1@AEBVQPointF@@000@Z
?fromRgb@QColor@@SA?AV1@HHHH@Z
?fromRgb@QColor@@SA?AV1@I@Z
?fromRgbF@QColor@@SA?AV1@NNNN@Z
?fromRgba@QColor@@SA?AV1@I@Z
?fromScale@QTransform@@SA?AV1@NN@Z
?fromSet@?$QList@VQItemSelectionRange@@@@SA?AV1@AEBV?$QSet@VQItemSelectionRange@@@@@Z
?fromStdList@?$QList@VQItemSelectionRange@@@@SA?AV1@AEBV?$list@VQItemSelectionRange@@V?$allocator@VQItemSelectionRange@@@std@@@std@@@Z
?fromString@QFont@@QEAA_NAEBVQString@@@Z
?fromString@QKeySequence@@SA?AV1@AEBVQString@@W4SequenceFormat@1@@Z
?fromTheme@QIcon@@SA?AV1@AEBVQString@@AEBV1@@Z
?fromTranslate@QTransform@@SA?AV1@NN@Z
?fromVector@?$QList@VQItemSelectionRange@@@@SA?AV1@AEBV?$QVector@VQItemSelectionRange@@@@@Z
?fromWinHBITMAP@QPixmap@@SA?AV1@PEAUHBITMAP__@@W4HBitmapFormat@1@@Z
?fromWinHICON@QPixmap@@SA?AV1@PEAUHICON__@@@Z
?front@?$QList@VQItemSelectionRange@@@@QEAAAEAVQItemSelectionRange@@XZ
?front@?$QList@VQItemSelectionRange@@@@QEBAAEBVQItemSelectionRange@@XZ
?frustum@QMatrix4x4@@QEAAXNNNNNN@Z
?fullPage@QPrinter@@QEBA_NXZ
?gamma@QImageWriter@@QEBAMXZ
?gamma@QPictureIO@@QEBAMXZ
?gapIndex@QDockAreaLayout@@QEBA?AV?$QList@H@@AEBVQPoint@@@Z
?gapIndex@QDockAreaLayoutInfo@@QEBA?AV?$QList@H@@AEBVQPoint@@_NW4TabMode@1@@Z
?gapRect@QDockAreaLayout@@QEBA?AVQRect@@AEBV?$QList@H@@@Z
?generatedIconPixmap@QCleanlooksStyle@@UEBA?AVQPixmap@@W4Mode@QIcon@@AEBV2@PEBVQStyleOption@@@Z
?generatedIconPixmap@QCommonStyle@@UEBA?AVQPixmap@@W4Mode@QIcon@@AEBV2@PEBVQStyleOption@@@Z
?generatedIconPixmap@QProxyStyle@@UEBA?AVQPixmap@@W4Mode@QIcon@@AEBV2@PEBVQStyleOption@@@Z
?generatedIconPixmap@QStyleSheetStyle@@UEBA?AVQPixmap@@W4Mode@QIcon@@AEBV2@PEBVQStyleOption@@@Z
?genericMapFromScene@QGraphicsItemPrivate@@QEBA?AVQPointF@@AEBV2@PEBVQWidget@@@Z
?geometriesChanged@QHeaderView@@IEAAXXZ
?geometry@QGraphicsLayoutItem@@QEBA?AVQRectF@@XZ
?geometry@QLayout@@UEBA?AVQRect@@XZ
?geometry@QSpacerItem@@UEBA?AVQRect@@XZ
?geometry@QSystemTrayIcon@@QEBA?AVQRect@@XZ
?geometry@QWidget@@QEBAAEBVQRect@@XZ
?geometry@QWidgetItem@@UEBA?AVQRect@@XZ
?geometry@QWindowSurface@@QEBA?AVQRect@@XZ
?geometryChanged@QGraphicsWidget@@IEAAXXZ
?gesture@QGestureEvent@@QEBAPEAVQGesture@@W4GestureType@Qt@@@Z
?gestureCancelPolicy@QGesture@@QEBA?AW4GestureCancelPolicy@1@XZ
?gestureEventHandler@QGraphicsScenePrivate@@QEAAXPEAVQGestureEvent@@@Z
?gestureTargetsAtHotSpots@QGraphicsScenePrivate@@QEAAXAEBV?$QSet@PEAVQGesture@@@@W4GestureFlag@Qt@@PEAV?$QHash@PEAVQGraphicsObject@@V?$QSet@PEAVQGesture@@@@@@PEAV?$QSet@PEAVQGraphicsObject@@@@PEAV2@4@Z
?gestureType@QGesture@@QEBA?AW4GestureType@Qt@@XZ
?gestures@QGestureEvent@@QEBA?AV?$QList@PEAVQGesture@@@@XZ
?get@QActionPrivate@@SAPEAV1@PEAVQAction@@@Z
?get@QFontPrivate@@SAPEAV1@AEBVQFont@@@Z
?get@QGraphicsAnchorLayoutPrivate@@SAPEAV1@PEAVQGraphicsAnchorLayout@@@Z
?get@QGraphicsItemPrivate@@SAPEAV1@PEAVQGraphicsItem@@@Z
?get@QGraphicsItemPrivate@@SAPEBV1@PEBVQGraphicsItem@@@Z
?get@QGraphicsLayoutItemPrivate@@SAPEAV1@PEAVQGraphicsLayoutItem@@@Z
?get@QGraphicsLayoutItemPrivate@@SAPEBV1@PEBVQGraphicsLayoutItem@@@Z
?get@QGraphicsScenePrivate@@SAPEAV1@PEAVQGraphicsScene@@@Z
?get@QRawFontPrivate@@SAPEAV1@AEBVQRawFont@@@Z
?get@QStatePrivate@@SAPEAV1@PEAVQState@@@Z
?get@QStatePrivate@@SAPEBV1@PEBVQState@@@Z
?get@QStaticTextPrivate@@SAPEAV1@PEBVQStaticText@@@Z
?getAnchor@QGraphicsAnchorLayoutPrivate@@QEAAPEAVQGraphicsAnchor@@PEAVQGraphicsLayoutItem@@W4AnchorPoint@Qt@@01@Z
?getCMap@QFontEngine@@SAPEBEPEBEIPEA_NPEAH@Z
?getClusterLength@QTextEngine@@AEAAHPEAGPEBUHB_CharAttributes@@HHHPEAH@Z
?getCmyk@QColor@@QEAAXPEAH0000@Z
?getCmykF@QColor@@QEAAXPEAN0000@Z
?getColor@QColorDialog@@SA?AVQColor@@AEBV2@PEAVQWidget@@@Z
?getColor@QColorDialog@@SA?AVQColor@@AEBV2@PEAVQWidget@@AEBVQString@@V?$QFlags@W4ColorDialogOption@QColorDialog@@@@@Z
?getContentsMargins@QGraphicsLayout@@UEBAXPEAN000@Z
?getContentsMargins@QGraphicsLayoutItem@@UEBAXPEAN000@Z
?getContentsMargins@QGraphicsWidget@@UEBAXPEAN000@Z
?getContentsMargins@QLayout@@QEBAXPEAH000@Z
?getContentsMargins@QWidget@@QEBAXPEAH000@Z
?getDC@QPaintDevice@@UEBAPEAUHDC__@@XZ
?getDC@QPaintEngine@@UEBAPEAUHDC__@@XZ
?getDC@QPrinter@@UEBAPEAUHDC__@@XZ
?getDC@QWidget@@UEBAPEAUHDC__@@XZ
?getDefaultStyleSheet@QStyleSheetStyle@@AEBA?AUStyleSheet@QCss@@XZ
?getDouble@QInputDialog@@SANPEAVQWidget@@AEBVQString@@1NNNHPEA_NV?$QFlags@W4WindowType@Qt@@@@@Z
?getEnvironmentVariable@QFileDialogPrivate@@QEAA?AVQString@@AEBV2@@Z
?getExistingDirectory@QFileDialog@@SA?AVQString@@PEAVQWidget@@AEBV2@1V?$QFlags@W4Option@QFileDialog@@@@@Z
?getFileInfos@QFileInfoGatherer@@IEAAXAEBVQString@@AEBVQStringList@@@Z
?getFont@QFontDialog@@CA?AVQFont@@PEA_NPEBV2@PEAVQWidget@@@Z
?getFont@QFontDialog@@SA?AVQFont@@PEA_NAEBV2@PEAVQWidget@@@Z
?getFont@QFontDialog@@SA?AVQFont@@PEA_NAEBV2@PEAVQWidget@@AEBVQString@@@Z
?getFont@QFontDialog@@SA?AVQFont@@PEA_NAEBV2@PEAVQWidget@@AEBVQString@@V?$QFlags@W4FontDialogOption@QFontDialog@@@@@Z
?getFont@QFontDialog@@SA?AVQFont@@PEA_NPEAVQWidget@@@Z
?getGlyphBearings@QFontEngine@@UEAAXIPEAN0@Z
?getGlyphPositions@QFontEngine@@QEAAXAEBUQGlyphLayout@@AEBVQTransform@@V?$QFlags@W4RenderFlag@QTextItem@@@@AEAV?$QVarLengthArray@I$0BAA@@@AEAV?$QVarLengthArray@UQFixedPoint@@$0BAA@@@@Z
?getGraphParts@QGraphicsAnchorLayoutPrivate@@QEAA?AV?$QList@V?$QList@PEAUQSimplexConstraint@@@@@@W4Orientation@1@@Z
?getGrid@QDockAreaLayout@@QEAAXPEAV?$QVector@UQLayoutStruct@@@@0@Z
?getHsl@QColor@@QEBAXPEAH000@Z
?getHslF@QColor@@QEBAXPEAN000@Z
?getHsv@QColor@@QEBAXPEAH000@Z
?getHsvF@QColor@@QEBAXPEAN000@Z
?getInfo@QFileInfoGatherer@@QEBA?AVQExtendedInformation@@AEBVQFileInfo@@@Z
?getInt@QInputDialog@@SAHPEAVQWidget@@AEBVQString@@1HHHHPEA_NV?$QFlags@W4WindowType@Qt@@@@@Z
?getInteger@QInputDialog@@SAHPEAVQWidget@@AEBVQString@@1HHHHPEA_NV?$QFlags@W4WindowType@Qt@@@@@Z
?getItem@QInputDialog@@SA?AVQString@@PEAVQWidget@@AEBV2@1AEBVQStringList@@H_NPEA_NV?$QFlags@W4WindowType@Qt@@@@@Z
?getItem@QInputDialog@@SA?AVQString@@PEAVQWidget@@AEBV2@1AEBVQStringList@@H_NPEA_NV?$QFlags@W4WindowType@Qt@@@@V?$QFlags@W4InputMethodHint@Qt@@@@@Z
?getItemPosition@QFormLayout@@QEBAXHPEAHPEAW4ItemRole@1@@Z
?getItemPosition@QGridLayout@@QEAAXHPEAH000@Z
?getLayoutItemMargins@QWidgetPrivate@@QEBAXPEAH000@Z
?getLayoutPosition@QFormLayout@@QEBAXPEAVQLayout@@PEAHPEAW4ItemRole@1@@Z
?getMargin@QGraphicsLayoutPrivate@@QEBAXPEANNW4PixelMetric@QStyle@@@Z
?getMargin@QLayoutPrivate@@QEBAXPEAHHW4PixelMetric@QStyle@@@Z
?getOpaqueChildren@QWidgetPrivate@@QEBAAEBVQRegion@@XZ
?getOpenFileName@QFileDialog@@SA?AVQString@@PEAVQWidget@@AEBV2@11PEAV2@V?$QFlags@W4Option@QFileDialog@@@@@Z
?getOpenFileNames@QFileDialog@@SA?AVQStringList@@PEAVQWidget@@AEBVQString@@11PEAV4@V?$QFlags@W4Option@QFileDialog@@@@@Z
?getPageMargins@QPrinter@@QEBAXPEAN000W4Unit@1@@Z
?getPaintContext@QPlainTextEdit@@IEBA?AUPaintContext@QAbstractTextDocumentLayout@@XZ
?getPaintContext@QTextControl@@QEBA?AUPaintContext@QAbstractTextDocumentLayout@@PEAVQWidget@@@Z
?getPixmapCursor@QApplicationPrivate@@QEAA?AVQPixmap@@W4CursorShape@Qt@@@Z
?getPointInOutline@QFontEngine@@UEAA?AW4HB_Error@@IHIPEAH0PEAI@Z
?getPrinterDC@QPrintEngine@@UEBAPEAUHDC__@@XZ
?getRange@QSplitter@@QEBAXHPEAH0@Z
?getRgb@QColor@@QEBAXPEAH000@Z
?getRgbF@QColor@@QEBAXPEAN000@Z
?getRgba@QColorDialog@@SAIIPEA_NPEAVQWidget@@@Z
?getSaveFileName@QFileDialog@@SA?AVQString@@PEAVQWidget@@AEBV2@11PEAV2@V?$QFlags@W4Option@QFileDialog@@@@@Z
?getSeparatorWidget@QMainWindowLayout@@QEAAPEAVQWidget@@XZ
?getSfntTable@QFontEngine@@QEBA?AVQByteArray@@I@Z
?getSfntTableData@QFontEngine@@UEBA_NIPEAEPEAI@Z
?getStyleOptionInfo@QMainWindowLayout@@QEBAXPEAVQStyleOptionToolBar@@PEAVQToolBar@@@Z
?getSubRange@QBezier@@QEBA?AV1@NN@Z
?getTabBar@QMainWindowLayout@@QEAAPEAVQTabBar@@XZ
?getText@QInputDialog@@SA?AVQString@@PEAVQWidget@@AEBV2@1W4EchoMode@QLineEdit@@1PEA_NV?$QFlags@W4WindowType@Qt@@@@@Z
?getText@QInputDialog@@SA?AVQString@@PEAVQWidget@@AEBV2@1W4EchoMode@QLineEdit@@1PEA_NV?$QFlags@W4WindowType@Qt@@@@V?$QFlags@W4InputMethodHint@Qt@@@@@Z
?getTextMargins@QLineEdit@@QEBAXPEAH000@Z
?getTrueTypeGlyphIndex@QFontEngine@@SAIPEBEI@Z
?getUnscaledGlyph@QFontEngine@@UEAAXIPEAVQPainterPath@@PEAUglyph_metrics_t@@@Z
?getWidgetPosition@QFormLayout@@QEBAXPEAVQWidget@@PEAHPEAW4ItemRole@1@@Z
?getWindowFrameMargins@QGraphicsWidget@@QEBAXPEAN000@Z
?giveFocusAccordingToFocusPolicy@QApplicationPrivate@@CAXPEAVQWidget@@W4FocusPolicy@Qt@@W4FocusReason@4@@Z
?globalPos@QContextMenuEvent@@QEBAAEBVQPoint@@XZ
?globalPos@QHelpEvent@@QEBAAEBVQPoint@@XZ
?globalPos@QMouseEvent@@QEBAAEBVQPoint@@XZ
?globalPos@QTabletEvent@@QEBAAEBVQPoint@@XZ
?globalPos@QWheelEvent@@QEBAAEBVQPoint@@XZ
?globalStrut@QApplication@@SA?AVQSize@@XZ
?globalX@QContextMenuEvent@@QEBAHXZ
?globalX@QHelpEvent@@QEBAHXZ
?globalX@QMouseEvent@@QEBAHXZ
?globalX@QTabletEvent@@QEBAHXZ
?globalX@QWheelEvent@@QEBAHXZ
?globalY@QContextMenuEvent@@QEBAHXZ
?globalY@QHelpEvent@@QEBAHXZ
?globalY@QMouseEvent@@QEBAHXZ
?globalY@QTabletEvent@@QEBAHXZ
?globalY@QWheelEvent@@QEBAHXZ
?glyphCache@QFontEngine@@QEBAPEAVQFontEngineGlyphCache@@PEAXW4Type@2@AEBVQTransform@@@Z
?glyphCount@QFontEngine@@UEBAHXZ
?glyphIndexes@QGlyphRun@@QEBA?AV?$QVector@I@@XZ
?glyphIndexesForChars@QRawFont@@QEBA_NPEBVQChar@@HPEAIPEAH@Z
?glyphIndexesForString@QRawFont@@QEBA?AV?$QVector@I@@AEBVQString@@@Z
?glyphMargin@QImageTextureGlyphCache@@UEBAHXZ
?glyphMargin@QTextureGlyphCache@@UEBAHXZ
?glyphPadding@QTextureGlyphCache@@UEBAHXZ
?glyphRuns@QTextFragment@@QEBA?AV?$QList@VQGlyphRun@@@@XZ
?glyphRuns@QTextLayout@@QEBA?AV?$QList@VQGlyphRun@@@@XZ
?glyphs@QTextLine@@AEBA?AV?$QList@VQGlyphRun@@@@HH@Z
?goToUrl@QSidebar@@IEAAXAEBVQUrl@@@Z
?gotFocus@QFocusEvent@@QEBA_NXZ
?grabGesture@QGraphicsObject@@QEAAXW4GestureType@Qt@@V?$QFlags@W4GestureFlag@Qt@@@@@Z
?grabGesture@QGraphicsScenePrivate@@QEAAXPEAVQGraphicsItem@@W4GestureType@Qt@@@Z
?grabGesture@QWidget@@QEAAXW4GestureType@Qt@@V?$QFlags@W4GestureFlag@Qt@@@@@Z
?grabKeyboard@QGraphicsItem@@QEAAXXZ
?grabKeyboard@QGraphicsScenePrivate@@QEAAXPEAVQGraphicsItem@@@Z
?grabKeyboard@QWidget@@QEAAXXZ
?grabKeyboardEvent@QGraphicsWidget@@MEAAXPEAVQEvent@@@Z
?grabMouse@QGraphicsItem@@QEAAXXZ
?grabMouse@QGraphicsScenePrivate@@QEAAXPEAVQGraphicsItem@@_N@Z
?grabMouse@QWidget@@QEAAXAEBVQCursor@@@Z
?grabMouse@QWidget@@QEAAXXZ
?grabMouseEvent@QGraphicsProxyWidget@@MEAAXPEAVQEvent@@@Z
?grabMouseEvent@QGraphicsWidget@@MEAAXPEAVQEvent@@@Z
?grabMouseWhileInWindow@QWidgetPrivate@@QEAAXXZ
?grabShortcut@QGraphicsWidget@@QEAAHAEBVQKeySequence@@W4ShortcutContext@Qt@@@Z
?grabShortcut@QWidget@@QEAAHAEBVQKeySequence@@W4ShortcutContext@Qt@@@Z
?grabWidget@QPixmap@@SA?AV1@PEAVQWidget@@AEBVQRect@@@Z
?grabWidget@QPixmap@@SA?AV1@PEAVQWidget@@HHHH@Z
?grabWidget@QWindowSurface@@UEBA?AVQPixmap@@PEBVQWidget@@AEBVQRect@@@Z
?grabWindow@QPixmap@@SA?AV1@PEAUHWND__@@HHHH@Z
?gradient@QBrush@@QEBAPEBVQGradient@@XZ
?graphicsEffect@QGraphicsItem@@QEBAPEAVQGraphicsEffect@@XZ
?graphicsEffect@QWidget@@QEBAPEAVQGraphicsEffect@@XZ
?graphicsItem@QGraphicsEffectSource@@QEBAPEBVQGraphicsItem@@XZ
?graphicsItem@QGraphicsLayoutItem@@QEBAPEAVQGraphicsItem@@XZ
?graphicsProxyWidget@QWidget@@QEBAPEAVQGraphicsProxyWidget@@XZ
?graphicsSystem@QApplicationPrivate@@SAPEAVQGraphicsSystem@@XZ
?graphics_system@QApplicationPrivate@@2PEAVQGraphicsSystem@@EA
?graphics_system_name@QApplicationPrivate@@2VQString@@A
?grayPalette@QFontEngine@@KAAEBV?$QVector@I@@XZ
?green@QColor@@QEBAHXZ
?greenF@QColor@@QEBANXZ
?gridSize@QListView@@QEBA?AVQSize@@XZ
?gridStyle@QTableView@@QEBA?AW4PenStyle@Qt@@XZ
?gripMoved@QColumnViewGrip@@IEAAXH@Z
?group@QAbstractButton@@QEBAPEAVQButtonGroup@@XZ
?group@QGraphicsItem@@QEBAPEAVQGraphicsItemGroup@@XZ
?group@QUndoView@@QEBAPEAVQUndoGroup@@XZ
?hPal@QColormap@@SAPEAUHPALETTE__@@XZ
?handle@QCursor@@QEBAPEAUHICON__@@XZ
?handle@QFont@@QEBAPEAUHFONT__@@XZ
?handle@QRegion@@QEBAPEAUHRGN__@@XZ
?handle@QSplitter@@QEBAPEAVQSplitterHandle@@H@Z
?handleCrossingEdges@QPathClipper@@AEAA_NAEAVQWingedEdge@@NW4ClipperMode@1@@Z
?handleSoftwareInputPanel@QWidgetPrivate@@QEAAXW4MouseButton@Qt@@_N@Z
?handleUpdateSoftKeys@QSoftKeyManager@@AEAA_NXZ
?handleVisibilityChange@QDockWidget@@AEAAX_N@Z
?handleWidth@QSplitter@@QEBAHXZ
?handlerForObject@QAbstractTextDocumentLayout@@QEBAPEAVQTextObjectInterface@@H@Z
?handlesChildEvents@QGraphicsItem@@QEBA_NXZ
?harfbuzzFace@QFontEngine@@QEBAPEAUHB_FaceRec_@@XZ
?harfbuzzFont@QFontEngine@@QEBAPEAUHB_Font_@@XZ
?hasAcceptableInput@QAbstractSpinBox@@QEBA_NXZ
?hasAcceptableInput@QLineControl@@AEBA_NAEBVQString@@@Z
?hasAcceptableInput@QLineControl@@QEBA_NXZ
?hasAcceptableInput@QLineEdit@@QEBA_NXZ
?hasAlpha@QPixmap@@QEBA_NXZ
?hasAlphaChannel@QBlittablePixmapData@@UEBA_NXZ
?hasAlphaChannel@QImage@@QEBA_NXZ
?hasAlphaChannel@QPixmap@@QEBA_NXZ
?hasAlphaChannel@QRasterPixmapData@@UEBA_NXZ
?hasAlphaChannel@QRuntimePixmapData@@UEBA_NXZ
?hasAlphaChannel@QVolatileImage@@QEBA_NXZ
?hasAutoScroll@QAbstractItemView@@QEBA_NXZ
?hasChildren@QAbstractProxyModel@@UEBA_NAEBVQModelIndex@@@Z
?hasChildren@QDirModel@@UEBA_NAEBVQModelIndex@@@Z
?hasChildren@QFileSystemModel@@UEBA_NAEBVQModelIndex@@@Z
?hasChildren@QProxyModel@@UEBA_NAEBVQModelIndex@@@Z
?hasChildren@QSortFilterProxyModel@@UEBA_NAEBVQModelIndex@@@Z
?hasChildren@QStandardItem@@QEBA_NXZ
?hasChildren@QStandardItemModel@@UEBA_NAEBVQModelIndex@@@Z
?hasClipOperations@QPaintEngineExPrivate@@QEBA_NXZ
?hasClipping@QItemDelegate@@QEBA_NXZ
?hasClipping@QPainter@@QEBA_NXZ
?hasComplexSelection@QTextCursor@@QEBA_NXZ
?hasConflicts@QGraphicsAnchorLayoutPrivate@@QEBA_NXZ
?hasCursor@QGraphicsItem@@QEBA_NXZ
?hasEditor@QAbstractItemViewPrivate@@QEBA_NAEBVQModelIndex@@@Z
?hasExtendedInfo@QKeyEvent@@QEBA_NXZ
?hasExtendedInfo@QMouseEvent@@QEBA_NXZ
?hasFamily@QFontDatabase@@QEBA_NAEBVQString@@@Z
?hasFeature@QPaintEngine@@QEBA_NV?$QFlags@W4PaintEngineFeature@QPaintEngine@@@@@Z
?hasFeature@QWindowSurface@@QEBA_NW4WindowSurfaceFeature@1@@Z
?hasFixedSize@QDockAreaLayoutInfo@@QEBA_NXZ
?hasFocus@QGraphicsItem@@QEBA_NXZ
?hasFocus@QGraphicsScene@@QEBA_NXZ
?hasFocus@QWidget@@QEBA_NXZ
?hasFormat@QInternalMimeData@@UEBA_NAEBVQString@@@Z
?hasFormatCached@QTextFormatCollection@@QEBA_NAEBVQTextFormat@@@Z
?hasFormatHelper@QInternalMimeData@@SA_NAEBVQString@@PEBVQMimeData@@@Z
?hasFormats@QTextEngine@@QEBA_NXZ
?hasFrame@QAbstractSpinBox@@QEBA_NXZ
?hasFrame@QComboBox@@QEBA_NXZ
?hasFrame@QLineEdit@@QEBA_NXZ
?hasHeightForWidth@QBoxLayout@@UEBA_NXZ
?hasHeightForWidth@QFormLayout@@UEBA_NXZ
?hasHeightForWidth@QGraphicsLayoutItemPrivate@@QEBA_NXZ
?hasHeightForWidth@QGridLayout@@UEBA_NXZ
?hasHeightForWidth@QLayoutItem@@UEBA_NXZ
?hasHeightForWidth@QSizePolicy@@QEBA_NXZ
?hasHeightForWidth@QWidgetItem@@UEBA_NXZ
?hasHeightForWidth@QWidgetPrivate@@UEBA_NXZ
?hasHotSpot@QGesture@@QEBA_NXZ
?hasImplicitClose@QVectorPath@@QEBA_NXZ
?hasMouseTracking@QWidget@@QEBA_NXZ
?hasNext@Parser@QCss@@QEBA_NXZ
?hasProperty@QTextFormat@@QEBA_NH@Z
?hasScaledContents@QLabel@@QEBA_NXZ
?hasSelectedText@QLabel@@QEBA_NXZ
?hasSelectedText@QLineControl@@QEBA_NXZ
?hasSelectedText@QLineEdit@@QEBA_NXZ
?hasSelection@QItemSelectionModel@@QEBA_NXZ
?hasSelection@QTextCursor@@QEBA_NXZ
?hasStaticContents@QWidgetBackingStore@@AEBA_NXZ
?hasStaticContents@QWindowSurface@@IEBA_NXZ
?hasStyleRule@QStyleSheetStyle@@AEBA_NPEBVQWidget@@H@Z
?hasThemeIcon@QIcon@@SA_NAEBVQString@@@Z
?hasTracking@QAbstractSlider@@QEBA_NXZ
?hasTranslateOnlySceneTransform@QGraphicsItemPrivate@@QEAA_NXZ
?hasVisibleChildren@QTreeViewPrivate@@QEBA_NAEBVQModelIndex@@@Z
?hasVisitedPage@QWizard@@QEBA_NH@Z
?hasWidthForHeight@QGraphicsLayoutItemPrivate@@QEBA_NXZ
?hasWidthForHeight@QSizePolicy@@QEBA_NXZ
?hasWindingFill@QVectorPath@@QEBA_NXZ
?header@QTreeView@@QEBAPEAVQHeaderView@@XZ
?headerData@QAbstractProxyModel@@UEBA?AVQVariant@@HW4Orientation@Qt@@H@Z
?headerData@QDirModel@@UEBA?AVQVariant@@HW4Orientation@Qt@@H@Z
?headerData@QFileSystemModel@@UEBA?AVQVariant@@HW4Orientation@Qt@@H@Z
?headerData@QProxyModel@@UEBA?AVQVariant@@HW4Orientation@Qt@@H@Z
?headerData@QSortFilterProxyModel@@UEBA?AVQVariant@@HW4Orientation@Qt@@H@Z
?headerData@QStandardItemModel@@UEBA?AVQVariant@@HW4Orientation@Qt@@H@Z
?headerDataChanged@QHeaderView@@QEAAXW4Orientation@Qt@@HH@Z
?headerItem@QTreeWidget@@QEBAPEAVQTreeWidgetItem@@XZ
?headerRowCount@QTextTableFormat@@QEBAHXZ
?headerTextFormat@QCalendarWidget@@QEBA?AVQTextCharFormat@@XZ
?height@QFontMetrics@@QEBAHXZ
?height@QFontMetricsF@@QEBANXZ
?height@QGraphicsItemPrivate@@UEBANXZ
?height@QGraphicsScene@@QEBANXZ
?height@QImage@@QEBAHXZ
?height@QItemSelectionRange@@QEBAHXZ
?height@QLineControl@@QEBAHXZ
?height@QPaintDevice@@QEBAHXZ
?height@QPixmap@@QEBAHXZ
?height@QPixmapData@@QEBAHXZ
?height@QScriptItem@@QEBA?AUQFixed@@XZ
?height@QScriptLine@@QEBA?AUQFixed@@XZ
?height@QTextFrameFormat@@QEBA?AVQTextLength@@XZ
?height@QTextImageFormat@@QEBANXZ
?height@QTextInlineObject@@QEBANXZ
?height@QTextLine@@QEBANXZ
?height@QVolatileImage@@QEBAHXZ
?height@QWidget@@QEBAHXZ
?heightChanged@QGraphicsObject@@IEAAXXZ
?heightForWidth@QBoxLayout@@UEBAHH@Z
?heightForWidth@QCommandLinkButton@@MEBAHH@Z
?heightForWidth@QFormLayout@@UEBAHH@Z
?heightForWidth@QGridLayout@@UEBAHH@Z
?heightForWidth@QLabel@@UEBAHH@Z
?heightForWidth@QLayoutItem@@UEBAHH@Z
?heightForWidth@QMenuBar@@UEBAHH@Z
?heightForWidth@QTabWidget@@UEBAHH@Z
?heightForWidth@QWidget@@UEBAHH@Z
?heightForWidth@QWidgetItem@@UEBAHH@Z
?heightForWidth@QWidgetItemV2@@UEBAHH@Z
?heightMM@QPaintDevice@@QEBAHXZ
?helpEvent@QAbstractItemDelegate@@QEAA_NPEAVQHelpEvent@@PEAVQAbstractItemView@@AEBVQStyleOptionViewItem@@AEBVQModelIndex@@@Z
?helpEvent@QGraphicsScene@@MEAAXPEAVQGraphicsSceneHelpEvent@@@Z
?helpRequested@QDialogButtonBox@@IEAAXXZ
?helpRequested@QWizard@@IEAAXXZ
?hiResGlobalPos@QTabletEvent@@QEBAAEBVQPointF@@XZ
?hiResGlobalX@QTabletEvent@@QEBANXZ
?hiResGlobalY@QTabletEvent@@QEBANXZ
?hiddenSectionCount@QHeaderView@@QEBAHXZ
?hidden_focus_widget@QApplicationPrivate@@2PEAVQWidget@@EA
?hide@QGraphicsItem@@QEAAXXZ
?hide@QSystemTrayIcon@@QEAAXXZ
?hide@QWidget@@QEAAXXZ
?hideBalloon@QBalloonTip@@SAXXZ
?hideChildren@QWidgetPrivate@@QEAAX_N@Z
?hideColumn@QTableView@@QEAAXH@Z
?hideColumn@QTreeView@@QEAAXH@Z
?hideEvent@QAbstractSpinBox@@MEAAXPEAVQHideEvent@@@Z
?hideEvent@QComboBox@@MEAAXPEAVQHideEvent@@@Z
?hideEvent@QComboBoxPrivateContainer@@MEAAXPEAVQHideEvent@@@Z
?hideEvent@QComboBoxPrivateScroller@@MEAAXPEAVQHideEvent@@@Z
?hideEvent@QGraphicsProxyWidget@@MEAAXPEAVQHideEvent@@@Z
?hideEvent@QGraphicsWidget@@MEAAXPEAVQHideEvent@@@Z
?hideEvent@QMdiSubWindow@@MEAAXPEAVQHideEvent@@@Z
?hideEvent@QMenu@@MEAAXPEAVQHideEvent@@@Z
?hideEvent@QScrollBar@@MEAAXPEAVQHideEvent@@@Z
?hideEvent@QSizeGrip@@MEAAXPEAVQHideEvent@@@Z
?hideEvent@QTabBar@@MEAAXPEAVQHideEvent@@@Z
?hideEvent@QWidget@@MEAAXPEAVQHideEvent@@@Z
?hideEvent@QWorkspace@@MEAAXPEAVQHideEvent@@@Z
?hideOrShow@QStatusBar@@IEAAXXZ
?hidePopup@QComboBox@@UEAAXXZ
?hideRow@QTableView@@QEAAXH@Z
?hideSection@QHeaderView@@QEAAXH@Z
?hideTearOffMenu@QMenu@@QEAAXXZ
?hideText@QToolTip@@SAXXZ
?hideText@QWhatsThis@@SAXXZ
?hide_helper@QWidgetPrivate@@QEAAXXZ
?hide_sys@QWidgetPrivate@@QEAAXXZ
?highlight@QPalette@@QEBAAEBVQBrush@@XZ
?highlightSections@QHeaderView@@QEBA_NXZ
?highlighted@QComboBox@@IEAAXAEBVQString@@@Z
?highlighted@QComboBox@@IEAAXH@Z
?highlighted@QCompleter@@IEAAXAEBVQModelIndex@@@Z
?highlighted@QCompleter@@IEAAXAEBVQString@@@Z
?highlighted@QTextBrowser@@IEAAXAEBVQString@@@Z
?highlighted@QTextBrowser@@IEAAXAEBVQUrl@@@Z
?highlightedText@QPalette@@QEBAAEBVQBrush@@XZ
?hintingPreference@QFont@@QEBA?AW4HintingPreference@1@XZ
?hintingPreference@QRawFont@@QEBA?AW4HintingPreference@QFont@@XZ
?hints@QVectorPath@@QEBAIXZ
?history@QFileDialog@@QEBA?AVQStringList@@XZ
?historyChanged@QTextBrowser@@IEAAXXZ
?historyTitle@QTextBrowser@@QEBA?AVQString@@H@Z
?historyUrl@QTextBrowser@@QEBA?AVQUrl@@H@Z
?hitButton@QAbstractButton@@MEBA_NAEBVQPoint@@@Z
?hitButton@QCheckBox@@MEBA_NAEBVQPoint@@@Z
?hitButton@QRadioButton@@MEBA_NAEBVQPoint@@@Z
?hitButton@QToolButton@@MEBA_NAEBVQPoint@@@Z
?hitTest@QPlainTextDocumentLayout@@UEBAHAEBVQPointF@@W4HitTestAccuracy@Qt@@@Z
?hitTest@QTextControl@@UEBAHAEBVQPointF@@W4HitTestAccuracy@Qt@@@Z
?hitTest@QTextDocumentLayout@@UEBAHAEBVQPointF@@W4HitTestAccuracy@Qt@@@Z
?hitTestComplexControl@QCleanlooksStyle@@UEBA?AW4SubControl@QStyle@@W4ComplexControl@3@PEBVQStyleOptionComplex@@AEBVQPoint@@PEBVQWidget@@@Z
?hitTestComplexControl@QCommonStyle@@UEBA?AW4SubControl@QStyle@@W4ComplexControl@3@PEBVQStyleOptionComplex@@AEBVQPoint@@PEBVQWidget@@@Z
?hitTestComplexControl@QPlastiqueStyle@@UEBA?AW4SubControl@QStyle@@W4ComplexControl@3@PEBVQStyleOptionComplex@@AEBVQPoint@@PEBVQWidget@@@Z
?hitTestComplexControl@QProxyStyle@@UEBA?AW4SubControl@QStyle@@W4ComplexControl@3@PEBVQStyleOptionComplex@@AEBVQPoint@@PEBVQWidget@@@Z
?hitTestComplexControl@QStyleSheetStyle@@UEBA?AW4SubControl@QStyle@@W4ComplexControl@3@PEBVQStyleOptionComplex@@AEBVQPoint@@PEBVQWidget@@@Z
?hitTestComplexControl@QWindowsVistaStyle@@UEBA?AW4SubControl@QStyle@@W4ComplexControl@3@PEBVQStyleOptionComplex@@AEBVQPoint@@PEBVQWidget@@@Z
?hitTestPath@QBasicMouseEventTransition@@QEBA?AVQPainterPath@@XZ
?hitTestPath@QMouseEventTransition@@QEBA?AVQPainterPath@@XZ
?home@QLineControl@@QEAAX_N@Z
?home@QLineEdit@@QEAAX_N@Z
?home@QTextBrowser@@UEAAXXZ
?horizontalAdvance@QTextLine@@QEBANXZ
?horizontalDirection@QSwipeGesture@@QEBA?AW4SwipeDirection@1@XZ
?horizontalHeader@QTableView@@QEBAPEAVQHeaderView@@XZ
?horizontalHeaderFormat@QCalendarWidget@@QEBA?AW4HorizontalHeaderFormat@1@XZ
?horizontalHeaderItem@QStandardItemModel@@QEBAPEAVQStandardItem@@H@Z
?horizontalHeaderItem@QTableWidget@@QEBAPEAVQTableWidgetItem@@H@Z
?horizontalOffset@QColumnView@@MEBAHXZ
?horizontalOffset@QHeaderView@@MEBAHXZ
?horizontalOffset@QListView@@MEBAHXZ
?horizontalOffset@QTableView@@MEBAHXZ
?horizontalOffset@QTreeView@@MEBAHXZ
?horizontalPolicy@QSizePolicy@@QEBA?AW4Policy@1@XZ
?horizontalScaleAt@QGraphicsItemAnimation@@QEBANN@Z
?horizontalScroll@QGraphicsViewPrivate@@QEBA_JXZ
?horizontalScrollBar@QAbstractScrollArea@@QEBAPEAVQScrollBar@@XZ
?horizontalScrollBarPolicy@QAbstractScrollArea@@QEBA?AW4ScrollBarPolicy@Qt@@XZ
?horizontalScrollMode@QAbstractItemView@@QEBA?AW4ScrollMode@1@XZ
?horizontalScrollbarAction@QAbstractItemView@@MEAAXH@Z
?horizontalScrollbarAction@QTableView@@MEAAXH@Z
?horizontalScrollbarAction@QTreeView@@MEAAXH@Z
?horizontalScrollbarValueChanged@QAbstractItemView@@MEAAXH@Z
?horizontalShearAt@QGraphicsItemAnimation@@QEBANN@Z
?horizontalSpacing@QFormLayout@@QEBAHXZ
?horizontalSpacing@QGraphicsAnchorLayout@@QEBANXZ
?horizontalSpacing@QGraphicsGridLayout@@QEBANXZ
?horizontalSpacing@QGridLayout@@QEBAHXZ
?horizontalStepsPerItem@QAbstractItemView@@IEBAHXZ
?horizontalStretch@QSizePolicy@@QEBAHXZ
?hotSpot@QCursor@@QEBA?AVQPoint@@XZ
?hotSpot@QDrag@@QEBA?AVQPoint@@XZ
?hotSpot@QGesture@@QEBA?AVQPointF@@XZ
?hover@QAction@@QEAAXXZ
?hover@QMainWindowLayout@@QEAA?AV?$QList@H@@PEAVQLayoutItem@@AEBVQPoint@@@Z
?hoverEnterEvent@QGraphicsItem@@MEAAXPEAVQGraphicsSceneHoverEvent@@@Z
?hoverEnterEvent@QGraphicsProxyWidget@@MEAAXPEAVQGraphicsSceneHoverEvent@@@Z
?hoverEnterEvent@QGraphicsTextItem@@MEAAXPEAVQGraphicsSceneHoverEvent@@@Z
?hoverLeaveEvent@QGraphicsItem@@MEAAXPEAVQGraphicsSceneHoverEvent@@@Z
?hoverLeaveEvent@QGraphicsProxyWidget@@MEAAXPEAVQGraphicsSceneHoverEvent@@@Z
?hoverLeaveEvent@QGraphicsTextItem@@MEAAXPEAVQGraphicsSceneHoverEvent@@@Z
?hoverLeaveEvent@QGraphicsWidget@@MEAAXPEAVQGraphicsSceneHoverEvent@@@Z
?hoverMoveEvent@QGraphicsItem@@MEAAXPEAVQGraphicsSceneHoverEvent@@@Z
?hoverMoveEvent@QGraphicsProxyWidget@@MEAAXPEAVQGraphicsSceneHoverEvent@@@Z
?hoverMoveEvent@QGraphicsTextItem@@MEAAXPEAVQGraphicsSceneHoverEvent@@@Z
?hoverMoveEvent@QGraphicsWidget@@MEAAXPEAVQGraphicsSceneHoverEvent@@@Z
?hovered@QAction@@IEAAXXZ
?hovered@QActionGroup@@IEAAXPEAVQAction@@@Z
?hovered@QMenu@@IEAAXPEAVQAction@@@Z
?hovered@QMenuBar@@IEAAXPEAVQAction@@@Z
?href@QWhatsThisClickedEvent@@QEBA?AVQString@@XZ
?hslHue@QColor@@QEBAHXZ
?hslHueF@QColor@@QEBANXZ
?hslSaturation@QColor@@QEBAHXZ
?hslSaturationF@QColor@@QEBANXZ
?hsvHue@QColor@@QEBAHXZ
?hsvHueF@QColor@@QEBANXZ
?hsvSaturation@QColor@@QEBAHXZ
?hsvSaturationF@QColor@@QEBANXZ
?hue@QColor@@QEBAHXZ
?hueF@QColor@@QEBANXZ
?icon@QAbstractButton@@QEBA?AVQIcon@@XZ
?icon@QAction@@QEBA?AVQIcon@@XZ
?icon@QFileIconProvider@@UEBA?AVQIcon@@AEBVQFileInfo@@@Z
?icon@QFileIconProvider@@UEBA?AVQIcon@@W4IconType@1@@Z
?icon@QFileSystemModelPrivate@@QEBA?AVQIcon@@AEBVQModelIndex@@@Z
?icon@QListWidgetItem@@QEBA?AVQIcon@@XZ
?icon@QMenu@@QEBA?AVQIcon@@XZ
?icon@QMessageBox@@QEBA?AW4Icon@1@XZ
?icon@QStandardItem@@QEBA?AVQIcon@@XZ
?icon@QSystemTrayIcon@@QEBA?AVQIcon@@XZ
?icon@QTableWidgetItem@@QEBA?AVQIcon@@XZ
?icon@QTreeWidgetItem@@QEBA?AVQIcon@@H@Z
?iconName@QIconEngineV2@@QEAA?AVQString@@XZ
?iconPixmap@QMessageBox@@QEBA?AVQPixmap@@XZ
?iconProvider@QDirModel@@QEBAPEAVQFileIconProvider@@XZ
?iconProvider@QFileDialog@@QEBAPEAVQFileIconProvider@@XZ
?iconProvider@QFileInfoGatherer@@QEBAPEAVQFileIconProvider@@XZ
?iconProvider@QFileSystemModel@@QEBAPEAVQFileIconProvider@@XZ
?iconSize@QAbstractButton@@QEBA?AVQSize@@XZ
?iconSize@QAbstractItemView@@QEBA?AVQSize@@XZ
?iconSize@QComboBox@@QEBA?AVQSize@@XZ
?iconSize@QMainWindow@@QEBA?AVQSize@@XZ
?iconSize@QTabBar@@QEBA?AVQSize@@XZ
?iconSize@QTabWidget@@QEBA?AVQSize@@XZ
?iconSize@QToolBar@@QEBA?AVQSize@@XZ
?iconSizeChanged@QMainWindow@@IEAAXAEBVQSize@@@Z
?iconSizeChanged@QToolBar@@IEAAXAEBVQSize@@@Z
?iconText@QAction@@QEBA?AVQString@@XZ
?iconThemeSearchPaths@QGuiPlatformPlugin@@UEAA?AVQStringList@@XZ
?iconValue@Declaration@QCss@@QEBA?AVQIcon@@XZ
?id@QButtonGroup@@QEBAHPEAVQAbstractButton@@@Z
?id@QShortcut@@QEBAHXZ
?id@QUndoCommand@@UEBAHXZ
?id@TouchPoint@QTouchEvent@@QEBAHXZ
?idealWidth@QTextDocument@@QEBANXZ
?idealWidth@QTextDocumentLayout@@QEBANXZ
?identifyFloatItems@QGraphicsAnchorLayoutPrivate@@QEAAXAEBV?$QSet@PEAUAnchorData@@@@W4Orientation@1@@Z
?identifyNonFloatItems_helper@QGraphicsAnchorLayoutPrivate@@QEAAXPEBUAnchorData@@PEAV?$QSet@PEAVQGraphicsLayoutItem@@@@@Z
?ignore@QDragMoveEvent@@QEAAXAEBVQRect@@@Z
?ignore@QDragMoveEvent@@QEAAXXZ
?ignore@QGestureEvent@@QEAAXPEAVQGesture@@@Z
?ignore@QGestureEvent@@QEAAXW4GestureType@Qt@@@Z
?ignoreUnusedNavigationEvents@QTextControl@@QEBA_NXZ
?image@QClipboard@@QEBA?AVQImage@@W4Mode@1@@Z
?image@QImageTextureGlyphCache@@QEBAAEBVQImage@@XZ
?imageCount@QImageIOHandler@@UEBAHXZ
?imageCount@QImageReader@@QEBAHXZ
?imageFormat@QImageReader@@QEBA?AW4Format@QImage@@XZ
?imageFormat@QImageReader@@SA?AVQByteArray@@AEBVQString@@@Z
?imageFormat@QImageReader@@SA?AVQByteArray@@PEAVQIODevice@@@Z
?imageFormat@QTextFormatCollection@@QEBA?AVQTextImageFormat@@H@Z
?imageInterface@QAccessibleInterface@@QEAAPEAVQAccessibleImageInterface@@XZ
?imageRef@QVolatileImage@@QEAAAEAVQImage@@XZ
?inFont@QFontMetrics@@QEBA_NVQChar@@@Z
?inFont@QFontMetricsF@@QEBA_NVQChar@@@Z
?inFontUcs4@QFontMetrics@@QEBA_NI@Z
?inFontUcs4@QFontMetricsF@@QEBA_NI@Z
?inPopupMode@QApplicationPrivate@@QEBA_NXZ
?inSelection@QLineControl@@QEBA_NH@Z
?inWhatsThisMode@QWhatsThis@@SA_NXZ
?indent@QLabel@@QEBAHXZ
?indent@QTextBlockFormat@@QEBAHXZ
?indent@QTextListFormat@@QEBAHXZ
?indentWidth@QTextDocument@@QEBANXZ
?indentation@QTreeView@@QEBAHXZ
?indentationForItem@QTreeViewPrivate@@QEBAHH@Z
?index@QDirModel@@QEBA?AVQModelIndex@@AEBVQString@@H@Z
?index@QDirModel@@UEBA?AVQModelIndex@@HHAEBV2@@Z
?index@QFileSystemModel@@QEBA?AVQModelIndex@@AEBVQString@@H@Z
?index@QFileSystemModel@@UEBA?AVQModelIndex@@HHAEBV2@@Z
?index@QFileSystemModelPrivate@@QEAA?AVQModelIndex@@AEBVQString@@@Z
?index@QFileSystemModelPrivate@@QEBA?AVQModelIndex@@PEBVQFileSystemNode@1@@Z
?index@QIdentityProxyModel@@UEBA?AVQModelIndex@@HHAEBV2@@Z
?index@QListModel@@QEBA?AVQModelIndex@@PEAVQListWidgetItem@@@Z
?index@QListModel@@UEBA?AVQModelIndex@@HHAEBV2@@Z
?index@QProxyModel@@UEBA?AVQModelIndex@@HHAEBV2@@Z
?index@QSortFilterProxyModel@@UEBA?AVQModelIndex@@HHAEBV2@@Z
?index@QStandardItem@@QEBA?AVQModelIndex@@XZ
?index@QStandardItemModel@@UEBA?AVQModelIndex@@HHAEBV2@@Z
?index@QUndoStack@@QEBAHXZ
?indexAbove@QTreeView@@QEBA?AVQModelIndex@@AEBV2@@Z
?indexAdditionalFormats@QTextEngine@@QEAAXXZ
?indexAt@QColumnView@@UEBA?AVQModelIndex@@AEBVQPoint@@@Z
?indexAt@QHeaderView@@MEBA?AVQModelIndex@@AEBVQPoint@@@Z
?indexAt@QListView@@UEBA?AVQModelIndex@@AEBVQPoint@@@Z
?indexAt@QTableView@@UEBA?AVQModelIndex@@AEBVQPoint@@@Z
?indexAt@QTreeView@@UEBA?AVQModelIndex@@AEBVQPoint@@@Z
?indexBelow@QTreeView@@QEBA?AVQModelIndex@@AEBV2@@Z
?indexChanged@QUndoGroup@@IEAAXH@Z
?indexChanged@QUndoStack@@IEAAXH@Z
?indexForEditor@QAbstractItemViewPrivate@@QEBA?AVQModelIndex@@PEAVQWidget@@@Z
?indexForFormat@QTextFormatCollection@@QEAAHAEBVQTextFormat@@@Z
?indexFromItem@QListWidget@@IEBA?AVQModelIndex@@PEAVQListWidgetItem@@@Z
?indexFromItem@QStandardItemModel@@QEBA?AVQModelIndex@@PEBVQStandardItem@@@Z
?indexFromItem@QTableWidget@@IEBA?AVQModelIndex@@PEAVQTableWidgetItem@@@Z
?indexFromItem@QTreeWidget@@IEBA?AVQModelIndex@@PEAVQTreeWidgetItem@@H@Z
?indexOf@?$QList@VQItemSelectionRange@@@@QEBAHAEBVQItemSelectionRange@@H@Z
?indexOf@QDockAreaLayout@@QEBA?AV?$QList@H@@PEAVQWidget@@@Z
?indexOf@QDockAreaLayoutInfo@@QEBA?AV?$QList@H@@PEAVQWidget@@@Z
?indexOf@QLayout@@UEBAHPEAVQWidget@@@Z
?indexOf@QSplitter@@QEBAHPEAVQWidget@@@Z
?indexOf@QStackedWidget@@QEBAHPEAVQWidget@@@Z
?indexOf@QTabWidget@@QEBAHPEAVQWidget@@@Z
?indexOf@QToolBox@@QEBAHPEAVQWidget@@@Z
?indexOfChild@QAccessibleApplication@@UEBAHPEBVQAccessibleInterface@@@Z
?indexOfChild@QAccessibleWidget@@UEBAHPEBVQAccessibleInterface@@@Z
?indexOfChild@QAccessibleWidgetEx@@UEBAHPEBVQAccessibleInterface@@@Z
?indexOfChild@QTreeWidgetItem@@QEBAHPEAV1@@Z
?indexOfPlaceHolder@QDockAreaLayout@@QEBA?AV?$QList@H@@AEBVQString@@@Z
?indexOfPlaceHolder@QDockAreaLayoutInfo@@QEBA?AV?$QList@H@@AEBVQString@@@Z
?indexOfTopLevelItem@QTreeWidget@@QEAAHPEAVQTreeWidgetItem@@@Z
?indexOfTopLevelItem@QTreeWidget@@QEBAHPEAVQTreeWidgetItem@@@Z
?indexRowSizeHint@QTreeView@@IEBAHAEBVQModelIndex@@@Z
?indexWidget@QAbstractItemView@@QEBAPEAVQWidget@@AEBVQModelIndex@@@Z
?indexes@QItemSelection@@QEBA?AV?$QList@VQModelIndex@@@@XZ
?indexes@QItemSelectionRange@@QEBA?AV?$QList@VQModelIndex@@@@XZ
?indexesMoved@QListView@@IEAAXAEBV?$QList@VQModelIndex@@@@@Z
?info@QDockAreaLayout@@QEAAPEAVQDockAreaLayoutInfo@@AEBV?$QList@H@@@Z
?info@QDockAreaLayout@@QEAAPEAVQDockAreaLayoutInfo@@PEAVQWidget@@@Z
?info@QDockAreaLayout@@QEBAPEBVQDockAreaLayoutInfo@@AEBV?$QList@H@@@Z
?info@QDockAreaLayoutInfo@@QEAAPEAV1@AEBV?$QList@H@@@Z
?info@QDockAreaLayoutInfo@@QEAAPEAV1@PEAVQWidget@@@Z
?information@QMessageBox@@SA?AW4StandardButton@1@PEAVQWidget@@AEBVQString@@1V?$QFlags@W4StandardButton@QMessageBox@@@@W421@@Z
?information@QMessageBox@@SA?AW4StandardButton@1@PEAVQWidget@@AEBVQString@@1W421@2@Z
?information@QMessageBox@@SAHPEAVQWidget@@AEBVQString@@1111HH@Z
?information@QMessageBox@@SAHPEAVQWidget@@AEBVQString@@1HHH@Z
?informativeText@QMessageBox@@QEBA?AVQString@@XZ
?inheritStyle@QWidgetPrivate@@QEAAXXZ
?init@Parser@QCss@@QEAAXAEBVQString@@_N@Z
?init@QAbstractItemViewPrivate@@QEAAXXZ
?init@QAbstractScrollAreaPrivate@@QEAAXXZ
?init@QBrush@@AEAAXAEBVQColor@@W4BrushStyle@Qt@@@Z
?init@QComboBoxPrivate@@QEAAXXZ
?init@QFileDialogPrivate@@QEAAXAEBVQString@@00@Z
?init@QFileSystemModelPrivate@@QEAAXXZ
?init@QGraphicsLayoutItemPrivate@@QEAAXXZ
?init@QGraphicsScenePrivate@@QEAAXXZ
?init@QLineControl@@AEAAXAEBVQString@@@Z
?init@QPainterState@@QEAAXPEAVQPainter@@@Z
?init@QPalette@@AEAAXXZ
?init@QPictureIO@@AEAAXXZ
?init@QPixmap@@AEAAXHHH@Z
?init@QPixmap@@AEAAXHHW4Type@1@@Z
?init@QPrinter@@AEAAXW4PrinterMode@1@@Z
?init@QSidebar@@QEAAXPEAVQFileSystemModel@@AEBV?$QList@VQUrl@@@@@Z
?init@QStaticTextPrivate@@QEAAXXZ
?init@QStyleOption@@QEAAXPEBVQWidget@@@Z
?init@QTextDocumentPrivate@@QEAAXXZ
?init@QWidgetPrivate@@QEAAXPEAVQWidget@@V?$QFlags@W4WindowType@Qt@@@@@Z
?initFrom@QPainter@@QEAAXPEBVQWidget@@@Z
?initFrom@QStyleOption@@QEAAXPEBVQWidget@@@Z
?initStyleOption@QAbstractSpinBox@@IEBAXPEAVQStyleOptionSpinBox@@@Z
?initStyleOption@QCheckBox@@IEBAXPEAVQStyleOptionButton@@@Z
?initStyleOption@QComboBox@@IEBAXPEAVQStyleOptionComboBox@@@Z
?initStyleOption@QDateTimeEdit@@IEBAXPEAVQStyleOptionSpinBox@@@Z
?initStyleOption@QDial@@IEBAXPEAVQStyleOptionSlider@@@Z
?initStyleOption@QDockWidget@@IEBAXPEAVQStyleOptionDockWidget@@@Z
?initStyleOption@QFocusFrame@@IEBAXPEAVQStyleOption@@@Z
?initStyleOption@QGraphicsItemPrivate@@QEBAXPEAVQStyleOptionGraphicsItem@@AEBVQTransform@@AEBVQRegion@@_N@Z
?initStyleOption@QGraphicsWidget@@MEBAXPEAVQStyleOption@@@Z
?initStyleOption@QGroupBox@@IEBAXPEAVQStyleOptionGroupBox@@@Z
?initStyleOption@QHeaderView@@IEBAXPEAVQStyleOptionHeader@@@Z
?initStyleOption@QLineEdit@@IEBAXPEAVQStyleOptionFrame@@@Z
?initStyleOption@QMenu@@IEBAXPEAVQStyleOptionMenuItem@@PEBVQAction@@@Z
?initStyleOption@QMenuBar@@MEBAXPEAVQStyleOptionMenuItem@@PEBVQAction@@@Z
?initStyleOption@QProgressBar@@IEBAXPEAVQStyleOptionProgressBar@@@Z
?initStyleOption@QPushButton@@IEBAXPEAVQStyleOptionButton@@@Z
?initStyleOption@QRadioButton@@IEBAXPEAVQStyleOptionButton@@@Z
?initStyleOption@QRubberBand@@IEBAXPEAVQStyleOptionRubberBand@@@Z
?initStyleOption@QScrollBar@@IEBAXPEAVQStyleOptionSlider@@@Z
?initStyleOption@QSlider@@IEBAXPEAVQStyleOptionSlider@@@Z
?initStyleOption@QStyledItemDelegate@@MEBAXPEAVQStyleOptionViewItem@@AEBVQModelIndex@@@Z
?initStyleOption@QTabBar@@IEBAXPEAVQStyleOptionTab@@H@Z
?initStyleOption@QTabWidget@@IEBAXPEAVQStyleOptionTabWidgetFrame@@@Z
?initStyleOption@QToolBar@@IEBAXPEAVQStyleOptionToolBar@@@Z
?initStyleOption@QToolButton@@IEBAXPEAVQStyleOptionToolButton@@@Z
?initWidget@QStyleSheetStyle@@AEBA_NPEBVQWidget@@@Z
?initialSelection@QFileDialogPrivate@@SA?AVQString@@AEBV2@@Z
?initialize@QAccessible@@SAXXZ
?initialize@QApplicationPrivate@@QEAAXXZ
?initialize@QColormap@@SAXXZ
?initialize@QColumnViewPrivate@@QEAAXXZ
?initialize@QFont@@SAXXZ
?initialize@QHeaderView@@IEAAXXZ
?initialize@QTreeViewPrivate@@QEAAXXZ
?initializeColumn@QColumnView@@IEBAXPEAVQAbstractItemView@@@Z
?initializeMultitouch@QApplicationPrivate@@QEAAXXZ
?initializeMultitouch_sys@QApplicationPrivate@@QEAAXXZ
?initializePage@QWizard@@MEAAXH@Z
?initializePage@QWizardPage@@UEAAXXZ
?initializeSections@QHeaderView@@IEAAXHH@Z
?initializeSections@QHeaderView@@IEAAXXZ
?initializeWidgetPaletteHash@QApplicationPrivate@@SAXXZ
?inline_type@QTransform@@AEBA?AW4TransformationType@1@XZ
?inputContext@QApplication@@QEBAPEAVQInputContext@@XZ
?inputContext@QApplicationPrivate@@2PEAVQInputContext@@EA
?inputContext@QWidget@@QEAAPEAVQInputContext@@XZ
?inputContext@QWidgetPrivate@@QEBAPEAVQInputContext@@XZ
?inputFormatList@QPicture@@SA?AVQStringList@@XZ
?inputFormats@QPicture@@SA?AV?$QList@VQByteArray@@@@XZ
?inputFormats@QPictureIO@@SA?AV?$QList@VQByteArray@@@@XZ
?inputMask@QLineControl@@QEBA?AVQString@@XZ
?inputMask@QLineEdit@@QEBA?AVQString@@XZ
?inputMethodEvent@QAbstractItemView@@MEAAXPEAVQInputMethodEvent@@@Z
?inputMethodEvent@QComboBox@@MEAAXPEAVQInputMethodEvent@@@Z
?inputMethodEvent@QGraphicsItem@@MEAAXPEAVQInputMethodEvent@@@Z
?inputMethodEvent@QGraphicsScene@@MEAAXPEAVQInputMethodEvent@@@Z
?inputMethodEvent@QGraphicsTextItem@@MEAAXPEAVQInputMethodEvent@@@Z
?inputMethodEvent@QGraphicsView@@MEAAXPEAVQInputMethodEvent@@@Z
?inputMethodEvent@QLineEdit@@MEAAXPEAVQInputMethodEvent@@@Z
?inputMethodEvent@QPlainTextEdit@@MEAAXPEAVQInputMethodEvent@@@Z
?inputMethodEvent@QTextEdit@@MEAAXPEAVQInputMethodEvent@@@Z
?inputMethodEvent@QWidget@@MEAAXPEAVQInputMethodEvent@@@Z
?inputMethodHints@QGraphicsItem@@QEBA?AV?$QFlags@W4InputMethodHint@Qt@@@@XZ
?inputMethodHints@QWidget@@QEBA?AV?$QFlags@W4InputMethodHint@Qt@@@@XZ
?inputMethodQuery@QAbstractItemView@@UEBA?AVQVariant@@W4InputMethodQuery@Qt@@@Z
?inputMethodQuery@QAbstractSpinBox@@UEBA?AVQVariant@@W4InputMethodQuery@Qt@@@Z
?inputMethodQuery@QComboBox@@MEBA?AVQVariant@@W4InputMethodQuery@Qt@@@Z
?inputMethodQuery@QGraphicsItem@@MEBA?AVQVariant@@W4InputMethodQuery@Qt@@@Z
?inputMethodQuery@QGraphicsScene@@UEBA?AVQVariant@@W4InputMethodQuery@Qt@@@Z
?inputMethodQuery@QGraphicsTextItem@@MEBA?AVQVariant@@W4InputMethodQuery@Qt@@@Z
?inputMethodQuery@QGraphicsView@@UEBA?AVQVariant@@W4InputMethodQuery@Qt@@@Z
?inputMethodQuery@QLineEdit@@UEBA?AVQVariant@@W4InputMethodQuery@Qt@@@Z
?inputMethodQuery@QPlainTextEdit@@MEBA?AVQVariant@@W4InputMethodQuery@Qt@@@Z
?inputMethodQuery@QTextControl@@UEBA?AVQVariant@@W4InputMethodQuery@Qt@@@Z
?inputMethodQuery@QTextEdit@@MEBA?AVQVariant@@W4InputMethodQuery@Qt@@@Z
?inputMethodQuery@QWidget@@UEBA?AVQVariant@@W4InputMethodQuery@Qt@@@Z
?inputMethodQueryHelper@QGraphicsItemPrivate@@UEBA?AVQVariant@@W4InputMethodQuery@Qt@@@Z
?inputMode@QInputDialog@@QEBA?AW4InputMode@1@XZ
?insert@?$QList@VQItemSelectionRange@@@@QEAA?AViterator@1@V21@AEBVQItemSelectionRange@@@Z
?insert@?$QList@VQItemSelectionRange@@@@QEAAXHAEBVQItemSelectionRange@@@Z
?insert@QLineControl@@QEAAXAEBVQString@@@Z
?insert@QLineEdit@@QEAAXAEBVQString@@@Z
?insert@QListModel@@QEAAXHAEBVQStringList@@@Z
?insert@QListModel@@QEAAXHPEAVQListWidgetItem@@@Z
?insert@QPaintBufferResource@@QEAAXPEBVQPaintBufferPrivate@@PEAX@Z
?insert@QPixmapCache@@SA?AVKey@1@AEBVQPixmap@@@Z
?insert@QPixmapCache@@SA_NAEBVQString@@AEBVQPixmap@@@Z
?insert@QTextDocumentPrivate@@QEAAXHAEBVQString@@H@Z
?insert@QTextDocumentPrivate@@QEAAXHHHH@Z
?insert@QWingedEdge@@AEAAHAEBUQPathVertex@@@Z
?insertAction@QGraphicsWidget@@QEAAXPEAVQAction@@0@Z
?insertAction@QWidget@@QEAAXPEAVQAction@@0@Z
?insertActions@QGraphicsWidget@@QEAAXPEAVQAction@@V?$QList@PEAVQAction@@@@@Z
?insertActions@QWidget@@QEAAXPEAVQAction@@V?$QList@PEAVQAction@@@@@Z
?insertBlock@QTextCursor@@QEAAXAEBVQTextBlockFormat@@@Z
?insertBlock@QTextCursor@@QEAAXAEBVQTextBlockFormat@@AEBVQTextCharFormat@@@Z
?insertBlock@QTextCursor@@QEAAXXZ
?insertBlock@QTextDocumentPrivate@@QEAAHAEBVQChar@@HHHW4Operation@QTextUndoCommand@@@Z
?insertBlock@QTextDocumentPrivate@@QEAAHHHHW4Operation@QTextUndoCommand@@@Z
?insertChild@QTreeWidgetItem@@QEAAXHPEAV1@@Z
?insertChildren@QTreeWidgetItem@@QEAAXHAEBV?$QList@PEAVQTreeWidgetItem@@@@@Z
?insertColumn@QStandardItem@@QEAAXHAEBV?$QList@PEAVQStandardItem@@@@@Z
?insertColumn@QStandardItemModel@@QEAAXHAEBV?$QList@PEAVQStandardItem@@@@@Z
?insertColumn@QStandardItemModel@@QEAA_NHAEBVQModelIndex@@@Z
?insertColumn@QTableWidget@@QEAAXH@Z
?insertColumns@QIdentityProxyModel@@UEAA_NHHAEBVQModelIndex@@@Z
?insertColumns@QProxyModel@@UEAA_NHHAEBVQModelIndex@@@Z
?insertColumns@QSortFilterProxyModel@@UEAA_NHHAEBVQModelIndex@@@Z
?insertColumns@QStandardItem@@QEAAXHH@Z
?insertColumns@QStandardItemModel@@UEAA_NHHAEBVQModelIndex@@@Z
?insertColumns@QTextTable@@QEAAXHH@Z
?insertFragment@QTextCursor@@QEAAXAEBVQTextDocumentFragment@@@Z
?insertFrame@QTextCursor@@QEAAPEAVQTextFrame@@AEBVQTextFrameFormat@@@Z
?insertFrame@QTextDocumentPrivate@@QEAAPEAVQTextFrame@@HHAEBVQTextFrameFormat@@@Z
?insertFromMimeData@QPlainTextEdit@@MEAAXPEBVQMimeData@@@Z
?insertFromMimeData@QTextControl@@UEAAXPEBVQMimeData@@@Z
?insertFromMimeData@QTextEdit@@MEAAXPEBVQMimeData@@@Z
?insertGap@QDockAreaLayout@@QEAA_NAEBV?$QList@H@@PEAVQLayoutItem@@@Z
?insertGap@QDockAreaLayoutInfo@@QEAA_NAEBV?$QList@H@@PEAVQLayoutItem@@@Z
?insertHtml@QTextControl@@QEAAXAEBVQString@@@Z
?insertHtml@QTextCursor@@QEAAXAEBVQString@@@Z
?insertHtml@QTextEdit@@QEAAXAEBVQString@@@Z
?insertImage@QTextCursor@@QEAAXAEBVQImage@@AEBVQString@@@Z
?insertImage@QTextCursor@@QEAAXAEBVQString@@@Z
?insertImage@QTextCursor@@QEAAXAEBVQTextImageFormat@@@Z
?insertImage@QTextCursor@@QEAAXAEBVQTextImageFormat@@W4Position@QTextFrameFormat@@@Z
?insertItem@QBoxLayout@@IEAAXHPEAVQLayoutItem@@@Z
?insertItem@QComboBox@@QEAAXHAEBVQIcon@@AEBVQString@@AEBVQVariant@@@Z
?insertItem@QComboBox@@QEAAXHAEBVQString@@AEBVQVariant@@@Z
?insertItem@QGraphicsLinearLayout@@QEAAXHPEAVQGraphicsLayoutItem@@@Z
?insertItem@QListWidget@@QEAAXHAEBVQString@@@Z
?insertItem@QListWidget@@QEAAXHPEAVQListWidgetItem@@@Z
?insertItem@QToolBox@@QEAAHHPEAVQWidget@@AEBVQIcon@@AEBVQString@@@Z
?insertItem@QToolBox@@QEAAHHPEAVQWidget@@AEBVQString@@@Z
?insertItems@QComboBox@@QEAAXHAEBVQStringList@@@Z
?insertItems@QListWidget@@QEAAXHAEBVQStringList@@@Z
?insertLayout@QBoxLayout@@QEAAXHPEAVQLayout@@H@Z
?insertList@QTextCursor@@QEAAPEAVQTextList@@AEBVQTextListFormat@@@Z
?insertList@QTextCursor@@QEAAPEAVQTextList@@W4Style@QTextListFormat@@@Z
?insertMenu@QMenu@@QEAAPEAVQAction@@PEAV2@PEAV1@@Z
?insertMenu@QMenuBar@@QEAAPEAVQAction@@PEAV2@PEAVQMenu@@@Z
?insertPermanentWidget@QStatusBar@@QEAAHHPEAVQWidget@@H@Z
?insertPlainText@QPlainTextEdit@@QEAAXAEBVQString@@@Z
?insertPlainText@QTextControl@@QEAAXAEBVQString@@@Z
?insertPlainText@QTextEdit@@QEAAXAEBVQString@@@Z
?insertPolicy@QComboBox@@QEBA?AW4InsertPolicy@1@XZ
?insertRow@QFormLayout@@QEAAXHAEBVQString@@PEAVQLayout@@@Z
?insertRow@QFormLayout@@QEAAXHAEBVQString@@PEAVQWidget@@@Z
?insertRow@QFormLayout@@QEAAXHPEAVQLayout@@@Z
?insertRow@QFormLayout@@QEAAXHPEAVQWidget@@0@Z
?insertRow@QFormLayout@@QEAAXHPEAVQWidget@@@Z
?insertRow@QFormLayout@@QEAAXHPEAVQWidget@@PEAVQLayout@@@Z
?insertRow@QStandardItem@@QEAAXHAEBV?$QList@PEAVQStandardItem@@@@@Z
?insertRow@QStandardItem@@QEAAXHPEAV1@@Z
?insertRow@QStandardItemModel@@QEAAXHAEBV?$QList@PEAVQStandardItem@@@@@Z
?insertRow@QStandardItemModel@@QEAAXHPEAVQStandardItem@@@Z
?insertRow@QStandardItemModel@@QEAA_NHAEBVQModelIndex@@@Z
?insertRow@QTableWidget@@QEAAXH@Z
?insertRows@QIdentityProxyModel@@UEAA_NHHAEBVQModelIndex@@@Z
?insertRows@QListModel@@UEAA_NHHAEBVQModelIndex@@@Z
?insertRows@QProxyModel@@UEAA_NHHAEBVQModelIndex@@@Z
?insertRows@QSortFilterProxyModel@@UEAA_NHHAEBVQModelIndex@@@Z
?insertRows@QStandardItem@@QEAAXHAEBV?$QList@PEAVQStandardItem@@@@@Z
?insertRows@QStandardItem@@QEAAXHH@Z
?insertRows@QStandardItemModel@@UEAA_NHHAEBVQModelIndex@@@Z
?insertRows@QStringListModel@@UEAA_NHHAEBVQModelIndex@@@Z
?insertRows@QTextTable@@QEAAXHH@Z
?insertSeparator@QComboBox@@QEAAXH@Z
?insertSeparator@QMenu@@QEAAPEAVQAction@@PEAV2@@Z
?insertSeparator@QMenuBar@@QEAAPEAVQAction@@PEAV2@@Z
?insertSeparator@QToolBar@@QEAAPEAVQAction@@PEAV2@@Z
?insertSpacerItem@QBoxLayout@@QEAAXHPEAVQSpacerItem@@@Z
?insertSpacing@QBoxLayout@@QEAAXHH@Z
?insertStretch@QBoxLayout@@QEAAXHH@Z
?insertStretch@QGraphicsLinearLayout@@QEAAXHH@Z
?insertSubstitution@QFont@@SAXAEBVQString@@0@Z
?insertSubstitutions@QFont@@SAXAEBVQString@@AEBVQStringList@@@Z
?insertTab@QTabBar@@QEAAHHAEBVQIcon@@AEBVQString@@@Z
?insertTab@QTabBar@@QEAAHHAEBVQString@@@Z
?insertTab@QTabWidget@@QEAAHHPEAVQWidget@@AEBVQIcon@@AEBVQString@@@Z
?insertTab@QTabWidget@@QEAAHHPEAVQWidget@@AEBVQString@@@Z
?insertTable@QTextCursor@@QEAAPEAVQTextTable@@HH@Z
?insertTable@QTextCursor@@QEAAPEAVQTextTable@@HHAEBVQTextTableFormat@@@Z
?insertText@QAccessibleSimpleEditableTextInterface@@UEAAXHAEBVQString@@@Z
?insertText@QTextCursor@@QEAAXAEBVQString@@@Z
?insertText@QTextCursor@@QEAAXAEBVQString@@AEBVQTextCharFormat@@@Z
?insertToolBar@QMainWindow@@QEAAXPEAVQToolBar@@0@Z
?insertToolBar@QMainWindowLayout@@QEAAXPEAVQToolBar@@0@Z
?insertToolBarBreak@QMainWindow@@QEAAXPEAVQToolBar@@@Z
?insertToolBarBreak@QMainWindowLayout@@QEAAXPEAVQToolBar@@@Z
?insertTopLevelItem@QTreeWidget@@QEAAXHPEAVQTreeWidgetItem@@@Z
?insertTopLevelItems@QTreeWidget@@QEAAXHAEBV?$QList@PEAVQTreeWidgetItem@@@@@Z
?insertViewItems@QTreeViewPrivate@@QEAAXHHAEBUQTreeViewItem@@@Z
?insertWidget@QBoxLayout@@QEAAXHPEAVQWidget@@HV?$QFlags@W4AlignmentFlag@Qt@@@@@Z
?insertWidget@QSplitter@@QEAAXHPEAVQWidget@@@Z
?insertWidget@QStackedLayout@@QEAAHHPEAVQWidget@@@Z
?insertWidget@QStackedWidget@@QEAAHHPEAVQWidget@@@Z
?insertWidget@QStatusBar@@QEAAHHPEAVQWidget@@H@Z
?insertWidget@QToolBar@@QEAAPEAVQAction@@PEAV2@PEAVQWidget@@@Z
?insert_block@QTextDocumentPrivate@@AEAAHHIHHW4Operation@QTextUndoCommand@@H@Z
?insert_frame@QTextDocumentPrivate@@AEAAXPEAVQTextFrame@@@Z
?insert_string@QTextDocumentPrivate@@AEAAXHIIHW4Operation@QTextUndoCommand@@@Z
?insertionOrder@QGraphicsItemPrivate@@SA_NPEAVQGraphicsItem@@0@Z
?insertionPointsForLine@QTextEngine@@QEAAXHAEAV?$QVector@H@@@Z
?installFactory@QAccessible@@SAXP6APEAVQAccessibleInterface@@AEBVQString@@PEAVQObject@@@Z@Z
?installRootObjectHandler@QAccessible@@SAP6AXPEAVQObject@@@ZP6AX0@Z@Z
?installSceneEventFilter@QGraphicsItem@@QEAAXPEAV1@@Z
?installSceneEventFilter@QGraphicsScenePrivate@@QEAAXPEAVQGraphicsItem@@0@Z
?installUpdateHandler@QAccessible@@SAP6AXPEAVQObject@@HW4Event@1@@ZP6AX0H1@Z@Z
?instance@QApplicationPrivate@@SAPEAV1@XZ
?instance@QColormap@@SA?AV1@H@Z
?instance@QImagePixmapCleanupHooks@@SAPEAV1@XZ
?instance@QPaintBufferSignalProxy@@SAPEAV1@XZ
?instance@QSoftKeyManager@@CAPEAV1@XZ
?instanceCounter@QWidget@@SAHXZ
?instanceCounter@QWidgetPrivate@@2HA
?instanceOperationsCounter@QWidget@@SAHXZ
?instanceOperationsCounter@QWidgetPrivate@@2HA
?instantInvalidatePropagation@QGraphicsLayout@@SA_NXZ
?intMaximum@QInputDialog@@QEBAHXZ
?intMinimum@QInputDialog@@QEBAHXZ
?intProperty@QTextFormat@@QEBAHH@Z
?intStep@QInputDialog@@QEBAHXZ
?intValue@Declaration@QCss@@QEBA_NPEAHPEBD@Z
?intValue@QInputDialog@@QEBAHXZ
?intValue@QLCDNumber@@QEBAHXZ
?intValueChanged@QInputDialog@@IEAAXH@Z
?intValueSelected@QInputDialog@@IEAAXH@Z
?interface_cast@QAccessibleInterfaceEx@@UEAAPEAVQAccessible2Interface@@W4InterfaceType@QAccessible2@@@Z
?internalDelayedPopup@QMenu@@AEAAXXZ
?internalDelete@QLineControl@@AEAAX_N@Z
?internalDeselect@QLineControl@@AEAAXXZ
?internalDrag@QListView@@IEAAXV?$QFlags@W4DropAction@Qt@@@@@Z
?internalDrop@QListView@@IEAAXPEAVQDropEvent@@@Z
?internalInsert@QLineControl@@AEAAXAEBVQString@@@Z
?internalMimeData@QListModel@@QEBAPEAVQMimeData@@XZ
?internalRedo@QLineControl@@AEAAXXZ
?internalSetSloppyAction@QMenu@@AEAAXXZ
?internalSetText@QLineControl@@AEAAXAEBVQString@@H_N@Z
?internalUndo@QLineControl@@AEAAXH@Z
?internalVertex@QGraphicsAnchorLayoutPrivate@@QEBAPEAUAnchorVertex@@AEBU?$QPair@PEAVQGraphicsLayoutItem@@W4AnchorPoint@Qt@@@@@Z
?internalVertex@QGraphicsAnchorLayoutPrivate@@QEBAPEAUAnchorVertex@@PEBVQGraphicsLayoutItem@@W4AnchorPoint@Qt@@@Z
?internalWinId@QWidget@@QEBAPEAUHWND__@@XZ
?interpolateEdge@QGraphicsAnchorLayoutPrivate@@QEAAXPEAUAnchorVertex@@PEAUAnchorData@@@Z
?interpolationMode@QGradient@@QEBA?AW4InterpolationMode@1@XZ
?interpretText@QAbstractSpinBox@@QEAAXXZ
?interruptDelayedItemsLayout@QAbstractItemViewPrivate@@QEBAXXZ
?intersect@QItemSelectionRange@@QEBA?AV1@AEBV1@@Z
?intersect@QPathClipper@@QEAA_NXZ
?intersect@QPathClipper@@SA?AVQPainterPath@@AEBV2@AEBVQRectF@@@Z
?intersect@QRegion@@QEBA?AV1@AEBV1@@Z
?intersect@QRegion@@QEBA?AV1@AEBVQRect@@@Z
?intersectAndAdd@QWingedEdge@@AEAAXXZ
?intersected@QItemSelectionRange@@QEBA?AV1@AEBV1@@Z
?intersected@QPainterPath@@QEBA?AV1@AEBV1@@Z
?intersected@QPolygon@@QEBA?AV1@AEBV1@@Z
?intersected@QPolygonF@@QEBA?AV1@AEBV1@@Z
?intersected@QRegion@@QEBA?AV1@AEBV1@@Z
?intersected@QRegion@@QEBA?AV1@AEBVQRect@@@Z
?intersects@QItemSelectionRange@@QEBA_NAEBV1@@Z
?intersects@QPainterPath@@QEBA_NAEBV1@@Z
?intersects@QPainterPath@@QEBA_NAEBVQRectF@@@Z
?intersects@QRegion@@QEBA_NAEBV1@@Z
?intersects@QRegion@@QEBA_NAEBVQRect@@@Z
?invalidate@QBoxLayout@@UEAAXXZ
?invalidate@QColor@@AEAAXXZ
?invalidate@QFormLayout@@UEAAXXZ
?invalidate@QGraphicsAnchorLayout@@UEAAXXZ
?invalidate@QGraphicsGridLayout@@UEAAXXZ
?invalidate@QGraphicsLayout@@UEAAXXZ
?invalidate@QGraphicsLinearLayout@@UEAAXXZ
?invalidate@QGraphicsScene@@QEAAXAEBVQRectF@@V?$QFlags@W4SceneLayer@QGraphicsScene@@@@@Z
?invalidate@QGraphicsScene@@QEAAXNNNNV?$QFlags@W4SceneLayer@QGraphicsScene@@@@@Z
?invalidate@QGridLayout@@UEAAXXZ
?invalidate@QLayout@@UEAAXXZ
?invalidate@QLayoutItem@@UEAAXXZ
?invalidate@QMainWindowLayout@@UEAAXXZ
?invalidate@QSortFilterProxyModel@@QEAAXXZ
?invalidate@QStaticTextPrivate@@QEAAXXZ
?invalidate@QTextEngine@@QEAAXXZ
?invalidateBuffer@QWidgetPrivate@@QEAAXAEBVQRect@@@Z
?invalidateBuffer@QWidgetPrivate@@QEAAXAEBVQRegion@@@Z
?invalidateBuffer_resizeHelper@QWidgetPrivate@@QEAAXAEBVQPoint@@AEBVQSize@@@Z
?invalidateChildGraphicsEffectsRecursively@QGraphicsItemPrivate@@QEAAXW4InvalidateReason@1@@Z
?invalidateChildrenSceneTransform@QGraphicsItemPrivate@@QEAAXXZ
?invalidateDepthRecursively@QGraphicsItemPrivate@@QEAAXXZ
?invalidateFilter@QSortFilterProxyModel@@IEAAXXZ
?invalidateGraphicsEffectsRecursively@QWidgetPrivate@@QEAAXXZ
?invalidateHeightCache@QTreeViewPrivate@@QEBAXH@Z
?invalidateParentGraphicsEffectsRecursively@QGraphicsItemPrivate@@QEAAXXZ
?invalidateScene@QGraphicsView@@QEAAXAEBVQRectF@@V?$QFlags@W4SceneLayer@QGraphicsScene@@@@@Z
?invalidateSizeCache@QWidgetItemV2@@AEAAXXZ
?invertPixels@QImage@@QEAAXW4InvertMode@1@@Z
?inverted@QMatrix4x4@@QEBA?AV1@PEA_N@Z
?inverted@QMatrix@@QEBA?AV1@PEA_N@Z
?inverted@QTransform@@QEBA?AV1@PEA_N@Z
?invertedAppearance@QAbstractSlider@@QEBA_NXZ
?invertedAppearance@QProgressBar@@QEAA_NXZ
?invertedAppearance@QProgressBar@@QEBA_NXZ
?invertedControls@QAbstractSlider@@QEBA_NXZ
?invisibleRootItem@QStandardItemModel@@QEBAPEAVQStandardItem@@XZ
?invisibleRootItem@QTreeWidget@@QEBAPEAVQTreeWidgetItem@@XZ
?invokeMethod@QAccessibleInterface@@QEAA?AVQVariant@@W4Method@QAccessible@@HAEBV?$QList@VQVariant@@@@@Z
?invokeMethodEx@QAccessibleWidgetEx@@UEAA?AVQVariant@@W4Method@QAccessible@@HAEBV?$QList@VQVariant@@@@@Z
?ioDevice@QPictureIO@@QEBAPEAVQIODevice@@XZ
?isAboutToShow@QWidgetPrivate@@QEBA_NXZ
?isAccelerated@QAbstractSpinBox@@QEBA_NXZ
?isAccepted@QGestureEvent@@QEBA_NPEAVQGesture@@@Z
?isAccepted@QGestureEvent@@QEBA_NW4GestureType@Qt@@@Z
?isActivated@QGraphicsLayout@@QEBA_NXZ
?isActive@QAccessible@@SA_NXZ
?isActive@QGraphicsItem@@QEBA_NXZ
?isActive@QGraphicsScene@@QEBA_NXZ
?isActive@QPaintEngine@@QEBA_NXZ
?isActive@QPainter@@QEBA_NXZ
?isActive@QUndoStack@@QEBA_NXZ
?isActive@QWidgetResizeHandler@@QEBA_NW4Action@1@@Z
?isActive@QWidgetResizeHandler@@QEBA_NXZ
?isActiveWindow@QGraphicsWidget@@QEBA_NXZ
?isActiveWindow@QWidget@@QEBA_NXZ
?isAffine@QTransform@@QEBA_NXZ
?isAlien@QApplicationPrivate@@CA_NPEAVQWidget@@@Z
?isAmbiguous@QShortcutEvent@@QEAA_NXZ
?isAmbiguous@QShortcutEvent@@QEBA_NXZ
?isAncestorOf@QGraphicsItem@@QEBA_NPEBV1@@Z
?isAncestorOf@QWidget@@QEBA_NPEBV1@@Z
?isAnchor@QTextCharFormat@@QEBA_NXZ
?isAnimated@QMainWindow@@QEBA_NXZ
?isAnimated@QTreeView@@QEBA_NXZ
?isAnimating@QAbstractItemViewPrivate@@QEBA_NXZ
?isAreaAllowed@QDockWidget@@QEBA_NW4DockWidgetArea@Qt@@@Z
?isAreaAllowed@QToolBar@@QEBA_NW4ToolBarArea@Qt@@@Z
?isAutoRepeat@QKeyEvent@@QEBA_NXZ
?isAvailable@QSound@@SA_NXZ
?isBackwardAvailable@QTextBrowser@@QEBA_NXZ
?isBalloonVisible@QBalloonTip@@SA_NXZ
?isBitmapScalable@QFontDatabase@@QEBA_NAEBVQString@@0@Z
?isBlockFormat@QTextFormat@@QEBA_NXZ
?isBlockedByModal@QApplicationPrivate@@SA_NPEAVQWidget@@@Z
?isBlockedByModalPanel@QGraphicsItem@@QEBA_NPEAPEAV1@@Z
?isBrushSet@QPalette@@QEBA_NW4ColorGroup@1@W4ColorRole@1@@Z
?isButtonDown@QWidgetResizeHandler@@QEBA_NXZ
?isCacheable@QVectorPath@@QEBA_NXZ
?isCharFormat@QTextFormat@@QEBA_NXZ
?isCheckable@QAbstractButton@@QEBA_NXZ
?isCheckable@QAction@@QEBA_NXZ
?isCheckable@QGroupBox@@QEBA_NXZ
?isCheckable@QStandardItem@@QEBA_NXZ
?isChecked@QAbstractButton@@QEBA_NXZ
?isChecked@QAction@@QEBA_NXZ
?isChecked@QGroupBox@@QEBA_NXZ
?isClean@QUndoGroup@@QEBA_NXZ
?isClean@QUndoStack@@QEBA_NXZ
?isClickable@QHeaderView@@QEBA_NXZ
?isClipEnabled@QPaintEngineState@@QEBA_NXZ
?isClipped@QGraphicsItem@@QEBA_NXZ
?isClosed@QPolygonF@@QEBA_NXZ
?isCollapsible@QSplitter@@QEBA_NH@Z
?isColumnHidden@QTableView@@QEBA_NH@Z
?isColumnHidden@QTreeView@@QEBA_NH@Z
?isColumnSelected@QItemSelectionModel@@QEBA_NHAEBVQModelIndex@@@Z
?isComboBoxEditable@QInputDialog@@QEBA_NXZ
?isCommitPage@QWizardPage@@QEBA_NXZ
?isComplete@QWizardPage@@UEBA_NXZ
?isConvex@QVectorPath@@QEBA_NXZ
?isCopyOf@QFont@@QEBA_NAEBV1@@Z
?isCopyOf@QPalette@@QEBA_NAEBV1@@Z
?isCopyOf@QTextCursor@@QEBA_NAEBV1@@Z
?isCornerButtonEnabled@QTableView@@QEBA_NXZ
?isCosmetic@QPen@@QEBA_NXZ
?isCurved@QVectorPath@@QEBA_NXZ
?isDateEditEnabled@QCalendarWidget@@QEBA_NXZ
?isDefault@QPrinterInfo@@QEBA_NXZ
?isDefault@QPushButton@@QEBA_NXZ
?isDefaultUp@QMenuBar@@QEBA_NXZ
?isDetached@?$QList@VQItemSelectionRange@@@@QEBA_NXZ
?isDetached@QBrush@@QEBA_NXZ
?isDetached@QIcon@@QEBA_NXZ
?isDetached@QImage@@QEBA_NXZ
?isDetached@QKeySequence@@QEBA_NXZ
?isDetached@QPen@@QEAA_NXZ
?isDetached@QPicture@@QEBA_NXZ
?isDetached@QPixmap@@QEBA_NXZ
?isDir@QDirModel@@QEBA_NAEBVQModelIndex@@@Z
?isDir@QFileSystemModel@@QEBA_NAEBVQModelIndex@@@Z
?isDirty@QWidgetBackingStore@@QEBA_NXZ
?isDisabled@QTreeWidgetItem@@QEBA_NXZ
?isDockNestingEnabled@QMainWindow@@QEBA_NXZ
?isDown@QAbstractButton@@QEBA_NXZ
?isDragEnabled@QStandardItem@@QEBA_NXZ
?isDragEnabled@QTextControl@@QEBA_NXZ
?isDropEnabled@QStandardItem@@QEBA_NXZ
?isEditable@QComboBox@@QEBA_NXZ
?isEditable@QStandardItem@@QEBA_NXZ
?isEffectEnabled@QApplication@@SA_NW4UIEffect@Qt@@@Z
?isEmpty@?$QList@VQItemSelectionRange@@@@QEBA_NXZ
?isEmpty@Declaration@QCss@@QEBA_NXZ
?isEmpty@QDockAreaLayoutInfo@@QEBA_NXZ
?isEmpty@QItemSelectionRange@@QEBA_NXZ
?isEmpty@QKeySequence@@QEBA_NXZ
?isEmpty@QLayout@@UEBA_NXZ
?isEmpty@QMenu@@QEBA_NXZ
?isEmpty@QPaintBuffer@@QEBA_NXZ
?isEmpty@QPainterPath@@QEBA_NXZ
?isEmpty@QRegion@@QEBA_NXZ
?isEmpty@QSpacerItem@@UEBA_NXZ
?isEmpty@QTextDocument@@QEBA_NXZ
?isEmpty@QTextDocumentFragment@@QEBA_NXZ
?isEmpty@QTextList@@QEBA_NXZ
?isEmpty@QVectorPath@@QEBA_NXZ
?isEmpty@QWidgetItem@@UEBA_NXZ
?isEnabled@QAction@@QEBA_NXZ
?isEnabled@QActionGroup@@QEBA_NXZ
?isEnabled@QGraphicsEffect@@QEBA_NXZ
?isEnabled@QGraphicsItem@@QEBA_NXZ
?isEnabled@QLayout@@QEBA_NXZ
?isEnabled@QShortcut@@QEBA_NXZ
?isEnabled@QStandardItem@@QEBA_NXZ
?isEnabled@QWidget@@QEBA_NXZ
?isEnabledTo@QWidget@@QEBA_NPEAV1@@Z
?isEnabledToTLW@QWidget@@QEBA_NXZ
?isEqual@QPalette@@QEBA_NW4ColorGroup@1@0@Z
?isExclusive@QActionGroup@@QEBA_NXZ
?isExpanded@QTreeView@@QEBA_NAEBVQModelIndex@@@Z
?isExpanded@QTreeWidgetItem@@QEBA_NXZ
?isExtended@QPaintEngine@@QEBA_NXZ
?isFinalPage@QWizardPage@@QEBA_NXZ
?isFinished@QSound@@QEBA_NXZ
?isFirstColumnSpanned@QTreeView@@QEBA_NHAEBVQModelIndex@@@Z
?isFirstColumnSpanned@QTreeWidgetItem@@QEBA_NXZ
?isFirstItemColumnSpanned@QTreeWidget@@QEBA_NPEBVQTreeWidgetItem@@@Z
?isFixedPitch@QFontDatabase@@QEBA_NAEBVQString@@0@Z
?isFlat@QGroupBox@@QEBA_NXZ
?isFlat@QPushButton@@QEBA_NXZ
?isFloatable@QToolBar@@QEBA_NXZ
?isFloating@QDockWidget@@QEBA_NXZ
?isFloating@QToolBar@@QEBA_NXZ
?isForceEnabledInSofkeys@QSoftKeyManager@@SA_NPEAVQAction@@@Z
?isForwardAvailable@QTextBrowser@@QEBA_NXZ
?isFrameFormat@QTextFormat@@QEBA_NXZ
?isFullScreen@QWidget@@QEBA_NXZ
?isFullyTransparent@QGraphicsItemPrivate@@QEBA_NXZ
?isGrayscale@QImage@@QEBA_NXZ
?isGridVisible@QCalendarWidget@@QEBA_NXZ
?isHeaderHidden@QTreeView@@QEBA_NXZ
?isHeaderVisible@QCalendarWidget@@QEBA_NXZ
?isHidden@QListWidgetItem@@QEBA_NXZ
?isHidden@QTreeWidgetItem@@QEBA_NXZ
?isHidden@QWidget@@QEBA_NXZ
?isHiddenByFilter@QFileSystemModelPrivate@@QEBA_NPEAVQFileSystemNode@1@AEBVQModelIndex@@@Z
?isIconVisibleInMenu@QAction@@QEBA_NXZ
?isIdentity@QMatrix4x4@@QEBA_NXZ
?isIdentity@QMatrix@@QEBA_NXZ
?isIdentity@QQuaternion@@QEBA_NXZ
?isIdentity@QTransform@@QEBA_NXZ
?isImageCached@QImagePixmapCleanupHooks@@SA_NAEBVQImage@@@Z
?isImageFormat@QTextFormat@@QEBA_NXZ
?isInEditBlock@QTextDocumentPrivate@@QEBA_NXZ
?isIndexDragEnabled@QAbstractItemViewPrivate@@QEBA_NAEBVQModelIndex@@@Z
?isIndexDropEnabled@QAbstractItemViewPrivate@@QEBA_NAEBVQModelIndex@@@Z
?isIndexEnabled@QAbstractItemViewPrivate@@QEBA_NAEBVQModelIndex@@@Z
?isIndexExpanded@QTreeViewPrivate@@QEBA_NAEBVQModelIndex@@@Z
?isIndexHidden@QColumnView@@MEBA_NAEBVQModelIndex@@@Z
?isIndexHidden@QHeaderView@@MEBA_NAEBVQModelIndex@@@Z
?isIndexHidden@QListView@@MEBA_NAEBVQModelIndex@@@Z
?isIndexHidden@QTableView@@MEBA_NAEBVQModelIndex@@@Z
?isIndexHidden@QTreeView@@MEBA_NAEBVQModelIndex@@@Z
?isIndexSelectable@QAbstractItemViewPrivate@@QEBA_NAEBVQModelIndex@@@Z
?isIndexValid@QAbstractItemViewPrivate@@QEBA_NAEBVQModelIndex@@@Z
?isInside@QWingedEdge@@QEBA_NNN@Z
?isInteractive@QGraphicsView@@QEBA_NXZ
?isInvertible@QMatrix@@QEBA_NXZ
?isInvertible@QTransform@@QEBA_NXZ
?isInvisible@QGraphicsItemPrivate@@QEBA_NXZ
?isItemEnabled@QToolBox@@QEBA_NH@Z
?isItemExpanded@QTreeWidget@@QEBA_NPEBVQTreeWidgetItem@@@Z
?isItemHidden@QListWidget@@QEBA_NPEBVQListWidgetItem@@@Z
?isItemHidden@QTreeWidget@@QEBA_NPEBVQTreeWidgetItem@@@Z
?isItemHiddenOrDisabled@QTreeViewPrivate@@QEBA_NH@Z
?isItemSelected@QListWidget@@QEBA_NPEBVQListWidgetItem@@@Z
?isItemSelected@QTableWidget@@QEBA_NPEBVQTableWidgetItem@@@Z
?isItemSelected@QTreeWidget@@QEBA_NPEBVQTreeWidgetItem@@@Z
?isLayout@QGraphicsLayoutItem@@QEBA_NXZ
?isLeftToRight@QApplication@@SA_NXZ
?isLeftToRight@QWidget@@QEBA_NXZ
?isListFormat@QTextFormat@@QEBA_NXZ
?isLocked@QBlittable@@QEBA_NXZ
?isMaximized@QWidget@@QEBA_NXZ
?isMinimized@QWidget@@QEBA_NXZ
?isModal@QWidget@@QEBA_NXZ
?isModified@QLineControl@@QEBA_NXZ
?isModified@QLineEdit@@QEBA_NXZ
?isModified@QTextDocument@@QEBA_NXZ
?isModified@QTextDocumentPrivate@@QEBA_NXZ
?isMovable@QHeaderView@@QEBA_NXZ
?isMovable@QTabBar@@QEBA_NXZ
?isMovable@QTabWidget@@QEBA_NXZ
?isMovable@QToolBar@@QEBA_NXZ
?isMove@QWidgetResizeHandler@@AEBA_NXZ
?isMovingEnabled@QWidgetResizeHandler@@QEBA_NXZ
?isNameFilterDetailsVisible@QFileDialog@@QEBA_NXZ
?isNativeMenuBar@QMenuBar@@QEBA_NXZ
?isNaturalChild@QStyleSheetStyle@@CA_NPEBVQWidget@@@Z
?isNavigationBarVisible@QCalendarWidget@@QEBA_NXZ
?isNull@QIcon@@QEBA_NXZ
?isNull@QImage@@QEBA_NXZ
?isNull@QPicture@@QEBA_NXZ
?isNull@QPixmap@@QEBA_NXZ
?isNull@QPixmapData@@QEBA_NXZ
?isNull@QPrinterInfo@@QEBA_NXZ
?isNull@QQuaternion@@QEBA_NXZ
?isNull@QTextCursor@@QEBA_NXZ
?isNull@QTextureGlyphCache@@QEBA_NXZ
?isNull@QVector2D@@QEBA_NXZ
?isNull@QVector3D@@QEBA_NXZ
?isNull@QVector4D@@QEBA_NXZ
?isNull@QVolatileImage@@QEBA_NXZ
?isObscured@QGraphicsItem@@QEBA_NAEBVQRectF@@@Z
?isObscured@QGraphicsItem@@QEBA_NNNNN@Z
?isObscured@QGraphicsItem@@QEBA_NXZ
?isObscuredBy@QAbstractGraphicsShapeItem@@UEBA_NPEBVQGraphicsItem@@@Z
?isObscuredBy@QGraphicsEllipseItem@@UEBA_NPEBVQGraphicsItem@@@Z
?isObscuredBy@QGraphicsItem@@UEBA_NPEBV1@@Z
?isObscuredBy@QGraphicsItemGroup@@UEBA_NPEBVQGraphicsItem@@@Z
?isObscuredBy@QGraphicsLineItem@@UEBA_NPEBVQGraphicsItem@@@Z
?isObscuredBy@QGraphicsPathItem@@UEBA_NPEBVQGraphicsItem@@@Z
?isObscuredBy@QGraphicsPixmapItem@@UEBA_NPEBVQGraphicsItem@@@Z
?isObscuredBy@QGraphicsPolygonItem@@UEBA_NPEBVQGraphicsItem@@@Z
?isObscuredBy@QGraphicsRectItem@@UEBA_NPEBVQGraphicsItem@@@Z
?isObscuredBy@QGraphicsSimpleTextItem@@UEBA_NPEBVQGraphicsItem@@@Z
?isObscuredBy@QGraphicsTextItem@@UEBA_NPEBVQGraphicsItem@@@Z
?isOpacityNull@QGraphicsItemPrivate@@QEBA_NXZ
?isOpacityNull@QGraphicsItemPrivate@@SA_NN@Z
?isOpaque@QBrush@@QEBA_NXZ
?isOptionEnabled@QAbstractPrintDialog@@QEBA_NW4PrintDialogOption@1@@Z
?isOptionEnabled@QPageSetupDialog@@QEBA_NW4PageSetupDialogOption@1@@Z
?isOverlapped@QWidgetPrivate@@QEBA_NAEBVQRect@@@Z
?isOverride@QWindowStateChangeEvent@@QEBA_NXZ
?isPanel@QGraphicsItem@@QEBA_NXZ
?isPersistent@QAbstractItemViewPrivate@@QEBA_NAEBVQModelIndex@@@Z
?isPhase2@QSessionManager@@QEBA_NXZ
?isPixmap@QGraphicsEffectSource@@QEBA_NXZ
?isPixmapCached@QImagePixmapCleanupHooks@@SA_NAEBVQPixmap@@@Z
?isPrimary@TouchPoint@QTouchEvent@@QEBA_NXZ
?isProxyWidget@QGraphicsItemPrivate@@UEBA_NXZ
?isQBitmap@QPixmap@@QEBA_NXZ
?isReadOnly@QAbstractSpinBox@@QEBA_NXZ
?isReadOnly@QDirModel@@QEBA_NXZ
?isReadOnly@QFileDialog@@QEBA_NXZ
?isReadOnly@QFileSystemModel@@QEBA_NXZ
?isReadOnly@QLineControl@@QEBA_NXZ
?isReadOnly@QLineEdit@@QEBA_NXZ
?isReadOnly@QPlainTextEdit@@QEBA_NXZ
?isReadOnly@QTextEdit@@QEBA_NXZ
?isReadable@QZipReader@@QEBA_NXZ
?isRedoAvailable@QLineControl@@QEBA_NXZ
?isRedoAvailable@QLineEdit@@QEBA_NXZ
?isRedoAvailable@QTextDocument@@QEBA_NXZ
?isRedoAvailable@QTextDocumentPrivate@@QEBA_NXZ
?isResize@QWidgetResizeHandler@@AEBA_NXZ
?isRichTextEnabled@QSystemTrayIcon@@QEBA_NXZ
?isRightToLeft@QApplication@@SA_NXZ
?isRightToLeft@QTextEngine@@QEBA_NXZ
?isRightToLeft@QWidget@@QEBA_NXZ
?isRotating@QTransform@@QEBA_NXZ
?isRowHidden@QListView@@QEBA_NH@Z
?isRowHidden@QTableView@@QEBA_NH@Z
?isRowHidden@QTreeView@@QEBA_NHAEBVQModelIndex@@@Z
?isRowHidden@QTreeViewPrivate@@QEBA_NAEBVQModelIndex@@@Z
?isRowSelected@QItemSelectionModel@@QEBA_NHAEBVQModelIndex@@@Z
?isScalable@QFontDatabase@@QEBA_NAEBVQString@@0@Z
?isScaling@QTransform@@QEBA_NXZ
?isSectionHidden@QHeaderView@@QEBA_NH@Z
?isSelectable@QStandardItem@@QEBA_NXZ
?isSelected@QGraphicsItem@@QEBA_NXZ
?isSelected@QItemSelectionModel@@QEBA_NAEBVQModelIndex@@@Z
?isSelected@QListWidgetItem@@QEBA_NXZ
?isSelected@QTableWidgetItem@@QEBA_NXZ
?isSelected@QTreeWidgetItem@@QEBA_NXZ
?isSelectionRectVisible@QListView@@QEBA_NXZ
?isSeparator@QAction@@QEBA_NXZ
?isSeparator@QMainWindow@@QEBA_NAEBVQPoint@@@Z
?isSessionRestored@QApplication@@QEBA_NXZ
?isShaded@QMdiSubWindow@@QEBA_NXZ
?isSharedWith@?$QList@VQItemSelectionRange@@@@QEBA_NAEBV1@@Z
?isSizeGripEnabled@QDialog@@QEBA_NXZ
?isSizeGripEnabled@QStatusBar@@QEBA_NXZ
?isSliderDown@QAbstractSlider@@QEBA_NXZ
?isSmoothlyScalable@QFontDatabase@@QEBA_NAEBVQString@@0@Z
?isSolid@QPen@@QEBA_NXZ
?isSortCacheEnabled@QGraphicsScene@@QEBA_NXZ
?isSortIndicatorShown@QHeaderView@@QEBA_NXZ
?isSortLocaleAware@QSortFilterProxyModel@@QEBA_NXZ
?isSortingEnabled@QListWidget@@QEBA_NXZ
?isSortingEnabled@QTableView@@QEBA_NXZ
?isSortingEnabled@QTableWidget@@QEBA_NXZ
?isSortingEnabled@QTreeView@@QEBA_NXZ
?isSortingEnabled@QTreeWidget@@QEBA_NXZ
?isSystemTrayAvailable@QSystemTrayIcon@@SA_NXZ
?isTabEnabled@QTabBar@@QEBA_NH@Z
?isTabEnabled@QTabWidget@@QEBA_NH@Z
?isTableCellFormat@QTextFormat@@QEBA_NXZ
?isTableFormat@QTextFormat@@QEBA_NXZ
?isTearOffEnabled@QMenu@@QEBA_NXZ
?isTearOffMenuVisible@QMenu@@QEBA_NXZ
?isTextVisible@QProgressBar@@QEBA_NXZ
?isTopLevel@QWidget@@QEBA_NXZ
?isTransformed@QGraphicsView@@QEBA_NXZ
?isTranslating@QTransform@@QEBA_NXZ
?isTristate@QCheckBox@@QEBA_NXZ
?isTristate@QStandardItem@@QEBA_NXZ
?isUnderMouse@QGraphicsItem@@QEBA_NXZ
?isUndoAvailable@QLineControl@@QEBA_NXZ
?isUndoAvailable@QLineEdit@@QEBA_NXZ
?isUndoAvailable@QTextDocument@@QEBA_NXZ
?isUndoAvailable@QTextDocumentPrivate@@QEBA_NXZ
?isUndoRedoEnabled@QPlainTextEdit@@QEBA_NXZ
?isUndoRedoEnabled@QTextDocument@@QEBA_NXZ
?isUndoRedoEnabled@QTextDocumentPrivate@@QEBA_NXZ
?isUndoRedoEnabled@QTextEdit@@QEBA_NXZ
?isValid@FileInfo@QZipReader@@QEBA_NXZ
?isValid@QAccessibleObject@@UEBA_NXZ
?isValid@QAccessibleObjectEx@@UEBA_NXZ
?isValid@QColor@@QEBA_NXZ
?isValid@QDockAreaLayout@@QEBA_NXZ
?isValid@QItemSelectionRange@@QEBA_NXZ
?isValid@QMovie@@QEBA_NXZ
?isValid@QPrinter@@QEBA_NXZ
?isValid@QRawFont@@QEBA_NXZ
?isValid@QRawFontPrivate@@QEBA_NXZ
?isValid@QTextBlock@@QEBA_NXZ
?isValid@QTextBlockFormat@@QEBA_NXZ
?isValid@QTextCharFormat@@QEBA_NXZ
?isValid@QTextFormat@@QEBA_NXZ
?isValid@QTextFragment@@QEBA_NXZ
?isValid@QTextFrameFormat@@QEBA_NXZ
?isValid@QTextImageFormat@@QEBA_NXZ
?isValid@QTextInlineObject@@QEBA_NXZ
?isValid@QTextLine@@QEBA_NXZ
?isValid@QTextListFormat@@QEBA_NXZ
?isValid@QTextTableCell@@QEBA_NXZ
?isValid@QTextTableCellFormat@@QEBA_NXZ
?isValid@QTextTableFormat@@QEBA_NXZ
?isValidColor@QColor@@SA_NAEBVQString@@@Z
?isValidCursorPosition@QTextLayout@@QEBA_NH@Z
?isValidInput@QLineControl@@AEBA_NVQChar@@0@Z
?isVirtualDesktop@QDesktopWidget@@QEBA_NXZ
?isVisible@QAction@@QEBA_NXZ
?isVisible@QActionGroup@@QEBA_NXZ
?isVisible@QGraphicsItem@@QEBA_NXZ
?isVisible@QSystemTrayIcon@@QEBA_NXZ
?isVisible@QTextBlock@@QEBA_NXZ
?isVisible@QToolTip@@SA_NXZ
?isVisible@QWidget@@QEBA_NXZ
?isVisibleTo@QGraphicsItem@@QEBA_NPEBV1@@Z
?isVisibleTo@QWidget@@QEBA_NPEAV1@@Z
?isWidget@QGraphicsItem@@QEBA_NXZ
?isWindow@QGraphicsItem@@QEBA_NXZ
?isWindow@QWidget@@QEBA_NXZ
?isWindowModified@QWidget@@QEBA_NXZ
?isWordSelectionEnabled@QTextControl@@QEBA_NXZ
?isWrapping@QListView@@QEBA_NXZ
?isWritable@QZipWriter@@QEBA_NXZ
?italic@QFont@@QEBA_NXZ
?italic@QFontDatabase@@QEBA_NAEBVQString@@0@Z
?italic@QFontInfo@@QEBA_NXZ
?item@QDockAreaLayout@@QEAAAEAUQDockAreaLayoutItem@@AEBV?$QList@H@@@Z
?item@QDockAreaLayoutInfo@@QEAAAEAUQDockAreaLayoutItem@@AEBV?$QList@H@@@Z
?item@QGraphicsItemAnimation@@QEBAPEAVQGraphicsItem@@XZ
?item@QListWidget@@QEBAPEAVQListWidgetItem@@H@Z
?item@QStandardItemModel@@QEBAPEAVQStandardItem@@HH@Z
?item@QTableWidget@@QEBAPEAVQTableWidgetItem@@HH@Z
?item@QTextList@@QEBA?AVQTextBlock@@H@Z
?itemAbove@QTreeWidget@@QEBAPEAVQTreeWidgetItem@@PEBV2@@Z
?itemAcceptsHoverEvents_helper@QGraphicsScenePrivate@@QEBA_NPEBVQGraphicsItem@@@Z
?itemActivated@QListWidget@@IEAAXPEAVQListWidgetItem@@@Z
?itemActivated@QTableWidget@@IEAAXPEAVQTableWidgetItem@@@Z
?itemActivated@QTreeWidget@@IEAAXPEAVQTreeWidgetItem@@H@Z
?itemAt@QBoxLayout@@UEBAPEAVQLayoutItem@@H@Z
?itemAt@QDockAreaLayout@@QEBAPEAVQLayoutItem@@PEAHH@Z
?itemAt@QDockAreaLayoutInfo@@QEBAPEAVQLayoutItem@@PEAHH@Z
?itemAt@QDockWidgetLayout@@UEBAPEAVQLayoutItem@@H@Z
?itemAt@QFormLayout@@QEBAPEAVQLayoutItem@@HW4ItemRole@1@@Z
?itemAt@QFormLayout@@UEBAPEAVQLayoutItem@@H@Z
?itemAt@QGraphicsAnchorLayout@@UEBAPEAVQGraphicsLayoutItem@@H@Z
?itemAt@QGraphicsGridLayout@@QEBAPEAVQGraphicsLayoutItem@@HH@Z
?itemAt@QGraphicsGridLayout@@UEBAPEAVQGraphicsLayoutItem@@H@Z
?itemAt@QGraphicsLinearLayout@@UEBAPEAVQGraphicsLayoutItem@@H@Z
?itemAt@QGraphicsScene@@QEBAPEAVQGraphicsItem@@AEBVQPointF@@@Z
?itemAt@QGraphicsScene@@QEBAPEAVQGraphicsItem@@AEBVQPointF@@AEBVQTransform@@@Z
?itemAt@QGraphicsScene@@QEBAPEAVQGraphicsItem@@NN@Z
?itemAt@QGraphicsScene@@QEBAPEAVQGraphicsItem@@NNAEBVQTransform@@@Z
?itemAt@QGraphicsView@@QEBAPEAVQGraphicsItem@@AEBVQPoint@@@Z
?itemAt@QGraphicsView@@QEBAPEAVQGraphicsItem@@HH@Z
?itemAt@QGridLayout@@UEBAPEAVQLayoutItem@@H@Z
?itemAt@QListWidget@@QEBAPEAVQListWidgetItem@@AEBVQPoint@@@Z
?itemAt@QListWidget@@QEBAPEAVQListWidgetItem@@HH@Z
?itemAt@QMainWindowLayout@@UEBAPEAVQLayoutItem@@H@Z
?itemAt@QStackedLayout@@UEBAPEAVQLayoutItem@@H@Z
?itemAt@QTableWidget@@QEBAPEAVQTableWidgetItem@@AEBVQPoint@@@Z
?itemAt@QTableWidget@@QEBAPEAVQTableWidgetItem@@HH@Z
?itemAt@QTreeWidget@@QEBAPEAVQTreeWidgetItem@@AEBVQPoint@@@Z
?itemAt@QTreeWidget@@QEBAPEAVQTreeWidgetItem@@HH@Z
?itemAtCoordinate@QTreeViewPrivate@@QEBAHH@Z
?itemAtPosition@QGridLayout@@QEBAPEAVQLayoutItem@@HH@Z
?itemBelow@QTreeWidget@@QEBAPEAVQTreeWidgetItem@@PEBV2@@Z
?itemChange@QGraphicsItem@@MEAA?AVQVariant@@W4GraphicsItemChange@1@AEBV2@@Z
?itemChange@QGraphicsProxyWidget@@MEAA?AVQVariant@@W4GraphicsItemChange@QGraphicsItem@@AEBV2@@Z
?itemChange@QGraphicsSceneBspTreeIndex@@MEAAXPEBVQGraphicsItem@@W4GraphicsItemChange@2@QEBX@Z
?itemChange@QGraphicsSceneIndex@@MEAAXPEBVQGraphicsItem@@W4GraphicsItemChange@2@QEBX@Z
?itemChange@QGraphicsWidget@@MEAA?AVQVariant@@W4GraphicsItemChange@QGraphicsItem@@AEBV2@@Z
?itemChanged@QListModel@@QEAAXPEAVQListWidgetItem@@@Z
?itemChanged@QListWidget@@IEAAXPEAVQListWidgetItem@@@Z
?itemChanged@QStandardItemModel@@IEAAXPEAVQStandardItem@@@Z
?itemChanged@QTableWidget@@IEAAXPEAVQTableWidgetItem@@@Z
?itemChanged@QTreeWidget@@IEAAXPEAVQTreeWidgetItem@@H@Z
?itemChanged@QTreeWidgetItem@@AEAAXXZ
?itemClicked@QListWidget@@IEAAXPEAVQListWidgetItem@@@Z
?itemClicked@QTableWidget@@IEAAXPEAVQTableWidgetItem@@@Z
?itemClicked@QTreeWidget@@IEAAXPEAVQTreeWidgetItem@@H@Z
?itemCollapsed@QTreeWidget@@IEAAXPEAVQTreeWidgetItem@@@Z
?itemData@QAbstractProxyModel@@UEBA?AV?$QMap@HVQVariant@@@@AEBVQModelIndex@@@Z
?itemData@QComboBox@@QEBA?AVQVariant@@HH@Z
?itemData@QListModel@@UEBA?AV?$QMap@HVQVariant@@@@AEBVQModelIndex@@@Z
?itemData@QStandardItemModel@@UEBA?AV?$QMap@HVQVariant@@@@AEBVQModelIndex@@@Z
?itemDecorationAt@QTreeViewPrivate@@QEBAHAEBVQPoint@@@Z
?itemDecorationRect@QTreeViewPrivate@@QEBA?AVQRect@@AEBVQModelIndex@@@Z
?itemDelegate@QAbstractItemView@@QEBAPEAVQAbstractItemDelegate@@AEBVQModelIndex@@@Z
?itemDelegate@QAbstractItemView@@QEBAPEAVQAbstractItemDelegate@@XZ
?itemDelegate@QComboBox@@QEBAPEAVQAbstractItemDelegate@@XZ
?itemDelegate@QDataWidgetMapper@@QEBAPEAVQAbstractItemDelegate@@XZ
?itemDelegate@QFileDialog@@QEBAPEAVQAbstractItemDelegate@@XZ
?itemDelegateForColumn@QAbstractItemView@@QEBAPEAVQAbstractItemDelegate@@H@Z
?itemDelegateForRow@QAbstractItemView@@QEBAPEAVQAbstractItemDelegate@@H@Z
?itemDoubleClicked@QListWidget@@IEAAXPEAVQListWidgetItem@@@Z
?itemDoubleClicked@QTableWidget@@IEAAXPEAVQTableWidgetItem@@@Z
?itemDoubleClicked@QTreeWidget@@IEAAXPEAVQTreeWidgetItem@@H@Z
?itemEditorFactory@QItemDelegate@@QEBAPEAVQItemEditorFactory@@XZ
?itemEditorFactory@QStyledItemDelegate@@QEBAPEAVQItemEditorFactory@@XZ
?itemEntered@QListWidget@@IEAAXPEAVQListWidgetItem@@@Z
?itemEntered@QTableWidget@@IEAAXPEAVQTableWidgetItem@@@Z
?itemEntered@QTreeWidget@@IEAAXPEAVQTreeWidgetItem@@H@Z
?itemExpanded@QTreeWidget@@IEAAXPEAVQTreeWidgetItem@@@Z
?itemForRole@QDockWidgetLayout@@QEBAPEAVQLayoutItem@@W4Role@1@@Z
?itemFromIndex@QListWidget@@IEBAPEAVQListWidgetItem@@AEBVQModelIndex@@@Z
?itemFromIndex@QStandardItemModel@@QEBAPEAVQStandardItem@@AEBVQModelIndex@@@Z
?itemFromIndex@QTableWidget@@IEBAPEAVQTableWidgetItem@@AEBVQModelIndex@@@Z
?itemFromIndex@QTreeWidget@@IEBAPEAVQTreeWidgetItem@@AEBVQModelIndex@@@Z
?itemGreaterThan@QListModel@@SA_NAEBU?$QPair@PEAVQListWidgetItem@@H@@0@Z
?itemHeight@QTreeViewPrivate@@QEBAHH@Z
?itemIcon@QComboBox@@QEBA?AVQIcon@@H@Z
?itemIcon@QComboBoxPrivate@@QEBA?AVQIcon@@AEBVQModelIndex@@@Z
?itemIcon@QToolBox@@QEBA?AVQIcon@@H@Z
?itemIndexMethod@QGraphicsScene@@QEBA?AW4ItemIndexMethod@1@XZ
?itemInserted@QToolBox@@MEAAXH@Z
?itemIsUntransformable@QGraphicsItemPrivate@@QEBA_NXZ
?itemLessThan@QListModel@@SA_NAEBU?$QPair@PEAVQListWidgetItem@@H@@0@Z
?itemNumber@QTextList@@QEBAHAEBVQTextBlock@@@Z
?itemPixmapRect@QCleanlooksStyle@@UEBA?AVQRect@@AEBV2@HAEBVQPixmap@@@Z
?itemPixmapRect@QProxyStyle@@UEBA?AVQRect@@AEBV2@HAEBVQPixmap@@@Z
?itemPixmapRect@QStyle@@UEBA?AVQRect@@AEBV2@HAEBVQPixmap@@@Z
?itemPixmapRect@QStyleSheetStyle@@UEBA?AVQRect@@AEBV2@HAEBVQPixmap@@@Z
?itemPressed@QListWidget@@IEAAXPEAVQListWidgetItem@@@Z
?itemPressed@QTableWidget@@IEAAXPEAVQTableWidgetItem@@@Z
?itemPressed@QTreeWidget@@IEAAXPEAVQTreeWidgetItem@@H@Z
?itemPrototype@QStandardItemModel@@QEBAPEBVQStandardItem@@XZ
?itemPrototype@QTableWidget@@QEBAPEBVQTableWidgetItem@@XZ
?itemRect@QDockAreaLayout@@QEBA?AVQRect@@AEBV?$QList@H@@@Z
?itemRect@QDockAreaLayoutInfo@@QEBA?AVQRect@@AEBV?$QList@H@@@Z
?itemRect@QDockAreaLayoutInfo@@QEBA?AVQRect@@H@Z
?itemRemoved@QToolBox@@MEAAXH@Z
?itemRole@QComboBoxPrivate@@QEBAHXZ
?itemSelected@QComboBoxPrivateContainer@@IEAAXAEBVQModelIndex@@@Z
?itemSelectionChanged@QListWidget@@IEAAXXZ
?itemSelectionChanged@QTableWidget@@IEAAXXZ
?itemSelectionChanged@QTreeWidget@@IEAAXXZ
?itemSpacing@QGraphicsLinearLayout@@QEBANH@Z
?itemText@QComboBox@@QEBA?AVQString@@H@Z
?itemText@QComboBoxPrivate@@QEBA?AVQString@@AEBVQModelIndex@@@Z
?itemText@QTextList@@QEBA?AVQString@@AEBVQTextBlock@@@Z
?itemText@QToolBox@@QEBA?AVQString@@H@Z
?itemTextRect@QProxyStyle@@UEBA?AVQRect@@AEBVQFontMetrics@@AEBV2@H_NAEBVQString@@@Z
?itemTextRect@QStyle@@UEBA?AVQRect@@AEBVQFontMetrics@@AEBV2@H_NAEBVQString@@@Z
?itemTextRect@QStyleSheetStyle@@UEBA?AVQRect@@AEBVQFontMetrics@@AEBV2@H_NAEBVQString@@@Z
?itemToolTip@QToolBox@@QEBA?AVQString@@H@Z
?itemTransform@QGraphicsItem@@QEBA?AVQTransform@@PEBV1@PEA_N@Z
?itemView@QComboBoxPrivateContainer@@QEBAPEAVQAbstractItemView@@XZ
?itemViewKeyboardEvent@QFileDialogPrivate@@QEAA_NPEAVQKeyEvent@@@Z
?itemWidget@QListWidget@@QEBAPEAVQWidget@@PEAVQListWidgetItem@@@Z
?itemWidget@QTreeWidget@@QEBAPEAVQWidget@@PEAVQTreeWidgetItem@@H@Z
?itemize@QTextEngine@@QEBAXXZ
?items@QGraphicsScene@@QEBA?AV?$QList@PEAVQGraphicsItem@@@@AEBVQPainterPath@@W4ItemSelectionMode@Qt@@@Z
?items@QGraphicsScene@@QEBA?AV?$QList@PEAVQGraphicsItem@@@@AEBVQPainterPath@@W4ItemSelectionMode@Qt@@W4SortOrder@5@AEBVQTransform@@@Z
?items@QGraphicsScene@@QEBA?AV?$QList@PEAVQGraphicsItem@@@@AEBVQPointF@@@Z
?items@QGraphicsScene@@QEBA?AV?$QList@PEAVQGraphicsItem@@@@AEBVQPointF@@W4ItemSelectionMode@Qt@@W4SortOrder@5@AEBVQTransform@@@Z
?items@QGraphicsScene@@QEBA?AV?$QList@PEAVQGraphicsItem@@@@AEBVQPolygonF@@W4ItemSelectionMode@Qt@@@Z
?items@QGraphicsScene@@QEBA?AV?$QList@PEAVQGraphicsItem@@@@AEBVQPolygonF@@W4ItemSelectionMode@Qt@@W4SortOrder@5@AEBVQTransform@@@Z
?items@QGraphicsScene@@QEBA?AV?$QList@PEAVQGraphicsItem@@@@AEBVQRectF@@W4ItemSelectionMode@Qt@@@Z
?items@QGraphicsScene@@QEBA?AV?$QList@PEAVQGraphicsItem@@@@AEBVQRectF@@W4ItemSelectionMode@Qt@@W4SortOrder@5@AEBVQTransform@@@Z
?items@QGraphicsScene@@QEBA?AV?$QList@PEAVQGraphicsItem@@@@NNNNW4ItemSelectionMode@Qt@@@Z
?items@QGraphicsScene@@QEBA?AV?$QList@PEAVQGraphicsItem@@@@NNNNW4ItemSelectionMode@Qt@@W4SortOrder@4@AEBVQTransform@@@Z
?items@QGraphicsScene@@QEBA?AV?$QList@PEAVQGraphicsItem@@@@W4SortOrder@Qt@@@Z
?items@QGraphicsScene@@QEBA?AV?$QList@PEAVQGraphicsItem@@@@XZ
?items@QGraphicsSceneBspTreeIndex@@UEBA?AV?$QList@PEAVQGraphicsItem@@@@W4SortOrder@Qt@@@Z
?items@QGraphicsSceneIndex@@UEBA?AV?$QList@PEAVQGraphicsItem@@@@AEBVQPainterPath@@W4ItemSelectionMode@Qt@@W4SortOrder@5@AEBVQTransform@@@Z
?items@QGraphicsSceneIndex@@UEBA?AV?$QList@PEAVQGraphicsItem@@@@AEBVQPointF@@W4ItemSelectionMode@Qt@@W4SortOrder@5@AEBVQTransform@@@Z
?items@QGraphicsSceneIndex@@UEBA?AV?$QList@PEAVQGraphicsItem@@@@AEBVQPolygonF@@W4ItemSelectionMode@Qt@@W4SortOrder@5@AEBVQTransform@@@Z
?items@QGraphicsSceneIndex@@UEBA?AV?$QList@PEAVQGraphicsItem@@@@AEBVQRectF@@W4ItemSelectionMode@Qt@@W4SortOrder@5@AEBVQTransform@@@Z
?items@QGraphicsSceneLinearIndex@@UEBA?AV?$QList@PEAVQGraphicsItem@@@@W4SortOrder@Qt@@@Z
?items@QGraphicsView@@QEBA?AV?$QList@PEAVQGraphicsItem@@@@AEBVQPainterPath@@W4ItemSelectionMode@Qt@@@Z
?items@QGraphicsView@@QEBA?AV?$QList@PEAVQGraphicsItem@@@@AEBVQPoint@@@Z
?items@QGraphicsView@@QEBA?AV?$QList@PEAVQGraphicsItem@@@@AEBVQPolygon@@W4ItemSelectionMode@Qt@@@Z
?items@QGraphicsView@@QEBA?AV?$QList@PEAVQGraphicsItem@@@@AEBVQRect@@W4ItemSelectionMode@Qt@@@Z
?items@QGraphicsView@@QEBA?AV?$QList@PEAVQGraphicsItem@@@@HH@Z
?items@QGraphicsView@@QEBA?AV?$QList@PEAVQGraphicsItem@@@@HHHHW4ItemSelectionMode@Qt@@@Z
?items@QGraphicsView@@QEBA?AV?$QList@PEAVQGraphicsItem@@@@XZ
?items@QListWidget@@IEBA?AV?$QList@PEAVQListWidgetItem@@@@PEBVQMimeData@@@Z
?items@QTableWidget@@IEBA?AV?$QList@PEAVQTableWidgetItem@@@@PEBVQMimeData@@@Z
?items@QTreeWidget@@IEBA?AV?$QList@PEAVQTreeWidgetItem@@@@PEBVQMimeData@@@Z
?itemsAtPosition@QGraphicsScenePrivate@@QEBA?AV?$QList@PEAVQGraphicsItem@@@@AEBVQPoint@@AEBVQPointF@@PEAVQWidget@@@Z
?itemsBoundingRect@QGraphicsScene@@QEBA?AVQRectF@@XZ
?itemsExpandable@QTreeView@@QEBA_NXZ
?joinForJoinMode@QStroker@@KA?AW4PenJoinStyle@Qt@@W4LineJoinMode@1@@Z
?joinModeForCap@QStroker@@KA?AW4LineJoinMode@1@W4PenCapStyle@Qt@@@Z
?joinModeForJoin@QStroker@@KA?AW4LineJoinMode@1@W4PenJoinStyle@Qt@@@Z
?joinPoints@QStroker@@QEAAXNNAEBVQLineF@@W4LineJoinMode@1@@Z
?joinPreviousEditBlock@QTextCursor@@QEAAXXZ
?joinPreviousEditBlock@QTextDocumentPrivate@@QEAAXXZ
?joinStyle@QPainterPathStroker@@QEBA?AW4PenJoinStyle@Qt@@XZ
?joinStyle@QPen@@QEBA?AW4PenJoinStyle@Qt@@XZ
?joinStyle@QStroker@@QEBA?AW4PenJoinStyle@Qt@@XZ
?joinStyleMode@QStroker@@QEBA?AW4LineJoinMode@1@XZ
?jumpToFrame@QMovie@@QEAA_NH@Z
?jumpToImage@QImageIOHandler@@UEAA_NH@Z
?jumpToImage@QImageReader@@QEAA_NH@Z
?jumpToNextFrame@QMovie@@QEAA_NXZ
?jumpToNextImage@QImageIOHandler@@UEAA_NXZ
?jumpToNextImage@QImageReader@@QEAA_NXZ
?justify@QTextEngine@@QEAAXAEBUQScriptLine@@@Z
?keepPositionOnInsert@QTextCursor@@QEBA_NXZ
?keepSize@QDockAreaLayout@@QEAAXPEAVQDockWidget@@@Z
?keepSize@QMainWindowLayout@@QEAAXPEAVQDockWidget@@@Z
?kerning@QFont@@QEBA_NXZ
?key@QBasicKeyEventTransition@@QEBAHXZ
?key@QFont@@QEBA?AVQString@@XZ
?key@QIconEngineV2@@UEBA?AVQString@@XZ
?key@QKeyEvent@@QEBAHXZ
?key@QKeyEventTransition@@QEBAHXZ
?key@QShortcut@@QEBA?AVQKeySequence@@XZ
?key@QShortcutEvent@@QEAAAEBVQKeySequence@@XZ
?key@QShortcutEvent@@QEBAAEBVQKeySequence@@XZ
?keyBindings@QKeySequence@@SA?AV?$QList@VQKeySequence@@@@W4StandardKey@1@@Z
?keyBindings@QKeySequencePrivate@@2QBUQKeyBinding@@B
?keyPressEvent@QAbstractButton@@MEAAXPEAVQKeyEvent@@@Z
?keyPressEvent@QAbstractItemView@@MEAAXPEAVQKeyEvent@@@Z
?keyPressEvent@QAbstractScrollArea@@MEAAXPEAVQKeyEvent@@@Z
?keyPressEvent@QAbstractSlider@@MEAAXPEAVQKeyEvent@@@Z
?keyPressEvent@QAbstractSpinBox@@MEAAXPEAVQKeyEvent@@@Z
?keyPressEvent@QCalendarWidget@@MEAAXPEAVQKeyEvent@@@Z
?keyPressEvent@QComboBox@@MEAAXPEAVQKeyEvent@@@Z
?keyPressEvent@QDateTimeEdit@@MEAAXPEAVQKeyEvent@@@Z
?keyPressEvent@QDialog@@MEAAXPEAVQKeyEvent@@@Z
?keyPressEvent@QGraphicsItem@@MEAAXPEAVQKeyEvent@@@Z
?keyPressEvent@QGraphicsProxyWidget@@MEAAXPEAVQKeyEvent@@@Z
?keyPressEvent@QGraphicsScene@@MEAAXPEAVQKeyEvent@@@Z
?keyPressEvent@QGraphicsTextItem@@MEAAXPEAVQKeyEvent@@@Z
?keyPressEvent@QGraphicsView@@MEAAXPEAVQKeyEvent@@@Z
?keyPressEvent@QLabel@@MEAAXPEAVQKeyEvent@@@Z
?keyPressEvent@QLineEdit@@MEAAXPEAVQKeyEvent@@@Z
?keyPressEvent@QMdiSubWindow@@MEAAXPEAVQKeyEvent@@@Z
?keyPressEvent@QMenu@@MEAAXPEAVQKeyEvent@@@Z
?keyPressEvent@QMenuBar@@MEAAXPEAVQKeyEvent@@@Z
?keyPressEvent@QMessageBox@@MEAAXPEAVQKeyEvent@@@Z
?keyPressEvent@QPlainTextEdit@@MEAAXPEAVQKeyEvent@@@Z
?keyPressEvent@QPushButton@@MEAAXPEAVQKeyEvent@@@Z
?keyPressEvent@QTabBar@@MEAAXPEAVQKeyEvent@@@Z
?keyPressEvent@QTabWidget@@MEAAXPEAVQKeyEvent@@@Z
?keyPressEvent@QTextBrowser@@MEAAXPEAVQKeyEvent@@@Z
?keyPressEvent@QTextEdit@@MEAAXPEAVQKeyEvent@@@Z
?keyPressEvent@QTreeView@@MEAAXPEAVQKeyEvent@@@Z
?keyPressEvent@QWidget@@MEAAXPEAVQKeyEvent@@@Z
?keyPressEvent@QWidgetResizeHandler@@IEAAXPEAVQKeyEvent@@@Z
?keyReleaseEvent@QAbstractButton@@MEAAXPEAVQKeyEvent@@@Z
?keyReleaseEvent@QAbstractSpinBox@@MEAAXPEAVQKeyEvent@@@Z
?keyReleaseEvent@QComboBox@@MEAAXPEAVQKeyEvent@@@Z
?keyReleaseEvent@QGraphicsItem@@MEAAXPEAVQKeyEvent@@@Z
?keyReleaseEvent@QGraphicsProxyWidget@@MEAAXPEAVQKeyEvent@@@Z
?keyReleaseEvent@QGraphicsScene@@MEAAXPEAVQKeyEvent@@@Z
?keyReleaseEvent@QGraphicsTextItem@@MEAAXPEAVQKeyEvent@@@Z
?keyReleaseEvent@QGraphicsView@@MEAAXPEAVQKeyEvent@@@Z
?keyReleaseEvent@QPlainTextEdit@@MEAAXPEAVQKeyEvent@@@Z
?keyReleaseEvent@QTextEdit@@MEAAXPEAVQKeyEvent@@@Z
?keyReleaseEvent@QWidget@@MEAAXPEAVQKeyEvent@@@Z
?keyboardGrabber@QWidget@@SAPEAV1@XZ
?keyboardInputDirection@QApplication@@SA?AW4LayoutDirection@Qt@@XZ
?keyboardInputInterval@QApplication@@SAHXZ
?keyboardInputLocale@QApplication@@SA?AVQLocale@@XZ
?keyboardModifiers@QApplication@@SA?AV?$QFlags@W4KeyboardModifier@Qt@@@@XZ
?keyboardModifiers@QDropEvent@@QEBA?AV?$QFlags@W4KeyboardModifier@Qt@@@@XZ
?keyboardPageStep@QMdiSubWindow@@QEBAHXZ
?keyboardSearch@QAbstractItemView@@UEAAXAEBVQString@@@Z
?keyboardSearch@QTreeView@@UEAAXAEBVQString@@@Z
?keyboardSearchString@QComboBoxPrivate@@QEAAXAEBVQString@@@Z
?keyboardSingleStep@QMdiSubWindow@@QEBAHXZ
?keyboardTracking@QAbstractSpinBox@@QEBA_NXZ
?keyboard_input_time@QApplicationPrivate@@2HA
?keys@QGuiPlatformPlugin@@UEBA?AVQStringList@@XZ
?keys@QInputContextFactory@@SA?AVQStringList@@XZ
?keys@QStyleFactory@@SA?AVQStringList@@XZ
?labelAlignment@QFormLayout@@QEBA?AV?$QFlags@W4AlignmentFlag@Qt@@@@XZ
?labelForField@QFormLayout@@QEBAPEAVQWidget@@PEAV2@@Z
?labelForField@QFormLayout@@QEBAPEAVQWidget@@PEAVQLayout@@@Z
?labelText@QFileDialog@@QEBA?AVQString@@W4DialogLabel@1@@Z
?labelText@QInputDialog@@QEBA?AVQString@@XZ
?labelText@QProgressDialog@@QEBA?AVQString@@XZ
?languageChange@QWidget@@MEAAXXZ
?languages@QInputContextFactory@@SA?AVQStringList@@AEBVQString@@@Z
?last@?$QList@VQItemSelectionRange@@@@QEAAAEAVQItemSelectionRange@@XZ
?last@?$QList@VQItemSelectionRange@@@@QEBAAEBVQItemSelectionRange@@XZ
?lastBlock@QTextDocument@@QEBA?AVQTextBlock@@XZ
?lastCenterPoint@QPinchGesture@@QEBA?AVQPointF@@XZ
?lastCursorPosition@QTextFrame@@QEBA?AVQTextCursor@@XZ
?lastCursorPosition@QTextTableCell@@QEBA?AVQTextCursor@@XZ
?lastIndexOf@?$QList@VQItemSelectionRange@@@@QEBAHAEBVQItemSelectionRange@@H@Z
?lastModified@QFileSystemModel@@QEBA?AVQDateTime@@AEBVQModelIndex@@@Z
?lastNormalizedPos@TouchPoint@QTouchEvent@@QEBA?AVQPointF@@XZ
?lastOffset@QPanGesture@@QEBA?AVQPointF@@XZ
?lastPos@QGraphicsSceneHoverEvent@@QEBA?AVQPointF@@XZ
?lastPos@QGraphicsSceneMouseEvent@@QEBA?AVQPointF@@XZ
?lastPos@TouchPoint@QTouchEvent@@QEBA?AVQPointF@@XZ
?lastPosition@QTextFrame@@QEBAHXZ
?lastPosition@QTextTableCell@@QEBAHXZ
?lastResortFamily@QFont@@QEBA?AVQString@@XZ
?lastResortFont@QFont@@QEBA?AVQString@@XZ
?lastRightBearing@QFontEngine@@IEAA?AUQFixed@@AEBUQGlyphLayout@@_N@Z
?lastRotationAngle@QPinchGesture@@QEBANXZ
?lastScaleFactor@QPinchGesture@@QEBANXZ
?lastScenePos@QGraphicsSceneHoverEvent@@QEBA?AVQPointF@@XZ
?lastScenePos@QGraphicsSceneMouseEvent@@QEBA?AVQPointF@@XZ
?lastScenePos@TouchPoint@QTouchEvent@@QEBA?AVQPointF@@XZ
?lastScreenPos@QGraphicsSceneHoverEvent@@QEBA?AVQPoint@@XZ
?lastScreenPos@QGraphicsSceneMouseEvent@@QEBA?AVQPoint@@XZ
?lastScreenPos@TouchPoint@QTouchEvent@@QEBA?AVQPointF@@XZ
?lastWindowClosed@QApplication@@IEAAXXZ
?layout@QGraphicsWidget@@QEBAPEAVQGraphicsLayout@@XZ
?layout@QLayout@@UEAAPEAV1@XZ
?layout@QLayoutItem@@UEAAPEAVQLayout@@XZ
?layout@QTextBlock@@QEBAPEAVQTextLayout@@XZ
?layout@QTextDocumentPrivate@@QEBAPEAVQAbstractTextDocumentLayout@@XZ
?layout@QTreeViewPrivate@@QEAAXH_N0@Z
?layout@QWidget@@QEBAPEAVQLayout@@XZ
?layoutBlock@QPlainTextDocumentLayout@@AEAAXAEBVQTextBlock@@@Z
?layoutChanged@QGraphicsWidget@@IEAAXXZ
?layoutChanged@QUrlModel@@AEAAXXZ
?layoutChildren@QAbstractScrollAreaPrivate@@QEAAXXZ
?layoutData@QTextFrame@@QEBAPEAVQTextFrameLayoutData@@XZ
?layoutDirection@QApplication@@SA?AW4LayoutDirection@Qt@@XZ
?layoutDirection@QGraphicsWidget@@QEBA?AW4LayoutDirection@Qt@@XZ
?layoutDirection@QLineControl@@QEBA?AW4LayoutDirection@Qt@@XZ
?layoutDirection@QPainter@@QEBA?AW4LayoutDirection@Qt@@XZ
?layoutDirection@QTextFormat@@QEBA?AW4LayoutDirection@Qt@@XZ
?layoutDirection@QWidget@@QEBA?AW4LayoutDirection@Qt@@XZ
?layoutFinished@QTextDocumentLayout@@AEAAXXZ
?layoutMode@QListView@@QEBA?AW4LayoutMode@1@XZ
?layoutSpacing@QStyle@@QEBAHW4ControlType@QSizePolicy@@0W4Orientation@Qt@@PEBVQStyleOption@@PEBVQWidget@@@Z
?layoutSpacing@QStyleSheetStyle@@QEBAHW4ControlType@QSizePolicy@@0W4Orientation@Qt@@PEBVQStyleOption@@PEBVQWidget@@@Z
?layoutSpacingImplementation@QPlastiqueStyle@@IEBAHW4ControlType@QSizePolicy@@0W4Orientation@Qt@@PEBVQStyleOption@@PEBVQWidget@@@Z
?layoutSpacingImplementation@QProxyStyle@@IEBAHW4ControlType@QSizePolicy@@0W4Orientation@Qt@@PEBVQStyleOption@@PEBVQWidget@@@Z
?layoutSpacingImplementation@QStyle@@IEBAHW4ControlType@QSizePolicy@@0W4Orientation@Qt@@PEBVQStyleOption@@PEBVQWidget@@@Z
?layoutSpacingImplementation@QStyleSheetStyle@@IEBAHW4ControlType@QSizePolicy@@0W4Orientation@Qt@@PEBVQStyleOption@@PEBVQWidget@@@Z
?layoutStatus@QTextDocumentLayout@@QEBAHXZ
?layout_helper@QTextLine@@AEAAXH@Z
?lazyChildCount@QDirModel@@QEBA_NXZ
?leading@QFontMetrics@@QEBAHXZ
?leading@QFontMetricsF@@QEBANXZ
?leading@QRawFont@@QEBANXZ
?leading@QTextLine@@QEBANXZ
?leadingIncluded@QTextLine@@QEBA_NXZ
?leadingSpaceWidth@QTextEngine@@QEAA?AUQFixed@@AEBUQScriptLine@@@Z
?leaveAfterRelease@QApplicationPrivate@@2V?$QPointer@VQWidget@@@@A
?leaveEvent@QComboBoxPrivateContainer@@MEAAXPEAVQEvent@@@Z
?leaveEvent@QComboBoxPrivateScroller@@MEAAXPEAVQEvent@@@Z
?leaveEvent@QMdiSubWindow@@MEAAXPEAVQEvent@@@Z
?leaveEvent@QMenu@@MEAAXPEAVQEvent@@@Z
?leaveEvent@QMenuBar@@MEAAXPEAVQEvent@@@Z
?leaveEvent@QToolButton@@MEAAXPEAVQEvent@@@Z
?leaveEvent@QWidget@@MEAAXPEAVQEvent@@@Z
?leaveModal@QApplicationPrivate@@SAXPEAVQWidget@@@Z
?leaveModal@QGraphicsScenePrivate@@QEAAXPEAVQGraphicsItem@@@Z
?leaveModal_sys@QApplicationPrivate@@SAXPEAVQWidget@@@Z
?leaveScene@QGraphicsScenePrivate@@QEAAXPEAVQWidget@@@Z
?leaveWhatsThisMode@QWhatsThis@@SAXXZ
?left@QItemSelectionRange@@QEBAHXZ
?leftBearing@QFontMetrics@@QEBAHVQChar@@@Z
?leftBearing@QFontMetricsF@@QEBANVQChar@@@Z
?leftColumn@QTableWidgetSelectionRange@@QEBAHXZ
?leftCursorPosition@QTextDocumentPrivate@@QEBAHH@Z
?leftCursorPosition@QTextLayout@@QEBAHH@Z
?leftMargin@QTextBlockFormat@@QEBANXZ
?leftMargin@QTextFrameFormat@@QEBANXZ
?leftPadding@QTextTableCellFormat@@QEBANXZ
?length@?$QList@VQItemSelectionRange@@@@QEBAHXZ
?length@QBezier@@QEBANN@Z
?length@QHeaderView@@QEBAHXZ
?length@QPainterPath@@QEBANXZ
?length@QQuaternion@@QEBANXZ
?length@QTextBlock@@QEBAHXZ
?length@QTextDocumentPrivate@@QEBAHXZ
?length@QTextEngine@@QEBAHH@Z
?length@QTextEngine@@QEBAHPEBUQScriptItem@@@Z
?length@QTextFragment@@QEBAHXZ
?length@QVector2D@@QEBANXZ
?length@QVector3D@@QEBANXZ
?length@QVector4D@@QEBANXZ
?lengthProperty@QTextFormat@@QEBA?AVQTextLength@@H@Z
?lengthSquared@QQuaternion@@QEBANXZ
?lengthSquared@QVector2D@@QEBANXZ
?lengthSquared@QVector3D@@QEBANXZ
?lengthSquared@QVector4D@@QEBANXZ
?lengthValue@ValueExtractor@QCss@@AEAA?AULengthData@2@AEBUValue@2@@Z
?lengthValue@ValueExtractor@QCss@@QEAAHAEBUDeclaration@2@@Z
?lengthValues@ValueExtractor@QCss@@AEAAXAEBUDeclaration@2@PEAH@Z
?lengthVectorProperty@QTextFormat@@QEBA?AV?$QVector@VQTextLength@@@@H@Z
?lessThan@QSortFilterProxyModel@@MEBA_NAEBVQModelIndex@@0@Z
?letterSpacing@QFont@@QEBANXZ
?letterSpacingType@QFont@@QEBA?AW4SpacingType@1@XZ
?levelOfDetailFromTransform@QStyleOptionGraphicsItem@@SANAEBVQTransform@@@Z
?lexem@Parser@QCss@@QEBA?AVQString@@XZ
?lexem@Symbol@QCss@@QEBA?AVQString@@XZ
?lexemUntil@Parser@QCss@@QEAA?AVQString@@W4TokenType@2@@Z
?light@QColor@@QEBA?AV1@H@Z
?light@QPalette@@QEBAAEBVQBrush@@XZ
?lighter@QColor@@QEBA?AV1@H@Z
?lightness@QColor@@QEBAHXZ
?lightnessF@QColor@@QEBANXZ
?line@QGraphicsLineItem@@QEBA?AVQLineF@@XZ
?lineAt@QTextLayout@@QEBA?AVQTextLine@@H@Z
?lineCount@QTextBlock@@QEBAHXZ
?lineCount@QTextDocument@@QEBAHXZ
?lineCount@QTextLayout@@QEBAHXZ
?lineEdit@QAbstractSpinBox@@IEBAPEAVQLineEdit@@XZ
?lineEdit@QComboBox@@QEBAPEAVQLineEdit@@XZ
?lineEdit@QFileDialogPrivate@@QEBAPEAVQLineEdit@@XZ
?lineForTextPosition@QTextLayout@@QEBA?AVQTextLine@@H@Z
?lineHeight@QTextBlockFormat@@QEBANNN@Z
?lineHeight@QTextBlockFormat@@QEBANXZ
?lineHeightType@QTextBlockFormat@@QEBAHXZ
?lineNumber@QTextLine@@QEBAHXZ
?lineNumberForTextPosition@QTextEngine@@QEAAHH@Z
?lineSpacing@QFontMetrics@@QEBAHXZ
?lineSpacing@QFontMetricsF@@QEBANXZ
?lineThickness@QFontEngine@@UEBA?AUQFixed@@XZ
?lineTo@QPainterPath@@QEAAXAEBVQPointF@@@Z
?lineTo@QPainterPath@@QEAAXNN@Z
?lineTo@QStrokerOps@@QEAAXNN@Z
?lineWidth@QFontMetrics@@QEBAHXZ
?lineWidth@QFontMetricsF@@QEBANXZ
?lineWidth@QFrame@@QEBAHXZ
?lineWrapColumnOrWidth@QTextEdit@@QEBAHXZ
?lineWrapMode@QPlainTextEdit@@QEBA?AW4LineWrapMode@1@XZ
?lineWrapMode@QTextEdit@@QEBA?AW4LineWrapMode@1@XZ
?link@QPalette@@QEBAAEBVQBrush@@XZ
?linkActivated@QGraphicsTextItem@@IEAAXAEBVQString@@@Z
?linkActivated@QLabel@@IEAAXAEBVQString@@@Z
?linkActivated@QTextControl@@IEAAXAEBVQString@@@Z
?linkHovered@QGraphicsTextItem@@IEAAXAEBVQString@@@Z
?linkHovered@QLabel@@IEAAXAEBVQString@@@Z
?linkHovered@QTextControl@@IEAAXAEBVQString@@@Z
?linkVisited@QPalette@@QEBAAEBVQBrush@@XZ
?list@QFileInfoGatherer@@QEAAXAEBVQString@@@Z
?listFormat@QTextFormatCollection@@QEBA?AVQTextListFormat@@H@Z
?listWidget@QListWidgetItem@@QEBAPEAVQListWidget@@XZ
?load@QFontDatabase@@CAXPEBVQFontPrivate@@H@Z
?load@QImage@@QEAA_NAEBVQString@@PEBD@Z
?load@QImage@@QEAA_NPEAVQIODevice@@PEBD@Z
?load@QPicture@@QEAA_NAEBVQString@@PEBD@Z
?load@QPicture@@QEAA_NPEAVQIODevice@@PEBD@Z
?load@QPixmap@@QEAA_NAEBVQString@@PEBDV?$QFlags@W4ImageConversionFlag@Qt@@@@@Z
?loadFromData@QImage@@QEAA_NAEBVQByteArray@@PEBD@Z
?loadFromData@QImage@@QEAA_NPEBEHPEBD@Z
?loadFromData@QPixmap@@QEAA_NAEBVQByteArray@@PEBDV?$QFlags@W4ImageConversionFlag@Qt@@@@@Z
?loadFromData@QPixmap@@QEAA_NPEBEIPEBDV?$QFlags@W4ImageConversionFlag@Qt@@@@@Z
?loadFromData@QRawFont@@QEAAXAEBVQByteArray@@NW4HintingPreference@QFont@@@Z
?loadFromFile@QRawFont@@QEAAXAEBVQString@@NW4HintingPreference@QFont@@@Z
?loadKerningPairs@QFontEngine@@QEAAXUQFixed@@@Z
?loadPicture@QPictureFormatPlugin@@UEAA_NAEBVQString@@0PEAVQPicture@@@Z
?loadResource@QPlainTextEdit@@UEAA?AVQVariant@@HAEBVQUrl@@@Z
?loadResource@QTextBrowser@@UEAA?AVQVariant@@HAEBVQUrl@@@Z
?loadResource@QTextControl@@UEAA?AVQVariant@@HAEBVQUrl@@@Z
?loadResource@QTextDocument@@MEAA?AVQVariant@@HAEBVQUrl@@@Z
?loadResource@QTextEdit@@UEAA?AVQVariant@@HAEBVQUrl@@@Z
?load_testability@QApplicationPrivate@@2_NA
?locale@QValidator@@QEBA?AVQLocale@@XZ
?locale@QWidget@@QEBA?AVQLocale@@XZ
?lock@QBlittable@@QEAAPEAVQImage@@XZ
?logClusters@QTextEngine@@QEBAPEAGPEBUQScriptItem@@@Z
?logicalDpiX@QPaintDevice@@QEBAHXZ
?logicalDpiY@QPaintDevice@@QEBAHXZ
?logicalIndex@QHeaderView@@QEBAHH@Z
?logicalIndexAt@QHeaderView@@QEBAHAEBVQPoint@@@Z
?logicalIndexAt@QHeaderView@@QEBAHH@Z
?logicalIndexAt@QHeaderView@@QEBAHHH@Z
?lookAt@QMatrix4x4@@QEAAXAEBVQVector3D@@00@Z
?lookup@Parser@QCss@@QEBA?AW4TokenType@2@XZ
?lookupCacheData@QVectorPath@@QEBAPEAUCacheEntry@1@PEAVQPaintEngineEx@@@Z
?lookupElementName@Parser@QCss@@QEBA_NXZ
?loopCount@QImageIOHandler@@UEBAHXZ
?loopCount@QImageReader@@QEBAHXZ
?loopCount@QMovie@@QEBAHXZ
?loops@QSound@@QEBAHXZ
?loopsRemaining@QSound@@QEBAHXZ
?lostFocus@QFocusEvent@@QEBA_NXZ
?lower@QWidget@@QEAAXXZ
?lower_sys@QWidgetPrivate@@QEAAXXZ
?m11@QMatrix@@QEBANXZ
?m11@QTransform@@QEBANXZ
?m12@QMatrix@@QEBANXZ
?m12@QTransform@@QEBANXZ
?m13@QTransform@@QEBANXZ
?m21@QMatrix@@QEBANXZ
?m21@QTransform@@QEBANXZ
?m22@QMatrix@@QEBANXZ
?m22@QTransform@@QEBANXZ
?m23@QTransform@@QEBANXZ
?m31@QTransform@@QEBANXZ
?m32@QTransform@@QEBANXZ
?m33@QTransform@@QEBANXZ
?magenta@QColor@@QEBAHXZ
?magentaF@QColor@@QEBANXZ
?mainWindowLayout@QDockAreaLayoutInfo@@QEBAPEAVQMainWindowLayout@@XZ
?main_widget@QApplicationPrivate@@2PEAVQWidget@@EA
?makeCacheable@QVectorPath@@QEBAXXZ
?map@QMatrix4x4@@QEBA?AVQPoint@@AEBV2@@Z
?map@QMatrix4x4@@QEBA?AVQPointF@@AEBV2@@Z
?map@QMatrix4x4@@QEBA?AVQVector3D@@AEBV2@@Z
?map@QMatrix4x4@@QEBA?AVQVector4D@@AEBV2@@Z
?map@QMatrix@@QEBA?AVQLine@@AEBV2@@Z
?map@QMatrix@@QEBA?AVQLineF@@AEBV2@@Z
?map@QMatrix@@QEBA?AVQPainterPath@@AEBV2@@Z
?map@QMatrix@@QEBA?AVQPoint@@AEBV2@@Z
?map@QMatrix@@QEBA?AVQPointF@@AEBV2@@Z
?map@QMatrix@@QEBA?AVQPolygon@@AEBV2@@Z
?map@QMatrix@@QEBA?AVQPolygonF@@AEBV2@@Z
?map@QMatrix@@QEBA?AVQRegion@@AEBV2@@Z
?map@QMatrix@@QEBAXHHPEAH0@Z
?map@QMatrix@@QEBAXNNPEAN0@Z
?map@QTransform@@QEBA?AVQLine@@AEBV2@@Z
?map@QTransform@@QEBA?AVQLineF@@AEBV2@@Z
?map@QTransform@@QEBA?AVQPainterPath@@AEBV2@@Z
?map@QTransform@@QEBA?AVQPoint@@AEBV2@@Z
?map@QTransform@@QEBA?AVQPointF@@AEBV2@@Z
?map@QTransform@@QEBA?AVQPolygon@@AEBV2@@Z
?map@QTransform@@QEBA?AVQPolygonF@@AEBV2@@Z
?map@QTransform@@QEBA?AVQRegion@@AEBV2@@Z
?map@QTransform@@QEBAXHHPEAH0@Z
?map@QTransform@@QEBAXNNPEAN0@Z
?mapBy@QBezier@@QEBA?AV1@AEBVQTransform@@@Z
?mapFrom@QWidget@@QEBA?AVQPoint@@PEAV1@AEBV2@@Z
?mapFromGlobal@QWidget@@QEBA?AVQPoint@@AEBV2@@Z
?mapFromItem@QGraphicsItem@@QEBA?AVQPainterPath@@PEBV1@AEBV2@@Z
?mapFromItem@QGraphicsItem@@QEBA?AVQPointF@@PEBV1@AEBV2@@Z
?mapFromItem@QGraphicsItem@@QEBA?AVQPointF@@PEBV1@NN@Z
?mapFromItem@QGraphicsItem@@QEBA?AVQPolygonF@@PEBV1@AEBV2@@Z
?mapFromItem@QGraphicsItem@@QEBA?AVQPolygonF@@PEBV1@AEBVQRectF@@@Z
?mapFromItem@QGraphicsItem@@QEBA?AVQPolygonF@@PEBV1@NNNN@Z
?mapFromParent@QGraphicsItem@@QEBA?AVQPainterPath@@AEBV2@@Z
?mapFromParent@QGraphicsItem@@QEBA?AVQPointF@@AEBV2@@Z
?mapFromParent@QGraphicsItem@@QEBA?AVQPointF@@NN@Z
?mapFromParent@QGraphicsItem@@QEBA?AVQPolygonF@@AEBV2@@Z
?mapFromParent@QGraphicsItem@@QEBA?AVQPolygonF@@AEBVQRectF@@@Z
?mapFromParent@QGraphicsItem@@QEBA?AVQPolygonF@@NNNN@Z
?mapFromParent@QWidget@@QEBA?AVQPoint@@AEBV2@@Z
?mapFromScene@QGraphicsItem@@QEBA?AVQPainterPath@@AEBV2@@Z
?mapFromScene@QGraphicsItem@@QEBA?AVQPointF@@AEBV2@@Z
?mapFromScene@QGraphicsItem@@QEBA?AVQPointF@@NN@Z
?mapFromScene@QGraphicsItem@@QEBA?AVQPolygonF@@AEBV2@@Z
?mapFromScene@QGraphicsItem@@QEBA?AVQPolygonF@@AEBVQRectF@@@Z
?mapFromScene@QGraphicsItem@@QEBA?AVQPolygonF@@NNNN@Z
?mapFromScene@QGraphicsView@@QEBA?AVQPainterPath@@AEBV2@@Z
?mapFromScene@QGraphicsView@@QEBA?AVQPoint@@AEBVQPointF@@@Z
?mapFromScene@QGraphicsView@@QEBA?AVQPoint@@NN@Z
?mapFromScene@QGraphicsView@@QEBA?AVQPolygon@@AEBVQPolygonF@@@Z
?mapFromScene@QGraphicsView@@QEBA?AVQPolygon@@AEBVQRectF@@@Z
?mapFromScene@QGraphicsView@@QEBA?AVQPolygon@@NNNN@Z
?mapFromSource@QFileDialogPrivate@@QEBA?AVQModelIndex@@AEBV2@@Z
?mapFromSource@QIdentityProxyModel@@UEBA?AVQModelIndex@@AEBV2@@Z
?mapFromSource@QSortFilterProxyModel@@UEBA?AVQModelIndex@@AEBV2@@Z
?mapFromWS@QWidgetPrivate@@QEBA?AVQPoint@@AEBV2@@Z
?mapFromWS@QWidgetPrivate@@QEBA?AVQRect@@AEBV2@@Z
?mapRect@QMatrix4x4@@QEBA?AVQRect@@AEBV2@@Z
?mapRect@QMatrix4x4@@QEBA?AVQRectF@@AEBV2@@Z
?mapRect@QMatrix@@QEBA?AVQRect@@AEBV2@@Z
?mapRect@QMatrix@@QEBA?AVQRectF@@AEBV2@@Z
?mapRect@QTransform@@QEBA?AVQRect@@AEBV2@@Z
?mapRect@QTransform@@QEBA?AVQRectF@@AEBV2@@Z
?mapRectFromItem@QGraphicsItem@@QEBA?AVQRectF@@PEBV1@AEBV2@@Z
?mapRectFromItem@QGraphicsItem@@QEBA?AVQRectF@@PEBV1@NNNN@Z
?mapRectFromParent@QGraphicsItem@@QEBA?AVQRectF@@AEBV2@@Z
?mapRectFromParent@QGraphicsItem@@QEBA?AVQRectF@@NNNN@Z
?mapRectFromScene@QGraphicsItem@@QEBA?AVQRectF@@AEBV2@@Z
?mapRectFromScene@QGraphicsItem@@QEBA?AVQRectF@@NNNN@Z
?mapRectFromScene@QGraphicsViewPrivate@@QEBA?AVQRectF@@AEBV2@@Z
?mapRectToItem@QGraphicsItem@@QEBA?AVQRectF@@PEBV1@AEBV2@@Z
?mapRectToItem@QGraphicsItem@@QEBA?AVQRectF@@PEBV1@NNNN@Z
?mapRectToParent@QGraphicsItem@@QEBA?AVQRectF@@AEBV2@@Z
?mapRectToParent@QGraphicsItem@@QEBA?AVQRectF@@NNNN@Z
?mapRectToScene@QGraphicsItem@@QEBA?AVQRectF@@AEBV2@@Z
?mapRectToScene@QGraphicsItem@@QEBA?AVQRectF@@NNNN@Z
?mapRectToScene@QGraphicsViewPrivate@@QEBA?AVQRectF@@AEBVQRect@@@Z
?mapSelectionFromSource@QAbstractProxyModel@@UEBA?AVQItemSelection@@AEBV2@@Z
?mapSelectionFromSource@QIdentityProxyModel@@UEBA?AVQItemSelection@@AEBV2@@Z
?mapSelectionFromSource@QSortFilterProxyModel@@UEBA?AVQItemSelection@@AEBV2@@Z
?mapSelectionToSource@QAbstractProxyModel@@UEBA?AVQItemSelection@@AEBV2@@Z
?mapSelectionToSource@QIdentityProxyModel@@UEBA?AVQItemSelection@@AEBV2@@Z
?mapSelectionToSource@QSortFilterProxyModel@@UEBA?AVQItemSelection@@AEBV2@@Z
?mapTo@QWidget@@QEBA?AVQPoint@@PEAV1@AEBV2@@Z
?mapToGlobal@QWidget@@QEBA?AVQPoint@@AEBV2@@Z
?mapToGraphicsScene@QGestureEvent@@QEBA?AVQPointF@@AEBV2@@Z
?mapToItem@QGraphicsItem@@QEBA?AVQPainterPath@@PEBV1@AEBV2@@Z
?mapToItem@QGraphicsItem@@QEBA?AVQPointF@@PEBV1@AEBV2@@Z
?mapToItem@QGraphicsItem@@QEBA?AVQPointF@@PEBV1@NN@Z
?mapToItem@QGraphicsItem@@QEBA?AVQPolygonF@@PEBV1@AEBV2@@Z
?mapToItem@QGraphicsItem@@QEBA?AVQPolygonF@@PEBV1@AEBVQRectF@@@Z
?mapToItem@QGraphicsItem@@QEBA?AVQPolygonF@@PEBV1@NNNN@Z
?mapToParent@QGraphicsItem@@QEBA?AVQPainterPath@@AEBV2@@Z
?mapToParent@QGraphicsItem@@QEBA?AVQPointF@@AEBV2@@Z
?mapToParent@QGraphicsItem@@QEBA?AVQPointF@@NN@Z
?mapToParent@QGraphicsItem@@QEBA?AVQPolygonF@@AEBV2@@Z
?mapToParent@QGraphicsItem@@QEBA?AVQPolygonF@@AEBVQRectF@@@Z
?mapToParent@QGraphicsItem@@QEBA?AVQPolygonF@@NNNN@Z
?mapToParent@QWidget@@QEBA?AVQPoint@@AEBV2@@Z
?mapToPolygon@QMatrix@@QEBA?AVQPolygon@@AEBVQRect@@@Z
?mapToPolygon@QTransform@@QEBA?AVQPolygon@@AEBVQRect@@@Z
?mapToScene@QGraphicsItem@@QEBA?AVQPainterPath@@AEBV2@@Z
?mapToScene@QGraphicsItem@@QEBA?AVQPointF@@AEBV2@@Z
?mapToScene@QGraphicsItem@@QEBA?AVQPointF@@NN@Z
?mapToScene@QGraphicsItem@@QEBA?AVQPolygonF@@AEBV2@@Z
?mapToScene@QGraphicsItem@@QEBA?AVQPolygonF@@AEBVQRectF@@@Z
?mapToScene@QGraphicsItem@@QEBA?AVQPolygonF@@NNNN@Z
?mapToScene@QGraphicsView@@QEBA?AVQPainterPath@@AEBV2@@Z
?mapToScene@QGraphicsView@@QEBA?AVQPointF@@AEBVQPoint@@@Z
?mapToScene@QGraphicsView@@QEBA?AVQPointF@@HH@Z
?mapToScene@QGraphicsView@@QEBA?AVQPolygonF@@AEBVQPolygon@@@Z
?mapToScene@QGraphicsView@@QEBA?AVQPolygonF@@AEBVQRect@@@Z
?mapToScene@QGraphicsView@@QEBA?AVQPolygonF@@HHHH@Z
?mapToScene@QGraphicsViewPrivate@@QEBA?AVQPointF@@AEBV2@@Z
?mapToScene@QGraphicsViewPrivate@@QEBA?AVQRectF@@AEBV2@@Z
?mapToSource@QFileDialogPrivate@@QEBA?AVQModelIndex@@AEBV2@@Z
?mapToSource@QIdentityProxyModel@@UEBA?AVQModelIndex@@AEBV2@@Z
?mapToSource@QSortFilterProxyModel@@UEBA?AVQModelIndex@@AEBV2@@Z
?mapToViewRect@QGraphicsViewPrivate@@QEBA?AVQRect@@PEBVQGraphicsItem@@AEBVQRectF@@@Z
?mapToViewRegion@QGraphicsViewPrivate@@QEBA?AVQRegion@@PEBVQGraphicsItem@@AEBVQRectF@@@Z
?mapToWS@QWidgetPrivate@@QEBA?AVQPoint@@AEBV2@@Z
?mapToWS@QWidgetPrivate@@QEBA?AVQRect@@AEBV2@@Z
?mapVector@QMatrix4x4@@QEBA?AVQVector3D@@AEBV2@@Z
?mappedPropertyName@QDataWidgetMapper@@QEBA?AVQByteArray@@PEAVQWidget@@@Z
?mappedSection@QDataWidgetMapper@@QEBAHPEAVQWidget@@@Z
?mappedWidgetAt@QDataWidgetMapper@@QEBAPEAVQWidget@@H@Z
?mapper@QWidgetPrivate@@2PEAV?$QHash@PEAUHWND__@@PEAVQWidget@@@@EA
?margin@QLabel@@QEBAHXZ
?margin@QLayout@@QEBAHXZ
?margin@QTextFrameFormat@@QEBANXZ
?markContentsDirty@QTextDocument@@QEAAXHH@Z
?markDirty@QGraphicsScenePrivate@@QEAAXPEAVQGraphicsItem@@AEBVQRectF@@_N2222@Z
?markDirty@QWidgetBackingStore@@QEAAXAEBVQRect@@PEAVQWidget@@_N2@Z
?markDirty@QWidgetBackingStore@@QEAAXAEBVQRegion@@PEAVQWidget@@_N2@Z
?markDirtyOnScreen@QWidgetBackingStore@@AEAAXAEBVQRegion@@PEAVQWidget@@AEBVQPoint@@@Z
?markParentDirty@QGraphicsItemPrivate@@QEAAX_N@Z
?markRasterOverlay@QBlittablePixmapData@@QEAAXAEBVQPainterPath@@@Z
?markRasterOverlay@QBlittablePixmapData@@QEAAXAEBVQPointF@@AEBVQTextItem@@@Z
?markRasterOverlay@QBlittablePixmapData@@QEAAXAEBVQRectF@@@Z
?markRasterOverlay@QBlittablePixmapData@@QEAAXAEBVQVectorPath@@@Z
?markRasterOverlay@QBlittablePixmapData@@QEAAXPEBVQPoint@@H@Z
?markRasterOverlay@QBlittablePixmapData@@QEAAXPEBVQPointF@@H@Z
?markRasterOverlay@QBlittablePixmapData@@QEAAXPEBVQRect@@H@Z
?markRasterOverlay@QBlittablePixmapData@@QEAAXPEBVQRectF@@H@Z
?mask@QCursor@@QEBAPEBVQBitmap@@XZ
?mask@QPixmap@@QEBA?AVQBitmap@@XZ
?mask@QPixmapData@@UEBA?AVQBitmap@@XZ
?mask@QRuntimePixmapData@@UEBA?AVQBitmap@@XZ
?mask@QWidget@@QEBA?AVQRegion@@XZ
?maskString@QLineControl@@AEBA?AVQString@@IAEBV2@_N@Z
?match@QIdentityProxyModel@@UEBA?AV?$QList@VQModelIndex@@@@AEBVQModelIndex@@HAEBVQVariant@@HV?$QFlags@W4MatchFlag@Qt@@@@@Z
?match@QProxyModel@@UEBA?AV?$QList@VQModelIndex@@@@AEBVQModelIndex@@HAEBVQVariant@@HV?$QFlags@W4MatchFlag@Qt@@@@@Z
?match@QSortFilterProxyModel@@UEBA?AV?$QList@VQModelIndex@@@@AEBVQModelIndex@@HAEBVQVariant@@HV?$QFlags@W4MatchFlag@Qt@@@@@Z
?matchFlags@QComboBoxPrivate@@QEBA?AV?$QFlags@W4MatchFlag@Qt@@@@XZ
?matchRule@StyleSelector@QCss@@AEAAXTNodePtr@12@AEBUStyleRule@2@W4StyleSheetOrigin@2@HPEAV?$QMap@IUStyleRule@QCss@@@@@Z
?matches@QKeyEvent@@QEBA_NW4StandardKey@QKeySequence@@@Z
?matches@QKeySequence@@QEBA?AW4SequenceMatch@1@AEBV1@@Z
?matchesFlags@QTreeWidgetItemIterator@@AEBA_NPEBVQTreeWidgetItem@@@Z
?matrix@QBrush@@QEBAAEBVQMatrix@@XZ
?matrix@QGraphicsItem@@QEBA?AVQMatrix@@XZ
?matrix@QGraphicsView@@QEBA?AVQMatrix@@XZ
?matrix@QPaintEngineState@@QEBA?AVQMatrix@@XZ
?matrix@QPainter@@QEBAAEBVQMatrix@@XZ
?matrixAt@QGraphicsItemAnimation@@QEBA?AVQMatrix@@N@Z
?matrixEnabled@QPainter@@QEBA_NXZ
?maxCharWidth@QRawFont@@QEBANXZ
?maxCount@QComboBox@@QEBAHXZ
?maxInstances@QWidgetPrivate@@2HA
?maxLength@QLineControl@@QEBAHXZ
?maxLength@QLineEdit@@QEBAHXZ
?maxNameLength@QFileDialogPrivate@@QEAAHAEBVQString@@@Z
?maxPage@QAbstractPrintDialog@@QEBAHXZ
?maxTextureHeight@QTextureGlyphCache@@UEBAHXZ
?maxTextureWidth@QTextureGlyphCache@@UEBAHXZ
?maxVisibleItems@QComboBox@@QEBAHXZ
?maxVisibleItems@QCompleter@@QEBAHXZ
?maxWidth@QFontMetrics@@QEBAHXZ
?maxWidth@QFontMetricsF@@QEBANXZ
?maximizedButtonsWidget@QMdiSubWindow@@QEBAPEAVQWidget@@XZ
?maximizedSystemMenuIconWidget@QMdiSubWindow@@QEBAPEAVQWidget@@XZ
?maximum@QAbstractSlider@@QEBAHXZ
?maximum@QDoubleSpinBox@@QEBANXZ
?maximum@QProgressBar@@QEBAHXZ
?maximum@QProgressDialog@@QEBAHXZ
?maximum@QSpinBox@@QEBAHXZ
?maximumBlockCount@QPlainTextEdit@@QEBAHXZ
?maximumBlockCount@QTextDocument@@QEBAHXZ
?maximumDate@QCalendarWidget@@QEBA?AVQDate@@XZ
?maximumDate@QDateTimeEdit@@QEBA?AVQDate@@XZ
?maximumDateTime@QDateTimeEdit@@QEBA?AVQDateTime@@XZ
?maximumHeight@QGraphicsLayoutItem@@QEBANXZ
?maximumHeight@QWidget@@QEBAHXZ
?maximumSize@QBoxLayout@@UEBA?AVQSize@@XZ
?maximumSize@QDockAreaLayoutInfo@@QEBA?AVQSize@@XZ
?maximumSize@QDockWidgetLayout@@UEBA?AVQSize@@XZ
?maximumSize@QGraphicsLayoutItem@@QEBA?AVQSizeF@@XZ
?maximumSize@QGridLayout@@UEBA?AVQSize@@XZ
?maximumSize@QLayout@@UEBA?AVQSize@@XZ
?maximumSize@QSpacerItem@@UEBA?AVQSize@@XZ
?maximumSize@QWidget@@QEBA?AVQSize@@XZ
?maximumSize@QWidgetItem@@UEBA?AVQSize@@XZ
?maximumSize@QWidgetItemV2@@UEBA?AVQSize@@XZ
?maximumTime@QDateTimeEdit@@QEBA?AVQTime@@XZ
?maximumViewportSize@QAbstractScrollArea@@QEBA?AVQSize@@XZ
?maximumWidth@QGraphicsLayoutItem@@QEBANXZ
?maximumWidth@QTextLayout@@QEBANXZ
?maximumWidth@QWidget@@QEBAHXZ
?maybeBackingStore@QWidgetPrivate@@QEBAPEAVQWidgetBackingStore@@XZ
?maybeExtraItemCache@QGraphicsItemPrivate@@QEBAPEAVQGraphicsItemCache@@XZ
?maybeTopData@QWidgetPrivate@@QEBAPEAUQTLWExtra@@XZ
?mdiArea@QMdiSubWindow@@QEBAPEAVQMdiArea@@XZ
?menu@QAction@@QEBAPEAVQMenu@@XZ
?menu@QPushButton@@QEBAPEAVQMenu@@XZ
?menu@QToolButton@@QEBAPEAVQMenu@@XZ
?menuAction@QMenu@@QEBAPEAVQAction@@XZ
?menuBar@QLayout@@QEBAPEAVQWidget@@XZ
?menuBar@QMainWindow@@QEBAPEAVQMenuBar@@XZ
?menuRole@QAction@@QEBA?AW4MenuRole@1@XZ
?menuWidget@QMainWindow@@QEBAPEAVQWidget@@XZ
?merge@QItemSelection@@QEAAXAEBV1@V?$QFlags@W4SelectionFlag@QItemSelectionModel@@@@@Z
?merge@QTextFormat@@QEAAXAEBV1@@Z
?mergeBlockCharFormat@QTextCursor@@QEAAXAEBVQTextCharFormat@@@Z
?mergeBlockFormat@QTextCursor@@QEAAXAEBVQTextBlockFormat@@@Z
?mergeCachedResources@QTextDocumentPrivate@@QEAAXPEBV1@@Z
?mergeCells@QTextTable@@QEAAXAEBVQTextCursor@@@Z
?mergeCells@QTextTable@@QEAAXHHHH@Z
?mergeCharFormat@QTextCursor@@QEAAXAEBVQTextCharFormat@@@Z
?mergeCurrentCharFormat@QPlainTextEdit@@QEAAXAEBVQTextCharFormat@@@Z
?mergeCurrentCharFormat@QTextControl@@QEAAXAEBVQTextCharFormat@@@Z
?mergeCurrentCharFormat@QTextEdit@@QEAAXAEBVQTextCharFormat@@@Z
?mergeWith@QUndoCommand@@UEAA_NPEBV1@@Z
?messageChanged@QSplashScreen@@IEAAXAEBVQString@@@Z
?messageChanged@QStatusBar@@IEAAXAEBVQString@@@Z
?messageClicked@QSystemTrayIcon@@IEAAXXZ
?messageCloseButtonClicked@QSystemTrayIcon@@IEAAXXZ
?messageClosed@QSystemTrayIcon@@IEAAXXZ
?messageLinkActivated@QBalloonTip@@AEAAXAEBVQString@@@Z
?messageLinkClicked@QSystemTrayIcon@@IEAAXAEBVQString@@@Z
?metaInformation@QTextDocument@@QEBA?AVQString@@W4MetaInformation@1@@Z
?metaObject@QAbstractButton@@UEBAPEBUQMetaObject@@XZ
?metaObject@QAbstractItemDelegate@@UEBAPEBUQMetaObject@@XZ
?metaObject@QAbstractItemView@@UEBAPEBUQMetaObject@@XZ
?metaObject@QAbstractPageSetupDialog@@UEBAPEBUQMetaObject@@XZ
?metaObject@QAbstractPrintDialog@@UEBAPEBUQMetaObject@@XZ
?metaObject@QAbstractProxyModel@@UEBAPEBUQMetaObject@@XZ
?metaObject@QAbstractScrollArea@@UEBAPEBUQMetaObject@@XZ
?metaObject@QAbstractSlider@@UEBAPEBUQMetaObject@@XZ
?metaObject@QAbstractSpinBox@@UEBAPEBUQMetaObject@@XZ
?metaObject@QAbstractTextDocumentLayout@@UEBAPEBUQMetaObject@@XZ
?metaObject@QAccessiblePlugin@@UEBAPEBUQMetaObject@@XZ
?metaObject@QAction@@UEBAPEBUQMetaObject@@XZ
?metaObject@QActionGroup@@UEBAPEBUQMetaObject@@XZ
?metaObject@QApplication@@UEBAPEBUQMetaObject@@XZ
?metaObject@QBalloonTip@@UEBAPEBUQMetaObject@@XZ
?metaObject@QBasicKeyEventTransition@@UEBAPEBUQMetaObject@@XZ
?metaObject@QBasicMouseEventTransition@@UEBAPEBUQMetaObject@@XZ
?metaObject@QBoxLayout@@UEBAPEBUQMetaObject@@XZ
?metaObject@QButtonGroup@@UEBAPEBUQMetaObject@@XZ
?metaObject@QCDEStyle@@UEBAPEBUQMetaObject@@XZ
?metaObject@QCalendarWidget@@UEBAPEBUQMetaObject@@XZ
?metaObject@QCheckBox@@UEBAPEBUQMetaObject@@XZ
?metaObject@QCleanlooksStyle@@UEBAPEBUQMetaObject@@XZ
?metaObject@QClipboard@@UEBAPEBUQMetaObject@@XZ
?metaObject@QColorDialog@@UEBAPEBUQMetaObject@@XZ
?metaObject@QColumnView@@UEBAPEBUQMetaObject@@XZ
?metaObject@QColumnViewGrip@@UEBAPEBUQMetaObject@@XZ
?metaObject@QComboBox@@UEBAPEBUQMetaObject@@XZ
?metaObject@QComboBoxPrivateContainer@@UEBAPEBUQMetaObject@@XZ
?metaObject@QComboBoxPrivateScroller@@UEBAPEBUQMetaObject@@XZ
?metaObject@QCommandLinkButton@@UEBAPEBUQMetaObject@@XZ
?metaObject@QCommonStyle@@UEBAPEBUQMetaObject@@XZ
?metaObject@QCompleter@@UEBAPEBUQMetaObject@@XZ
?metaObject@QDataWidgetMapper@@UEBAPEBUQMetaObject@@XZ
?metaObject@QDateEdit@@UEBAPEBUQMetaObject@@XZ
?metaObject@QDateTimeEdit@@UEBAPEBUQMetaObject@@XZ
?metaObject@QDesktopWidget@@UEBAPEBUQMetaObject@@XZ
?metaObject@QDial@@UEBAPEBUQMetaObject@@XZ
?metaObject@QDialog@@UEBAPEBUQMetaObject@@XZ
?metaObject@QDialogButtonBox@@UEBAPEBUQMetaObject@@XZ
?metaObject@QDirModel@@UEBAPEBUQMetaObject@@XZ
?metaObject@QDockWidget@@UEBAPEBUQMetaObject@@XZ
?metaObject@QDockWidgetLayout@@UEBAPEBUQMetaObject@@XZ
?metaObject@QDoubleSpinBox@@UEBAPEBUQMetaObject@@XZ
?metaObject@QDoubleValidator@@UEBAPEBUQMetaObject@@XZ
?metaObject@QDrag@@UEBAPEBUQMetaObject@@XZ
?metaObject@QErrorMessage@@UEBAPEBUQMetaObject@@XZ
?metaObject@QFileDialog@@UEBAPEBUQMetaObject@@XZ
?metaObject@QFileInfoGatherer@@UEBAPEBUQMetaObject@@XZ
?metaObject@QFileSystemModel@@UEBAPEBUQMetaObject@@XZ
?metaObject@QFocusFrame@@UEBAPEBUQMetaObject@@XZ
?metaObject@QFontComboBox@@UEBAPEBUQMetaObject@@XZ
?metaObject@QFontDialog@@UEBAPEBUQMetaObject@@XZ
?metaObject@QFormLayout@@UEBAPEBUQMetaObject@@XZ
?metaObject@QFrame@@UEBAPEBUQMetaObject@@XZ
?metaObject@QGesture@@UEBAPEBUQMetaObject@@XZ
?metaObject@QGraphicsAnchor@@UEBAPEBUQMetaObject@@XZ
?metaObject@QGraphicsBlurEffect@@UEBAPEBUQMetaObject@@XZ
?metaObject@QGraphicsColorizeEffect@@UEBAPEBUQMetaObject@@XZ
?metaObject@QGraphicsDropShadowEffect@@UEBAPEBUQMetaObject@@XZ
?metaObject@QGraphicsEffect@@UEBAPEBUQMetaObject@@XZ
?metaObject@QGraphicsEffectSource@@UEBAPEBUQMetaObject@@XZ
?metaObject@QGraphicsItemAnimation@@UEBAPEBUQMetaObject@@XZ
?metaObject@QGraphicsObject@@UEBAPEBUQMetaObject@@XZ
?metaObject@QGraphicsOpacityEffect@@UEBAPEBUQMetaObject@@XZ
?metaObject@QGraphicsProxyWidget@@UEBAPEBUQMetaObject@@XZ
?metaObject@QGraphicsRotation@@UEBAPEBUQMetaObject@@XZ
?metaObject@QGraphicsScale@@UEBAPEBUQMetaObject@@XZ
?metaObject@QGraphicsScene@@UEBAPEBUQMetaObject@@XZ
?metaObject@QGraphicsSceneBspTreeIndex@@UEBAPEBUQMetaObject@@XZ
?metaObject@QGraphicsSceneIndex@@UEBAPEBUQMetaObject@@XZ
?metaObject@QGraphicsSceneLinearIndex@@UEBAPEBUQMetaObject@@XZ
?metaObject@QGraphicsSystemPlugin@@UEBAPEBUQMetaObject@@XZ
?metaObject@QGraphicsTextItem@@UEBAPEBUQMetaObject@@XZ
?metaObject@QGraphicsTransform@@UEBAPEBUQMetaObject@@XZ
?metaObject@QGraphicsView@@UEBAPEBUQMetaObject@@XZ
?metaObject@QGraphicsWidget@@UEBAPEBUQMetaObject@@XZ
?metaObject@QGridLayout@@UEBAPEBUQMetaObject@@XZ
?metaObject@QGroupBox@@UEBAPEBUQMetaObject@@XZ
?metaObject@QGuiPlatformPlugin@@UEBAPEBUQMetaObject@@XZ
?metaObject@QHBoxLayout@@UEBAPEBUQMetaObject@@XZ
?metaObject@QHeaderView@@UEBAPEBUQMetaObject@@XZ
?metaObject@QIconEnginePlugin@@UEBAPEBUQMetaObject@@XZ
?metaObject@QIconEnginePluginV2@@UEBAPEBUQMetaObject@@XZ
?metaObject@QIdentityProxyModel@@UEBAPEBUQMetaObject@@XZ
?metaObject@QImageIOPlugin@@UEBAPEBUQMetaObject@@XZ
?metaObject@QInputContext@@UEBAPEBUQMetaObject@@XZ
?metaObject@QInputContextPlugin@@UEBAPEBUQMetaObject@@XZ
?metaObject@QInputDialog@@UEBAPEBUQMetaObject@@XZ
?metaObject@QIntValidator@@UEBAPEBUQMetaObject@@XZ
?metaObject@QInternalMimeData@@UEBAPEBUQMetaObject@@XZ
?metaObject@QItemDelegate@@UEBAPEBUQMetaObject@@XZ
?metaObject@QItemSelectionModel@@UEBAPEBUQMetaObject@@XZ
?metaObject@QKeyEventTransition@@UEBAPEBUQMetaObject@@XZ
?metaObject@QLCDNumber@@UEBAPEBUQMetaObject@@XZ
?metaObject@QLabel@@UEBAPEBUQMetaObject@@XZ
?metaObject@QLayout@@UEBAPEBUQMetaObject@@XZ
?metaObject@QLineControl@@UEBAPEBUQMetaObject@@XZ
?metaObject@QLineEdit@@UEBAPEBUQMetaObject@@XZ
?metaObject@QListModel@@UEBAPEBUQMetaObject@@XZ
?metaObject@QListView@@UEBAPEBUQMetaObject@@XZ
?metaObject@QListWidget@@UEBAPEBUQMetaObject@@XZ
?metaObject@QMainWindow@@UEBAPEBUQMetaObject@@XZ
?metaObject@QMainWindowLayout@@UEBAPEBUQMetaObject@@XZ
?metaObject@QMdiArea@@UEBAPEBUQMetaObject@@XZ
?metaObject@QMdiSubWindow@@UEBAPEBUQMetaObject@@XZ
?metaObject@QMenu@@UEBAPEBUQMetaObject@@XZ
?metaObject@QMenuBar@@UEBAPEBUQMetaObject@@XZ
?metaObject@QMessageBox@@UEBAPEBUQMetaObject@@XZ
?metaObject@QMotifStyle@@UEBAPEBUQMetaObject@@XZ
?metaObject@QMouseEventTransition@@UEBAPEBUQMetaObject@@XZ
?metaObject@QMovie@@UEBAPEBUQMetaObject@@XZ
?metaObject@QPageSetupDialog@@UEBAPEBUQMetaObject@@XZ
?metaObject@QPaintBufferResource@@UEBAPEBUQMetaObject@@XZ
?metaObject@QPaintBufferSignalProxy@@UEBAPEBUQMetaObject@@XZ
?metaObject@QPanGesture@@UEBAPEBUQMetaObject@@XZ
?metaObject@QPictureFormatPlugin@@UEBAPEBUQMetaObject@@XZ
?metaObject@QPinchGesture@@UEBAPEBUQMetaObject@@XZ
?metaObject@QPixmapBlurFilter@@UEBAPEBUQMetaObject@@XZ
?metaObject@QPixmapColorizeFilter@@UEBAPEBUQMetaObject@@XZ
?metaObject@QPixmapConvolutionFilter@@UEBAPEBUQMetaObject@@XZ
?metaObject@QPixmapDropShadowFilter@@UEBAPEBUQMetaObject@@XZ
?metaObject@QPixmapFilter@@UEBAPEBUQMetaObject@@XZ
?metaObject@QPlainTextDocumentLayout@@UEBAPEBUQMetaObject@@XZ
?metaObject@QPlainTextEdit@@UEBAPEBUQMetaObject@@XZ
?metaObject@QPlastiqueStyle@@UEBAPEBUQMetaObject@@XZ
?metaObject@QPrintDialog@@UEBAPEBUQMetaObject@@XZ
?metaObject@QPrintPreviewDialog@@UEBAPEBUQMetaObject@@XZ
?metaObject@QPrintPreviewWidget@@UEBAPEBUQMetaObject@@XZ
?metaObject@QProgressBar@@UEBAPEBUQMetaObject@@XZ
?metaObject@QProgressDialog@@UEBAPEBUQMetaObject@@XZ
?metaObject@QProxyModel@@UEBAPEBUQMetaObject@@XZ
?metaObject@QProxyStyle@@UEBAPEBUQMetaObject@@XZ
?metaObject@QPushButton@@UEBAPEBUQMetaObject@@XZ
?metaObject@QRadioButton@@UEBAPEBUQMetaObject@@XZ
?metaObject@QRegExpValidator@@UEBAPEBUQMetaObject@@XZ
?metaObject@QRubberBand@@UEBAPEBUQMetaObject@@XZ
?metaObject@QScrollArea@@UEBAPEBUQMetaObject@@XZ
?metaObject@QScrollBar@@UEBAPEBUQMetaObject@@XZ
?metaObject@QSessionManager@@UEBAPEBUQMetaObject@@XZ
?metaObject@QShortcut@@UEBAPEBUQMetaObject@@XZ
?metaObject@QSidebar@@UEBAPEBUQMetaObject@@XZ
?metaObject@QSizeGrip@@UEBAPEBUQMetaObject@@XZ
?metaObject@QSlider@@UEBAPEBUQMetaObject@@XZ
?metaObject@QSoftKeyManager@@UEBAPEBUQMetaObject@@XZ
?metaObject@QSortFilterProxyModel@@UEBAPEBUQMetaObject@@XZ
?metaObject@QSound@@UEBAPEBUQMetaObject@@XZ
?metaObject@QSpinBox@@UEBAPEBUQMetaObject@@XZ
?metaObject@QSplashScreen@@UEBAPEBUQMetaObject@@XZ
?metaObject@QSplitter@@UEBAPEBUQMetaObject@@XZ
?metaObject@QSplitterHandle@@UEBAPEBUQMetaObject@@XZ
?metaObject@QStackedLayout@@UEBAPEBUQMetaObject@@XZ
?metaObject@QStackedWidget@@UEBAPEBUQMetaObject@@XZ
?metaObject@QStandardItemModel@@UEBAPEBUQMetaObject@@XZ
?metaObject@QStatusBar@@UEBAPEBUQMetaObject@@XZ
?metaObject@QStringListModel@@UEBAPEBUQMetaObject@@XZ
?metaObject@QStyle@@UEBAPEBUQMetaObject@@XZ
?metaObject@QStylePlugin@@UEBAPEBUQMetaObject@@XZ
?metaObject@QStyleSheetStyle@@UEBAPEBUQMetaObject@@XZ
?metaObject@QStyledItemDelegate@@UEBAPEBUQMetaObject@@XZ
?metaObject@QSwipeGesture@@UEBAPEBUQMetaObject@@XZ
?metaObject@QSyntaxHighlighter@@UEBAPEBUQMetaObject@@XZ
?metaObject@QSystemTrayIcon@@UEBAPEBUQMetaObject@@XZ
?metaObject@QTabBar@@UEBAPEBUQMetaObject@@XZ
?metaObject@QTabWidget@@UEBAPEBUQMetaObject@@XZ
?metaObject@QTableView@@UEBAPEBUQMetaObject@@XZ
?metaObject@QTableWidget@@UEBAPEBUQMetaObject@@XZ
?metaObject@QTapAndHoldGesture@@UEBAPEBUQMetaObject@@XZ
?metaObject@QTapGesture@@UEBAPEBUQMetaObject@@XZ
?metaObject@QTextBlockGroup@@UEBAPEBUQMetaObject@@XZ
?metaObject@QTextBrowser@@UEBAPEBUQMetaObject@@XZ
?metaObject@QTextControl@@UEBAPEBUQMetaObject@@XZ
?metaObject@QTextDocument@@UEBAPEBUQMetaObject@@XZ
?metaObject@QTextDocumentLayout@@UEBAPEBUQMetaObject@@XZ
?metaObject@QTextEdit@@UEBAPEBUQMetaObject@@XZ
?metaObject@QTextFrame@@UEBAPEBUQMetaObject@@XZ
?metaObject@QTextList@@UEBAPEBUQMetaObject@@XZ
?metaObject@QTextObject@@UEBAPEBUQMetaObject@@XZ
?metaObject@QTextTable@@UEBAPEBUQMetaObject@@XZ
?metaObject@QTimeEdit@@UEBAPEBUQMetaObject@@XZ
?metaObject@QToolBar@@UEBAPEBUQMetaObject@@XZ
?metaObject@QToolBarExtension@@UEBAPEBUQMetaObject@@XZ
?metaObject@QToolBox@@UEBAPEBUQMetaObject@@XZ
?metaObject@QToolButton@@UEBAPEBUQMetaObject@@XZ
?metaObject@QTreeView@@UEBAPEBUQMetaObject@@XZ
?metaObject@QTreeWidget@@UEBAPEBUQMetaObject@@XZ
?metaObject@QUndoGroup@@UEBAPEBUQMetaObject@@XZ
?metaObject@QUndoStack@@UEBAPEBUQMetaObject@@XZ
?metaObject@QUndoView@@UEBAPEBUQMetaObject@@XZ
?metaObject@QUrlModel@@UEBAPEBUQMetaObject@@XZ
?metaObject@QVBoxLayout@@UEBAPEBUQMetaObject@@XZ
?metaObject@QValidator@@UEBAPEBUQMetaObject@@XZ
?metaObject@QWidget@@UEBAPEBUQMetaObject@@XZ
?metaObject@QWidgetAction@@UEBAPEBUQMetaObject@@XZ
?metaObject@QWidgetResizeHandler@@UEBAPEBUQMetaObject@@XZ
?metaObject@QWindowsStyle@@UEBAPEBUQMetaObject@@XZ
?metaObject@QWindowsVistaStyle@@UEBAPEBUQMetaObject@@XZ
?metaObject@QWindowsXPStyle@@UEBAPEBUQMetaObject@@XZ
?metaObject@QWizard@@UEBAPEBUQMetaObject@@XZ
?metaObject@QWizardPage@@UEBAPEBUQMetaObject@@XZ
?metaObject@QWorkspace@@UEBAPEBUQMetaObject@@XZ
?metric@QBlittablePixmapData@@UEBAHW4PaintDeviceMetric@QPaintDevice@@@Z
?metric@QImage@@MEBAHW4PaintDeviceMetric@QPaintDevice@@@Z
?metric@QPaintBuffer@@UEBAHW4PaintDeviceMetric@QPaintDevice@@@Z
?metric@QPaintDevice@@MEBAHW4PaintDeviceMetric@1@@Z
?metric@QPicture@@MEBAHW4PaintDeviceMetric@QPaintDevice@@@Z
?metric@QPixmap@@MEBAHW4PaintDeviceMetric@QPaintDevice@@@Z
?metric@QPrinter@@MEBAHW4PaintDeviceMetric@QPaintDevice@@@Z
?metric@QRasterPixmapData@@MEBAHW4PaintDeviceMetric@QPaintDevice@@@Z
?metric@QRuntimePixmapData@@UEBAHW4PaintDeviceMetric@QPaintDevice@@@Z
?metric@QWidget@@MEBAHW4PaintDeviceMetric@QPaintDevice@@@Z
?microFocusChanged@QTextControl@@IEAAXXZ
?mid@?$QList@VQItemSelectionRange@@@@QEBA?AV1@HH@Z
?mid@QPalette@@QEBAAEBVQBrush@@XZ
?midLineWidth@QFrame@@QEBAHXZ
?midPoint@QBezier@@QEBA?AVQPointF@@XZ
?midTangent@QBezier@@QEBA?AVQLineF@@XZ
?midlight@QPalette@@QEBAAEBVQBrush@@XZ
?mightBeRichText@Qt@@YA_NAEBVQString@@@Z
?mimeData@QAbstractProxyModel@@UEBAPEAVQMimeData@@AEBV?$QList@VQModelIndex@@@@@Z
?mimeData@QClipboard@@QEBAPEBVQMimeData@@W4Mode@1@@Z
?mimeData@QDirModel@@UEBAPEAVQMimeData@@AEBV?$QList@VQModelIndex@@@@@Z
?mimeData@QDrag@@QEBAPEAVQMimeData@@XZ
?mimeData@QDropEvent@@QEBAPEBVQMimeData@@XZ
?mimeData@QFileSystemModel@@UEBAPEAVQMimeData@@AEBV?$QList@VQModelIndex@@@@@Z
?mimeData@QGraphicsSceneDragDropEvent@@QEBAPEBVQMimeData@@XZ
?mimeData@QListModel@@UEBAPEAVQMimeData@@AEBV?$QList@VQModelIndex@@@@@Z
?mimeData@QListWidget@@MEBAPEAVQMimeData@@V?$QList@PEAVQListWidgetItem@@@@@Z
?mimeData@QProxyModel@@UEBAPEAVQMimeData@@AEBV?$QList@VQModelIndex@@@@@Z
?mimeData@QSortFilterProxyModel@@UEBAPEAVQMimeData@@AEBV?$QList@VQModelIndex@@@@@Z
?mimeData@QStandardItemModel@@UEBAPEAVQMimeData@@AEBV?$QList@VQModelIndex@@@@@Z
?mimeData@QTableWidget@@MEBAPEAVQMimeData@@V?$QList@PEAVQTableWidgetItem@@@@@Z
?mimeData@QTreeWidget@@MEBAPEAVQMimeData@@V?$QList@PEAVQTreeWidgetItem@@@@@Z
?mimeData@QUrlModel@@UEBAPEAVQMimeData@@AEBV?$QList@VQModelIndex@@@@@Z
?mimeTypes@QAbstractProxyModel@@UEBA?AVQStringList@@XZ
?mimeTypes@QDirModel@@UEBA?AVQStringList@@XZ
?mimeTypes@QFileSystemModel@@UEBA?AVQStringList@@XZ
?mimeTypes@QListModel@@UEBA?AVQStringList@@XZ
?mimeTypes@QListWidget@@MEBA?AVQStringList@@XZ
?mimeTypes@QProxyModel@@UEBA?AVQStringList@@XZ
?mimeTypes@QSortFilterProxyModel@@UEBA?AVQStringList@@XZ
?mimeTypes@QStandardItemModel@@UEBA?AVQStringList@@XZ
?mimeTypes@QTableWidget@@MEBA?AVQStringList@@XZ
?mimeTypes@QTreeWidget@@MEBA?AVQStringList@@XZ
?mimeTypes@QUrlModel@@UEBA?AVQStringList@@XZ
?minLeftBearing@QFontEngine@@UEBANXZ
?minLeftBearing@QFontMetrics@@QEBAHXZ
?minLeftBearing@QFontMetricsF@@QEBANXZ
?minPage@QAbstractPrintDialog@@QEBAHXZ
?minRightBearing@QFontEngine@@UEBANXZ
?minRightBearing@QFontMetrics@@QEBAHXZ
?minRightBearing@QFontMetricsF@@QEBANXZ
?minimum@QAbstractSlider@@QEBAHXZ
?minimum@QDoubleSpinBox@@QEBANXZ
?minimum@QProgressBar@@QEBAHXZ
?minimum@QProgressDialog@@QEBAHXZ
?minimum@QSpinBox@@QEBAHXZ
?minimumContentsLength@QComboBox@@QEBAHXZ
?minimumDate@QCalendarWidget@@QEBA?AVQDate@@XZ
?minimumDate@QDateTimeEdit@@QEBA?AVQDate@@XZ
?minimumDateTime@QDateTimeEdit@@QEBA?AVQDateTime@@XZ
?minimumDuration@QProgressDialog@@QEBAHXZ
?minimumHeight@QGraphicsLayoutItem@@QEBANXZ
?minimumHeight@QWidget@@QEBAHXZ
?minimumHeightForWidth@QBoxLayout@@UEBAHH@Z
?minimumHeightForWidth@QGridLayout@@UEBAHH@Z
?minimumHeightForWidth@QLayoutItem@@UEBAHH@Z
?minimumSectionSize@QHeaderView@@QEBAHXZ
?minimumSize@QBoxLayout@@UEBA?AVQSize@@XZ
?minimumSize@QDockAreaLayout@@QEBA?AVQSize@@XZ
?minimumSize@QDockAreaLayoutInfo@@QEBA?AVQSize@@XZ
?minimumSize@QDockWidgetLayout@@UEBA?AVQSize@@XZ
?minimumSize@QFormLayout@@UEBA?AVQSize@@XZ
?minimumSize@QGraphicsLayoutItem@@QEBA?AVQSizeF@@XZ
?minimumSize@QGridLayout@@UEBA?AVQSize@@XZ
?minimumSize@QLayout@@UEBA?AVQSize@@XZ
?minimumSize@QMainWindowLayout@@UEBA?AVQSize@@XZ
?minimumSize@QSpacerItem@@UEBA?AVQSize@@XZ
?minimumSize@QStackedLayout@@UEBA?AVQSize@@XZ
?minimumSize@QWidget@@QEBA?AVQSize@@XZ
?minimumSize@QWidgetItem@@UEBA?AVQSize@@XZ
?minimumSize@QWidgetItemV2@@UEBA?AVQSize@@XZ
?minimumSizeHint@QAbstractScrollArea@@UEBA?AVQSize@@XZ
?minimumSizeHint@QAbstractSpinBox@@UEBA?AVQSize@@XZ
?minimumSizeHint@QCalendarWidget@@UEBA?AVQSize@@XZ
?minimumSizeHint@QCheckBox@@UEBA?AVQSize@@XZ
?minimumSizeHint@QComboBox@@UEBA?AVQSize@@XZ
?minimumSizeHint@QCommandLinkButton@@MEBA?AVQSize@@XZ
?minimumSizeHint@QDial@@UEBA?AVQSize@@XZ
?minimumSizeHint@QDialog@@UEBA?AVQSize@@XZ
?minimumSizeHint@QGroupBox@@UEBA?AVQSize@@XZ
?minimumSizeHint@QInputDialog@@UEBA?AVQSize@@XZ
?minimumSizeHint@QLabel@@UEBA?AVQSize@@XZ
?minimumSizeHint@QLineEdit@@UEBA?AVQSize@@XZ
?minimumSizeHint@QMdiArea@@UEBA?AVQSize@@XZ
?minimumSizeHint@QMdiSubWindow@@UEBA?AVQSize@@XZ
?minimumSizeHint@QMenuBar@@UEBA?AVQSize@@XZ
?minimumSizeHint@QProgressBar@@UEBA?AVQSize@@XZ
?minimumSizeHint@QPushButton@@UEBA?AVQSize@@XZ
?minimumSizeHint@QRadioButton@@UEBA?AVQSize@@XZ
?minimumSizeHint@QSlider@@UEBA?AVQSize@@XZ
?minimumSizeHint@QSplitter@@UEBA?AVQSize@@XZ
?minimumSizeHint@QTabBar@@UEBA?AVQSize@@XZ
?minimumSizeHint@QTabWidget@@UEBA?AVQSize@@XZ
?minimumSizeHint@QToolButton@@UEBA?AVQSize@@XZ
?minimumSizeHint@QWidget@@UEBA?AVQSize@@XZ
?minimumTime@QDateTimeEdit@@QEBA?AVQTime@@XZ
?minimumTitleWidth@QDockWidgetLayout@@QEBAHXZ
?minimumWidth@QGraphicsLayoutItem@@QEBANXZ
?minimumWidth@QTextLayout@@QEBANXZ
?minimumWidth@QWidget@@QEBAHXZ
?mirrored@QImage@@QEBA?AV1@_N0@Z
?miterLimit@QPainterPathStroker@@QEBANXZ
?miterLimit@QPen@@QEBANXZ
?miterLimit@QStroker@@QEBANXZ
?mkdir@QDirModel@@QEAA?AVQModelIndex@@AEBV2@AEBVQString@@@Z
?mkdir@QFileSystemModel@@QEAA?AVQModelIndex@@AEBV2@AEBVQString@@@Z
?mnemonic@QKeySequence@@SA?AV1@AEBVQString@@@Z
?modalState@QApplicationPrivate@@SA_NXZ
?mode@QColormap@@QEBA?AW4Mode@1@XZ
?mode@QLCDNumber@@QEBA?AW4Mode@1@XZ
?model@QAbstractItemView@@QEBAPEAVQAbstractItemModel@@XZ
?model@QComboBox@@QEBAPEAVQAbstractItemModel@@XZ
?model@QCompleter@@QEBAPEAVQAbstractItemModel@@XZ
?model@QDataWidgetMapper@@QEBAPEAVQAbstractItemModel@@XZ
?model@QItemSelectionModel@@QEBAPEBVQAbstractItemModel@@XZ
?model@QItemSelectionRange@@QEBAPEBVQAbstractItemModel@@XZ
?model@QProxyModel@@QEBAPEAVQAbstractItemModel@@XZ
?model@QStandardItem@@QEBAPEAVQStandardItemModel@@XZ
?modelChanged@QComboBoxPrivate@@QEAAXXZ
?modelColumn@QComboBox@@QEBAHXZ
?modelColumn@QListView@@QEBAHXZ
?modelIndex@QTreeViewPrivate@@QEBA?AVQModelIndex@@HH@Z
?modelSorting@QCompleter@@QEBA?AW4ModelSorting@1@XZ
?modificationChanged@QPlainTextEdit@@IEAAX_N@Z
?modificationChanged@QTextControl@@IEAAX_N@Z
?modificationChanged@QTextDocument@@IEAAX_N@Z
?modifierMask@QBasicKeyEventTransition@@QEBA?AV?$QFlags@W4KeyboardModifier@Qt@@@@XZ
?modifierMask@QBasicMouseEventTransition@@QEBA?AV?$QFlags@W4KeyboardModifier@Qt@@@@XZ
?modifierMask@QKeyEventTransition@@QEBA?AV?$QFlags@W4KeyboardModifier@Qt@@@@XZ
?modifierMask@QMouseEventTransition@@QEBA?AV?$QFlags@W4KeyboardModifier@Qt@@@@XZ
?modifier_buttons@QApplicationPrivate@@2V?$QFlags@W4KeyboardModifier@Qt@@@@A
?modifiers@QGraphicsSceneContextMenuEvent@@QEBA?AV?$QFlags@W4KeyboardModifier@Qt@@@@XZ
?modifiers@QGraphicsSceneDragDropEvent@@QEBA?AV?$QFlags@W4KeyboardModifier@Qt@@@@XZ
?modifiers@QGraphicsSceneHoverEvent@@QEBA?AV?$QFlags@W4KeyboardModifier@Qt@@@@XZ
?modifiers@QGraphicsSceneMouseEvent@@QEBA?AV?$QFlags@W4KeyboardModifier@Qt@@@@XZ
?modifiers@QGraphicsSceneWheelEvent@@QEBA?AV?$QFlags@W4KeyboardModifier@Qt@@@@XZ
?modifiers@QInputEvent@@QEBA?AV?$QFlags@W4KeyboardModifier@Qt@@@@XZ
?modifiers@QKeyEvent@@QEBA?AV?$QFlags@W4KeyboardModifier@Qt@@@@XZ
?monthShown@QCalendarWidget@@QEBAHXZ
?mouseButtons@QApplication@@SA?AV?$QFlags@W4MouseButton@Qt@@@@XZ
?mouseButtons@QDropEvent@@QEBA?AV?$QFlags@W4MouseButton@Qt@@@@XZ
?mouseDoubleClickEvent@QAbstractItemView@@MEAAXPEAVQMouseEvent@@@Z
?mouseDoubleClickEvent@QAbstractScrollArea@@MEAAXPEAVQMouseEvent@@@Z
?mouseDoubleClickEvent@QColumnViewGrip@@MEAAXPEAVQMouseEvent@@@Z
?mouseDoubleClickEvent@QGraphicsItem@@MEAAXPEAVQGraphicsSceneMouseEvent@@@Z
?mouseDoubleClickEvent@QGraphicsProxyWidget@@MEAAXPEAVQGraphicsSceneMouseEvent@@@Z
?mouseDoubleClickEvent@QGraphicsScene@@MEAAXPEAVQGraphicsSceneMouseEvent@@@Z
?mouseDoubleClickEvent@QGraphicsTextItem@@MEAAXPEAVQGraphicsSceneMouseEvent@@@Z
?mouseDoubleClickEvent@QGraphicsView@@MEAAXPEAVQMouseEvent@@@Z
?mouseDoubleClickEvent@QHeaderView@@MEAAXPEAVQMouseEvent@@@Z
?mouseDoubleClickEvent@QLineEdit@@MEAAXPEAVQMouseEvent@@@Z
?mouseDoubleClickEvent@QMdiSubWindow@@MEAAXPEAVQMouseEvent@@@Z
?mouseDoubleClickEvent@QPlainTextEdit@@MEAAXPEAVQMouseEvent@@@Z
?mouseDoubleClickEvent@QTextEdit@@MEAAXPEAVQMouseEvent@@@Z
?mouseDoubleClickEvent@QTreeView@@MEAAXPEAVQMouseEvent@@@Z
?mouseDoubleClickEvent@QWidget@@MEAAXPEAVQMouseEvent@@@Z
?mouseGrabber@QWidget@@SAPEAV1@XZ
?mouseGrabberItem@QGraphicsScene@@QEBAPEAVQGraphicsItem@@XZ
?mouseHandler@QInputContext@@UEAAXHPEAVQMouseEvent@@@Z
?mouseMoveEvent@QAbstractButton@@MEAAXPEAVQMouseEvent@@@Z
?mouseMoveEvent@QAbstractItemView@@MEAAXPEAVQMouseEvent@@@Z
?mouseMoveEvent@QAbstractScrollArea@@MEAAXPEAVQMouseEvent@@@Z
?mouseMoveEvent@QAbstractSpinBox@@MEAAXPEAVQMouseEvent@@@Z
?mouseMoveEvent@QCheckBox@@MEAAXPEAVQMouseEvent@@@Z
?mouseMoveEvent@QColumnViewGrip@@MEAAXPEAVQMouseEvent@@@Z
?mouseMoveEvent@QComboBoxPrivateScroller@@MEAAXPEAVQMouseEvent@@@Z
?mouseMoveEvent@QDial@@MEAAXPEAVQMouseEvent@@@Z
?mouseMoveEvent@QGraphicsItem@@MEAAXPEAVQGraphicsSceneMouseEvent@@@Z
?mouseMoveEvent@QGraphicsProxyWidget@@MEAAXPEAVQGraphicsSceneMouseEvent@@@Z
?mouseMoveEvent@QGraphicsScene@@MEAAXPEAVQGraphicsSceneMouseEvent@@@Z
?mouseMoveEvent@QGraphicsTextItem@@MEAAXPEAVQGraphicsSceneMouseEvent@@@Z
?mouseMoveEvent@QGraphicsView@@MEAAXPEAVQMouseEvent@@@Z
?mouseMoveEvent@QGroupBox@@MEAAXPEAVQMouseEvent@@@Z
?mouseMoveEvent@QHeaderView@@MEAAXPEAVQMouseEvent@@@Z
?mouseMoveEvent@QLabel@@MEAAXPEAVQMouseEvent@@@Z
?mouseMoveEvent@QLineEdit@@MEAAXPEAVQMouseEvent@@@Z
?mouseMoveEvent@QListView@@MEAAXPEAVQMouseEvent@@@Z
?mouseMoveEvent@QMdiSubWindow@@MEAAXPEAVQMouseEvent@@@Z
?mouseMoveEvent@QMenu@@MEAAXPEAVQMouseEvent@@@Z
?mouseMoveEvent@QMenuBar@@MEAAXPEAVQMouseEvent@@@Z
?mouseMoveEvent@QPlainTextEdit@@MEAAXPEAVQMouseEvent@@@Z
?mouseMoveEvent@QRadioButton@@MEAAXPEAVQMouseEvent@@@Z
?mouseMoveEvent@QScrollBar@@MEAAXPEAVQMouseEvent@@@Z
?mouseMoveEvent@QSizeGrip@@MEAAXPEAVQMouseEvent@@@Z
?mouseMoveEvent@QSlider@@MEAAXPEAVQMouseEvent@@@Z
?mouseMoveEvent@QSplitterHandle@@MEAAXPEAVQMouseEvent@@@Z
?mouseMoveEvent@QTabBar@@MEAAXPEAVQMouseEvent@@@Z
?mouseMoveEvent@QTextBrowser@@MEAAXPEAVQMouseEvent@@@Z
?mouseMoveEvent@QTextEdit@@MEAAXPEAVQMouseEvent@@@Z
?mouseMoveEvent@QTreeView@@MEAAXPEAVQMouseEvent@@@Z
?mouseMoveEvent@QWidget@@MEAAXPEAVQMouseEvent@@@Z
?mouseMoveEvent@QWidgetResizeHandler@@IEAAXPEAVQMouseEvent@@@Z
?mouseMoveEventHandler@QGraphicsViewPrivate@@QEAAXPEAVQMouseEvent@@@Z
?mousePressEvent@QAbstractButton@@MEAAXPEAVQMouseEvent@@@Z
?mousePressEvent@QAbstractItemView@@MEAAXPEAVQMouseEvent@@@Z
?mousePressEvent@QAbstractScrollArea@@MEAAXPEAVQMouseEvent@@@Z
?mousePressEvent@QAbstractSpinBox@@MEAAXPEAVQMouseEvent@@@Z
?mousePressEvent@QBalloonTip@@MEAAXPEAVQMouseEvent@@@Z
?mousePressEvent@QCalendarWidget@@MEAAXPEAVQMouseEvent@@@Z
?mousePressEvent@QColumnViewGrip@@MEAAXPEAVQMouseEvent@@@Z
?mousePressEvent@QComboBox@@MEAAXPEAVQMouseEvent@@@Z
?mousePressEvent@QComboBoxPrivateContainer@@MEAAXPEAVQMouseEvent@@@Z
?mousePressEvent@QDateTimeEdit@@MEAAXPEAVQMouseEvent@@@Z
?mousePressEvent@QDial@@MEAAXPEAVQMouseEvent@@@Z
?mousePressEvent@QGraphicsItem@@MEAAXPEAVQGraphicsSceneMouseEvent@@@Z
?mousePressEvent@QGraphicsProxyWidget@@MEAAXPEAVQGraphicsSceneMouseEvent@@@Z
?mousePressEvent@QGraphicsScene@@MEAAXPEAVQGraphicsSceneMouseEvent@@@Z
?mousePressEvent@QGraphicsTextItem@@MEAAXPEAVQGraphicsSceneMouseEvent@@@Z
?mousePressEvent@QGraphicsView@@MEAAXPEAVQMouseEvent@@@Z
?mousePressEvent@QGroupBox@@MEAAXPEAVQMouseEvent@@@Z
?mousePressEvent@QHeaderView@@MEAAXPEAVQMouseEvent@@@Z
?mousePressEvent@QLabel@@MEAAXPEAVQMouseEvent@@@Z
?mousePressEvent@QLineEdit@@MEAAXPEAVQMouseEvent@@@Z
?mousePressEvent@QMdiSubWindow@@MEAAXPEAVQMouseEvent@@@Z
?mousePressEvent@QMenu@@MEAAXPEAVQMouseEvent@@@Z
?mousePressEvent@QMenuBar@@MEAAXPEAVQMouseEvent@@@Z
?mousePressEvent@QPlainTextEdit@@MEAAXPEAVQMouseEvent@@@Z
?mousePressEvent@QScrollBar@@MEAAXPEAVQMouseEvent@@@Z
?mousePressEvent@QSizeGrip@@MEAAXPEAVQMouseEvent@@@Z
?mousePressEvent@QSlider@@MEAAXPEAVQMouseEvent@@@Z
?mousePressEvent@QSplashScreen@@MEAAXPEAVQMouseEvent@@@Z
?mousePressEvent@QSplitterHandle@@MEAAXPEAVQMouseEvent@@@Z
?mousePressEvent@QTabBar@@MEAAXPEAVQMouseEvent@@@Z
?mousePressEvent@QTextBrowser@@MEAAXPEAVQMouseEvent@@@Z
?mousePressEvent@QTextEdit@@MEAAXPEAVQMouseEvent@@@Z
?mousePressEvent@QToolButton@@MEAAXPEAVQMouseEvent@@@Z
?mousePressEvent@QTreeView@@MEAAXPEAVQMouseEvent@@@Z
?mousePressEvent@QWidget@@MEAAXPEAVQMouseEvent@@@Z
?mousePressEventHandler@QGraphicsScenePrivate@@QEAAXPEAVQGraphicsSceneMouseEvent@@@Z
?mouseReleaseEvent@QAbstractButton@@MEAAXPEAVQMouseEvent@@@Z
?mouseReleaseEvent@QAbstractItemView@@MEAAXPEAVQMouseEvent@@@Z
?mouseReleaseEvent@QAbstractScrollArea@@MEAAXPEAVQMouseEvent@@@Z
?mouseReleaseEvent@QAbstractSpinBox@@MEAAXPEAVQMouseEvent@@@Z
?mouseReleaseEvent@QColumnViewGrip@@MEAAXPEAVQMouseEvent@@@Z
?mouseReleaseEvent@QComboBox@@MEAAXPEAVQMouseEvent@@@Z
?mouseReleaseEvent@QComboBoxPrivateContainer@@MEAAXPEAVQMouseEvent@@@Z
?mouseReleaseEvent@QDial@@MEAAXPEAVQMouseEvent@@@Z
?mouseReleaseEvent@QGraphicsItem@@MEAAXPEAVQGraphicsSceneMouseEvent@@@Z
?mouseReleaseEvent@QGraphicsProxyWidget@@MEAAXPEAVQGraphicsSceneMouseEvent@@@Z
?mouseReleaseEvent@QGraphicsScene@@MEAAXPEAVQGraphicsSceneMouseEvent@@@Z
?mouseReleaseEvent@QGraphicsTextItem@@MEAAXPEAVQGraphicsSceneMouseEvent@@@Z
?mouseReleaseEvent@QGraphicsView@@MEAAXPEAVQMouseEvent@@@Z
?mouseReleaseEvent@QGroupBox@@MEAAXPEAVQMouseEvent@@@Z
?mouseReleaseEvent@QHeaderView@@MEAAXPEAVQMouseEvent@@@Z
?mouseReleaseEvent@QLabel@@MEAAXPEAVQMouseEvent@@@Z
?mouseReleaseEvent@QLineEdit@@MEAAXPEAVQMouseEvent@@@Z
?mouseReleaseEvent@QListView@@MEAAXPEAVQMouseEvent@@@Z
?mouseReleaseEvent@QMdiSubWindow@@MEAAXPEAVQMouseEvent@@@Z
?mouseReleaseEvent@QMenu@@MEAAXPEAVQMouseEvent@@@Z
?mouseReleaseEvent@QMenuBar@@MEAAXPEAVQMouseEvent@@@Z
?mouseReleaseEvent@QPlainTextEdit@@MEAAXPEAVQMouseEvent@@@Z
?mouseReleaseEvent@QScrollBar@@MEAAXPEAVQMouseEvent@@@Z
?mouseReleaseEvent@QSizeGrip@@MEAAXPEAVQMouseEvent@@@Z
?mouseReleaseEvent@QSlider@@MEAAXPEAVQMouseEvent@@@Z
?mouseReleaseEvent@QSplitterHandle@@MEAAXPEAVQMouseEvent@@@Z
?mouseReleaseEvent@QTabBar@@MEAAXPEAVQMouseEvent@@@Z
?mouseReleaseEvent@QTextBrowser@@MEAAXPEAVQMouseEvent@@@Z
?mouseReleaseEvent@QTextEdit@@MEAAXPEAVQMouseEvent@@@Z
?mouseReleaseEvent@QToolButton@@MEAAXPEAVQMouseEvent@@@Z
?mouseReleaseEvent@QTreeView@@MEAAXPEAVQMouseEvent@@@Z
?mouseReleaseEvent@QWidget@@MEAAXPEAVQMouseEvent@@@Z
?mouse_buttons@QApplicationPrivate@@2V?$QFlags@W4MouseButton@Qt@@@@A
?mouse_double_click_time@QApplicationPrivate@@2HA
?movableAncestorIsSelected@QGraphicsItemPrivate@@SA_NPEBVQGraphicsItem@@@Z
?movableChanged@QToolBar@@IEAAX_N@Z
?move@?$QList@VQItemSelectionRange@@@@QEAAXHH@Z
?move@QListModel@@QEAAXHH@Z
?move@QRubberBand@@QEAAXAEBVQPoint@@@Z
?move@QRubberBand@@QEAAXHH@Z
?move@QTextDocumentPrivate@@QEAAXHHHW4Operation@QTextUndoCommand@@@Z
?move@QWidget@@QEAAXAEBVQPoint@@@Z
?move@QWidget@@QEAAXHH@Z
?moveBy@QGraphicsItem@@QEAAXNN@Z
?moveCursor@QColumnView@@MEAA?AVQModelIndex@@W4CursorAction@QAbstractItemView@@V?$QFlags@W4KeyboardModifier@Qt@@@@@Z
?moveCursor@QHeaderView@@MEAA?AVQModelIndex@@W4CursorAction@QAbstractItemView@@V?$QFlags@W4KeyboardModifier@Qt@@@@@Z
?moveCursor@QLineControl@@QEAAXH_N@Z
?moveCursor@QListView@@MEAA?AVQModelIndex@@W4CursorAction@QAbstractItemView@@V?$QFlags@W4KeyboardModifier@Qt@@@@@Z
?moveCursor@QPlainTextEdit@@QEAAXW4MoveOperation@QTextCursor@@W4MoveMode@3@@Z
?moveCursor@QTableView@@MEAA?AVQModelIndex@@W4CursorAction@QAbstractItemView@@V?$QFlags@W4KeyboardModifier@Qt@@@@@Z
?moveCursor@QTextControl@@QEAAXW4MoveOperation@QTextCursor@@W4MoveMode@3@@Z
?moveCursor@QTextEdit@@QEAAXW4MoveOperation@QTextCursor@@W4MoveMode@3@@Z
?moveCursor@QTreeView@@MEAA?AVQModelIndex@@W4CursorAction@QAbstractItemView@@V?$QFlags@W4KeyboardModifier@Qt@@@@@Z
?moveEvent@QGraphicsWidget@@MEAAXPEAVQGraphicsSceneMoveEvent@@@Z
?moveEvent@QMdiSubWindow@@MEAAXPEAVQMoveEvent@@@Z
?moveEvent@QRubberBand@@MEAAXPEAVQMoveEvent@@@Z
?moveEvent@QSizeGrip@@MEAAXPEAVQMoveEvent@@@Z
?moveEvent@QWidget@@MEAAXPEAVQMoveEvent@@@Z
?moveGrip@QColumnViewGrip@@QEAAHH@Z
?movePosition@QTextCursor@@QEAA_NW4MoveOperation@1@W4MoveMode@1@H@Z
?moveRect@QWidgetPrivate@@QEAAXAEBVQRect@@HH@Z
?moveSection@QHeaderView@@QEAAXHH@Z
?moveSplitter@QSplitter@@IEAAXHH@Z
?moveSplitter@QSplitterHandle@@IEAAXH@Z
?moveStaticWidgets@QWidgetBackingStore@@AEAAXPEAVQWidget@@@Z
?moveTab@QTabBar@@QEAAXHH@Z
?moveTo@QPainterPath@@QEAAXAEBVQPointF@@@Z
?moveTo@QPainterPath@@QEAAXNN@Z
?moveTo@QStrokerOps@@QEAAXNN@Z
?moveToolBar@QMainWindowLayout@@QEAAXPEAVQToolBar@@H@Z
?movement@QListView@@QEBA?AW4Movement@1@XZ
?movie@QLabel@@QEBAPEAVQMovie@@XZ
?multiSelectionCommand@QAbstractItemViewPrivate@@QEBA?AV?$QFlags@W4SelectionFlag@QItemSelectionModel@@@@AEBVQModelIndex@@PEBVQEvent@@@Z
?myComputer@QFileSystemModel@@QEBA?AVQVariant@@H@Z
?myComputer@QFileSystemModelPrivate@@SA?AVQString@@XZ
?name@QColor@@QEBA?AVQString@@XZ
?name@QFileSystemModelPrivate@@QEBA?AVQString@@AEBVQModelIndex@@@Z
?name@QIcon@@QEBA?AVQString@@XZ
?name@QImageIOHandler@@UEBA?AVQByteArray@@XZ
?name@QTextImageFormat@@QEBA?AVQString@@XZ
?nameFilterDisables@QFileSystemModel@@QEBA_NXZ
?nameFilters@QDirModel@@QEBA?AVQStringList@@XZ
?nameFilters@QFileDialog@@QEBA?AVQStringList@@XZ
?nameFilters@QFileSystemModel@@QEBA?AVQStringList@@XZ
?nameResolved@QFileInfoGatherer@@IEBAXAEBVQString@@0@Z
?namedObjects@QApplication@@SAPEAV?$QMultiHash@VQString@@PEAVQObject@@@@XZ
?nativeChildrenForced@QWidgetPrivate@@QEBA_NXZ
?nativeFrameWidth@QStyleSheetStyle@@AEAAHPEBVQWidget@@@Z
?nativeModifiers@QKeyEvent@@QEBAIXZ
?nativeParentWidget@QWidget@@QEBAPEAV1@XZ
?nativeScanCode@QKeyEvent@@QEBAIXZ
?nativeVirtualKey@QKeyEvent@@QEBAIXZ
?nativeWindowDeco@QDockWidgetLayout@@QEBA_NXZ
?nativeWindowDeco@QDockWidgetLayout@@QEBA_N_N@Z
?naturalCompare@QFileSystemModelPrivate@@SAHAEBVQString@@0W4CaseSensitivity@Qt@@@Z
?naturalTextRect@QTextLine@@QEBA?AVQRectF@@XZ
?naturalTextWidth@QLineControl@@QEBANXZ
?naturalTextWidth@QTextLine@@QEBANXZ
?naturalWidgetFont@QWidgetPrivate@@QEBA?AVQFont@@I@Z
?naturalWidgetPalette@QWidgetPrivate@@QEBA?AVQPalette@@I@Z
?navigate@QAccessibleApplication@@UEBAHW4RelationFlag@QAccessible@@HPEAPEAVQAccessibleInterface@@@Z
?navigate@QAccessibleWidget@@UEBAHW4RelationFlag@QAccessible@@HPEAPEAVQAccessibleInterface@@@Z
?navigate@QAccessibleWidgetEx@@UEBAHW4RelationFlag@QAccessible@@HPEAPEAVQAccessibleInterface@@@Z
?nearestGraphicsProxyWidget@QWidgetPrivate@@SAPEAVQGraphicsProxyWidget@@PEBVQWidget@@@Z
?newHoverControl@QComboBoxPrivate@@QEAA?AW4SubControl@QStyle@@AEBVQPoint@@@Z
?newListOfFiles@QFileInfoGatherer@@IEBAXAEBVQString@@AEBVQStringList@@@Z
?newPage@QPrinter@@QEAA_NXZ
?newPos@QGraphicsSceneMoveEvent@@QEBA?AVQPointF@@XZ
?newProxyWidget@QGraphicsProxyWidget@@IEAAPEAV1@PEBVQWidget@@@Z
?newSize@QGraphicsSceneResizeEvent@@QEBA?AVQSizeF@@XZ
?next@Parser@QCss@@QEAA?AW4TokenType@2@XZ
?next@Parser@QCss@@QEAA_NW4TokenType@2@@Z
?next@QDockAreaLayoutInfo@@QEBAHH@Z
?next@QTextBlock@@QEBA?AV1@XZ
?next@QWingedEdge@@QEBA?AUTraversalStatus@1@AEBU21@@Z
?next@QWizard@@QEAAXXZ
?nextCheckState@QAbstractButton@@MEAAXXZ
?nextCheckState@QCheckBox@@MEAAXXZ
?nextCheckState@QToolButton@@MEAAXXZ
?nextCursorPosition@QTextDocumentPrivate@@QEBAHHW4CursorMode@QTextLayout@@@Z
?nextCursorPosition@QTextLayout@@QEBAHHW4CursorMode@1@@Z
?nextFrameDelay@QMovie@@QEBAHXZ
?nextId@QWizard@@UEBAHXZ
?nextId@QWizardPage@@UEBAHXZ
?nextImageDelay@QImageIOHandler@@UEBAHXZ
?nextImageDelay@QImageReader@@QEBAHXZ
?nextInFocusChain@QWidget@@QEBAPEAV1@XZ
?nextLogicalPosition@QTextEngine@@QEBAHH@Z
?nextMaskBlank@QLineControl@@QEAAHH@Z
?nlerp@QQuaternion@@SA?AV1@AEBV1@0N@Z
?node@QFileSystemModelPrivate@@QEBAPEAVQFileSystemNode@1@AEBVQModelIndex@@@Z
?node@QFileSystemModelPrivate@@QEBAPEAVQFileSystemNode@1@AEBVQString@@_N@Z
?nodeCaseInsensitiveLessThan@QFileSystemModelPrivate@@SA_NAEBVQFileSystemNode@1@0@Z
?nodeIds@StyleSelector@QCss@@UEBA?AVQStringList@@TNodePtr@12@@Z
?nodeNameEquals@StyleSelector@QCss@@UEBA_NTNodePtr@12@AEBVQString@@@Z
?node_construct@?$QList@VQItemSelectionRange@@@@AEAAXPEAUNode@1@AEBVQItemSelectionRange@@@Z
?node_copy@?$QList@VQItemSelectionRange@@@@AEAAXPEAUNode@1@00@Z
?node_destruct@?$QList@VQItemSelectionRange@@@@AEAAXPEAUNode@1@0@Z
?node_destruct@?$QList@VQItemSelectionRange@@@@AEAAXPEAUNode@1@@Z
?nonBreakableLines@QTextBlockFormat@@QEBA_NXZ
?normal@QVector3D@@SA?AV1@AEBV1@00@Z
?normal@QVector3D@@SA?AV1@AEBV1@0@Z
?normalGeometry@QWidget@@QEBA?AVQRect@@XZ
?normalMatrix@QMatrix4x4@@QEBA?AV?$QGenericMatrix@$02$02N@@XZ
?normalVector@QBezier@@QEBA?AVQPointF@@N@Z
?normalize@QQuaternion@@QEAAXXZ
?normalize@QVector2D@@QEAAXXZ
?normalize@QVector3D@@QEAAXXZ
?normalize@QVector4D@@QEAAXXZ
?normalized@QQuaternion@@QEBA?AV1@XZ
?normalized@QVector2D@@QEBA?AV1@XZ
?normalized@QVector3D@@QEBA?AV1@XZ
?normalized@QVector4D@@QEBA?AV1@XZ
?normalizedPos@TouchPoint@QTouchEvent@@QEBA?AVQPointF@@XZ
?notation@QDoubleValidator@@QEBA?AW4Notation@1@XZ
?notchSize@QDial@@QEBAHXZ
?notchTarget@QDial@@QEBANXZ
?notchesVisible@QDial@@QEBA_NXZ
?notify@QApplication@@UEAA_NPEAVQObject@@PEAVQEvent@@@Z
?notify_helper@QApplicationPrivate@@QEAA_NPEAVQObject@@PEAVQEvent@@@Z
?numBlocks@QTextDocumentPrivate@@QEBAHXZ
?numBytes@QImage@@QEBAHXZ
?numColors@QImage@@QEBAHXZ
?numColors@QPaintDevice@@QEBAHXZ
?numColors@QPixmapData@@QEBAHXZ
?numCopies@QPrinter@@QEBAHXZ
?numDigits@QLCDNumber@@QEBAHXZ
?numFormats@QTextFormatCollection@@QEBAHXZ
?numFrames@QPaintBuffer@@QEBAHXZ
?numPages@QPrintPreviewWidget@@QEBAHXZ
?numRects@QRegion@@QEBAHXZ
?numScreens@QDesktopWidget@@QEBAHXZ
?numberOfKeyBindings@QKeySequencePrivate@@2IB
?numberPrefix@QTextListFormat@@QEBA?AVQString@@XZ
?numberSuffix@QTextListFormat@@QEBA?AVQString@@XZ
?numinstances@QStyleSheetStyle@@2HA
?obey_desktop_settings@QApplicationPrivate@@2_NA
?object@QAccessibleObject@@UEBAPEAVQObject@@XZ
?object@QAccessibleObjectEx@@UEBAPEAVQObject@@XZ
?object@QTextDocument@@QEBAPEAVQTextObject@@H@Z
?objectForFormat@QTextDocument@@QEBAPEAVQTextObject@@AEBVQTextFormat@@@Z
?objectForFormat@QTextDocumentPrivate@@QEBAPEAVQTextObject@@AEBVQTextFormat@@@Z
?objectForFormat@QTextDocumentPrivate@@QEBAPEAVQTextObject@@H@Z
?objectForIndex@QTextDocumentPrivate@@QEBAPEAVQTextObject@@H@Z
?objectFormat@QTextFormatCollection@@QEBA?AVQTextFormat@@H@Z
?objectFormatIndex@QTextFormatCollection@@QEBAHH@Z
?objectIndex@QTextFormat@@QEBAHXZ
?objectIndex@QTextObject@@QEBAHXZ
?objectType@QTextFormat@@QEBAHXZ
?offset@QAbstractItemViewPrivate@@QEBA?AVQPoint@@XZ
?offset@QGraphicsDropShadowEffect@@QEBA?AVQPointF@@XZ
?offset@QGraphicsPixmapItem@@QEBA?AVQPointF@@XZ
?offset@QHeaderView@@QEBAHXZ
?offset@QImage@@QEBA?AVQPoint@@XZ
?offset@QPanGesture@@QEBA?AVQPointF@@XZ
?offset@QPixmapDropShadowFilter@@QEBA?AVQPointF@@XZ
?offset@QWindowSurface@@UEBA?AVQPoint@@PEBVQWidget@@@Z
?offsetChanged@QGraphicsDropShadowEffect@@IEAAXAEBVQPointF@@@Z
?offsetInLigature@QTextEngine@@QEAA?AUQFixed@@PEBUQScriptItem@@HHH@Z
?okButtonText@QInputDialog@@QEBA?AVQString@@XZ
?oldPos@QGraphicsSceneMoveEvent@@QEBA?AVQPointF@@XZ
?oldPos@QHoverEvent@@QEBAAEBVQPoint@@XZ
?oldPos@QMoveEvent@@QEBAAEBVQPoint@@XZ
?oldSize@QGraphicsSceneResizeEvent@@QEBA?AVQSizeF@@XZ
?oldSize@QResizeEvent@@QEBAAEBVQSize@@XZ
?oldState@QWindowStateChangeEvent@@QEBA?AV?$QFlags@W4WindowState@Qt@@@@XZ
?onTransition@QBasicKeyEventTransition@@MEAAXPEAVQEvent@@@Z
?onTransition@QBasicMouseEventTransition@@MEAAXPEAVQEvent@@@Z
?onTransition@QKeyEventTransition@@MEAAXPEAVQEvent@@@Z
?onTransition@QMouseEventTransition@@MEAAXPEAVQEvent@@@Z
?opacity@QGraphicsItem@@QEBANXZ
?opacity@QGraphicsOpacityEffect@@QEBANXZ
?opacity@QPaintEngineState@@QEBANXZ
?opacity@QPainter@@QEBANXZ
?opacityChanged@QBlitterPaintEngine@@UEAAXXZ
?opacityChanged@QGraphicsObject@@IEAAXXZ
?opacityChanged@QGraphicsOpacityEffect@@IEAAXN@Z
?opacityMask@QGraphicsOpacityEffect@@QEBA?AVQBrush@@XZ
?opacityMaskChanged@QGraphicsOpacityEffect@@IEAAXAEBVQBrush@@@Z
?opaqueArea@QAbstractGraphicsShapeItem@@UEBA?AVQPainterPath@@XZ
?opaqueArea@QGraphicsEllipseItem@@UEBA?AVQPainterPath@@XZ
?opaqueArea@QGraphicsItem@@UEBA?AVQPainterPath@@XZ
?opaqueArea@QGraphicsItemGroup@@UEBA?AVQPainterPath@@XZ
?opaqueArea@QGraphicsLineItem@@UEBA?AVQPainterPath@@XZ
?opaqueArea@QGraphicsPathItem@@UEBA?AVQPainterPath@@XZ
?opaqueArea@QGraphicsPixmapItem@@UEBA?AVQPainterPath@@XZ
?opaqueArea@QGraphicsPolygonItem@@UEBA?AVQPainterPath@@XZ
?opaqueArea@QGraphicsRectItem@@UEBA?AVQPainterPath@@XZ
?opaqueArea@QGraphicsSimpleTextItem@@UEBA?AVQPainterPath@@XZ
?opaqueArea@QGraphicsTextItem@@UEBA?AVQPainterPath@@XZ
?opaqueResize@QSplitter@@QEBA_NXZ
?opaqueResize@QSplitterHandle@@QEBA_NXZ
?open@QColorDialog@@QEAAXPEAVQObject@@PEBD@Z
?open@QDialog@@QEAAXXZ
?open@QFileDialog@@QEAAXPEAVQObject@@PEBD@Z
?open@QFontDialog@@QEAAXPEAVQObject@@PEBD@Z
?open@QInputDialog@@QEAAXPEAVQObject@@PEBD@Z
?open@QMessageBox@@QEAAXPEAVQObject@@PEBD@Z
?open@QPageSetupDialog@@QEAAXPEAVQObject@@PEBD@Z
?open@QPrintDialog@@QEAAXPEAVQObject@@PEBD@Z
?open@QPrintPreviewDialog@@QEAAXPEAVQObject@@PEBD@Z
?open@QProgressDialog@@QEAAXPEAVQObject@@PEBD@Z
?openEditor@QAbstractItemViewPrivate@@QEAA_NAEBVQModelIndex@@PEAVQEvent@@@Z
?openExternalLinks@QGraphicsTextItem@@QEBA_NXZ
?openExternalLinks@QLabel@@QEBA_NXZ
?openExternalLinks@QTextBrowser@@QEBA_NXZ
?openExternalLinks@QTextControl@@QEBA_NXZ
?openFile@QFileOpenEvent@@QEBA_NAEAVQFile@@V?$QFlags@W4OpenModeFlag@QIODevice@@@@@Z
?openLinks@QTextBrowser@@QEBA_NXZ
?openPersistentEditor@QAbstractItemView@@QEAAXAEBVQModelIndex@@@Z
?openPersistentEditor@QListWidget@@QEAAXPEAVQListWidgetItem@@@Z
?openPersistentEditor@QTableWidget@@QEAAXPEAVQTableWidgetItem@@@Z
?openPersistentEditor@QTreeWidget@@QEAAXPEAVQTreeWidgetItem@@H@Z
?openPopup@QApplicationPrivate@@QEAAXPEAVQWidget@@@Z
?openUrl@QDesktopServices@@SA_NAEBVQUrl@@@Z
?oppositeEdge@QGraphicsAnchorLayoutPrivate@@SA?AW4AnchorPoint@Qt@@W423@@Z
?optimizationFlags@QGraphicsView@@QEBA?AV?$QFlags@W4OptimizationFlag@QGraphicsView@@@@XZ
?optimize@QMatrix4x4@@QEAAXXZ
?option@QImageIOHandler@@UEBA?AVQVariant@@W4ImageOption@1@@Z
?options@QColorDialog@@QEBA?AV?$QFlags@W4ColorDialogOption@QColorDialog@@@@XZ
?options@QFileDialog@@QEBA?AV?$QFlags@W4Option@QFileDialog@@@@XZ
?options@QFontDialog@@QEBA?AV?$QFlags@W4FontDialogOption@QFontDialog@@@@XZ
?options@QInputDialog@@QEBA?AV?$QFlags@W4InputDialogOption@QInputDialog@@@@XZ
?options@QPageSetupDialog@@QEBA?AV?$QFlags@W4PageSetupDialogOption@QPageSetupDialog@@@@XZ
?options@QPrintDialog@@QEBA?AV?$QFlags@W4PrintDialogOption@QAbstractPrintDialog@@@@XZ
?options@QWizard@@QEBA?AV?$QFlags@W4WizardOption@QWizard@@@@XZ
?orientation@QAbstractSlider@@QEBA?AW4Orientation@Qt@@XZ
?orientation@QDataWidgetMapper@@QEBA?AW4Orientation@Qt@@XZ
?orientation@QDialog@@QEBA?AW4Orientation@Qt@@XZ
?orientation@QDialogButtonBox@@QEBA?AW4Orientation@Qt@@XZ
?orientation@QGraphicsLinearLayout@@QEBA?AW4Orientation@Qt@@XZ
?orientation@QGraphicsSceneWheelEvent@@QEBA?AW4Orientation@Qt@@XZ
?orientation@QHeaderView@@QEBA?AW4Orientation@Qt@@XZ
?orientation@QPrintPreviewWidget@@QEBA?AW4Orientation@QPrinter@@XZ
?orientation@QPrinter@@QEBA?AW4Orientation@1@XZ
?orientation@QProgressBar@@QEBA?AW4Orientation@Qt@@XZ
?orientation@QSplitter@@QEBA?AW4Orientation@Qt@@XZ
?orientation@QSplitterHandle@@QEBA?AW4Orientation@Qt@@XZ
?orientation@QToolBar@@QEBA?AW4Orientation@Qt@@XZ
?orientation@QWheelEvent@@QEBA?AW4Orientation@Qt@@XZ
?orientationChanged@QToolBar@@IEAAXW4Orientation@Qt@@@Z
?origin@QGraphicsRotation@@QEBA?AVQVector3D@@XZ
?origin@QGraphicsScale@@QEBA?AVQVector3D@@XZ
?originChanged@QGraphicsRotation@@IEAAXXZ
?originChanged@QGraphicsScale@@IEAAXXZ
?originCorner@QGridLayout@@QEBA?AW4Corner@Qt@@XZ
?originValue@Declaration@QCss@@QEBA?AW4Origin@2@XZ
?ortho@QMatrix4x4@@QEAAXAEBVQRect@@@Z
?ortho@QMatrix4x4@@QEAAXAEBVQRectF@@@Z
?ortho@QMatrix4x4@@QEAAXNNNNNN@Z
?orthonormalInverse@QMatrix4x4@@AEBA?AV1@XZ
?outputFileName@QPrinter@@QEBA?AVQString@@XZ
?outputFormat@QPrinter@@QEBA?AW4OutputFormat@1@XZ
?outputFormatList@QPicture@@SA?AVQStringList@@XZ
?outputFormats@QPicture@@SA?AV?$QList@VQByteArray@@@@XZ
?outputFormats@QPictureIO@@SA?AV?$QList@VQByteArray@@@@XZ
?overflow@QLCDNumber@@IEAAXXZ
?overline@QFont@@QEBA_NXZ
?overline@QFontInfo@@QEBA_NXZ
?overline@QGlyphRun@@QEBA_NXZ
?overlinePos@QFontMetrics@@QEBAHXZ
?overlinePos@QFontMetricsF@@QEBANXZ
?overrideCursor@QApplication@@SAPEAVQCursor@@XZ
?overrideWindowFlags@QWidget@@QEAAXV?$QFlags@W4WindowType@Qt@@@@@Z
?overrideWindowState@QWidget@@QEAAXV?$QFlags@W4WindowState@Qt@@@@@Z
?overwriteMode@QPlainTextEdit@@QEBA_NXZ
?overwriteMode@QTextControl@@QEBA_NXZ
?overwriteMode@QTextEdit@@QEBA_NXZ
?ownedByLayout@QGraphicsLayoutItem@@QEBA_NXZ
?ownerDestroyed@QClipboard@@AEAAXXZ
?ownsClipboard@QClipboard@@QEBA_NXZ
?ownsFindBuffer@QClipboard@@QEBA_NXZ
?ownsMode@QClipboard@@AEBA_NW4Mode@1@@Z
?ownsSelection@QClipboard@@QEBA_NXZ
?padding@QTextFrameFormat@@QEBANXZ
?page@QWizard@@QEBAPEAVQWizardPage@@H@Z
?pageAdded@QWizard@@IEAAXH@Z
?pageBreakPolicy@QTextBlockFormat@@QEBA?AV?$QFlags@W4PageBreakFlag@QTextFormat@@@@XZ
?pageBreakPolicy@QTextFrameFormat@@QEBA?AV?$QFlags@W4PageBreakFlag@QTextFormat@@@@XZ
?pageCount@QPlainTextDocumentLayout@@UEBAHXZ
?pageCount@QPrintPreviewWidget@@QEBAHXZ
?pageCount@QTextDocument@@QEBAHXZ
?pageCount@QTextDocumentLayout@@UEBAHXZ
?pageCountChanged@QAbstractTextDocumentLayout@@IEAAXH@Z
?pageDown@QTreeViewPrivate@@QEBAHH@Z
?pageIds@QWizard@@QEBA?AV?$QList@H@@XZ
?pageOrder@QPrinter@@QEBA?AW4PageOrder@1@XZ
?pageRect@QPrinter@@QEBA?AVQRect@@XZ
?pageRect@QPrinter@@QEBA?AVQRectF@@W4Unit@1@@Z
?pageRemoved@QWizard@@IEAAXH@Z
?pageSize@QPrinter@@QEBA?AW4PageSize@1@XZ
?pageSize@QTextDocument@@QEBA?AVQSizeF@@XZ
?pageStep@QAbstractSlider@@QEBAHXZ
?pageUp@QTreeViewPrivate@@QEBAHH@Z
?paint@QGraphicsEllipseItem@@UEAAXPEAVQPainter@@PEBVQStyleOptionGraphicsItem@@PEAVQWidget@@@Z
?paint@QGraphicsItemGroup@@UEAAXPEAVQPainter@@PEBVQStyleOptionGraphicsItem@@PEAVQWidget@@@Z
?paint@QGraphicsLineItem@@UEAAXPEAVQPainter@@PEBVQStyleOptionGraphicsItem@@PEAVQWidget@@@Z
?paint@QGraphicsPathItem@@UEAAXPEAVQPainter@@PEBVQStyleOptionGraphicsItem@@PEAVQWidget@@@Z
?paint@QGraphicsPixmapItem@@UEAAXPEAVQPainter@@PEBVQStyleOptionGraphicsItem@@PEAVQWidget@@@Z
?paint@QGraphicsPolygonItem@@UEAAXPEAVQPainter@@PEBVQStyleOptionGraphicsItem@@PEAVQWidget@@@Z
?paint@QGraphicsProxyWidget@@UEAAXPEAVQPainter@@PEBVQStyleOptionGraphicsItem@@PEAVQWidget@@@Z
?paint@QGraphicsRectItem@@UEAAXPEAVQPainter@@PEBVQStyleOptionGraphicsItem@@PEAVQWidget@@@Z
?paint@QGraphicsSimpleTextItem@@UEAAXPEAVQPainter@@PEBVQStyleOptionGraphicsItem@@PEAVQWidget@@@Z
?paint@QGraphicsTextItem@@UEAAXPEAVQPainter@@PEBVQStyleOptionGraphicsItem@@PEAVQWidget@@@Z
?paint@QGraphicsWidget@@UEAAXPEAVQPainter@@PEBVQStyleOptionGraphicsItem@@PEAVQWidget@@@Z
?paint@QIcon@@QEBAXPEAVQPainter@@AEBVQRect@@V?$QFlags@W4AlignmentFlag@Qt@@@@W4Mode@1@W4State@1@@Z
?paint@QIcon@@QEBAXPEAVQPainter@@HHHHV?$QFlags@W4AlignmentFlag@Qt@@@@W4Mode@1@W4State@1@@Z
?paint@QItemDelegate@@UEBAXPEAVQPainter@@AEBVQStyleOptionViewItem@@AEBVQModelIndex@@@Z
?paint@QStyledItemDelegate@@UEBAXPEAVQPainter@@AEBVQStyleOptionViewItem@@AEBVQModelIndex@@@Z
?paintAlternatingRowColors@QTreeViewPrivate@@QEBAXPEAVQPainter@@PEAVQStyleOptionViewItemV4@@HH@Z
?paintBackground@QWidgetPrivate@@QEBAXPEAVQPainter@@AEBVQRegion@@H@Z
?paintCell@QCalendarWidget@@MEBAXPEAVQPainter@@AEBVQRect@@AEBVQDate@@@Z
?paintDevice@QAbstractTextDocumentLayout@@QEBAPEAVQPaintDevice@@XZ
?paintDevice@QPaintEngine@@QEBAPEAVQPaintDevice@@XZ
?paintDevice@QRasterWindowSurface@@UEAAPEAVQPaintDevice@@XZ
?paintDropIndicator@QAbstractItemViewPrivate@@QEAAXPEAVQPainter@@@Z
?paintEngine@QBlittablePixmapData@@UEBAPEAVQPaintEngine@@XZ
?paintEngine@QImage@@UEBAPEAVQPaintEngine@@XZ
?paintEngine@QPaintBuffer@@UEBAPEAVQPaintEngine@@XZ
?paintEngine@QPainter@@QEBAPEAVQPaintEngine@@XZ
?paintEngine@QPicture@@UEBAPEAVQPaintEngine@@XZ
?paintEngine@QPixmap@@UEBAPEAVQPaintEngine@@XZ
?paintEngine@QPrinter@@UEBAPEAVQPaintEngine@@XZ
?paintEngine@QRasterPixmapData@@UEBAPEAVQPaintEngine@@XZ
?paintEngine@QRuntimePixmapData@@UEBAPEAVQPaintEngine@@XZ
?paintEngine@QVolatileImage@@QEAAPEAVQPaintEngine@@XZ
?paintEngine@QWidget@@UEBAPEAVQPaintEngine@@XZ
?paintEvent@QAbstractScrollArea@@MEAAXPEAVQPaintEvent@@@Z
?paintEvent@QAbstractSpinBox@@MEAAXPEAVQPaintEvent@@@Z
?paintEvent@QBalloonTip@@MEAAXPEAVQPaintEvent@@@Z
?paintEvent@QCheckBox@@MEAAXPEAVQPaintEvent@@@Z
?paintEvent@QColumnViewGrip@@MEAAXPEAVQPaintEvent@@@Z
?paintEvent@QComboBox@@MEAAXPEAVQPaintEvent@@@Z
?paintEvent@QComboBoxPrivateScroller@@MEAAXPEAVQPaintEvent@@@Z
?paintEvent@QCommandLinkButton@@MEAAXPEAVQPaintEvent@@@Z
?paintEvent@QDateTimeEdit@@MEAAXPEAVQPaintEvent@@@Z
?paintEvent@QDial@@MEAAXPEAVQPaintEvent@@@Z
?paintEvent@QDockWidget@@MEAAXPEAVQPaintEvent@@@Z
?paintEvent@QFocusFrame@@MEAAXPEAVQPaintEvent@@@Z
?paintEvent@QFrame@@MEAAXPEAVQPaintEvent@@@Z
?paintEvent@QGraphicsView@@MEAAXPEAVQPaintEvent@@@Z
?paintEvent@QGroupBox@@MEAAXPEAVQPaintEvent@@@Z
?paintEvent@QHeaderView@@MEAAXPEAVQPaintEvent@@@Z
?paintEvent@QLCDNumber@@MEAAXPEAVQPaintEvent@@@Z
?paintEvent@QLabel@@MEAAXPEAVQPaintEvent@@@Z
?paintEvent@QLineEdit@@MEAAXPEAVQPaintEvent@@@Z
?paintEvent@QListView@@MEAAXPEAVQPaintEvent@@@Z
?paintEvent@QMdiArea@@MEAAXPEAVQPaintEvent@@@Z
?paintEvent@QMdiSubWindow@@MEAAXPEAVQPaintEvent@@@Z
?paintEvent@QMenu@@MEAAXPEAVQPaintEvent@@@Z
?paintEvent@QMenuBar@@MEAAXPEAVQPaintEvent@@@Z
?paintEvent@QPlainTextEdit@@MEAAXPEAVQPaintEvent@@@Z
?paintEvent@QProgressBar@@MEAAXPEAVQPaintEvent@@@Z
?paintEvent@QPushButton@@MEAAXPEAVQPaintEvent@@@Z
?paintEvent@QRadioButton@@MEAAXPEAVQPaintEvent@@@Z
?paintEvent@QRubberBand@@MEAAXPEAVQPaintEvent@@@Z
?paintEvent@QScrollBar@@MEAAXPEAVQPaintEvent@@@Z
?paintEvent@QSizeGrip@@MEAAXPEAVQPaintEvent@@@Z
?paintEvent@QSlider@@MEAAXPEAVQPaintEvent@@@Z
?paintEvent@QSplitterHandle@@MEAAXPEAVQPaintEvent@@@Z
?paintEvent@QStatusBar@@MEAAXPEAVQPaintEvent@@@Z
?paintEvent@QTabBar@@MEAAXPEAVQPaintEvent@@@Z
?paintEvent@QTabWidget@@MEAAXPEAVQPaintEvent@@@Z
?paintEvent@QTableView@@MEAAXPEAVQPaintEvent@@@Z
?paintEvent@QTextBrowser@@MEAAXPEAVQPaintEvent@@@Z
?paintEvent@QTextEdit@@MEAAXPEAVQPaintEvent@@@Z
?paintEvent@QToolBar@@MEAAXPEAVQPaintEvent@@@Z
?paintEvent@QToolBarExtension@@UEAAXPEAVQPaintEvent@@@Z
?paintEvent@QToolButton@@MEAAXPEAVQPaintEvent@@@Z
?paintEvent@QTreeView@@MEAAXPEAVQPaintEvent@@@Z
?paintEvent@QWidget@@MEAAXPEAVQPaintEvent@@@Z
?paintEvent@QWizard@@MEAAXPEAVQPaintEvent@@@Z
?paintEvent@QWorkspace@@MEAAXPEAVQPaintEvent@@@Z
?paintOnScreen@QWidgetPrivate@@QEBA_NXZ
?paintRequested@QPrintPreviewDialog@@IEAAXPEAVQPrinter@@@Z
?paintRequested@QPrintPreviewWidget@@IEAAXPEAVQPrinter@@@Z
?paintSection@QHeaderView@@MEBAXPEAVQPainter@@AEBVQRect@@H@Z
?paintSeparators@QDockAreaLayout@@QEBAXPEAVQPainter@@PEAVQWidget@@AEBVQRegion@@AEBVQPoint@@@Z
?paintSeparators@QDockAreaLayoutInfo@@QEBAXPEAVQPainter@@PEAVQWidget@@AEBVQRegion@@AEBVQPoint@@@Z
?paintSiblingsRecursive@QWidgetPrivate@@QEAAXPEAVQPaintDevice@@AEBV?$QList@PEAVQObject@@@@HAEBVQRegion@@AEBVQPoint@@HPEAVQPainter@@PEAVQWidgetBackingStore@@@Z
?paintText@QStaticTextPrivate@@QEAAXAEBVQPointF@@PEAVQPainter@@@Z
?paintWindowFrame@QGraphicsWidget@@UEAAXPEAVQPainter@@PEBVQStyleOptionGraphicsItem@@PEAVQWidget@@@Z
?painter@QPaintEngine@@QEBAPEAVQPainter@@XZ
?painter@QPaintEngineState@@QEBAPEAVQPainter@@XZ
?paintingActive@QPaintDevice@@QEBA_NXZ
?paintingActive@QVolatileImage@@QEBA_NXZ
?palette@QApplication@@SA?AVQPalette@@PEBD@Z
?palette@QApplication@@SA?AVQPalette@@PEBVQWidget@@@Z
?palette@QApplication@@SA?AVQPalette@@XZ
?palette@QGraphicsScene@@QEBA?AVQPalette@@XZ
?palette@QGraphicsWidget@@QEBA?AVQPalette@@XZ
?palette@QGuiPlatformPlugin@@UEAA?AVQPalette@@XZ
?palette@QLineControl@@QEBAAEBVQPalette@@XZ
?palette@QTextControl@@QEBA?AVQPalette@@XZ
?palette@QToolTip@@SA?AVQPalette@@XZ
?palette@QWidget@@QEBAAEBVQPalette@@XZ
?paletteChange@QWidget@@MEAAXAEBVQPalette@@@Z
?panel@QGraphicsItem@@QEBAPEAV1@XZ
?panelModality@QGraphicsItem@@QEBA?AW4PanelModality@1@XZ
?paperRect@QPrinter@@QEBA?AVQRect@@XZ
?paperRect@QPrinter@@QEBA?AVQRectF@@W4Unit@1@@Z
?paperSize@QPrinter@@QEBA?AVQSizeF@@W4Unit@1@@Z
?paperSize@QPrinter@@QEBA?AW4PageSize@1@XZ
?paperSource@QPrinter@@QEBA?AW4PaperSource@1@XZ
?parameterSplitLeft@QBezier@@QEAAXNPEAV1@@Z
?parameters@QPictureIO@@QEBAPEBDXZ
?parent@QDirModel@@UEBA?AVQModelIndex@@AEBV2@@Z
?parent@QFileSystemModel@@UEBA?AVQModelIndex@@AEBV2@@Z
?parent@QIdentityProxyModel@@UEBA?AVQModelIndex@@AEBV2@@Z
?parent@QItemSelectionRange@@QEBA?AVQModelIndex@@XZ
?parent@QProxyModel@@UEBA?AVQModelIndex@@AEBV2@@Z
?parent@QSortFilterProxyModel@@UEBA?AVQModelIndex@@AEBV2@@Z
?parent@QStandardItem@@QEBAPEAV1@XZ
?parent@QStandardItemModel@@UEBA?AVQModelIndex@@AEBV2@@Z
?parent@QTreeWidgetItem@@QEBAPEAV1@XZ
?parentChanged@QGraphicsObject@@IEAAXXZ
?parentFrame@QTextFrame@@QEBAPEAV1@XZ
?parentFrame@iterator@QTextFrame@@QEBAPEAV2@XZ
?parentItem@QGraphicsItem@@QEBAPEAV1@XZ
?parentItem@QGraphicsLayoutItemPrivate@@QEBAPEAVQGraphicsItem@@XZ
?parentLayoutItem@QGraphicsLayoutItem@@QEBAPEAV1@XZ
?parentObject@QAccessibleWidget@@IEBAPEAVQObject@@XZ
?parentObject@QAccessibleWidgetEx@@IEBAPEAVQObject@@XZ
?parentObject@QGraphicsItem@@QEBAPEAVQGraphicsObject@@XZ
?parentWidget@QAction@@QEBAPEAVQWidget@@XZ
?parentWidget@QGraphicsItem@@QEBAPEAVQGraphicsWidget@@XZ
?parentWidget@QLayout@@QEBAPEAVQWidget@@XZ
?parentWidget@QShortcut@@QEBAPEAVQWidget@@XZ
?parentWidget@QWidget@@QEBAPEAV1@XZ
?parse@Parser@QCss@@QEAA_NPEAUStyleSheet@2@W4CaseSensitivity@Qt@@@Z
?parseAttrib@Parser@QCss@@QEAA_NPEAUAttributeSelector@2@@Z
?parseClass@Parser@QCss@@QEAA_NPEAVQString@@@Z
?parseCombinator@Parser@QCss@@QEAA_NPEAW4Relation@BasicSelector@2@@Z
?parseElementName@Parser@QCss@@QEAA_NPEAVQString@@@Z
?parseExpr@Parser@QCss@@QEAA_NPEAV?$QVector@UValue@QCss@@@@@Z
?parseFontName@QFontDatabase@@CAXAEBVQString@@AEAV2@1@Z
?parseFunction@Parser@QCss@@QEAA_NPEAVQString@@0@Z
?parseHexColor@Parser@QCss@@QEAA_NPEAVQColor@@@Z
?parseImport@Parser@QCss@@QEAA_NPEAUImportRule@2@@Z
?parseInputMask@QLineControl@@AEAAXAEBVQString@@@Z
?parseMedia@Parser@QCss@@QEAA_NPEAUMediaRule@2@@Z
?parseMedium@Parser@QCss@@QEAA_NPEAVQStringList@@@Z
?parseNextDeclaration@Parser@QCss@@QEAA_NPEAUDeclaration@2@@Z
?parseNextExpr@Parser@QCss@@QEAA_NPEAV?$QVector@UValue@QCss@@@@@Z
?parseNextFunction@Parser@QCss@@QEAA_NPEAVQString@@0@Z
?parseNextMedium@Parser@QCss@@QEAA_NPEAVQStringList@@@Z
?parseNextOperator@Parser@QCss@@QEAA_NPEAUValue@2@@Z
?parseNextSelector@Parser@QCss@@QEAA_NPEAUSelector@2@@Z
?parseNextSimpleSelector@Parser@QCss@@QEAA_NPEAUBasicSelector@2@@Z
?parsePage@Parser@QCss@@QEAA_NPEAUPageRule@2@@Z
?parsePrio@Parser@QCss@@QEAA_NPEAUDeclaration@2@@Z
?parseProperty@Parser@QCss@@QEAA_NPEAUDeclaration@2@@Z
?parsePseudo@Parser@QCss@@QEAA_NPEAUPseudo@2@@Z
?parsePseudoPage@Parser@QCss@@QEAA_NPEAVQString@@@Z
?parseRuleset@Parser@QCss@@QEAA_NPEAUStyleRule@2@@Z
?parseSelector@Parser@QCss@@QEAA_NPEAUSelector@2@@Z
?parseSimpleSelector@Parser@QCss@@QEAA_NPEAUBasicSelector@2@@Z
?parseTerm@Parser@QCss@@QEAA_NPEAUValue@2@@Z
?passNameFilters@QFileSystemModelPrivate@@QEBA_NPEBVQFileSystemNode@1@@Z
?passwordCharacter@QLineControl@@QEBA?AVQChar@@XZ
?passwordEchoEditing@QLineControl@@QEBA_NXZ
?paste@QLineControl@@QEAAXW4Mode@QClipboard@@@Z
?paste@QLineEdit@@QEAAXXZ
?paste@QPlainTextEdit@@QEAAXXZ
?paste@QTextControl@@QEAAXW4Mode@QClipboard@@@Z
?paste@QTextEdit@@QEAAXXZ
?pasteText@QAccessibleSimpleEditableTextInterface@@UEAAXH@Z
?path@QGraphicsPathItem@@QEBA?AVQPainterPath@@XZ
?pathForGlyph@QRawFont@@QEBA?AVQPainterPath@@I@Z
?pathFromIndex@QCompleter@@UEBA?AVQString@@AEBVQModelIndex@@@Z
?pathToRect@QPathClipper@@SA_NAEBVQPainterPath@@PEAVQRectF@@@Z
?patternForStyle@QDashStroker@@SA?AV?$QVector@N@@W4PenStyle@Qt@@@Z
?pen@QAbstractGraphicsShapeItem@@QEBA?AVQPen@@XZ
?pen@QGraphicsLineItem@@QEBA?AVQPen@@XZ
?pen@QPaintEngineState@@QEBA?AVQPen@@XZ
?pen@QPainter@@QEBAAEBVQPen@@XZ
?penChanged@QBlitterPaintEngine@@UEAAXXZ
?penNeedsResolving@QPaintEngineState@@QEBA_NXZ
?penProperty@QTextFormat@@QEBA?AVQPen@@H@Z
?percentAtLength@QPainterPath@@QEBANN@Z
?performanceHint@QStaticText@@QEBA?AW4PerformanceHint@1@XZ
?permissions@QFileSystemModel@@QEBA?AV?$QFlags@W4Permission@QFile@@@@AEBVQModelIndex@@@Z
?perspective@QMatrix4x4@@QEAAXNNNN@Z
?physicalDpiX@QPaintDevice@@QEBAHXZ
?physicalDpiY@QPaintDevice@@QEBAHXZ
?pickEdge@QGraphicsAnchorLayoutPrivate@@SA?AW4AnchorPoint@Qt@@W423@W4Orientation@1@@Z
?pickMouseReceiver@QApplicationPrivate@@SAPEAVQWidget@@PEAV2@AEBVQPoint@@AEAV3@W4Type@QEvent@@V?$QFlags@W4MouseButton@Qt@@@@00@Z
?picture@QLabel@@QEBAPEBVQPicture@@XZ
?picture@QPictureIO@@QEBAAEBVQPicture@@XZ
?pictureFormat@QPicture@@SAPEBDAEBVQString@@@Z
?pictureFormat@QPictureIO@@SA?AVQByteArray@@AEBVQString@@@Z
?pictureFormat@QPictureIO@@SA?AVQByteArray@@PEAVQIODevice@@@Z
?pixel@QColormap@@QEBAIAEBVQColor@@@Z
?pixel@QImage@@QEBAIAEBVQPoint@@@Z
?pixel@QImage@@QEBAIHH@Z
?pixelIndex@QImage@@QEBAHAEBVQPoint@@@Z
?pixelIndex@QImage@@QEBAHHH@Z
?pixelMetric@QCDEStyle@@UEBAHW4PixelMetric@QStyle@@PEBVQStyleOption@@PEBVQWidget@@@Z
?pixelMetric@QCleanlooksStyle@@UEBAHW4PixelMetric@QStyle@@PEBVQStyleOption@@PEBVQWidget@@@Z
?pixelMetric@QCommonStyle@@UEBAHW4PixelMetric@QStyle@@PEBVQStyleOption@@PEBVQWidget@@@Z
?pixelMetric@QMotifStyle@@UEBAHW4PixelMetric@QStyle@@PEBVQStyleOption@@PEBVQWidget@@@Z
?pixelMetric@QPlastiqueStyle@@UEBAHW4PixelMetric@QStyle@@PEBVQStyleOption@@PEBVQWidget@@@Z
?pixelMetric@QProxyStyle@@UEBAHW4PixelMetric@QStyle@@PEBVQStyleOption@@PEBVQWidget@@@Z
?pixelMetric@QStyleSheetStyle@@UEBAHW4PixelMetric@QStyle@@PEBVQStyleOption@@PEBVQWidget@@@Z
?pixelMetric@QWindowsStyle@@UEBAHW4PixelMetric@QStyle@@PEBVQStyleOption@@PEBVQWidget@@@Z
?pixelMetric@QWindowsVistaStyle@@UEBAHW4PixelMetric@QStyle@@PEBVQStyleOption@@PEBVQWidget@@@Z
?pixelMetric@QWindowsXPStyle@@UEBAHW4PixelMetric@QStyle@@PEBVQStyleOption@@PEBVQWidget@@@Z
?pixelSize@QFont@@QEBAHXZ
?pixelSize@QFontInfo@@QEBAHXZ
?pixelSize@QRawFont@@QEBANXZ
?pixelType@QPixmapData@@QEBA?AW4PixelType@1@XZ
?pixmap@QClipboard@@QEBA?AVQPixmap@@W4Mode@1@@Z
?pixmap@QCursor@@QEBA?AVQPixmap@@XZ
?pixmap@QDrag@@QEBA?AVQPixmap@@XZ
?pixmap@QGraphicsEffectSource@@QEBA?AVQPixmap@@W4CoordinateSystem@Qt@@PEAVQPoint@@W4PixmapPadMode@QGraphicsEffect@@@Z
?pixmap@QGraphicsPixmapItem@@QEBA?AVQPixmap@@XZ
?pixmap@QIcon@@QEBA?AVQPixmap@@AEBVQSize@@W4Mode@1@W4State@1@@Z
?pixmap@QIcon@@QEBA?AVQPixmap@@HHW4Mode@1@W4State@1@@Z
?pixmap@QIcon@@QEBA?AVQPixmap@@HW4Mode@1@W4State@1@@Z
?pixmap@QIconEngine@@UEAA?AVQPixmap@@AEBVQSize@@W4Mode@QIcon@@W4State@5@@Z
?pixmap@QLabel@@QEBAPEBVQPixmap@@XZ
?pixmap@QSplashScreen@@QEBA?BVQPixmap@@XZ
?pixmap@QWizard@@QEBA?AVQPixmap@@W4WizardPixmap@1@@Z
?pixmap@QWizardPage@@QEBA?AVQPixmap@@W4WizardPixmap@QWizard@@@Z
?pixmapData@QPixmap@@QEBAPEAVQPixmapData@@XZ
?pixmapFilter@QPaintEngineEx@@UEAAPEAVQPixmapFilter@@HPEBV2@@Z
?placeholderText@QLineEdit@@QEBA?AVQString@@XZ
?plainText@QTextDocumentPrivate@@QEBA?AVQString@@XZ
?platformCleanUp@QRawFontPrivate@@QEAAXXZ
?platformExtension@QGraphicsSystem@@UEAAPEAVQGraphicsSystemEx@@XZ
?platformHint@QGuiPlatformPlugin@@UEAAHW4PlatformHint@1@@Z
?platformLoadFromData@QRawFontPrivate@@QEAAXAEBVQByteArray@@NW4HintingPreference@QFont@@@Z
?play@QPicture@@QEAA_NPEAVQPainter@@@Z
?play@QSound@@QEAAXXZ
?play@QSound@@SAXAEBVQString@@@Z
?plug@QDockAreaLayout@@QEAAPEAVQLayoutItem@@AEBV?$QList@H@@@Z
?plug@QDockAreaLayoutInfo@@QEAAPEAVQLayoutItem@@AEBV?$QList@H@@@Z
?plug@QMainWindowLayout@@QEAA_NPEAVQLayoutItem@@@Z
?point@QPolygon@@QEBA?AVQPoint@@H@Z
?point@QPolygon@@QEBAXHPEAH0@Z
?pointAt@QBezier@@QEBA?AVQPointF@@N@Z
?pointAtPercent@QPainterPath@@QEBA?AVQPointF@@N@Z
?pointInsideRectAndMask@QWidgetPrivate@@QEBA_NAEBVQPoint@@@Z
?pointSize@QFont@@QEBAHXZ
?pointSize@QFontInfo@@QEBAHXZ
?pointSizeF@QFont@@QEBANXZ
?pointSizeF@QFontInfo@@QEBANXZ
?pointSizes@QFontDatabase@@QEAA?AV?$QList@H@@AEBVQString@@0@Z
?pointToRect@QWidgetPrivate@@SAHAEBVQPoint@@AEBVQRect@@@Z
?pointerType@QTabletEvent@@QEBA?AW4PointerType@1@XZ
?points@QVectorPath@@QEBAPEBNXZ
?polish@QCleanlooksStyle@@UEAAXAEAVQPalette@@@Z
?polish@QCleanlooksStyle@@UEAAXPEAVQApplication@@@Z
?polish@QCleanlooksStyle@@UEAAXPEAVQWidget@@@Z
?polish@QCommonStyle@@UEAAXAEAVQPalette@@@Z
?polish@QCommonStyle@@UEAAXPEAVQApplication@@@Z
?polish@QCommonStyle@@UEAAXPEAVQWidget@@@Z
?polish@QMotifStyle@@UEAAXAEAVQPalette@@@Z
?polish@QMotifStyle@@UEAAXPEAVQApplication@@@Z
?polish@QMotifStyle@@UEAAXPEAVQWidget@@@Z
?polish@QPlastiqueStyle@@UEAAXAEAVQPalette@@@Z
?polish@QPlastiqueStyle@@UEAAXPEAVQApplication@@@Z
?polish@QPlastiqueStyle@@UEAAXPEAVQWidget@@@Z
?polish@QProxyStyle@@UEAAXAEAVQPalette@@@Z
?polish@QProxyStyle@@UEAAXPEAVQApplication@@@Z
?polish@QProxyStyle@@UEAAXPEAVQWidget@@@Z
?polish@QStyle@@UEAAXAEAVQPalette@@@Z
?polish@QStyle@@UEAAXPEAVQApplication@@@Z
?polish@QStyle@@UEAAXPEAVQWidget@@@Z
?polish@QStyleSheetStyle@@UEAAXAEAVQPalette@@@Z
?polish@QStyleSheetStyle@@UEAAXPEAVQApplication@@@Z
?polish@QStyleSheetStyle@@UEAAXPEAVQWidget@@@Z
?polish@QWindowsStyle@@UEAAXAEAVQPalette@@@Z
?polish@QWindowsStyle@@UEAAXPEAVQApplication@@@Z
?polish@QWindowsStyle@@UEAAXPEAVQWidget@@@Z
?polish@QWindowsVistaStyle@@UEAAXAEAVQPalette@@@Z
?polish@QWindowsVistaStyle@@UEAAXPEAVQApplication@@@Z
?polish@QWindowsVistaStyle@@UEAAXPEAVQWidget@@@Z
?polish@QWindowsXPStyle@@UEAAXAEAVQPalette@@@Z
?polish@QWindowsXPStyle@@UEAAXPEAVQApplication@@@Z
?polish@QWindowsXPStyle@@UEAAXPEAVQWidget@@@Z
?polishEvent@QGraphicsWidget@@MEAAXXZ
?polygon@QGraphicsPolygonItem@@QEBA?AVQPolygonF@@XZ
?polygonFlags@QVectorPath@@SAIW4PolygonDrawMode@QPaintEngine@@@Z
?pop_back@?$QList@VQItemSelectionRange@@@@QEAAXXZ
?pop_front@?$QList@VQItemSelectionRange@@@@QEAAXXZ
?populate@QTextureGlyphCache@@QEAA_NPEAVQFontEngine@@HPEBIPEBUQFixedPoint@@@Z
?populateSceneDragDropEvent@QGraphicsViewPrivate@@QEAAXPEAVQGraphicsSceneDragDropEvent@@PEAVQDropEvent@@@Z
?popup@QCompleter@@QEBAPEAVQAbstractItemView@@XZ
?popup@QMenu@@QEAAXAEBVQPoint@@PEAVQAction@@@Z
?popupGeometry@QComboBoxPrivate@@QEBA?AVQRect@@H@Z
?popupMode@QToolButton@@QEBA?AW4ToolButtonPopupMode@1@XZ
?popupWidgets@QApplicationPrivate@@2PEAV?$QList@PEAVQWidget@@@@EA
?pos@QContextMenuEvent@@QEBAAEBVQPoint@@XZ
?pos@QCursor@@SA?AVQPoint@@XZ
?pos@QDropEvent@@QEBAAEBVQPoint@@XZ
?pos@QGraphicsItem@@QEBA?AVQPointF@@XZ
?pos@QGraphicsSceneContextMenuEvent@@QEBA?AVQPointF@@XZ
?pos@QGraphicsSceneDragDropEvent@@QEBA?AVQPointF@@XZ
?pos@QGraphicsSceneHoverEvent@@QEBA?AVQPointF@@XZ
?pos@QGraphicsSceneMouseEvent@@QEBA?AVQPointF@@XZ
?pos@QGraphicsSceneWheelEvent@@QEBA?AVQPointF@@XZ
?pos@QHelpEvent@@QEBAAEBVQPoint@@XZ
?pos@QHoverEvent@@QEBAAEBVQPoint@@XZ
?pos@QMouseEvent@@QEBAAEBVQPoint@@XZ
?pos@QMoveEvent@@QEBAAEBVQPoint@@XZ
?pos@QTabletEvent@@QEBAAEBVQPoint@@XZ
?pos@QWheelEvent@@QEBAAEBVQPoint@@XZ
?pos@QWidget@@QEBA?AVQPoint@@XZ
?pos@TouchPoint@QTouchEvent@@QEBA?AVQPointF@@XZ
?posAt@QGraphicsItemAnimation@@QEBA?AVQPointF@@N@Z
?posF@QMouseEvent@@QEBA?AVQPointF@@XZ
?posList@QGraphicsItemAnimation@@QEBA?AV?$QList@U?$QPair@NVQPointF@@@@@@XZ
?position@QAbstractItemViewPrivate@@UEBA?AW4DropIndicatorPosition@QAbstractItemView@@AEBVQPoint@@AEBVQRect@@AEBVQModelIndex@@@Z
?position@QTapAndHoldGesture@@QEBA?AVQPointF@@XZ
?position@QTapGesture@@QEBA?AVQPointF@@XZ
?position@QTextBlock@@QEBAHXZ
?position@QTextCursor@@QEBAHXZ
?position@QTextFragment@@QEBAHXZ
?position@QTextFrameFormat@@QEBA?AW4Position@1@XZ
?position@QTextLayout@@QEBA?AVQPointF@@XZ
?position@QTextLine@@QEBA?AVQPointF@@XZ
?positionAfterVisualMovement@QTextEngine@@QEAAHHW4MoveOperation@QTextCursor@@@Z
?positionInBlock@QTextCursor@@QEBAHXZ
?positionInLigature@QTextEngine@@QEAAHPEBUQScriptItem@@HUQFixed@@1H_N@Z
?positionInlineObject@QAbstractTextDocumentLayout@@MEAAXVQTextInlineObject@@HAEBVQTextFormat@@@Z
?positionInlineObject@QTextDocumentLayout@@MEAAXVQTextInlineObject@@HAEBVQTextFormat@@@Z
?positionRect@QStyleSheetStyle@@AEBA?AVQRect@@PEBVQWidget@@AEBVQRenderRule@@1HAEBV2@W4LayoutDirection@Qt@@@Z
?positionRect@QStyleSheetStyle@@AEBA?AVQRect@@PEBVQWidget@@AEBVQRenderRule@@HAEBV2@W4LayoutDirection@Qt@@@Z
?positionValue@Declaration@QCss@@QEBA?AW4PositionMode@2@XZ
?positions@QGlyphRun@@QEBA?AV?$QVector@VQPointF@@@@XZ
?possibleActions@QDropEvent@@QEBA?AV?$QFlags@W4DropAction@Qt@@@@XZ
?possibleActions@QGraphicsSceneDragDropEvent@@QEBA?AV?$QFlags@W4DropAction@Qt@@@@XZ
?preeditAreaPosition@QTextLayout@@QEBAHXZ
?preeditAreaText@QLineControl@@QEBA?AVQString@@XZ
?preeditAreaText@QTextLayout@@QEBA?AVQString@@XZ
?preeditCursor@QLineControl@@QEBAHXZ
?preeditString@QInputMethodEvent@@QEBAAEBVQString@@XZ
?preferredHeight@QGraphicsLayoutItem@@QEBANXZ
?preferredSize@QGraphicsLayoutItem@@QEBA?AVQSizeF@@XZ
?preferredWidth@QGraphicsLayoutItem@@QEBANXZ
?prefix@QDoubleSpinBox@@QEBA?AVQString@@XZ
?prefix@QSpinBox@@QEBA?AVQString@@XZ
?prepare@QStaticText@@QEAAXAEBVQTransform@@AEBVQFont@@@Z
?prepareAnimatedOperation@QTreeViewPrivate@@QEAAXHW4Direction@QAbstractAnimation@@@Z
?prepareBoundingRectChange@QGraphicsSceneBspTreeIndex@@MEAAXPEBVQGraphicsItem@@@Z
?prepareBoundingRectChange@QGraphicsSceneIndex@@MEAAXPEBVQGraphicsItem@@@Z
?prepareBuffer@QRasterWindowSurface@@AEAAXW4Format@QImage@@PEAVQWidget@@@Z
?prepareGeometryChange@QGraphicsItem@@IEAAXXZ
?prepareToRender@QWidgetPrivate@@QEAA?AVQRegion@@AEBV2@V?$QFlags@W4RenderFlag@QWidget@@@@@Z
?prepend@?$QList@VQItemSelectionRange@@@@QEAAXAEBVQItemSelectionRange@@@Z
?prependGraphicsTransform@QGraphicsItemPrivate@@QEAAXPEAVQGraphicsTransform@@@Z
?preprocess@Scanner@QCss@@SA?AVQString@@AEBV3@PEA_N@Z
?pressed@QAbstractButton@@IEAAXXZ
?pressed@QAbstractItemView@@IEAAXAEBVQModelIndex@@@Z
?pressure@QTabletEvent@@QEBANXZ
?pressure@TouchPoint@QTouchEvent@@QEBANXZ
?prev@Parser@QCss@@QEAAXXZ
?prev@QDockAreaLayoutInfo@@QEBAHH@Z
?prevMaskBlank@QLineControl@@QEAAHH@Z
?previewChanged@QPrintPreviewWidget@@IEAAXXZ
?previewWidget@QColumnView@@QEBAPEAVQWidget@@XZ
?previous@QTextBlock@@QEBA?AV1@XZ
?previousBlockState@QSyntaxHighlighter@@IEBAHXZ
?previousCursorPosition@QTextDocumentPrivate@@QEBAHHW4CursorMode@QTextLayout@@@Z
?previousCursorPosition@QTextLayout@@QEBAHHW4CursorMode@1@@Z
?previousInFocusChain@QWidget@@QEBAPEAV1@XZ
?previousLogicalPosition@QTextEngine@@QEBAHH@Z
?primaryScreen@QDesktopWidget@@QEBAHXZ
?print@QPlainTextEdit@@QEBAXPEAVQPrinter@@@Z
?print@QPrintPreviewWidget@@QEAAXXZ
?print@QTextControl@@QEBAXPEAVQPrinter@@@Z
?print@QTextDocument@@QEBAXPEAVQPrinter@@@Z
?print@QTextEdit@@QEBAXPEAVQPrinter@@@Z
?printEngine@QPrinter@@QEBAPEAVQPrintEngine@@XZ
?printProgram@QPrinter@@QEBA?AVQString@@XZ
?printRange@QAbstractPrintDialog@@QEBA?AW4PrintRange@1@XZ
?printRange@QPrinter@@QEBA?AW4PrintRange@1@XZ
?printer@QAbstractPageSetupDialog@@QEAAPEAVQPrinter@@XZ
?printer@QAbstractPrintDialog@@QEBAPEAVQPrinter@@XZ
?printer@QPrintPreviewDialog@@QEAAPEAVQPrinter@@XZ
?printerName@QPrinter@@QEBA?AVQString@@XZ
?printerName@QPrinterInfo@@QEBA?AVQString@@XZ
?printerState@QPrinter@@QEBA?AW4PrinterState@1@XZ
?priority@QAction@@QEBA?AW4Priority@1@XZ
?priv@QPlainTextDocumentLayout@@AEBAPEAVQPlainTextDocumentLayoutPrivate@@XZ
?process@QPaintEngineExReplayer@@UEAAXAEBUQPaintBufferCommand@@@Z
?process@QPainterReplayer@@UEAAXAEBUQPaintBufferCommand@@@Z
?processCommands@QPaintBuffer@@QEBAHPEAVQPainter@@HH@Z
?processCommands@QPainterReplayer@@QEAAXAEBVQPaintBuffer@@PEAVQPainter@@HH@Z
?processCurrentSubpath@QDashStroker@@MEAAXXZ
?processCurrentSubpath@QStroker@@MEAAXXZ
?processDirtyItemsRecursive@QGraphicsScenePrivate@@QEAAXPEAVQGraphicsItem@@_NN@Z
?processEvent@QLineControl@@QEAA_NPEAVQEvent@@@Z
?processEvent@QTextControl@@QEAAXPEAVQEvent@@AEBVQPointF@@PEAVQWidget@@@Z
?processEvent@QTextControl@@UEAAXPEAVQEvent@@AEBVQMatrix@@PEAVQWidget@@@Z
?processInputMethodEvent@QLineControl@@QEAAXPEAVQInputMethodEvent@@@Z
?processKeyEvent@QLineControl@@QEAAXPEAVQKeyEvent@@@Z
?processMouseEvent@QLineControl@@QEAAXPEAVQMouseEvent@@@Z
?processPendingUpdates@QGraphicsViewPrivate@@QEAAXXZ
?process_cmdline@QApplicationPrivate@@QEAAXXZ
?projectedRotate@QMatrix4x4@@AEAAXNNNN@Z
?propagatePaletteChange@QWidgetPrivate@@QEAAXXZ
?properties@QFontEngine@@UEBA?AUProperties@1@XZ
?properties@QTextFormat@@QEBA?AV?$QMap@HVQVariant@@@@XZ
?property@QTextFormat@@QEBA?AVQVariant@@H@Z
?propertyChange@QGraphicsWidget@@MEAA?AVQVariant@@AEBVQString@@AEBV2@@Z
?propertyCount@QTextFormat@@QEBAHXZ
?proposedAction@QDropEvent@@QEBA?AW4DropAction@Qt@@XZ
?proposedAction@QGraphicsSceneDragDropEvent@@QEBA?AW4DropAction@Qt@@XZ
?provides@QDropEvent@@UEBA_NPEBD@Z
?provides@QMimeSource@@UEBA_NPEBD@Z
?proxy@QStyle@@QEBAPEBV1@XZ
?proxyModel@QFileDialog@@QEBAPEAVQAbstractProxyModel@@XZ
?pseudoClass@Selector@QCss@@QEBA_KPEA_K@Z
?pseudoElement@Selector@QCss@@QEBA?AVQString@@XZ
?pt1@QBezier@@QEBA?AVQPointF@@XZ
?pt2@QBezier@@QEBA?AVQPointF@@XZ
?pt3@QBezier@@QEBA?AVQPointF@@XZ
?pt4@QBezier@@QEBA?AVQPointF@@XZ
?push@QUndoStack@@QEAAXPEAVQUndoCommand@@@Z
?push_back@?$QList@VQItemSelectionRange@@@@QEAAXAEBVQItemSelectionRange@@@Z
?push_front@?$QList@VQItemSelectionRange@@@@QEAAXAEBVQItemSelectionRange@@@Z
?putPoints@QPolygon@@QEAAXHHAEBV1@H@Z
?putPoints@QPolygon@@QEAAXHHHHZZ
?putPoints@QPolygon@@QEAAXHHPEBH@Z
?qAccessibleActionCastHelper@QAccessibleActionInterface@@QEAAPEAVQAccessible2Interface@@XZ
?qAccessibleEditableTextCastHelper@QAccessibleEditableTextInterface@@QEAAPEAVQAccessible2Interface@@XZ
?qAccessibleImageCastHelper@QAccessibleImageInterface@@QEAAPEAVQAccessible2Interface@@XZ
?qAccessibleTable2CastHelper@QAccessibleTable2Interface@@QEAAPEAVQAccessible2Interface@@XZ
?qAccessibleTableCastHelper@QAccessibleTableInterface@@QEAAPEAVQAccessible2Interface@@XZ
?qAccessibleTextCastHelper@QAccessibleTextInterface@@QEAAPEAVQAccessible2Interface@@XZ
?qAccessibleValueCastHelper@QAccessibleValueInterface@@QEAAPEAVQAccessible2Interface@@XZ
?qAlpha@@YAHI@Z
?qBlue@@YAHI@Z
?qDrawBorderPixmap@@YAXPEAVQPainter@@AEBVQRect@@AEBVQMargins@@AEBVQPixmap@@12AEBUQTileRules@@V?$QFlags@W4DrawingHint@QDrawBorderPixmap@@@@@Z
?qDrawPlainRect@@YAXPEAVQPainter@@AEBVQRect@@AEBVQColor@@HPEBVQBrush@@@Z
?qDrawPlainRect@@YAXPEAVQPainter@@HHHHAEBVQColor@@HPEBVQBrush@@@Z
?qDrawShadeLine@@YAXPEAVQPainter@@AEBVQPoint@@1AEBVQPalette@@_NHH@Z
?qDrawShadeLine@@YAXPEAVQPainter@@HHHHAEBVQPalette@@_NHH@Z
?qDrawShadePanel@@YAXPEAVQPainter@@AEBVQRect@@AEBVQPalette@@_NHPEBVQBrush@@@Z
?qDrawShadePanel@@YAXPEAVQPainter@@HHHHAEBVQPalette@@_NHPEBVQBrush@@@Z
?qDrawShadeRect@@YAXPEAVQPainter@@AEBVQRect@@AEBVQPalette@@_NHHPEBVQBrush@@@Z
?qDrawShadeRect@@YAXPEAVQPainter@@HHHHAEBVQPalette@@_NHHPEBVQBrush@@@Z
?qDrawWinButton@@YAXPEAVQPainter@@AEBVQRect@@AEBVQPalette@@_NPEBVQBrush@@@Z
?qDrawWinButton@@YAXPEAVQPainter@@HHHHAEBVQPalette@@_NPEBVQBrush@@@Z
?qDrawWinPanel@@YAXPEAVQPainter@@AEBVQRect@@AEBVQPalette@@_NPEBVQBrush@@@Z
?qDrawWinPanel@@YAXPEAVQPainter@@HHHHAEBVQPalette@@_NPEBVQBrush@@@Z
?qFadeEffect@@YAXPEAVQWidget@@H@Z
?qGamma_correct_back_to_linear_cs@@YAXPEAVQImage@@@Z
?qGeomCalc@@YAXAEAV?$QVector@UQLayoutStruct@@@@HHHHH@Z
?qGray@@YAHHHH@Z
?qGray@@YAHI@Z
?qGreen@@YAHI@Z
?qHasPixmapTexture@@YA_NAEBVQBrush@@@Z
?qIsGray@@YA_NI@Z
?qRed@@YAHI@Z
?qRgb@@YAIHHH@Z
?qRgba@@YAIHHHH@Z
?qScrollEffect@@YAXPEAVQWidget@@IH@Z
?qSmartMaxSize@@YA?AVQSize@@AEBV1@00AEBVQSizePolicy@@V?$QFlags@W4AlignmentFlag@Qt@@@@@Z
?qSmartMaxSize@@YA?AVQSize@@PEBVQWidget@@V?$QFlags@W4AlignmentFlag@Qt@@@@@Z
?qSmartMaxSize@@YA?AVQSize@@PEBVQWidgetItem@@V?$QFlags@W4AlignmentFlag@Qt@@@@@Z
?qSmartMinSize@@YA?AVQSize@@AEBV1@000AEBVQSizePolicy@@@Z
?qSmartMinSize@@YA?AVQSize@@PEBVQWidget@@@Z
?qSmartMinSize@@YA?AVQSize@@PEBVQWidgetItem@@@Z
?qSmartSpacing@@YAHPEBVQLayout@@W4PixelMetric@QStyle@@@Z
?qTextAfterOffsetFromString@@YA?AVQString@@HW4BoundaryType@QAccessible2@@PEAH1AEBV1@@Z
?qTextAtOffsetFromString@@YA?AVQString@@HW4BoundaryType@QAccessible2@@PEAH1AEBV1@@Z
?qTextBeforeOffsetFromString@@YA?AVQString@@HW4BoundaryType@QAccessible2@@PEAH1AEBV1@@Z
?q_QPixmapCache_keyHashSize@@YAHXZ
?q_func@QAbstractItemViewPrivate@@AEAAPEAVQAbstractItemView@@XZ
?q_func@QAbstractItemViewPrivate@@AEBAPEBVQAbstractItemView@@XZ
?q_func@QAbstractScrollAreaPrivate@@AEAAPEAVQAbstractScrollArea@@XZ
?q_func@QAbstractScrollAreaPrivate@@AEBAPEBVQAbstractScrollArea@@XZ
?q_func@QActionPrivate@@AEAAPEAVQAction@@XZ
?q_func@QActionPrivate@@AEBAPEBVQAction@@XZ
?q_func@QApplicationPrivate@@AEAAPEAVQApplication@@XZ
?q_func@QApplicationPrivate@@AEBAPEBVQApplication@@XZ
?q_func@QColumnViewPrivate@@AEAAPEAVQColumnView@@XZ
?q_func@QColumnViewPrivate@@AEBAPEBVQColumnView@@XZ
?q_func@QComboBoxPrivate@@AEAAPEAVQComboBox@@XZ
?q_func@QComboBoxPrivate@@AEBAPEBVQComboBox@@XZ
?q_func@QFileDialogPrivate@@AEAAPEAVQFileDialog@@XZ
?q_func@QFileDialogPrivate@@AEBAPEBVQFileDialog@@XZ
?q_func@QFileSystemModelPrivate@@AEAAPEAVQFileSystemModel@@XZ
?q_func@QFileSystemModelPrivate@@AEBAPEBVQFileSystemModel@@XZ
?q_func@QGraphicsAnchorLayoutPrivate@@AEAAPEAVQGraphicsAnchorLayout@@XZ
?q_func@QGraphicsAnchorLayoutPrivate@@AEBAPEBVQGraphicsAnchorLayout@@XZ
?q_func@QGraphicsEffectPrivate@@AEAAPEAVQGraphicsEffect@@XZ
?q_func@QGraphicsEffectPrivate@@AEBAPEBVQGraphicsEffect@@XZ
?q_func@QGraphicsItemPrivate@@AEAAPEAVQGraphicsItem@@XZ
?q_func@QGraphicsItemPrivate@@AEBAPEBVQGraphicsItem@@XZ
?q_func@QGraphicsLayoutItemPrivate@@AEAAPEAVQGraphicsLayoutItem@@XZ
?q_func@QGraphicsLayoutItemPrivate@@AEBAPEBVQGraphicsLayoutItem@@XZ
?q_func@QGraphicsLayoutPrivate@@AEAAPEAVQGraphicsLayout@@XZ
?q_func@QGraphicsLayoutPrivate@@AEBAPEBVQGraphicsLayout@@XZ
?q_func@QGraphicsScenePrivate@@AEAAPEAVQGraphicsScene@@XZ
?q_func@QGraphicsScenePrivate@@AEBAPEBVQGraphicsScene@@XZ
?q_func@QGraphicsViewPrivate@@AEAAPEAVQGraphicsView@@XZ
?q_func@QGraphicsViewPrivate@@AEBAPEBVQGraphicsView@@XZ
?q_func@QLayoutPrivate@@AEAAPEAVQLayout@@XZ
?q_func@QLayoutPrivate@@AEBAPEBVQLayout@@XZ
?q_func@QPaintEngineExPrivate@@AEAAPEAVQPaintEngineEx@@XZ
?q_func@QPaintEngineExPrivate@@AEBAPEBVQPaintEngineEx@@XZ
?q_func@QStatePrivate@@AEAAPEAVQState@@XZ
?q_func@QStatePrivate@@AEBAPEBVQState@@XZ
?q_func@QTextDocumentPrivate@@AEAAPEAVQTextDocument@@XZ
?q_func@QTextDocumentPrivate@@AEBAPEBVQTextDocument@@XZ
?q_func@QTreeViewPrivate@@AEAAPEAVQTreeView@@XZ
?q_func@QTreeViewPrivate@@AEBAPEBVQTreeView@@XZ
?q_func@QWidgetPrivate@@AEAAPEAVQWidget@@XZ
?q_func@QWidgetPrivate@@AEBAPEBVQWidget@@XZ
?qtHandler@QErrorMessage@@SAPEAV1@XZ
?qtVectorPathForPath@@YAAEBVQVectorPath@@AEBVQPainterPath@@@Z
?qt_accHotKey@@YA?AVQString@@AEBV1@@Z
?qt_accStripAmp@@YA?AVQString@@AEBV1@@Z
?qt_addBitmapToPath@@YAXNNPEBEHHHPEAVQPainterPath@@@Z
?qt_blurImage@@YAXAEAVQImage@@N_NH@Z
?qt_blurImage@@YAXPEAVQPainter@@AEAVQImage@@N_N2H@Z
?qt_cleartype_enabled@@3_NA
?qt_defaultDpi@@YAHXZ
?qt_defaultDpiX@@YAHXZ
?qt_defaultDpiY@@YAHXZ
?qt_draw_decoration_for_glyphs@@YAXPEAVQPainter@@PEBIPEBUQFixedPoint@@HPEAVQFontEngine@@AEBVQFont@@AEBVQTextCharFormat@@@Z
?qt_draw_helper@@YAXPEAVQPainterPrivate@@AEBVQPainterPath@@W4DrawOperation@1@@Z
?qt_filedialog_existing_directory_hook@@3P6A?AVQString@@PEAVQWidget@@AEBV1@1V?$QFlags@W4Option@QFileDialog@@@@@ZEA
?qt_filedialog_open_filename_hook@@3P6A?AVQString@@PEAVQWidget@@AEBV1@11PEAV1@V?$QFlags@W4Option@QFileDialog@@@@@ZEA
?qt_filedialog_open_filenames_hook@@3P6A?AVQStringList@@PEAVQWidget@@AEBVQString@@11PEAV3@V?$QFlags@W4Option@QFileDialog@@@@@ZEA
?qt_filedialog_save_filename_hook@@3P6A?AVQString@@PEAVQWidget@@AEBV1@11PEAV1@V?$QFlags@W4Option@QFileDialog@@@@@ZEA
?qt_find_ellipse_coords@@YAXAEBVQRectF@@NNPEAVQPointF@@1@Z
?qt_fontdata_from_index@@YA?AVQByteArray@@H@Z
?qt_fontsmoothing_gamma@@3NA
?qt_getRegisteredWndClass@@YA?BVQString@@XZ
?qt_halfScaled@@YA?AVQImage@@AEBV1@@Z
?qt_imageForBrush@@YA?AVQImage@@H_N@Z
?qt_image_cleanup_hook@@3P6AXH@ZEA
?qt_image_cleanup_hook_64@@3P6AX_J@ZEA
?qt_image_id@@YA_JAEBVQImage@@@Z
?qt_isExtendedRadialGradient@@YA_NAEBVQBrush@@@Z
?qt_memrotate90@@YAXPEBIHHHPEAIH@Z
?qt_memrotate90_gl@@YAXPEBIHHHPEAIH@Z
?qt_metacall@QAbstractButton@@UEAAHW4Call@QMetaObject@@HPEAPEAX@Z
?qt_metacall@QAbstractItemDelegate@@UEAAHW4Call@QMetaObject@@HPEAPEAX@Z
?qt_metacall@QAbstractItemView@@UEAAHW4Call@QMetaObject@@HPEAPEAX@Z
?qt_metacall@QAbstractPageSetupDialog@@UEAAHW4Call@QMetaObject@@HPEAPEAX@Z
?qt_metacall@QAbstractPrintDialog@@UEAAHW4Call@QMetaObject@@HPEAPEAX@Z
?qt_metacall@QAbstractProxyModel@@UEAAHW4Call@QMetaObject@@HPEAPEAX@Z
?qt_metacall@QAbstractScrollArea@@UEAAHW4Call@QMetaObject@@HPEAPEAX@Z
?qt_metacall@QAbstractSlider@@UEAAHW4Call@QMetaObject@@HPEAPEAX@Z
?qt_metacall@QAbstractSpinBox@@UEAAHW4Call@QMetaObject@@HPEAPEAX@Z
?qt_metacall@QAbstractTextDocumentLayout@@UEAAHW4Call@QMetaObject@@HPEAPEAX@Z
?qt_metacall@QAccessiblePlugin@@UEAAHW4Call@QMetaObject@@HPEAPEAX@Z
?qt_metacall@QAction@@UEAAHW4Call@QMetaObject@@HPEAPEAX@Z
?qt_metacall@QActionGroup@@UEAAHW4Call@QMetaObject@@HPEAPEAX@Z
?qt_metacall@QApplication@@UEAAHW4Call@QMetaObject@@HPEAPEAX@Z
?qt_metacall@QBalloonTip@@UEAAHW4Call@QMetaObject@@HPEAPEAX@Z
?qt_metacall@QBasicKeyEventTransition@@UEAAHW4Call@QMetaObject@@HPEAPEAX@Z
?qt_metacall@QBasicMouseEventTransition@@UEAAHW4Call@QMetaObject@@HPEAPEAX@Z
?qt_metacall@QBoxLayout@@UEAAHW4Call@QMetaObject@@HPEAPEAX@Z
?qt_metacall@QButtonGroup@@UEAAHW4Call@QMetaObject@@HPEAPEAX@Z
?qt_metacall@QCDEStyle@@UEAAHW4Call@QMetaObject@@HPEAPEAX@Z
?qt_metacall@QCalendarWidget@@UEAAHW4Call@QMetaObject@@HPEAPEAX@Z
?qt_metacall@QCheckBox@@UEAAHW4Call@QMetaObject@@HPEAPEAX@Z
?qt_metacall@QCleanlooksStyle@@UEAAHW4Call@QMetaObject@@HPEAPEAX@Z
?qt_metacall@QClipboard@@UEAAHW4Call@QMetaObject@@HPEAPEAX@Z
?qt_metacall@QColorDialog@@UEAAHW4Call@QMetaObject@@HPEAPEAX@Z
?qt_metacall@QColumnView@@UEAAHW4Call@QMetaObject@@HPEAPEAX@Z
?qt_metacall@QColumnViewGrip@@UEAAHW4Call@QMetaObject@@HPEAPEAX@Z
?qt_metacall@QComboBox@@UEAAHW4Call@QMetaObject@@HPEAPEAX@Z
?qt_metacall@QComboBoxPrivateContainer@@UEAAHW4Call@QMetaObject@@HPEAPEAX@Z
?qt_metacall@QComboBoxPrivateScroller@@UEAAHW4Call@QMetaObject@@HPEAPEAX@Z
?qt_metacall@QCommandLinkButton@@UEAAHW4Call@QMetaObject@@HPEAPEAX@Z
?qt_metacall@QCommonStyle@@UEAAHW4Call@QMetaObject@@HPEAPEAX@Z
?qt_metacall@QCompleter@@UEAAHW4Call@QMetaObject@@HPEAPEAX@Z
?qt_metacall@QDataWidgetMapper@@UEAAHW4Call@QMetaObject@@HPEAPEAX@Z
?qt_metacall@QDateEdit@@UEAAHW4Call@QMetaObject@@HPEAPEAX@Z
?qt_metacall@QDateTimeEdit@@UEAAHW4Call@QMetaObject@@HPEAPEAX@Z
?qt_metacall@QDesktopWidget@@UEAAHW4Call@QMetaObject@@HPEAPEAX@Z
?qt_metacall@QDial@@UEAAHW4Call@QMetaObject@@HPEAPEAX@Z
?qt_metacall@QDialog@@UEAAHW4Call@QMetaObject@@HPEAPEAX@Z
?qt_metacall@QDialogButtonBox@@UEAAHW4Call@QMetaObject@@HPEAPEAX@Z
?qt_metacall@QDirModel@@UEAAHW4Call@QMetaObject@@HPEAPEAX@Z
?qt_metacall@QDockWidget@@UEAAHW4Call@QMetaObject@@HPEAPEAX@Z
?qt_metacall@QDockWidgetLayout@@UEAAHW4Call@QMetaObject@@HPEAPEAX@Z
?qt_metacall@QDoubleSpinBox@@UEAAHW4Call@QMetaObject@@HPEAPEAX@Z
?qt_metacall@QDoubleValidator@@UEAAHW4Call@QMetaObject@@HPEAPEAX@Z
?qt_metacall@QDrag@@UEAAHW4Call@QMetaObject@@HPEAPEAX@Z
?qt_metacall@QErrorMessage@@UEAAHW4Call@QMetaObject@@HPEAPEAX@Z
?qt_metacall@QFileDialog@@UEAAHW4Call@QMetaObject@@HPEAPEAX@Z
?qt_metacall@QFileInfoGatherer@@UEAAHW4Call@QMetaObject@@HPEAPEAX@Z
?qt_metacall@QFileSystemModel@@UEAAHW4Call@QMetaObject@@HPEAPEAX@Z
?qt_metacall@QFocusFrame@@UEAAHW4Call@QMetaObject@@HPEAPEAX@Z
?qt_metacall@QFontComboBox@@UEAAHW4Call@QMetaObject@@HPEAPEAX@Z
?qt_metacall@QFontDialog@@UEAAHW4Call@QMetaObject@@HPEAPEAX@Z
?qt_metacall@QFormLayout@@UEAAHW4Call@QMetaObject@@HPEAPEAX@Z
?qt_metacall@QFrame@@UEAAHW4Call@QMetaObject@@HPEAPEAX@Z
?qt_metacall@QGesture@@UEAAHW4Call@QMetaObject@@HPEAPEAX@Z
?qt_metacall@QGraphicsAnchor@@UEAAHW4Call@QMetaObject@@HPEAPEAX@Z
?qt_metacall@QGraphicsBlurEffect@@UEAAHW4Call@QMetaObject@@HPEAPEAX@Z
?qt_metacall@QGraphicsColorizeEffect@@UEAAHW4Call@QMetaObject@@HPEAPEAX@Z
?qt_metacall@QGraphicsDropShadowEffect@@UEAAHW4Call@QMetaObject@@HPEAPEAX@Z
?qt_metacall@QGraphicsEffect@@UEAAHW4Call@QMetaObject@@HPEAPEAX@Z
?qt_metacall@QGraphicsEffectSource@@UEAAHW4Call@QMetaObject@@HPEAPEAX@Z
?qt_metacall@QGraphicsItemAnimation@@UEAAHW4Call@QMetaObject@@HPEAPEAX@Z
?qt_metacall@QGraphicsObject@@UEAAHW4Call@QMetaObject@@HPEAPEAX@Z
?qt_metacall@QGraphicsOpacityEffect@@UEAAHW4Call@QMetaObject@@HPEAPEAX@Z
?qt_metacall@QGraphicsProxyWidget@@UEAAHW4Call@QMetaObject@@HPEAPEAX@Z
?qt_metacall@QGraphicsRotation@@UEAAHW4Call@QMetaObject@@HPEAPEAX@Z
?qt_metacall@QGraphicsScale@@UEAAHW4Call@QMetaObject@@HPEAPEAX@Z
?qt_metacall@QGraphicsScene@@UEAAHW4Call@QMetaObject@@HPEAPEAX@Z
?qt_metacall@QGraphicsSceneBspTreeIndex@@UEAAHW4Call@QMetaObject@@HPEAPEAX@Z
?qt_metacall@QGraphicsSceneIndex@@UEAAHW4Call@QMetaObject@@HPEAPEAX@Z
?qt_metacall@QGraphicsSceneLinearIndex@@UEAAHW4Call@QMetaObject@@HPEAPEAX@Z
?qt_metacall@QGraphicsSystemPlugin@@UEAAHW4Call@QMetaObject@@HPEAPEAX@Z
?qt_metacall@QGraphicsTextItem@@UEAAHW4Call@QMetaObject@@HPEAPEAX@Z
?qt_metacall@QGraphicsTransform@@UEAAHW4Call@QMetaObject@@HPEAPEAX@Z
?qt_metacall@QGraphicsView@@UEAAHW4Call@QMetaObject@@HPEAPEAX@Z
?qt_metacall@QGraphicsWidget@@UEAAHW4Call@QMetaObject@@HPEAPEAX@Z
?qt_metacall@QGridLayout@@UEAAHW4Call@QMetaObject@@HPEAPEAX@Z
?qt_metacall@QGroupBox@@UEAAHW4Call@QMetaObject@@HPEAPEAX@Z
?qt_metacall@QGuiPlatformPlugin@@UEAAHW4Call@QMetaObject@@HPEAPEAX@Z
?qt_metacall@QHBoxLayout@@UEAAHW4Call@QMetaObject@@HPEAPEAX@Z
?qt_metacall@QHeaderView@@UEAAHW4Call@QMetaObject@@HPEAPEAX@Z
?qt_metacall@QIconEnginePlugin@@UEAAHW4Call@QMetaObject@@HPEAPEAX@Z
?qt_metacall@QIconEnginePluginV2@@UEAAHW4Call@QMetaObject@@HPEAPEAX@Z
?qt_metacall@QIdentityProxyModel@@UEAAHW4Call@QMetaObject@@HPEAPEAX@Z
?qt_metacall@QImageIOPlugin@@UEAAHW4Call@QMetaObject@@HPEAPEAX@Z
?qt_metacall@QInputContext@@UEAAHW4Call@QMetaObject@@HPEAPEAX@Z
?qt_metacall@QInputContextPlugin@@UEAAHW4Call@QMetaObject@@HPEAPEAX@Z
?qt_metacall@QInputDialog@@UEAAHW4Call@QMetaObject@@HPEAPEAX@Z
?qt_metacall@QIntValidator@@UEAAHW4Call@QMetaObject@@HPEAPEAX@Z
?qt_metacall@QInternalMimeData@@UEAAHW4Call@QMetaObject@@HPEAPEAX@Z
?qt_metacall@QItemDelegate@@UEAAHW4Call@QMetaObject@@HPEAPEAX@Z
?qt_metacall@QItemSelectionModel@@UEAAHW4Call@QMetaObject@@HPEAPEAX@Z
?qt_metacall@QKeyEventTransition@@UEAAHW4Call@QMetaObject@@HPEAPEAX@Z
?qt_metacall@QLCDNumber@@UEAAHW4Call@QMetaObject@@HPEAPEAX@Z
?qt_metacall@QLabel@@UEAAHW4Call@QMetaObject@@HPEAPEAX@Z
?qt_metacall@QLayout@@UEAAHW4Call@QMetaObject@@HPEAPEAX@Z
?qt_metacall@QLineControl@@UEAAHW4Call@QMetaObject@@HPEAPEAX@Z
?qt_metacall@QLineEdit@@UEAAHW4Call@QMetaObject@@HPEAPEAX@Z
?qt_metacall@QListModel@@UEAAHW4Call@QMetaObject@@HPEAPEAX@Z
?qt_metacall@QListView@@UEAAHW4Call@QMetaObject@@HPEAPEAX@Z
?qt_metacall@QListWidget@@UEAAHW4Call@QMetaObject@@HPEAPEAX@Z
?qt_metacall@QMainWindow@@UEAAHW4Call@QMetaObject@@HPEAPEAX@Z
?qt_metacall@QMainWindowLayout@@UEAAHW4Call@QMetaObject@@HPEAPEAX@Z
?qt_metacall@QMdiArea@@UEAAHW4Call@QMetaObject@@HPEAPEAX@Z
?qt_metacall@QMdiSubWindow@@UEAAHW4Call@QMetaObject@@HPEAPEAX@Z
?qt_metacall@QMenu@@UEAAHW4Call@QMetaObject@@HPEAPEAX@Z
?qt_metacall@QMenuBar@@UEAAHW4Call@QMetaObject@@HPEAPEAX@Z
?qt_metacall@QMessageBox@@UEAAHW4Call@QMetaObject@@HPEAPEAX@Z
?qt_metacall@QMotifStyle@@UEAAHW4Call@QMetaObject@@HPEAPEAX@Z
?qt_metacall@QMouseEventTransition@@UEAAHW4Call@QMetaObject@@HPEAPEAX@Z
?qt_metacall@QMovie@@UEAAHW4Call@QMetaObject@@HPEAPEAX@Z
?qt_metacall@QPageSetupDialog@@UEAAHW4Call@QMetaObject@@HPEAPEAX@Z
?qt_metacall@QPaintBufferResource@@UEAAHW4Call@QMetaObject@@HPEAPEAX@Z
?qt_metacall@QPaintBufferSignalProxy@@UEAAHW4Call@QMetaObject@@HPEAPEAX@Z
?qt_metacall@QPanGesture@@UEAAHW4Call@QMetaObject@@HPEAPEAX@Z
?qt_metacall@QPictureFormatPlugin@@UEAAHW4Call@QMetaObject@@HPEAPEAX@Z
?qt_metacall@QPinchGesture@@UEAAHW4Call@QMetaObject@@HPEAPEAX@Z
?qt_metacall@QPixmapBlurFilter@@UEAAHW4Call@QMetaObject@@HPEAPEAX@Z
?qt_metacall@QPixmapColorizeFilter@@UEAAHW4Call@QMetaObject@@HPEAPEAX@Z
?qt_metacall@QPixmapConvolutionFilter@@UEAAHW4Call@QMetaObject@@HPEAPEAX@Z
?qt_metacall@QPixmapDropShadowFilter@@UEAAHW4Call@QMetaObject@@HPEAPEAX@Z
?qt_metacall@QPixmapFilter@@UEAAHW4Call@QMetaObject@@HPEAPEAX@Z
?qt_metacall@QPlainTextDocumentLayout@@UEAAHW4Call@QMetaObject@@HPEAPEAX@Z
?qt_metacall@QPlainTextEdit@@UEAAHW4Call@QMetaObject@@HPEAPEAX@Z
?qt_metacall@QPlastiqueStyle@@UEAAHW4Call@QMetaObject@@HPEAPEAX@Z
?qt_metacall@QPrintDialog@@UEAAHW4Call@QMetaObject@@HPEAPEAX@Z
?qt_metacall@QPrintPreviewDialog@@UEAAHW4Call@QMetaObject@@HPEAPEAX@Z
?qt_metacall@QPrintPreviewWidget@@UEAAHW4Call@QMetaObject@@HPEAPEAX@Z
?qt_metacall@QProgressBar@@UEAAHW4Call@QMetaObject@@HPEAPEAX@Z
?qt_metacall@QProgressDialog@@UEAAHW4Call@QMetaObject@@HPEAPEAX@Z
?qt_metacall@QProxyModel@@UEAAHW4Call@QMetaObject@@HPEAPEAX@Z
?qt_metacall@QProxyStyle@@UEAAHW4Call@QMetaObject@@HPEAPEAX@Z
?qt_metacall@QPushButton@@UEAAHW4Call@QMetaObject@@HPEAPEAX@Z
?qt_metacall@QRadioButton@@UEAAHW4Call@QMetaObject@@HPEAPEAX@Z
?qt_metacall@QRegExpValidator@@UEAAHW4Call@QMetaObject@@HPEAPEAX@Z
?qt_metacall@QRubberBand@@UEAAHW4Call@QMetaObject@@HPEAPEAX@Z
?qt_metacall@QScrollArea@@UEAAHW4Call@QMetaObject@@HPEAPEAX@Z
?qt_metacall@QScrollBar@@UEAAHW4Call@QMetaObject@@HPEAPEAX@Z
?qt_metacall@QSessionManager@@UEAAHW4Call@QMetaObject@@HPEAPEAX@Z
?qt_metacall@QShortcut@@UEAAHW4Call@QMetaObject@@HPEAPEAX@Z
?qt_metacall@QSidebar@@UEAAHW4Call@QMetaObject@@HPEAPEAX@Z
?qt_metacall@QSizeGrip@@UEAAHW4Call@QMetaObject@@HPEAPEAX@Z
?qt_metacall@QSlider@@UEAAHW4Call@QMetaObject@@HPEAPEAX@Z
?qt_metacall@QSoftKeyManager@@UEAAHW4Call@QMetaObject@@HPEAPEAX@Z
?qt_metacall@QSortFilterProxyModel@@UEAAHW4Call@QMetaObject@@HPEAPEAX@Z
?qt_metacall@QSound@@UEAAHW4Call@QMetaObject@@HPEAPEAX@Z
?qt_metacall@QSpinBox@@UEAAHW4Call@QMetaObject@@HPEAPEAX@Z
?qt_metacall@QSplashScreen@@UEAAHW4Call@QMetaObject@@HPEAPEAX@Z
?qt_metacall@QSplitter@@UEAAHW4Call@QMetaObject@@HPEAPEAX@Z
?qt_metacall@QSplitterHandle@@UEAAHW4Call@QMetaObject@@HPEAPEAX@Z
?qt_metacall@QStackedLayout@@UEAAHW4Call@QMetaObject@@HPEAPEAX@Z
?qt_metacall@QStackedWidget@@UEAAHW4Call@QMetaObject@@HPEAPEAX@Z
?qt_metacall@QStandardItemModel@@UEAAHW4Call@QMetaObject@@HPEAPEAX@Z
?qt_metacall@QStatusBar@@UEAAHW4Call@QMetaObject@@HPEAPEAX@Z
?qt_metacall@QStringListModel@@UEAAHW4Call@QMetaObject@@HPEAPEAX@Z
?qt_metacall@QStyle@@UEAAHW4Call@QMetaObject@@HPEAPEAX@Z
?qt_metacall@QStylePlugin@@UEAAHW4Call@QMetaObject@@HPEAPEAX@Z
?qt_metacall@QStyleSheetStyle@@UEAAHW4Call@QMetaObject@@HPEAPEAX@Z
?qt_metacall@QStyledItemDelegate@@UEAAHW4Call@QMetaObject@@HPEAPEAX@Z
?qt_metacall@QSwipeGesture@@UEAAHW4Call@QMetaObject@@HPEAPEAX@Z
?qt_metacall@QSyntaxHighlighter@@UEAAHW4Call@QMetaObject@@HPEAPEAX@Z
?qt_metacall@QSystemTrayIcon@@UEAAHW4Call@QMetaObject@@HPEAPEAX@Z
?qt_metacall@QTabBar@@UEAAHW4Call@QMetaObject@@HPEAPEAX@Z
?qt_metacall@QTabWidget@@UEAAHW4Call@QMetaObject@@HPEAPEAX@Z
?qt_metacall@QTableView@@UEAAHW4Call@QMetaObject@@HPEAPEAX@Z
?qt_metacall@QTableWidget@@UEAAHW4Call@QMetaObject@@HPEAPEAX@Z
?qt_metacall@QTapAndHoldGesture@@UEAAHW4Call@QMetaObject@@HPEAPEAX@Z
?qt_metacall@QTapGesture@@UEAAHW4Call@QMetaObject@@HPEAPEAX@Z
?qt_metacall@QTextBlockGroup@@UEAAHW4Call@QMetaObject@@HPEAPEAX@Z
?qt_metacall@QTextBrowser@@UEAAHW4Call@QMetaObject@@HPEAPEAX@Z
?qt_metacall@QTextControl@@UEAAHW4Call@QMetaObject@@HPEAPEAX@Z
?qt_metacall@QTextDocument@@UEAAHW4Call@QMetaObject@@HPEAPEAX@Z
?qt_metacall@QTextDocumentLayout@@UEAAHW4Call@QMetaObject@@HPEAPEAX@Z
?qt_metacall@QTextEdit@@UEAAHW4Call@QMetaObject@@HPEAPEAX@Z
?qt_metacall@QTextFrame@@UEAAHW4Call@QMetaObject@@HPEAPEAX@Z
?qt_metacall@QTextList@@UEAAHW4Call@QMetaObject@@HPEAPEAX@Z
?qt_metacall@QTextObject@@UEAAHW4Call@QMetaObject@@HPEAPEAX@Z
?qt_metacall@QTextTable@@UEAAHW4Call@QMetaObject@@HPEAPEAX@Z
?qt_metacall@QTimeEdit@@UEAAHW4Call@QMetaObject@@HPEAPEAX@Z
?qt_metacall@QToolBar@@UEAAHW4Call@QMetaObject@@HPEAPEAX@Z
?qt_metacall@QToolBarExtension@@UEAAHW4Call@QMetaObject@@HPEAPEAX@Z
?qt_metacall@QToolBox@@UEAAHW4Call@QMetaObject@@HPEAPEAX@Z
?qt_metacall@QToolButton@@UEAAHW4Call@QMetaObject@@HPEAPEAX@Z
?qt_metacall@QTreeView@@UEAAHW4Call@QMetaObject@@HPEAPEAX@Z
?qt_metacall@QTreeWidget@@UEAAHW4Call@QMetaObject@@HPEAPEAX@Z
?qt_metacall@QUndoGroup@@UEAAHW4Call@QMetaObject@@HPEAPEAX@Z
?qt_metacall@QUndoStack@@UEAAHW4Call@QMetaObject@@HPEAPEAX@Z
?qt_metacall@QUndoView@@UEAAHW4Call@QMetaObject@@HPEAPEAX@Z
?qt_metacall@QUrlModel@@UEAAHW4Call@QMetaObject@@HPEAPEAX@Z
?qt_metacall@QVBoxLayout@@UEAAHW4Call@QMetaObject@@HPEAPEAX@Z
?qt_metacall@QValidator@@UEAAHW4Call@QMetaObject@@HPEAPEAX@Z
?qt_metacall@QWidget@@UEAAHW4Call@QMetaObject@@HPEAPEAX@Z
?qt_metacall@QWidgetAction@@UEAAHW4Call@QMetaObject@@HPEAPEAX@Z
?qt_metacall@QWidgetResizeHandler@@UEAAHW4Call@QMetaObject@@HPEAPEAX@Z
?qt_metacall@QWindowsStyle@@UEAAHW4Call@QMetaObject@@HPEAPEAX@Z
?qt_metacall@QWindowsVistaStyle@@UEAAHW4Call@QMetaObject@@HPEAPEAX@Z
?qt_metacall@QWindowsXPStyle@@UEAAHW4Call@QMetaObject@@HPEAPEAX@Z
?qt_metacall@QWizard@@UEAAHW4Call@QMetaObject@@HPEAPEAX@Z
?qt_metacall@QWizardPage@@UEAAHW4Call@QMetaObject@@HPEAPEAX@Z
?qt_metacall@QWorkspace@@UEAAHW4Call@QMetaObject@@HPEAPEAX@Z
?qt_metacast@QAbstractButton@@UEAAPEAXPEBD@Z
?qt_metacast@QAbstractItemDelegate@@UEAAPEAXPEBD@Z
?qt_metacast@QAbstractItemView@@UEAAPEAXPEBD@Z
?qt_metacast@QAbstractPageSetupDialog@@UEAAPEAXPEBD@Z
?qt_metacast@QAbstractPrintDialog@@UEAAPEAXPEBD@Z
?qt_metacast@QAbstractProxyModel@@UEAAPEAXPEBD@Z
?qt_metacast@QAbstractScrollArea@@UEAAPEAXPEBD@Z
?qt_metacast@QAbstractSlider@@UEAAPEAXPEBD@Z
?qt_metacast@QAbstractSpinBox@@UEAAPEAXPEBD@Z
?qt_metacast@QAbstractTextDocumentLayout@@UEAAPEAXPEBD@Z
?qt_metacast@QAccessiblePlugin@@UEAAPEAXPEBD@Z
?qt_metacast@QAction@@UEAAPEAXPEBD@Z
?qt_metacast@QActionGroup@@UEAAPEAXPEBD@Z
?qt_metacast@QApplication@@UEAAPEAXPEBD@Z
?qt_metacast@QBalloonTip@@UEAAPEAXPEBD@Z
?qt_metacast@QBasicKeyEventTransition@@UEAAPEAXPEBD@Z
?qt_metacast@QBasicMouseEventTransition@@UEAAPEAXPEBD@Z
?qt_metacast@QBoxLayout@@UEAAPEAXPEBD@Z
?qt_metacast@QButtonGroup@@UEAAPEAXPEBD@Z
?qt_metacast@QCDEStyle@@UEAAPEAXPEBD@Z
?qt_metacast@QCalendarWidget@@UEAAPEAXPEBD@Z
?qt_metacast@QCheckBox@@UEAAPEAXPEBD@Z
?qt_metacast@QCleanlooksStyle@@UEAAPEAXPEBD@Z
?qt_metacast@QClipboard@@UEAAPEAXPEBD@Z
?qt_metacast@QColorDialog@@UEAAPEAXPEBD@Z
?qt_metacast@QColumnView@@UEAAPEAXPEBD@Z
?qt_metacast@QColumnViewGrip@@UEAAPEAXPEBD@Z
?qt_metacast@QComboBox@@UEAAPEAXPEBD@Z
?qt_metacast@QComboBoxPrivateContainer@@UEAAPEAXPEBD@Z
?qt_metacast@QComboBoxPrivateScroller@@UEAAPEAXPEBD@Z
?qt_metacast@QCommandLinkButton@@UEAAPEAXPEBD@Z
?qt_metacast@QCommonStyle@@UEAAPEAXPEBD@Z
?qt_metacast@QCompleter@@UEAAPEAXPEBD@Z
?qt_metacast@QDataWidgetMapper@@UEAAPEAXPEBD@Z
?qt_metacast@QDateEdit@@UEAAPEAXPEBD@Z
?qt_metacast@QDateTimeEdit@@UEAAPEAXPEBD@Z
?qt_metacast@QDesktopWidget@@UEAAPEAXPEBD@Z
?qt_metacast@QDial@@UEAAPEAXPEBD@Z
?qt_metacast@QDialog@@UEAAPEAXPEBD@Z
?qt_metacast@QDialogButtonBox@@UEAAPEAXPEBD@Z
?qt_metacast@QDirModel@@UEAAPEAXPEBD@Z
?qt_metacast@QDockWidget@@UEAAPEAXPEBD@Z
?qt_metacast@QDockWidgetLayout@@UEAAPEAXPEBD@Z
?qt_metacast@QDoubleSpinBox@@UEAAPEAXPEBD@Z
?qt_metacast@QDoubleValidator@@UEAAPEAXPEBD@Z
?qt_metacast@QDrag@@UEAAPEAXPEBD@Z
?qt_metacast@QErrorMessage@@UEAAPEAXPEBD@Z
?qt_metacast@QFileDialog@@UEAAPEAXPEBD@Z
?qt_metacast@QFileInfoGatherer@@UEAAPEAXPEBD@Z
?qt_metacast@QFileSystemModel@@UEAAPEAXPEBD@Z
?qt_metacast@QFocusFrame@@UEAAPEAXPEBD@Z
?qt_metacast@QFontComboBox@@UEAAPEAXPEBD@Z
?qt_metacast@QFontDialog@@UEAAPEAXPEBD@Z
?qt_metacast@QFormLayout@@UEAAPEAXPEBD@Z
?qt_metacast@QFrame@@UEAAPEAXPEBD@Z
?qt_metacast@QGesture@@UEAAPEAXPEBD@Z
?qt_metacast@QGraphicsAnchor@@UEAAPEAXPEBD@Z
?qt_metacast@QGraphicsBlurEffect@@UEAAPEAXPEBD@Z
?qt_metacast@QGraphicsColorizeEffect@@UEAAPEAXPEBD@Z
?qt_metacast@QGraphicsDropShadowEffect@@UEAAPEAXPEBD@Z
?qt_metacast@QGraphicsEffect@@UEAAPEAXPEBD@Z
?qt_metacast@QGraphicsEffectSource@@UEAAPEAXPEBD@Z
?qt_metacast@QGraphicsItemAnimation@@UEAAPEAXPEBD@Z
?qt_metacast@QGraphicsObject@@UEAAPEAXPEBD@Z
?qt_metacast@QGraphicsOpacityEffect@@UEAAPEAXPEBD@Z
?qt_metacast@QGraphicsProxyWidget@@UEAAPEAXPEBD@Z
?qt_metacast@QGraphicsRotation@@UEAAPEAXPEBD@Z
?qt_metacast@QGraphicsScale@@UEAAPEAXPEBD@Z
?qt_metacast@QGraphicsScene@@UEAAPEAXPEBD@Z
?qt_metacast@QGraphicsSceneBspTreeIndex@@UEAAPEAXPEBD@Z
?qt_metacast@QGraphicsSceneIndex@@UEAAPEAXPEBD@Z
?qt_metacast@QGraphicsSceneLinearIndex@@UEAAPEAXPEBD@Z
?qt_metacast@QGraphicsSystemPlugin@@UEAAPEAXPEBD@Z
?qt_metacast@QGraphicsTextItem@@UEAAPEAXPEBD@Z
?qt_metacast@QGraphicsTransform@@UEAAPEAXPEBD@Z
?qt_metacast@QGraphicsView@@UEAAPEAXPEBD@Z
?qt_metacast@QGraphicsWidget@@UEAAPEAXPEBD@Z
?qt_metacast@QGridLayout@@UEAAPEAXPEBD@Z
?qt_metacast@QGroupBox@@UEAAPEAXPEBD@Z
?qt_metacast@QGuiPlatformPlugin@@UEAAPEAXPEBD@Z
?qt_metacast@QHBoxLayout@@UEAAPEAXPEBD@Z
?qt_metacast@QHeaderView@@UEAAPEAXPEBD@Z
?qt_metacast@QIconEnginePlugin@@UEAAPEAXPEBD@Z
?qt_metacast@QIconEnginePluginV2@@UEAAPEAXPEBD@Z
?qt_metacast@QIdentityProxyModel@@UEAAPEAXPEBD@Z
?qt_metacast@QImageIOPlugin@@UEAAPEAXPEBD@Z
?qt_metacast@QInputContext@@UEAAPEAXPEBD@Z
?qt_metacast@QInputContextPlugin@@UEAAPEAXPEBD@Z
?qt_metacast@QInputDialog@@UEAAPEAXPEBD@Z
?qt_metacast@QIntValidator@@UEAAPEAXPEBD@Z
?qt_metacast@QInternalMimeData@@UEAAPEAXPEBD@Z
?qt_metacast@QItemDelegate@@UEAAPEAXPEBD@Z
?qt_metacast@QItemSelectionModel@@UEAAPEAXPEBD@Z
?qt_metacast@QKeyEventTransition@@UEAAPEAXPEBD@Z
?qt_metacast@QLCDNumber@@UEAAPEAXPEBD@Z
?qt_metacast@QLabel@@UEAAPEAXPEBD@Z
?qt_metacast@QLayout@@UEAAPEAXPEBD@Z
?qt_metacast@QLineControl@@UEAAPEAXPEBD@Z
?qt_metacast@QLineEdit@@UEAAPEAXPEBD@Z
?qt_metacast@QListModel@@UEAAPEAXPEBD@Z
?qt_metacast@QListView@@UEAAPEAXPEBD@Z
?qt_metacast@QListWidget@@UEAAPEAXPEBD@Z
?qt_metacast@QMainWindow@@UEAAPEAXPEBD@Z
?qt_metacast@QMainWindowLayout@@UEAAPEAXPEBD@Z
?qt_metacast@QMdiArea@@UEAAPEAXPEBD@Z
?qt_metacast@QMdiSubWindow@@UEAAPEAXPEBD@Z
?qt_metacast@QMenu@@UEAAPEAXPEBD@Z
?qt_metacast@QMenuBar@@UEAAPEAXPEBD@Z
?qt_metacast@QMessageBox@@UEAAPEAXPEBD@Z
?qt_metacast@QMotifStyle@@UEAAPEAXPEBD@Z
?qt_metacast@QMouseEventTransition@@UEAAPEAXPEBD@Z
?qt_metacast@QMovie@@UEAAPEAXPEBD@Z
?qt_metacast@QPageSetupDialog@@UEAAPEAXPEBD@Z
?qt_metacast@QPaintBufferResource@@UEAAPEAXPEBD@Z
?qt_metacast@QPaintBufferSignalProxy@@UEAAPEAXPEBD@Z
?qt_metacast@QPanGesture@@UEAAPEAXPEBD@Z
?qt_metacast@QPictureFormatPlugin@@UEAAPEAXPEBD@Z
?qt_metacast@QPinchGesture@@UEAAPEAXPEBD@Z
?qt_metacast@QPixmapBlurFilter@@UEAAPEAXPEBD@Z
?qt_metacast@QPixmapColorizeFilter@@UEAAPEAXPEBD@Z
?qt_metacast@QPixmapConvolutionFilter@@UEAAPEAXPEBD@Z
?qt_metacast@QPixmapDropShadowFilter@@UEAAPEAXPEBD@Z
?qt_metacast@QPixmapFilter@@UEAAPEAXPEBD@Z
?qt_metacast@QPlainTextDocumentLayout@@UEAAPEAXPEBD@Z
?qt_metacast@QPlainTextEdit@@UEAAPEAXPEBD@Z
?qt_metacast@QPlastiqueStyle@@UEAAPEAXPEBD@Z
?qt_metacast@QPrintDialog@@UEAAPEAXPEBD@Z
?qt_metacast@QPrintPreviewDialog@@UEAAPEAXPEBD@Z
?qt_metacast@QPrintPreviewWidget@@UEAAPEAXPEBD@Z
?qt_metacast@QProgressBar@@UEAAPEAXPEBD@Z
?qt_metacast@QProgressDialog@@UEAAPEAXPEBD@Z
?qt_metacast@QProxyModel@@UEAAPEAXPEBD@Z
?qt_metacast@QProxyStyle@@UEAAPEAXPEBD@Z
?qt_metacast@QPushButton@@UEAAPEAXPEBD@Z
?qt_metacast@QRadioButton@@UEAAPEAXPEBD@Z
?qt_metacast@QRegExpValidator@@UEAAPEAXPEBD@Z
?qt_metacast@QRubberBand@@UEAAPEAXPEBD@Z
?qt_metacast@QScrollArea@@UEAAPEAXPEBD@Z
?qt_metacast@QScrollBar@@UEAAPEAXPEBD@Z
?qt_metacast@QSessionManager@@UEAAPEAXPEBD@Z
?qt_metacast@QShortcut@@UEAAPEAXPEBD@Z
?qt_metacast@QSidebar@@UEAAPEAXPEBD@Z
?qt_metacast@QSizeGrip@@UEAAPEAXPEBD@Z
?qt_metacast@QSlider@@UEAAPEAXPEBD@Z
?qt_metacast@QSoftKeyManager@@UEAAPEAXPEBD@Z
?qt_metacast@QSortFilterProxyModel@@UEAAPEAXPEBD@Z
?qt_metacast@QSound@@UEAAPEAXPEBD@Z
?qt_metacast@QSpinBox@@UEAAPEAXPEBD@Z
?qt_metacast@QSplashScreen@@UEAAPEAXPEBD@Z
?qt_metacast@QSplitter@@UEAAPEAXPEBD@Z
?qt_metacast@QSplitterHandle@@UEAAPEAXPEBD@Z
?qt_metacast@QStackedLayout@@UEAAPEAXPEBD@Z
?qt_metacast@QStackedWidget@@UEAAPEAXPEBD@Z
?qt_metacast@QStandardItemModel@@UEAAPEAXPEBD@Z
?qt_metacast@QStatusBar@@UEAAPEAXPEBD@Z
?qt_metacast@QStringListModel@@UEAAPEAXPEBD@Z
?qt_metacast@QStyle@@UEAAPEAXPEBD@Z
?qt_metacast@QStylePlugin@@UEAAPEAXPEBD@Z
?qt_metacast@QStyleSheetStyle@@UEAAPEAXPEBD@Z
?qt_metacast@QStyledItemDelegate@@UEAAPEAXPEBD@Z
?qt_metacast@QSwipeGesture@@UEAAPEAXPEBD@Z
?qt_metacast@QSyntaxHighlighter@@UEAAPEAXPEBD@Z
?qt_metacast@QSystemTrayIcon@@UEAAPEAXPEBD@Z
?qt_metacast@QTabBar@@UEAAPEAXPEBD@Z
?qt_metacast@QTabWidget@@UEAAPEAXPEBD@Z
?qt_metacast@QTableView@@UEAAPEAXPEBD@Z
?qt_metacast@QTableWidget@@UEAAPEAXPEBD@Z
?qt_metacast@QTapAndHoldGesture@@UEAAPEAXPEBD@Z
?qt_metacast@QTapGesture@@UEAAPEAXPEBD@Z
?qt_metacast@QTextBlockGroup@@UEAAPEAXPEBD@Z
?qt_metacast@QTextBrowser@@UEAAPEAXPEBD@Z
?qt_metacast@QTextControl@@UEAAPEAXPEBD@Z
?qt_metacast@QTextDocument@@UEAAPEAXPEBD@Z
?qt_metacast@QTextDocumentLayout@@UEAAPEAXPEBD@Z
?qt_metacast@QTextEdit@@UEAAPEAXPEBD@Z
?qt_metacast@QTextFrame@@UEAAPEAXPEBD@Z
?qt_metacast@QTextList@@UEAAPEAXPEBD@Z
?qt_metacast@QTextObject@@UEAAPEAXPEBD@Z
?qt_metacast@QTextTable@@UEAAPEAXPEBD@Z
?qt_metacast@QTimeEdit@@UEAAPEAXPEBD@Z
?qt_metacast@QToolBar@@UEAAPEAXPEBD@Z
?qt_metacast@QToolBarExtension@@UEAAPEAXPEBD@Z
?qt_metacast@QToolBox@@UEAAPEAXPEBD@Z
?qt_metacast@QToolButton@@UEAAPEAXPEBD@Z
?qt_metacast@QTreeView@@UEAAPEAXPEBD@Z
?qt_metacast@QTreeWidget@@UEAAPEAXPEBD@Z
?qt_metacast@QUndoGroup@@UEAAPEAXPEBD@Z
?qt_metacast@QUndoStack@@UEAAPEAXPEBD@Z
?qt_metacast@QUndoView@@UEAAPEAXPEBD@Z
?qt_metacast@QUrlModel@@UEAAPEAXPEBD@Z
?qt_metacast@QVBoxLayout@@UEAAPEAXPEBD@Z
?qt_metacast@QValidator@@UEAAPEAXPEBD@Z
?qt_metacast@QWidget@@UEAAPEAXPEBD@Z
?qt_metacast@QWidgetAction@@UEAAPEAXPEBD@Z
?qt_metacast@QWidgetResizeHandler@@UEAAPEAXPEBD@Z
?qt_metacast@QWindowsStyle@@UEAAPEAXPEBD@Z
?qt_metacast@QWindowsVistaStyle@@UEAAPEAXPEBD@Z
?qt_metacast@QWindowsXPStyle@@UEAAPEAXPEBD@Z
?qt_metacast@QWizard@@UEAAPEAXPEBD@Z
?qt_metacast@QWizardPage@@UEAAPEAXPEBD@Z
?qt_metacast@QWorkspace@@UEAAPEAXPEBD@Z
?qt_paint_device_metric@@YAHPEBVQPaintDevice@@W4PaintDeviceMetric@1@@Z
?qt_painterPathFromVectorPath@@YA?AVQPainterPath@@AEBVQVectorPath@@@Z
?qt_pixmap_cleanup_hook@@3P6AXH@ZEA
?qt_pixmap_cleanup_hook_64@@3P6AX_J@ZEA
?qt_pixmap_id@@YA_JAEBVQPixmap@@@Z
?qt_qscrollbarStyleOption@@YA?AVQStyleOptionSlider@@PEAVQScrollBar@@@Z
?qt_qsliderStyleOption@@YA?AVQStyleOptionSlider@@PEAVQSlider@@@Z
?qt_qwidget_data@@YAPEAVQWidgetData@@PEAVQWidget@@@Z
?qt_regionToPath@@YA?AVQPainterPath@@AEBVQRegion@@@Z
?qt_scaleForTransform@@YA_NAEBVQTransform@@PEAN@Z
?qt_setQtEnableTestFont@@YAX_N@Z
?qt_set_sequence_auto_mnemonic@@YAX_N@Z
?qt_static_metacall@QAbstractButton@@CAXPEAVQObject@@W4Call@QMetaObject@@HPEAPEAX@Z
?qt_static_metacall@QAbstractItemDelegate@@CAXPEAVQObject@@W4Call@QMetaObject@@HPEAPEAX@Z
?qt_static_metacall@QAbstractItemView@@CAXPEAVQObject@@W4Call@QMetaObject@@HPEAPEAX@Z
?qt_static_metacall@QAbstractPageSetupDialog@@CAXPEAVQObject@@W4Call@QMetaObject@@HPEAPEAX@Z
?qt_static_metacall@QAbstractPrintDialog@@CAXPEAVQObject@@W4Call@QMetaObject@@HPEAPEAX@Z
?qt_static_metacall@QAbstractProxyModel@@CAXPEAVQObject@@W4Call@QMetaObject@@HPEAPEAX@Z
?qt_static_metacall@QAbstractScrollArea@@CAXPEAVQObject@@W4Call@QMetaObject@@HPEAPEAX@Z
?qt_static_metacall@QAbstractSlider@@CAXPEAVQObject@@W4Call@QMetaObject@@HPEAPEAX@Z
?qt_static_metacall@QAbstractSpinBox@@CAXPEAVQObject@@W4Call@QMetaObject@@HPEAPEAX@Z
?qt_static_metacall@QAbstractTextDocumentLayout@@CAXPEAVQObject@@W4Call@QMetaObject@@HPEAPEAX@Z
?qt_static_metacall@QAccessiblePlugin@@CAXPEAVQObject@@W4Call@QMetaObject@@HPEAPEAX@Z
?qt_static_metacall@QAction@@CAXPEAVQObject@@W4Call@QMetaObject@@HPEAPEAX@Z
?qt_static_metacall@QActionGroup@@CAXPEAVQObject@@W4Call@QMetaObject@@HPEAPEAX@Z
?qt_static_metacall@QApplication@@CAXPEAVQObject@@W4Call@QMetaObject@@HPEAPEAX@Z
?qt_static_metacall@QBalloonTip@@CAXPEAVQObject@@W4Call@QMetaObject@@HPEAPEAX@Z
?qt_static_metacall@QBasicKeyEventTransition@@CAXPEAVQObject@@W4Call@QMetaObject@@HPEAPEAX@Z
?qt_static_metacall@QBasicMouseEventTransition@@CAXPEAVQObject@@W4Call@QMetaObject@@HPEAPEAX@Z
?qt_static_metacall@QBoxLayout@@CAXPEAVQObject@@W4Call@QMetaObject@@HPEAPEAX@Z
?qt_static_metacall@QButtonGroup@@CAXPEAVQObject@@W4Call@QMetaObject@@HPEAPEAX@Z
?qt_static_metacall@QCDEStyle@@CAXPEAVQObject@@W4Call@QMetaObject@@HPEAPEAX@Z
?qt_static_metacall@QCalendarWidget@@CAXPEAVQObject@@W4Call@QMetaObject@@HPEAPEAX@Z
?qt_static_metacall@QCheckBox@@CAXPEAVQObject@@W4Call@QMetaObject@@HPEAPEAX@Z
?qt_static_metacall@QCleanlooksStyle@@CAXPEAVQObject@@W4Call@QMetaObject@@HPEAPEAX@Z
?qt_static_metacall@QClipboard@@CAXPEAVQObject@@W4Call@QMetaObject@@HPEAPEAX@Z
?qt_static_metacall@QColorDialog@@CAXPEAVQObject@@W4Call@QMetaObject@@HPEAPEAX@Z
?qt_static_metacall@QColumnView@@CAXPEAVQObject@@W4Call@QMetaObject@@HPEAPEAX@Z
?qt_static_metacall@QColumnViewGrip@@CAXPEAVQObject@@W4Call@QMetaObject@@HPEAPEAX@Z
?qt_static_metacall@QComboBox@@CAXPEAVQObject@@W4Call@QMetaObject@@HPEAPEAX@Z
?qt_static_metacall@QComboBoxPrivateContainer@@CAXPEAVQObject@@W4Call@QMetaObject@@HPEAPEAX@Z
?qt_static_metacall@QComboBoxPrivateScroller@@CAXPEAVQObject@@W4Call@QMetaObject@@HPEAPEAX@Z
?qt_static_metacall@QCommandLinkButton@@CAXPEAVQObject@@W4Call@QMetaObject@@HPEAPEAX@Z
?qt_static_metacall@QCommonStyle@@CAXPEAVQObject@@W4Call@QMetaObject@@HPEAPEAX@Z
?qt_static_metacall@QCompleter@@CAXPEAVQObject@@W4Call@QMetaObject@@HPEAPEAX@Z
?qt_static_metacall@QDataWidgetMapper@@CAXPEAVQObject@@W4Call@QMetaObject@@HPEAPEAX@Z
?qt_static_metacall@QDateEdit@@CAXPEAVQObject@@W4Call@QMetaObject@@HPEAPEAX@Z
?qt_static_metacall@QDateTimeEdit@@CAXPEAVQObject@@W4Call@QMetaObject@@HPEAPEAX@Z
?qt_static_metacall@QDesktopWidget@@CAXPEAVQObject@@W4Call@QMetaObject@@HPEAPEAX@Z
?qt_static_metacall@QDial@@CAXPEAVQObject@@W4Call@QMetaObject@@HPEAPEAX@Z
?qt_static_metacall@QDialog@@CAXPEAVQObject@@W4Call@QMetaObject@@HPEAPEAX@Z
?qt_static_metacall@QDialogButtonBox@@CAXPEAVQObject@@W4Call@QMetaObject@@HPEAPEAX@Z
?qt_static_metacall@QDirModel@@CAXPEAVQObject@@W4Call@QMetaObject@@HPEAPEAX@Z
?qt_static_metacall@QDockWidget@@CAXPEAVQObject@@W4Call@QMetaObject@@HPEAPEAX@Z
?qt_static_metacall@QDockWidgetLayout@@CAXPEAVQObject@@W4Call@QMetaObject@@HPEAPEAX@Z
?qt_static_metacall@QDoubleSpinBox@@CAXPEAVQObject@@W4Call@QMetaObject@@HPEAPEAX@Z
?qt_static_metacall@QDoubleValidator@@CAXPEAVQObject@@W4Call@QMetaObject@@HPEAPEAX@Z
?qt_static_metacall@QDrag@@CAXPEAVQObject@@W4Call@QMetaObject@@HPEAPEAX@Z
?qt_static_metacall@QErrorMessage@@CAXPEAVQObject@@W4Call@QMetaObject@@HPEAPEAX@Z
?qt_static_metacall@QFileDialog@@CAXPEAVQObject@@W4Call@QMetaObject@@HPEAPEAX@Z
?qt_static_metacall@QFileInfoGatherer@@CAXPEAVQObject@@W4Call@QMetaObject@@HPEAPEAX@Z
?qt_static_metacall@QFileSystemModel@@CAXPEAVQObject@@W4Call@QMetaObject@@HPEAPEAX@Z
?qt_static_metacall@QFocusFrame@@CAXPEAVQObject@@W4Call@QMetaObject@@HPEAPEAX@Z
?qt_static_metacall@QFontComboBox@@CAXPEAVQObject@@W4Call@QMetaObject@@HPEAPEAX@Z
?qt_static_metacall@QFontDialog@@CAXPEAVQObject@@W4Call@QMetaObject@@HPEAPEAX@Z
?qt_static_metacall@QFormLayout@@CAXPEAVQObject@@W4Call@QMetaObject@@HPEAPEAX@Z
?qt_static_metacall@QFrame@@CAXPEAVQObject@@W4Call@QMetaObject@@HPEAPEAX@Z
?qt_static_metacall@QGesture@@CAXPEAVQObject@@W4Call@QMetaObject@@HPEAPEAX@Z
?qt_static_metacall@QGraphicsAnchor@@CAXPEAVQObject@@W4Call@QMetaObject@@HPEAPEAX@Z
?qt_static_metacall@QGraphicsBlurEffect@@CAXPEAVQObject@@W4Call@QMetaObject@@HPEAPEAX@Z
?qt_static_metacall@QGraphicsColorizeEffect@@CAXPEAVQObject@@W4Call@QMetaObject@@HPEAPEAX@Z
?qt_static_metacall@QGraphicsDropShadowEffect@@CAXPEAVQObject@@W4Call@QMetaObject@@HPEAPEAX@Z
?qt_static_metacall@QGraphicsEffect@@CAXPEAVQObject@@W4Call@QMetaObject@@HPEAPEAX@Z
?qt_static_metacall@QGraphicsEffectSource@@CAXPEAVQObject@@W4Call@QMetaObject@@HPEAPEAX@Z
?qt_static_metacall@QGraphicsItemAnimation@@CAXPEAVQObject@@W4Call@QMetaObject@@HPEAPEAX@Z
?qt_static_metacall@QGraphicsObject@@CAXPEAVQObject@@W4Call@QMetaObject@@HPEAPEAX@Z
?qt_static_metacall@QGraphicsOpacityEffect@@CAXPEAVQObject@@W4Call@QMetaObject@@HPEAPEAX@Z
?qt_static_metacall@QGraphicsProxyWidget@@CAXPEAVQObject@@W4Call@QMetaObject@@HPEAPEAX@Z
?qt_static_metacall@QGraphicsRotation@@CAXPEAVQObject@@W4Call@QMetaObject@@HPEAPEAX@Z
?qt_static_metacall@QGraphicsScale@@CAXPEAVQObject@@W4Call@QMetaObject@@HPEAPEAX@Z
?qt_static_metacall@QGraphicsScene@@CAXPEAVQObject@@W4Call@QMetaObject@@HPEAPEAX@Z
?qt_static_metacall@QGraphicsSceneBspTreeIndex@@CAXPEAVQObject@@W4Call@QMetaObject@@HPEAPEAX@Z
?qt_static_metacall@QGraphicsSceneIndex@@CAXPEAVQObject@@W4Call@QMetaObject@@HPEAPEAX@Z
?qt_static_metacall@QGraphicsSceneLinearIndex@@CAXPEAVQObject@@W4Call@QMetaObject@@HPEAPEAX@Z
?qt_static_metacall@QGraphicsSystemPlugin@@CAXPEAVQObject@@W4Call@QMetaObject@@HPEAPEAX@Z
?qt_static_metacall@QGraphicsTextItem@@CAXPEAVQObject@@W4Call@QMetaObject@@HPEAPEAX@Z
?qt_static_metacall@QGraphicsTransform@@CAXPEAVQObject@@W4Call@QMetaObject@@HPEAPEAX@Z
?qt_static_metacall@QGraphicsView@@CAXPEAVQObject@@W4Call@QMetaObject@@HPEAPEAX@Z
?qt_static_metacall@QGraphicsWidget@@CAXPEAVQObject@@W4Call@QMetaObject@@HPEAPEAX@Z
?qt_static_metacall@QGridLayout@@CAXPEAVQObject@@W4Call@QMetaObject@@HPEAPEAX@Z
?qt_static_metacall@QGroupBox@@CAXPEAVQObject@@W4Call@QMetaObject@@HPEAPEAX@Z
?qt_static_metacall@QGuiPlatformPlugin@@CAXPEAVQObject@@W4Call@QMetaObject@@HPEAPEAX@Z
?qt_static_metacall@QHBoxLayout@@CAXPEAVQObject@@W4Call@QMetaObject@@HPEAPEAX@Z
?qt_static_metacall@QHeaderView@@CAXPEAVQObject@@W4Call@QMetaObject@@HPEAPEAX@Z
?qt_static_metacall@QIconEnginePlugin@@CAXPEAVQObject@@W4Call@QMetaObject@@HPEAPEAX@Z
?qt_static_metacall@QIconEnginePluginV2@@CAXPEAVQObject@@W4Call@QMetaObject@@HPEAPEAX@Z
?qt_static_metacall@QIdentityProxyModel@@CAXPEAVQObject@@W4Call@QMetaObject@@HPEAPEAX@Z
?qt_static_metacall@QImageIOPlugin@@CAXPEAVQObject@@W4Call@QMetaObject@@HPEAPEAX@Z
?qt_static_metacall@QInputContext@@CAXPEAVQObject@@W4Call@QMetaObject@@HPEAPEAX@Z
?qt_static_metacall@QInputContextPlugin@@CAXPEAVQObject@@W4Call@QMetaObject@@HPEAPEAX@Z
?qt_static_metacall@QInputDialog@@CAXPEAVQObject@@W4Call@QMetaObject@@HPEAPEAX@Z
?qt_static_metacall@QIntValidator@@CAXPEAVQObject@@W4Call@QMetaObject@@HPEAPEAX@Z
?qt_static_metacall@QInternalMimeData@@CAXPEAVQObject@@W4Call@QMetaObject@@HPEAPEAX@Z
?qt_static_metacall@QItemDelegate@@CAXPEAVQObject@@W4Call@QMetaObject@@HPEAPEAX@Z
?qt_static_metacall@QItemSelectionModel@@CAXPEAVQObject@@W4Call@QMetaObject@@HPEAPEAX@Z
?qt_static_metacall@QKeyEventTransition@@CAXPEAVQObject@@W4Call@QMetaObject@@HPEAPEAX@Z
?qt_static_metacall@QLCDNumber@@CAXPEAVQObject@@W4Call@QMetaObject@@HPEAPEAX@Z
?qt_static_metacall@QLabel@@CAXPEAVQObject@@W4Call@QMetaObject@@HPEAPEAX@Z
?qt_static_metacall@QLayout@@CAXPEAVQObject@@W4Call@QMetaObject@@HPEAPEAX@Z
?qt_static_metacall@QLineControl@@CAXPEAVQObject@@W4Call@QMetaObject@@HPEAPEAX@Z
?qt_static_metacall@QLineEdit@@CAXPEAVQObject@@W4Call@QMetaObject@@HPEAPEAX@Z
?qt_static_metacall@QListModel@@CAXPEAVQObject@@W4Call@QMetaObject@@HPEAPEAX@Z
?qt_static_metacall@QListView@@CAXPEAVQObject@@W4Call@QMetaObject@@HPEAPEAX@Z
?qt_static_metacall@QListWidget@@CAXPEAVQObject@@W4Call@QMetaObject@@HPEAPEAX@Z
?qt_static_metacall@QMainWindow@@CAXPEAVQObject@@W4Call@QMetaObject@@HPEAPEAX@Z
?qt_static_metacall@QMainWindowLayout@@CAXPEAVQObject@@W4Call@QMetaObject@@HPEAPEAX@Z
?qt_static_metacall@QMdiArea@@CAXPEAVQObject@@W4Call@QMetaObject@@HPEAPEAX@Z
?qt_static_metacall@QMdiSubWindow@@CAXPEAVQObject@@W4Call@QMetaObject@@HPEAPEAX@Z
?qt_static_metacall@QMenu@@CAXPEAVQObject@@W4Call@QMetaObject@@HPEAPEAX@Z
?qt_static_metacall@QMenuBar@@CAXPEAVQObject@@W4Call@QMetaObject@@HPEAPEAX@Z
?qt_static_metacall@QMessageBox@@CAXPEAVQObject@@W4Call@QMetaObject@@HPEAPEAX@Z
?qt_static_metacall@QMotifStyle@@CAXPEAVQObject@@W4Call@QMetaObject@@HPEAPEAX@Z
?qt_static_metacall@QMouseEventTransition@@CAXPEAVQObject@@W4Call@QMetaObject@@HPEAPEAX@Z
?qt_static_metacall@QMovie@@CAXPEAVQObject@@W4Call@QMetaObject@@HPEAPEAX@Z
?qt_static_metacall@QPageSetupDialog@@CAXPEAVQObject@@W4Call@QMetaObject@@HPEAPEAX@Z
?qt_static_metacall@QPaintBufferResource@@CAXPEAVQObject@@W4Call@QMetaObject@@HPEAPEAX@Z
?qt_static_metacall@QPaintBufferSignalProxy@@CAXPEAVQObject@@W4Call@QMetaObject@@HPEAPEAX@Z
?qt_static_metacall@QPanGesture@@CAXPEAVQObject@@W4Call@QMetaObject@@HPEAPEAX@Z
?qt_static_metacall@QPictureFormatPlugin@@CAXPEAVQObject@@W4Call@QMetaObject@@HPEAPEAX@Z
?qt_static_metacall@QPinchGesture@@CAXPEAVQObject@@W4Call@QMetaObject@@HPEAPEAX@Z
?qt_static_metacall@QPixmapBlurFilter@@CAXPEAVQObject@@W4Call@QMetaObject@@HPEAPEAX@Z
?qt_static_metacall@QPixmapColorizeFilter@@CAXPEAVQObject@@W4Call@QMetaObject@@HPEAPEAX@Z
?qt_static_metacall@QPixmapConvolutionFilter@@CAXPEAVQObject@@W4Call@QMetaObject@@HPEAPEAX@Z
?qt_static_metacall@QPixmapDropShadowFilter@@CAXPEAVQObject@@W4Call@QMetaObject@@HPEAPEAX@Z
?qt_static_metacall@QPixmapFilter@@CAXPEAVQObject@@W4Call@QMetaObject@@HPEAPEAX@Z
?qt_static_metacall@QPlainTextDocumentLayout@@CAXPEAVQObject@@W4Call@QMetaObject@@HPEAPEAX@Z
?qt_static_metacall@QPlainTextEdit@@CAXPEAVQObject@@W4Call@QMetaObject@@HPEAPEAX@Z
?qt_static_metacall@QPlastiqueStyle@@CAXPEAVQObject@@W4Call@QMetaObject@@HPEAPEAX@Z
?qt_static_metacall@QPrintDialog@@CAXPEAVQObject@@W4Call@QMetaObject@@HPEAPEAX@Z
?qt_static_metacall@QPrintPreviewDialog@@CAXPEAVQObject@@W4Call@QMetaObject@@HPEAPEAX@Z
?qt_static_metacall@QPrintPreviewWidget@@CAXPEAVQObject@@W4Call@QMetaObject@@HPEAPEAX@Z
?qt_static_metacall@QProgressBar@@CAXPEAVQObject@@W4Call@QMetaObject@@HPEAPEAX@Z
?qt_static_metacall@QProgressDialog@@CAXPEAVQObject@@W4Call@QMetaObject@@HPEAPEAX@Z
?qt_static_metacall@QProxyModel@@CAXPEAVQObject@@W4Call@QMetaObject@@HPEAPEAX@Z
?qt_static_metacall@QProxyStyle@@CAXPEAVQObject@@W4Call@QMetaObject@@HPEAPEAX@Z
?qt_static_metacall@QPushButton@@CAXPEAVQObject@@W4Call@QMetaObject@@HPEAPEAX@Z
?qt_static_metacall@QRadioButton@@CAXPEAVQObject@@W4Call@QMetaObject@@HPEAPEAX@Z
?qt_static_metacall@QRegExpValidator@@CAXPEAVQObject@@W4Call@QMetaObject@@HPEAPEAX@Z
?qt_static_metacall@QRubberBand@@CAXPEAVQObject@@W4Call@QMetaObject@@HPEAPEAX@Z
?qt_static_metacall@QScrollArea@@CAXPEAVQObject@@W4Call@QMetaObject@@HPEAPEAX@Z
?qt_static_metacall@QScrollBar@@CAXPEAVQObject@@W4Call@QMetaObject@@HPEAPEAX@Z
?qt_static_metacall@QSessionManager@@CAXPEAVQObject@@W4Call@QMetaObject@@HPEAPEAX@Z
?qt_static_metacall@QShortcut@@CAXPEAVQObject@@W4Call@QMetaObject@@HPEAPEAX@Z
?qt_static_metacall@QSidebar@@CAXPEAVQObject@@W4Call@QMetaObject@@HPEAPEAX@Z
?qt_static_metacall@QSizeGrip@@CAXPEAVQObject@@W4Call@QMetaObject@@HPEAPEAX@Z
?qt_static_metacall@QSlider@@CAXPEAVQObject@@W4Call@QMetaObject@@HPEAPEAX@Z
?qt_static_metacall@QSoftKeyManager@@CAXPEAVQObject@@W4Call@QMetaObject@@HPEAPEAX@Z
?qt_static_metacall@QSortFilterProxyModel@@CAXPEAVQObject@@W4Call@QMetaObject@@HPEAPEAX@Z
?qt_static_metacall@QSound@@CAXPEAVQObject@@W4Call@QMetaObject@@HPEAPEAX@Z
